

Microchip MPLAB XC8 Assembler V2.45 build 20230818022343 
                                                                                               Wed Mar 13 12:42:36 2024

Microchip MPLAB XC8 C Compiler v2.45 (Free license) build 20230818022343 Og1 
     1                           	processor	18F4620
     2                           	fnconf	rparam,??,?,0
     3                           	pagewidth 120
     4                           	opt	flic
     5                           	psect	idataCOMRAM,global,class=CODE,delta=1,noexec
     6                           	psect	idataBANK0,global,class=CODE,delta=1,noexec
     7                           	psect	idataBANK1,global,class=CODE,delta=1,noexec
     8                           	psect	mediumconst,global,reloc=2,class=MEDIUMCONST,delta=1,noexec
     9                           	psect	cinit,global,reloc=2,class=CODE,delta=1
    10                           	psect	bssCOMRAM,global,class=COMRAM,space=1,delta=1,lowdata,noexec
    11                           	psect	dataCOMRAM,global,class=COMRAM,space=1,delta=1,lowdata,noexec
    12                           	psect	bssBANK0,global,class=BANK0,space=1,delta=1,lowdata,noexec
    13                           	psect	dataBANK0,global,class=BANK0,space=1,delta=1,lowdata,noexec
    14                           	psect	bssBANK1,global,class=BANK1,space=1,delta=1,lowdata,noexec
    15                           	psect	dataBANK1,global,class=BANK1,space=1,delta=1,lowdata,noexec
    16                           	psect	cstackBANK1,global,class=BANK1,space=1,delta=1,lowdata,noexec
    17                           	psect	cstackBANK0,global,class=BANK0,space=1,delta=1,lowdata,noexec
    18                           	psect	cstackCOMRAM,global,class=COMRAM,space=1,delta=1,lowdata,noexec
    19                           	psect	text0,global,reloc=2,class=CODE,delta=1
    20                           	psect	text1,global,reloc=2,class=CODE,delta=1
    21                           	psect	text2,global,reloc=2,class=CODE,delta=1
    22                           	psect	text3,global,reloc=2,class=CODE,delta=1
    23                           	psect	text4,global,reloc=2,class=CODE,delta=1
    24                           	psect	text5,global,reloc=2,class=CODE,delta=1,group=3
    25                           	psect	text6,global,reloc=2,class=CODE,delta=1,group=1
    26                           	psect	text7,global,reloc=2,class=CODE,delta=1,group=1
    27                           	psect	text8,global,reloc=2,class=CODE,delta=1,group=3
    28                           	psect	text9,global,reloc=2,class=CODE,delta=1,group=3
    29                           	psect	text10,global,reloc=2,class=CODE,delta=1,group=3
    30                           	psect	text11,global,reloc=2,class=CODE,delta=1,group=2
    31                           	psect	text12,global,reloc=2,class=CODE,delta=1,group=2
    32                           	psect	text13,global,reloc=2,class=CODE,delta=1,group=3
    33                           	psect	text14,global,reloc=2,class=CODE,delta=1
    34                           	psect	text15,global,reloc=2,class=CODE,delta=1
    35                           	psect	text16,global,reloc=2,class=CODE,delta=1
    36                           	psect	text17,global,reloc=2,class=CODE,delta=1
    37                           	psect	text18,global,reloc=2,class=CODE,delta=1
    38                           	psect	text19,global,reloc=2,class=CODE,delta=1
    39                           	psect	text20,global,reloc=2,class=CODE,delta=1
    40                           	psect	text21,global,reloc=2,class=CODE,delta=1
    41                           	psect	text22,global,reloc=2,class=CODE,delta=1
    42                           	psect	text23,global,reloc=2,class=CODE,delta=1
    43                           	psect	text24,global,reloc=2,class=CODE,delta=1
    44                           	psect	text25,global,reloc=2,class=CODE,delta=1
    45                           	psect	text26,global,reloc=2,class=CODE,delta=1
    46                           	psect	text27,global,reloc=2,class=CODE,delta=1
    47                           	psect	text28,global,reloc=2,class=CODE,delta=1
    48                           	psect	text29,global,reloc=2,class=CODE,delta=1
    49                           	psect	text30,global,reloc=2,class=CODE,delta=1
    50                           	psect	text31,global,reloc=2,class=CODE,delta=1
    51                           	psect	text32,global,reloc=2,class=CODE,delta=1
    52                           	psect	text33,global,reloc=2,class=CODE,delta=1
    53                           	psect	text34,global,reloc=2,class=CODE,delta=1
    54                           	psect	text35,global,reloc=2,class=CODE,delta=1
    55                           	psect	text36,global,reloc=2,class=CODE,delta=1
    56                           	psect	text37,global,reloc=2,class=CODE,delta=1
    57                           	psect	text38,global,reloc=2,class=CODE,delta=1
    58                           	psect	text39,global,reloc=2,class=CODE,delta=1
    59                           	psect	text40,global,reloc=2,class=CODE,delta=1
    60                           	psect	text41,global,reloc=2,class=CODE,delta=1
    61                           	psect	text42,global,reloc=2,class=CODE,delta=1
    62                           	psect	text43,global,reloc=2,class=CODE,delta=1
    63                           	psect	text44,global,reloc=2,class=CODE,delta=1
    64                           	psect	text45,global,reloc=2,class=CODE,delta=1
    65                           	psect	text46,global,reloc=2,class=CODE,delta=1
    66                           	psect	text47,global,reloc=2,class=CODE,delta=1
    67                           	psect	text48,global,reloc=2,class=CODE,delta=1
    68                           	psect	text49,global,reloc=2,class=CODE,delta=1
    69                           	psect	text50,global,reloc=2,class=CODE,delta=1
    70                           	psect	text51,global,reloc=2,class=CODE,delta=1
    71                           	psect	text52,global,reloc=2,class=CODE,delta=1
    72                           	psect	text53,global,reloc=2,class=CODE,delta=1
    73                           	psect	intcode,global,reloc=2,class=CODE,delta=1
    74                           	psect	intcode_body,global,reloc=2,class=CODE,delta=1
    75                           	psect	text55,global,reloc=2,class=CODE,delta=1
    76                           	psect	text56,global,reloc=2,class=CODE,delta=1
    77                           	psect	text57,global,reloc=2,class=CODE,delta=1
    78                           	psect	text58,global,reloc=2,class=CODE,delta=1
    79                           	psect	text59,global,reloc=2,class=CODE,delta=1
    80                           	psect	text60,global,reloc=2,class=CODE,delta=1
    81                           	psect	text61,global,reloc=2,class=CODE,delta=1
    82                           	psect	text62,global,reloc=2,class=CODE,delta=1
    83                           	psect	text63,global,reloc=2,class=CODE,delta=1
    84                           	psect	text64,global,reloc=2,class=CODE,delta=1
    85                           	psect	text65,global,reloc=2,class=CODE,delta=1
    86                           	psect	text66,global,reloc=2,class=CODE,delta=1
    87                           	psect	text67,global,reloc=2,class=CODE,delta=1
    88                           	psect	text68,global,reloc=2,class=CODE,delta=1
    89                           	psect	text69,global,reloc=2,class=CODE,delta=1
    90                           	psect	text70,global,reloc=2,class=CODE,delta=1
    91                           	psect	intsave_regs,global,class=BIGRAM,space=1,delta=1,noexec
    92                           	psect	text71,global,reloc=2,class=CODE,delta=1
    93                           	psect	rparam,global,class=COMRAM,space=1,delta=1,noexec
    94                           	psect	temp,global,ovrld,common,class=COMRAM,space=1,delta=1
    95                           	psect	config,global,abs,ovrld,class=CONFIG,space=4,delta=1,noexec
    96   000000                     
    97                           ; Generated 23/03/2023 GMT
    98                           ; 
    99                           ; Copyright © 2023, Microchip Technology Inc. and its subsidiaries ("Microchip")
   100                           ; All rights reserved.
   101                           ; 
   102                           ; This software is developed by Microchip Technology Inc. and its subsidiaries ("Microch
      +                          ip").
   103                           ; 
   104                           ; Redistribution and use in source and binary forms, with or without modification, are
   105                           ; permitted provided that the following conditions are met:
   106                           ; 
   107                           ;     1. Redistributions of source code must retain the above copyright notice, this lis
      +                          t of
   108                           ;        conditions and the following disclaimer.
   109                           ; 
   110                           ;     2. Redistributions in binary form must reproduce the above copyright notice, this 
      +                          list
   111                           ;        of conditions and the following disclaimer in the documentation and/or other
   112                           ;        materials provided with the distribution. Publication is not required when
   113                           ;        this file is used in an embedded application.
   114                           ; 
   115                           ;     3. Microchip's name may not be used to endorse or promote products derived from th
      +                          is
   116                           ;        software without specific prior written permission.
   117                           ; 
   118                           ; THIS SOFTWARE IS PROVIDED BY MICROCHIP "AS IS" AND ANY EXPRESS OR IMPLIED WARRANTIES,
   119                           ; INCLUDING, BUT NOT LIMITED TO, THE IMPLIED WARRANTIES OF MERCHANTABILITY AND FITNESS F
      +                          OR
   120                           ; PURPOSE ARE DISCLAIMED.  IN NO EVENT SHALL MICROCHIP BE LIABLE FOR ANY DIRECT, INDIREC
      +                          T,
   121                           ; INCIDENTAL, SPECIAL, EXEMPLARY, OR CONSEQUENTIAL DAMAGES (INCLUDING BUT NOT LIMITED TO
   122                           ; PROCUREMENT OF SUBSTITUTE GOODS OR SERVICES; LOSS OF USE, DATA OR PROFITS; OR BUSINESS
   123                           ; INTERRUPTION) HOWSOEVER CAUSED AND ON ANY THEORY OF LIABILITY, WHETHER IN CONTRACT, ST
      +                          RICT
   124                           ; LIABILITY, OR TORT (INCLUDING NEGLIGENCE OR OTHERWISE) ARISING IN ANY WAY OUT OF THE U
      +                          SE OF
   125                           ; THIS SOFTWARE, EVEN IF ADVISED OF THE POSSIBILITY OF SUCH DAMAGE.
   126                           ; 
   127                           ; 
   128                           ; Code-generator required, PIC18F4620 Definitions
   129                           ; 
   130                           ; SFR Addresses
   131   000000                     
   132                           	psect	idataCOMRAM
   133   003736                     __pidataCOMRAM:
   134                           	callstack 0
   135                           
   136                           ;initializer for _RB7_flag
   137   003736  01                 	db	1
   138                           
   139                           ;initializer for _RB6_flag
   140   003737  01                 	db	1
   141                           
   142                           ;initializer for _RB5_flag
   143   003738  01                 	db	1
   144                           
   145                           ;initializer for _RB4_flag
   146   003739  01                 	db	1
   147                           
   148                           ;initializer for _lcd1
   149   00373A  02                 	db	2
   150   00373B  0A                 	db	10
   151   00373C  12                 	db	18
   152   00373D  1A                 	db	26
   153   00373E  22                 	db	34
   154   00373F  2A                 	db	42
   155                           
   156                           ;initializer for _motor1
   157   003740  08                 	db	8
   158   003741  10                 	db	16
   159                           
   160                           ;initializer for _buzzer
   161   003742  18                 	db	24
   162                           
   163                           ;initializer for _green_led
   164   003743  72                 	db	114
   165                           
   166                           ;initializer for _red_led
   167   003744  62                 	db	98
   168                           
   169                           	psect	idataBANK0
   170   003628                     __pidataBANK0:
   171                           	callstack 0
   172                           
   173                           ;initializer for _lat_registers
   174   003628  89                 	db	137
   175   003629  0F                 	db	15
   176   00362A  8A                 	db	138
   177   00362B  0F                 	db	15
   178   00362C  8B                 	db	139
   179   00362D  0F                 	db	15
   180   00362E  8C                 	db	140
   181   00362F  0F                 	db	15
   182   003630  8D                 	db	141
   183   003631  0F                 	db	15
   184                           
   185                           ;initializer for _tris_registers
   186   003632  92                 	db	146
   187   003633  0F                 	db	15
   188   003634  93                 	db	147
   189   003635  0F                 	db	15
   190   003636  94                 	db	148
   191   003637  0F                 	db	15
   192   003638  95                 	db	149
   193   003639  0F                 	db	15
   194   00363A  96                 	db	150
   195   00363B  0F                 	db	15
   196                           
   197                           ;initializer for _btn1
   198   00363C  40                 	db	64
   199   00363D  01                 	db	1
   200   00363E  00                 	db	0
   201                           
   202                           ;initializer for _keypad
   203   00363F  03                 	db	3
   204   003640  0B                 	db	11
   205   003641  13                 	db	19
   206   003642  1B                 	db	27
   207   003643  63                 	db	99
   208   003644  6B                 	db	107
   209   003645  73                 	db	115
   210   003646  7B                 	db	123
   211                           
   212                           ;initializer for _INT_obj
   213   003647  70                 	db	low _INT0_app_ISR
   214   003648  1B                 	db	high _INT0_app_ISR
   215   003649  41                 	db	65
   216   00364A  01                 	db	1
   217   00364B  00                 	db	0
   218   00364C  01                 	db	1
   219                           
   220                           	psect	idataBANK1
   221   0036B4                     __pidataBANK1:
   222                           	callstack 0
   223                           
   224                           ;initializer for _keypad_values
   225   0036B4  37                 	db	55
   226   0036B5  38                 	db	56
   227   0036B6  39                 	db	57
   228   0036B7  2F                 	db	47
   229   0036B8  34                 	db	52
   230   0036B9  35                 	db	53
   231   0036BA  36                 	db	54
   232   0036BB  2A                 	db	42
   233   0036BC  31                 	db	49
   234   0036BD  32                 	db	50
   235   0036BE  33                 	db	51
   236   0036BF  2D                 	db	45
   237   0036C0  23                 	db	35
   238   0036C1  30                 	db	48
   239   0036C2  3D                 	db	61
   240   0036C3  2B                 	db	43
   241                           
   242                           ;initializer for _port_registers
   243   0036C4  80                 	db	128
   244   0036C5  0F                 	db	15
   245   0036C6  81                 	db	129
   246   0036C7  0F                 	db	15
   247   0036C8  82                 	db	130
   248   0036C9  0F                 	db	15
   249   0036CA  83                 	db	131
   250   0036CB  0F                 	db	15
   251   0036CC  84                 	db	132
   252   0036CD  0F                 	db	15
   253   000000                     _INTCON2bits	set	4081
   254   000000                     _EECON2	set	4007
   255   000000                     _PORTBbits	set	3969
   256   000000                     _EECON1bits	set	4006
   257   000000                     _EEDATA	set	4008
   258   000000                     _EEADR	set	4009
   259   000000                     _EEADRH	set	4010
   260   000000                     _INTCONbits	set	4082
   261   000000                     _PORTE	set	3972
   262   000000                     _PORTD	set	3971
   263   000000                     _PORTC	set	3970
   264   000000                     _PORTB	set	3969
   265   000000                     _PORTA	set	3968
   266   000000                     _LATA	set	3977
   267   000000                     _TRISA	set	3986
   268   000000                     _INTCON3bits	set	4080
   269   000000                     _TRISE	set	3990
   270   000000                     _TRISD	set	3989
   271   000000                     _TRISC	set	3988
   272   000000                     _TRISB	set	3987
   273   000000                     _LATE	set	3981
   274   000000                     _LATD	set	3980
   275   000000                     _LATC	set	3979
   276   000000                     _LATB	set	3978
   277                           
   278                           	psect	mediumconst
   279   00FEE8                     __pmediumconst:
   280                           	callstack 0
   281   00FEE8  00                 	db	0
   282   00FEE9                     STR_28:
   283   00FEE9  63                 	db	99	;'c'
   284   00FEEA  6F                 	db	111	;'o'
   285   00FEEB  6E                 	db	110	;'n'
   286   00FEEC  66                 	db	102	;'f'
   287   00FEED  69                 	db	105	;'i'
   288   00FEEE  72                 	db	114	;'r'
   289   00FEEF  6D                 	db	109	;'m'
   290   00FEF0  20                 	db	32
   291   00FEF1  54                 	db	84	;'T'
   292   00FEF2  68                 	db	104	;'h'
   293   00FEF3  65                 	db	101	;'e'
   294   00FEF4  20                 	db	32
   295   00FEF5  70                 	db	112	;'p'
   296   00FEF6  61                 	db	97	;'a'
   297   00FEF7  73                 	db	115	;'s'
   298   00FEF8  73                 	db	115	;'s'
   299   00FEF9  77                 	db	119	;'w'
   300   00FEFA  6F                 	db	111	;'o'
   301   00FEFB  72                 	db	114	;'r'
   302   00FEFC  64                 	db	100	;'d'
   303   00FEFD  20                 	db	32
   304   00FEFE  00                 	db	0
   305   00FEFF                     STR_12:
   306   00FEFF  20                 	db	32
   307   00FF00  20                 	db	32
   308   00FF01  20                 	db	32
   309   00FF02  20                 	db	32
   310   00FF03  20                 	db	32
   311   00FF04  20                 	db	32
   312   00FF05  20                 	db	32
   313   00FF06  20                 	db	32
   314   00FF07  20                 	db	32
   315   00FF08  20                 	db	32
   316   00FF09  20                 	db	32
   317   00FF0A  20                 	db	32
   318   00FF0B  20                 	db	32
   319   00FF0C  20                 	db	32
   320   00FF0D  20                 	db	32
   321   00FF0E  20                 	db	32
   322   00FF0F  20                 	db	32
   323   00FF10  20                 	db	32
   324   00FF11  20                 	db	32
   325   00FF12  20                 	db	32
   326   00FF13  20                 	db	32
   327   00FF14  00                 	db	0
   328   00FF15                     STR_4:
   329   00FF15  73                 	db	115	;'s'
   330   00FF16  79                 	db	121	;'y'
   331   00FF17  73                 	db	115	;'s'
   332   00FF18  74                 	db	116	;'t'
   333   00FF19  65                 	db	101	;'e'
   334   00FF1A  6D                 	db	109	;'m'
   335   00FF1B  20                 	db	32
   336   00FF1C  77                 	db	119	;'w'
   337   00FF1D  69                 	db	105	;'i'
   338   00FF1E  6C                 	db	108	;'l'
   339   00FF1F  6C                 	db	108	;'l'
   340   00FF20  20                 	db	32
   341   00FF21  63                 	db	99	;'c'
   342   00FF22  6C                 	db	108	;'l'
   343   00FF23  6F                 	db	111	;'o'
   344   00FF24  73                 	db	115	;'s'
   345   00FF25  65                 	db	101	;'e'
   346   00FF26  20                 	db	32
   347   00FF27  69                 	db	105	;'i'
   348   00FF28  6E                 	db	110	;'n'
   349   00FF29  20                 	db	32
   350   00FF2A  00                 	db	0
   351   00FF2B                     STR_42:
   352   00FF2B  65                 	db	101	;'e'
   353   00FF2C  6E                 	db	110	;'n'
   354   00FF2D  74                 	db	116	;'t'
   355   00FF2E  65                 	db	101	;'e'
   356   00FF2F  72                 	db	114	;'r'
   357   00FF30  20                 	db	32
   358   00FF31  79                 	db	121	;'y'
   359   00FF32  6F                 	db	111	;'o'
   360   00FF33  75                 	db	117	;'u'
   361   00FF34  72                 	db	114	;'r'
   362   00FF35  20                 	db	32
   363   00FF36  70                 	db	112	;'p'
   364   00FF37  61                 	db	97	;'a'
   365   00FF38  73                 	db	115	;'s'
   366   00FF39  73                 	db	115	;'s'
   367   00FF3A  77                 	db	119	;'w'
   368   00FF3B  6F                 	db	111	;'o'
   369   00FF3C  72                 	db	114	;'r'
   370   00FF3D  64                 	db	100	;'d'
   371   00FF3E  20                 	db	32
   372   00FF3F  00                 	db	0
   373   00FF40                     STR_11:
   374   00FF40  55                 	db	85	;'U'
   375   00FF41  6E                 	db	110	;'n'
   376   00FF42  61                 	db	97	;'a'
   377   00FF43  76                 	db	118	;'v'
   378   00FF44  61                 	db	97	;'a'
   379   00FF45  69                 	db	105	;'i'
   380   00FF46  6C                 	db	108	;'l'
   381   00FF47  61                 	db	97	;'a'
   382   00FF48  62                 	db	98	;'b'
   383   00FF49  6C                 	db	108	;'l'
   384   00FF4A  65                 	db	101	;'e'
   385   00FF4B  20                 	db	32
   386   00FF4C  70                 	db	112	;'p'
   387   00FF4D  72                 	db	114	;'r'
   388   00FF4E  6F                 	db	111	;'o'
   389   00FF4F  63                 	db	99	;'c'
   390   00FF50  65                 	db	101	;'e'
   391   00FF51  73                 	db	115	;'s'
   392   00FF52  73                 	db	115	;'s'
   393   00FF53  20                 	db	32
   394   00FF54  00                 	db	0
   395   00FF55                     STR_10:
   396   00FF55  31                 	db	49	;'1'
   397   00FF56  2D                 	db	45
   398   00FF57  53                 	db	83	;'S'
   399   00FF58  65                 	db	101	;'e'
   400   00FF59  74                 	db	116	;'t'
   401   00FF5A  20                 	db	32
   402   00FF5B  6E                 	db	110	;'n'
   403   00FF5C  65                 	db	101	;'e'
   404   00FF5D  77                 	db	119	;'w'
   405   00FF5E  20                 	db	32
   406   00FF5F  70                 	db	112	;'p'
   407   00FF60  61                 	db	97	;'a'
   408   00FF61  73                 	db	115	;'s'
   409   00FF62  73                 	db	115	;'s'
   410   00FF63  77                 	db	119	;'w'
   411   00FF64  6F                 	db	111	;'o'
   412   00FF65  72                 	db	114	;'r'
   413   00FF66  64                 	db	100	;'d'
   414   00FF67  2E                 	db	46
   415   00FF68  00                 	db	0
   416   00FF69                     STR_14:
   417   00FF69  32                 	db	50	;'2'
   418   00FF6A  2D                 	db	45
   419   00FF6B  43                 	db	67	;'C'
   420   00FF6C  68                 	db	104	;'h'
   421   00FF6D  61                 	db	97	;'a'
   422   00FF6E  6E                 	db	110	;'n'
   423   00FF6F  67                 	db	103	;'g'
   424   00FF70  65                 	db	101	;'e'
   425   00FF71  20                 	db	32
   426   00FF72  70                 	db	112	;'p'
   427   00FF73  61                 	db	97	;'a'
   428   00FF74  73                 	db	115	;'s'
   429   00FF75  73                 	db	115	;'s'
   430   00FF76  77                 	db	119	;'w'
   431   00FF77  6F                 	db	111	;'o'
   432   00FF78  72                 	db	114	;'r'
   433   00FF79  64                 	db	100	;'d'
   434   00FF7A  2E                 	db	46
   435   00FF7B  00                 	db	0
   436   00FF7C                     STR_13:
   437   00FF7C  31                 	db	49	;'1'
   438   00FF7D  2D                 	db	45
   439   00FF7E  45                 	db	69	;'E'
   440   00FF7F  6E                 	db	110	;'n'
   441   00FF80  74                 	db	116	;'t'
   442   00FF81  65                 	db	101	;'e'
   443   00FF82  72                 	db	114	;'r'
   444   00FF83  20                 	db	32
   445   00FF84  70                 	db	112	;'p'
   446   00FF85  61                 	db	97	;'a'
   447   00FF86  73                 	db	115	;'s'
   448   00FF87  73                 	db	115	;'s'
   449   00FF88  77                 	db	119	;'w'
   450   00FF89  6F                 	db	111	;'o'
   451   00FF8A  72                 	db	114	;'r'
   452   00FF8B  64                 	db	100	;'d'
   453   00FF8C  2E                 	db	46
   454   00FF8D  00                 	db	0
   455   00FF8E                     STR_58:
   456   00FF8E  74                 	db	116	;'t'
   457   00FF8F  68                 	db	104	;'h'
   458   00FF90  65                 	db	101	;'e'
   459   00FF91  20                 	db	32
   460   00FF92  6F                 	db	111	;'o'
   461   00FF93  6C                 	db	108	;'l'
   462   00FF94  64                 	db	100	;'d'
   463   00FF95  20                 	db	32
   464   00FF96  70                 	db	112	;'p'
   465   00FF97  61                 	db	97	;'a'
   466   00FF98  73                 	db	115	;'s'
   467   00FF99  73                 	db	115	;'s'
   468   00FF9A  77                 	db	119	;'w'
   469   00FF9B  6F                 	db	111	;'o'
   470   00FF9C  72                 	db	114	;'r'
   471   00FF9D  64                 	db	100	;'d'
   472   00FF9E  00                 	db	0
   473   00FF9F                     STR_48:
   474   00FF9F  70                 	db	112	;'p'
   475   00FFA0  61                 	db	97	;'a'
   476   00FFA1  73                 	db	115	;'s'
   477   00FFA2  73                 	db	115	;'s'
   478   00FFA3  77                 	db	119	;'w'
   479   00FFA4  6F                 	db	111	;'o'
   480   00FFA5  72                 	db	114	;'r'
   481   00FFA6  64                 	db	100	;'d'
   482   00FFA7  20                 	db	32
   483   00FFA8  63                 	db	99	;'c'
   484   00FFA9  6F                 	db	111	;'o'
   485   00FFAA  72                 	db	114	;'r'
   486   00FFAB  72                 	db	114	;'r'
   487   00FFAC  65                 	db	101	;'e'
   488   00FFAD  63                 	db	99	;'c'
   489   00FFAE  74                 	db	116	;'t'
   490   00FFAF  00                 	db	0
   491   00FFB0                     STR_36:
   492   00FFB0  77                 	db	119	;'w'
   493   00FFB1  72                 	db	114	;'r'
   494   00FFB2  6F                 	db	111	;'o'
   495   00FFB3  6E                 	db	110	;'n'
   496   00FFB4  67                 	db	103	;'g'
   497   00FFB5  20                 	db	32
   498   00FFB6  70                 	db	112	;'p'
   499   00FFB7  61                 	db	97	;'a'
   500   00FFB8  73                 	db	115	;'s'
   501   00FFB9  73                 	db	115	;'s'
   502   00FFBA  77                 	db	119	;'w'
   503   00FFBB  6F                 	db	111	;'o'
   504   00FFBC  72                 	db	114	;'r'
   505   00FFBD  64                 	db	100	;'d'
   506   00FFBE  20                 	db	32
   507   00FFBF  00                 	db	0
   508   00FFC0                     STR_34:
   509   00FFC0  70                 	db	112	;'p'
   510   00FFC1  61                 	db	97	;'a'
   511   00FFC2  73                 	db	115	;'s'
   512   00FFC3  73                 	db	115	;'s'
   513   00FFC4  77                 	db	119	;'w'
   514   00FFC5  6F                 	db	111	;'o'
   515   00FFC6  72                 	db	114	;'r'
   516   00FFC7  64                 	db	100	;'d'
   517   00FFC8  20                 	db	32
   518   00FFC9  73                 	db	115	;'s'
   519   00FFCA  61                 	db	97	;'a'
   520   00FFCB  76                 	db	118	;'v'
   521   00FFCC  65                 	db	101	;'e'
   522   00FFCD  64                 	db	100	;'d'
   523   00FFCE  00                 	db	0
   524   00FFCF                     STR_22:
   525   00FFCF  6D                 	db	109	;'m'
   526   00FFD0  69                 	db	105	;'i'
   527   00FFD1  6E                 	db	110	;'n'
   528   00FFD2  20                 	db	32
   529   00FFD3  34                 	db	52	;'4'
   530   00FFD4  20                 	db	32
   531   00FFD5  64                 	db	100	;'d'
   532   00FFD6  69                 	db	105	;'i'
   533   00FFD7  67                 	db	103	;'g'
   534   00FFD8  69                 	db	105	;'i'
   535   00FFD9  74                 	db	116	;'t'
   536   00FFDA  73                 	db	115	;'s'
   537   00FFDB  20                 	db	32
   538   00FFDC  00                 	db	0
   539   00FFDD                     STR_26:
   540   00FFDD  6D                 	db	109	;'m'
   541   00FFDE  61                 	db	97	;'a'
   542   00FFDF  78                 	db	120	;'x'
   543   00FFE0  20                 	db	32
   544   00FFE1  38                 	db	56	;'8'
   545   00FFE2  20                 	db	32
   546   00FFE3  64                 	db	100	;'d'
   547   00FFE4  69                 	db	105	;'i'
   548   00FFE5  67                 	db	103	;'g'
   549   00FFE6  69                 	db	105	;'i'
   550   00FFE7  74                 	db	116	;'t'
   551   00FFE8  73                 	db	115	;'s'
   552   00FFE9  20                 	db	32
   553   00FFEA  00                 	db	0
   554   00FFEB                     STR_17:
   555   00FFEB  77                 	db	119	;'w'
   556   00FFEC  65                 	db	101	;'e'
   557   00FFED  6C                 	db	108	;'l'
   558   00FFEE  63                 	db	99	;'c'
   559   00FFEF  6F                 	db	111	;'o'
   560   00FFF0  6D                 	db	109	;'m'
   561   00FFF1  65                 	db	101	;'e'
   562   00FFF2  00                 	db	0
   563   00FFF3                     STR_51:
   564   00FFF3  2F                 	db	47
   565   00FFF4  33                 	db	51	;'3'
   566   00FFF5  00                 	db	0
   567   00FFF6                     STR_1:
   568   00FFF6  25                 	db	37
   569   00FFF7  69                 	db	105	;'i'
   570   00FFF8  00                 	db	0
   571   00FFF9                     STR_19:
   572   00FFF9  3A                 	db	58	;':'
   573   00FFFA  00                 	db	0
   574   00FFFB                     STR_9:
   575   00FFFB  31                 	db	49	;'1'
   576   00FFFC  00                 	db	0
   577   00FFFD                     STR_7:
   578   00FFFD  32                 	db	50	;'2'
   579   00FFFE  00                 	db	0
   580   00FFFF  00                 	db	0	; dummy byte at the end
   581   000000                     
   582                           ; #config settings
   583                           
   584                           	psect	cinit
   585   002982                     __pcinit:
   586                           	callstack 0
   587   002982                     start_initialization:
   588                           	callstack 0
   589   002982                     __initialization:
   590                           	callstack 0
   591                           
   592                           ; Initialize objects allocated to BANK1 (26 bytes)
   593                           ; load TBLPTR registers with __pidataBANK1
   594   002982  0EB4               	movlw	low __pidataBANK1
   595   002984  6EF6               	movwf	tblptrl,c
   596   002986  0E36               	movlw	high __pidataBANK1
   597   002988  6EF7               	movwf	tblptrh,c
   598   00298A  0E00               	movlw	low (__pidataBANK1 shr (0+16))
   599   00298C  6EF8               	movwf	tblptru,c
   600   00298E  EE01  F044         	lfsr	0,__pdataBANK1
   601   002992  EE10 F01A          	lfsr	1,26
   602   002996                     copy_data0:
   603   002996  0009               	tblrd		*+
   604   002998  CFF5 FFEE          	movff	tablat,postinc0
   605   00299C  50E5               	movf	postdec1,w,c
   606   00299E  50E1               	movf	fsr1l,w,c
   607   0029A0  E1FA               	bnz	copy_data0
   608                           
   609                           ; Initialize objects allocated to BANK0 (37 bytes)
   610                           ; load TBLPTR registers with __pidataBANK0
   611   0029A2  0E28               	movlw	low __pidataBANK0
   612   0029A4  6EF6               	movwf	tblptrl,c
   613   0029A6  0E36               	movlw	high __pidataBANK0
   614   0029A8  6EF7               	movwf	tblptrh,c
   615   0029AA  0E00               	movlw	low (__pidataBANK0 shr (0+16))
   616   0029AC  6EF8               	movwf	tblptru,c
   617   0029AE  EE00  F0D6         	lfsr	0,__pdataBANK0
   618   0029B2  EE10 F025          	lfsr	1,37
   619   0029B6                     copy_data1:
   620   0029B6  0009               	tblrd		*+
   621   0029B8  CFF5 FFEE          	movff	tablat,postinc0
   622   0029BC  50E5               	movf	postdec1,w,c
   623   0029BE  50E1               	movf	fsr1l,w,c
   624   0029C0  E1FA               	bnz	copy_data1
   625                           
   626                           ; Initialize objects allocated to COMRAM (15 bytes)
   627                           ; load TBLPTR registers with __pidataCOMRAM
   628   0029C2  0E36               	movlw	low __pidataCOMRAM
   629   0029C4  6EF6               	movwf	tblptrl,c
   630   0029C6  0E37               	movlw	high __pidataCOMRAM
   631   0029C8  6EF7               	movwf	tblptrh,c
   632   0029CA  0E00               	movlw	low (__pidataCOMRAM shr (0+16))
   633   0029CC  6EF8               	movwf	tblptru,c
   634   0029CE  EE00  F048         	lfsr	0,__pdataCOMRAM
   635   0029D2  EE10 F00F          	lfsr	1,15
   636   0029D6                     copy_data2:
   637   0029D6  0009               	tblrd		*+
   638   0029D8  CFF5 FFEE          	movff	tablat,postinc0
   639   0029DC  50E5               	movf	postdec1,w,c
   640   0029DE  50E1               	movf	fsr1l,w,c
   641   0029E0  E1FA               	bnz	copy_data2
   642                           
   643                           ; Clear objects allocated to BANK1 (32 bytes)
   644   0029E2  EE01  F024         	lfsr	0,__pbssBANK1
   645   0029E6  0E20               	movlw	32
   646   0029E8                     clear_0:
   647   0029E8  6AEE               	clrf	postinc0,c
   648   0029EA  06E8               	decf	wreg,f,c
   649   0029EC  E1FD               	bnz	clear_0
   650                           
   651                           ; Clear objects allocated to BANK0 (44 bytes)
   652   0029EE  EE00  F080         	lfsr	0,__pbssBANK0
   653   0029F2  0E2C               	movlw	44
   654   0029F4                     clear_1:
   655   0029F4  6AEE               	clrf	postinc0,c
   656   0029F6  06E8               	decf	wreg,f,c
   657   0029F8  E1FD               	bnz	clear_1
   658                           
   659                           ; Clear objects allocated to COMRAM (30 bytes)
   660   0029FA  EE00  F02A         	lfsr	0,__pbssCOMRAM
   661   0029FE  0E1E               	movlw	30
   662   002A00                     clear_2:
   663   002A00  6AEE               	clrf	postinc0,c
   664   002A02  06E8               	decf	wreg,f,c
   665   002A04  E1FD               	bnz	clear_2
   666   002A06                     end_of_initialization:
   667                           	callstack 0
   668   002A06                     __end_of__initialization:
   669                           	callstack 0
   670   002A06  9057               	bcf	int$flags,0,c	;clear compiler interrupt flag (level 1)
   671   002A08  9257               	bcf	int$flags,1,c	;clear compiler interrupt flag (level 2)
   672   002A0A  0100               	movlb	0
   673   002A0C  EF98  F007         	goto	_main	;jump to C main() function
   674                           
   675                           	psect	bssCOMRAM
   676   00002A                     __pbssCOMRAM:
   677                           	callstack 0
   678   00002A                     _RB7_INTERRUPT_HANDLER_LOW:
   679                           	callstack 0
   680   00002A                     	ds	2
   681   00002C                     _RB7_INTERRUPT_HANDLER_HIGH:
   682                           	callstack 0
   683   00002C                     	ds	2
   684   00002E                     _RB6_INTERRUPT_HANDLER_LOW:
   685                           	callstack 0
   686   00002E                     	ds	2
   687   000030                     _RB6_INTERRUPT_HANDLER_HIGH:
   688                           	callstack 0
   689   000030                     	ds	2
   690   000032                     _RB5_INTERRUPT_HANDLER_LOW:
   691                           	callstack 0
   692   000032                     	ds	2
   693   000034                     _RB5_INTERRUPT_HANDLER_HIGH:
   694                           	callstack 0
   695   000034                     	ds	2
   696   000036                     _RB4_INTERRUPT_HANDLER_LOW:
   697                           	callstack 0
   698   000036                     	ds	2
   699   000038                     _RB4_INTERRUPT_HANDLER_HIGH:
   700                           	callstack 0
   701   000038                     	ds	2
   702   00003A                     _INT2_INTERRUPT_HANDLER:
   703                           	callstack 0
   704   00003A                     	ds	2
   705   00003C                     _INT1_INTERRUPT_HANDLER:
   706                           	callstack 0
   707   00003C                     	ds	2
   708   00003E                     _INT0_INTERRUPT_HANDLER:
   709                           	callstack 0
   710   00003E                     	ds	2
   711   000040                     _flags:
   712                           	callstack 0
   713   000040                     	ds	1
   714   000041                     ecu_relay_off@F3063:
   715                           	callstack 0
   716   000041                     	ds	1
   717   000042                     ecu_relay_on@F3058:
   718                           	callstack 0
   719   000042                     	ds	1
   720   000043                     ecu_relay_initialize@F3053:
   721                           	callstack 0
   722   000043                     	ds	1
   723   000044                     ecu_led_turn_toggle@F3074:
   724                           	callstack 0
   725   000044                     	ds	1
   726   000045                     ecu_led_turn_off@F3069:
   727                           	callstack 0
   728   000045                     	ds	1
   729   000046                     ecu_led_turn_on@F3064:
   730                           	callstack 0
   731   000046                     	ds	1
   732   000047                     ecu_led_initialize@F3059:
   733                           	callstack 0
   734   000047                     	ds	1
   735                           
   736                           	psect	dataCOMRAM
   737   000048                     __pdataCOMRAM:
   738                           	callstack 0
   739   000048                     _RB7_flag:
   740                           	callstack 0
   741   000048                     	ds	1
   742   000049                     _RB6_flag:
   743                           	callstack 0
   744   000049                     	ds	1
   745   00004A                     _RB5_flag:
   746                           	callstack 0
   747   00004A                     	ds	1
   748   00004B                     _RB4_flag:
   749                           	callstack 0
   750   00004B                     	ds	1
   751   00004C                     _lcd1:
   752                           	callstack 0
   753   00004C                     	ds	6
   754   000052                     _motor1:
   755                           	callstack 0
   756   000052                     	ds	2
   757   000054                     _buzzer:
   758                           	callstack 0
   759   000054                     	ds	1
   760   000055                     _green_led:
   761                           	callstack 0
   762   000055                     	ds	1
   763   000056                     _red_led:
   764                           	callstack 0
   765   000056                     	ds	1
   766                           
   767                           	psect	bssBANK0
   768   000080                     __pbssBANK0:
   769                           	callstack 0
   770   000080                     _width:
   771                           	callstack 0
   772   000080                     	ds	2
   773   000082                     _prec:
   774                           	callstack 0
   775   000082                     	ds	2
   776   000084                     _selected_mode:
   777                           	callstack 0
   778   000084                     	ds	1
   779   000085                     _stored_password:
   780                           	callstack 0
   781   000085                     	ds	8
   782   00008D                     _entered_password:
   783                           	callstack 0
   784   00008D                     	ds	8
   785   000095                     _password_confirm:
   786                           	callstack 0
   787   000095                     	ds	8
   788   00009D                     _password:
   789                           	callstack 0
   790   00009D                     	ds	8
   791   0000A5                     _stored_pass_num_digits:
   792                           	callstack 0
   793   0000A5                     	ds	1
   794   0000A6                     _enterd_pass_num_digits:
   795                           	callstack 0
   796   0000A6                     	ds	1
   797   0000A7                     _pass_confirm_num_digits:
   798                           	callstack 0
   799   0000A7                     	ds	1
   800   0000A8                     _pass_num_digits:
   801                           	callstack 0
   802   0000A8                     	ds	1
   803   0000A9                     _user_statue:
   804                           	callstack 0
   805   0000A9                     	ds	1
   806   0000AA                     _pass_check:
   807                           	callstack 0
   808   0000AA                     	ds	1
   809   0000AB                     _keypad_value:
   810                           	callstack 0
   811   0000AB                     	ds	1
   812                           
   813                           	psect	dataBANK0
   814   0000D6                     __pdataBANK0:
   815                           	callstack 0
   816   0000D6                     _lat_registers:
   817                           	callstack 0
   818   0000D6                     	ds	10
   819   0000E0                     _tris_registers:
   820                           	callstack 0
   821   0000E0                     	ds	10
   822   0000EA                     _btn1:
   823                           	callstack 0
   824   0000EA                     	ds	3
   825   0000ED                     _keypad:
   826                           	callstack 0
   827   0000ED                     	ds	8
   828   0000F5                     _INT_obj:
   829                           	callstack 0
   830   0000F5                     	ds	6
   831                           
   832                           	psect	bssBANK1
   833   000124                     __pbssBANK1:
   834                           	callstack 0
   835   000124                     _dbuf:
   836                           	callstack 0
   837   000124                     	ds	32
   838                           
   839                           	psect	dataBANK1
   840   000144                     __pdataBANK1:
   841                           	callstack 0
   842   000144                     _keypad_values:
   843                           	callstack 0
   844   000144                     	ds	16
   845   000154                     _port_registers:
   846                           	callstack 0
   847   000154                     	ds	10
   848                           
   849                           	psect	cstackBANK1
   850   000100                     __pcstackBANK1:
   851                           	callstack 0
   852   000100                     change_password@old_pass:
   853                           	callstack 0
   854   000100                     sprintf@ap:
   855                           	callstack 0
   856                           
   857                           ; 1 bytes @ 0x0
   858   000100                     	ds	1
   859   000101                     change_password@old_pass_didits:
   860                           	callstack 0
   861   000101                     sprintf@f:
   862                           	callstack 0
   863                           
   864                           ; 12 bytes @ 0x1
   865   000101                     	ds	2
   866   000103                     change_password@stored_password:
   867                           	callstack 0
   868                           
   869                           ; 1 bytes @ 0x3
   870   000103                     	ds	1
   871   000104                     change_password@stored_password_digits:
   872                           	callstack 0
   873                           
   874                           ; 2 bytes @ 0x4
   875   000104                     	ds	2
   876   000106                     change_password@new_pass:
   877                           	callstack 0
   878                           
   879                           ; 1 bytes @ 0x6
   880   000106                     	ds	1
   881   000107                     change_password@new_pass_Digits:
   882                           	callstack 0
   883                           
   884                           ; 2 bytes @ 0x7
   885   000107                     	ds	2
   886   000109                     change_password@new_pass_confirm:
   887                           	callstack 0
   888                           
   889                           ; 1 bytes @ 0x9
   890   000109                     	ds	1
   891   00010A                     change_password@new_pass_confirm_Digits:
   892                           	callstack 0
   893                           
   894                           ; 2 bytes @ 0xA
   895   00010A                     	ds	3
   896   00010D                     convert_byte_to_string@str:
   897                           	callstack 0
   898                           
   899                           ; 2 bytes @ 0xD
   900   00010D                     	ds	2
   901   00010F                     entering_password@pass_entered:
   902                           	callstack 0
   903                           
   904                           ; 1 bytes @ 0xF
   905   00010F                     	ds	1
   906   000110                     entering_password@pass_entered_didits:
   907                           	callstack 0
   908                           
   909                           ; 1 bytes @ 0x10
   910   000110                     	ds	1
   911   000111                     entering_password@stored_password:
   912                           	callstack 0
   913                           
   914                           ; 1 bytes @ 0x11
   915   000111                     	ds	1
   916   000112                     entering_password@stored_password_digits:
   917                           	callstack 0
   918                           
   919                           ; 1 bytes @ 0x12
   920   000112                     	ds	1
   921   000113                     entering_password@user_statue:
   922                           	callstack 0
   923                           
   924                           ; 1 bytes @ 0x13
   925   000113                     	ds	1
   926   000114                     entering_password@str:
   927                           	callstack 0
   928                           
   929                           ; 4 bytes @ 0x14
   930   000114                     	ds	4
   931   000118                     entering_password@wrong_counter:
   932                           	callstack 0
   933                           
   934                           ; 1 bytes @ 0x18
   935   000118                     	ds	1
   936   000119                     entering_password@comparing_result:
   937                           	callstack 0
   938                           
   939                           ; 1 bytes @ 0x19
   940   000119                     	ds	1
   941   00011A                     entering_password@lcd_counter:
   942                           	callstack 0
   943                           
   944                           ; 1 bytes @ 0x1A
   945   00011A                     	ds	1
   946   00011B                     entering_password@counter:
   947                           	callstack 0
   948                           
   949                           ; 1 bytes @ 0x1B
   950   00011B                     	ds	1
   951   00011C                     ??_main:
   952                           
   953                           ; 1 bytes @ 0x1C
   954   00011C                     	ds	8
   955                           
   956                           	psect	cstackBANK0
   957   0000AC                     __pcstackBANK0:
   958                           	callstack 0
   959   0000AC                     ?___awdiv:
   960                           	callstack 0
   961   0000AC                     ?___awmod:
   962                           	callstack 0
   963   0000AC                     gpio_pin_direction_initialize@_pin_config:
   964                           	callstack 0
   965   0000AC                     gpio_pin_write_logic@_pin_config:
   966                           	callstack 0
   967   0000AC                     gpio_pin_read_logic@_pin_config:
   968                           	callstack 0
   969   0000AC                     INTERRUPT_INTx_enable@int_obj:
   970                           	callstack 0
   971   0000AC                     INTERRUPT_INTx_disable@int_obj:
   972                           	callstack 0
   973   0000AC                     INTERRUPT_INTx_edge_int@int_obj:
   974                           	callstack 0
   975   0000AC                     INTERRUPT_INTx_clear_flag@int_obj:
   976                           	callstack 0
   977   0000AC                     comparing_password@pass:
   978                           	callstack 0
   979   0000AC                     Data_EEPROM_WriteByte@badd:
   980                           	callstack 0
   981   0000AC                     Data_EEPROM_ReadByte@badd:
   982                           	callstack 0
   983   0000AC                     INT0_SET_INTERRUPT_HANDLER@INTERRUPT_HANDLER:
   984                           	callstack 0
   985   0000AC                     INT1_SET_INTERRUPT_HANDLER@INTERRUPT_HANDLER:
   986                           	callstack 0
   987   0000AC                     INT2_SET_INTERRUPT_HANDLER@INTERRUPT_HANDLER:
   988                           	callstack 0
   989   0000AC                     ___awdiv@dividend:
   990                           	callstack 0
   991   0000AC                     ___awmod@dividend:
   992                           	callstack 0
   993   0000AC                     memset@dest:
   994                           	callstack 0
   995   0000AC                     fputc@c:
   996                           	callstack 0
   997                           
   998                           ; 2 bytes @ 0x0
   999   0000AC                     	ds	1
  1000   0000AD                     ??_gpio_pin_direction_initialize:
  1001   0000AD                     ??_INTERRUPT_INTx_disable:
  1002   0000AD                     ??_INTERRUPT_INTx_clear_flag:
  1003   0000AD                     ??_INTERRUPT_INTx_edge_int:
  1004   0000AD                     ??_INTERRUPT_INTx_enable:
  1005   0000AD                     gpio_pin_write_logic@logic:
  1006                           	callstack 0
  1007   0000AD                     gpio_pin_read_logic@logic:
  1008                           	callstack 0
  1009   0000AD                     comparing_password@pass_digits:
  1010                           	callstack 0
  1011                           
  1012                           ; 2 bytes @ 0x1
  1013   0000AD                     	ds	1
  1014   0000AE                     ??_gpio_pin_write_logic:
  1015   0000AE                     ??_gpio_pin_read_logic:
  1016   0000AE                     Data_EEPROM_WriteByte@bData:
  1017                           	callstack 0
  1018   0000AE                     Data_EEPROM_ReadByte@bData:
  1019                           	callstack 0
  1020   0000AE                     INTERRUPT_SET_INTERRUPT_HANDLER@int_obj:
  1021                           	callstack 0
  1022   0000AE                     ___awdiv@divisor:
  1023                           	callstack 0
  1024   0000AE                     ___awmod@divisor:
  1025                           	callstack 0
  1026   0000AE                     memset@c:
  1027                           	callstack 0
  1028   0000AE                     fputc@fp:
  1029                           	callstack 0
  1030                           
  1031                           ; 2 bytes @ 0x2
  1032   0000AE                     	ds	1
  1033   0000AF                     ??_INTERRUPT_SET_INTERRUPT_HANDLER:
  1034   0000AF                     Data_EEPROM_WriteByte@GLOBAL_INTERRUPT_STATUS:
  1035                           	callstack 0
  1036   0000AF                     INTERRUPT_INTx_enable@ret:
  1037                           	callstack 0
  1038   0000AF                     INTERRUPT_INTx_disable@ret:
  1039                           	callstack 0
  1040   0000AF                     INTERRUPT_INTx_edge_int@ret:
  1041                           	callstack 0
  1042   0000AF                     INTERRUPT_INTx_clear_flag@ret:
  1043                           	callstack 0
  1044   0000AF                     comparing_password@pass_confirm:
  1045                           	callstack 0
  1046   0000AF                     check_entered_password@entered_pass:
  1047                           	callstack 0
  1048                           
  1049                           ; 1 bytes @ 0x3
  1050   0000AF                     	ds	1
  1051   0000B0                     ??_fputc:
  1052   0000B0                     save_password@pass:
  1053                           	callstack 0
  1054   0000B0                     ___awdiv@counter:
  1055                           	callstack 0
  1056   0000B0                     ___awmod@counter:
  1057                           	callstack 0
  1058   0000B0                     comparing_password@pass_confirm_digits:
  1059                           	callstack 0
  1060   0000B0                     check_entered_password@entered_pass_digits:
  1061                           	callstack 0
  1062   0000B0                     memset@n:
  1063                           	callstack 0
  1064                           
  1065                           ; 2 bytes @ 0x4
  1066   0000B0                     	ds	1
  1067   0000B1                     INTERRUPT_SET_INTERRUPT_HANDLER@ret:
  1068                           	callstack 0
  1069   0000B1                     save_password@counter:
  1070                           	callstack 0
  1071   0000B1                     ___awdiv@sign:
  1072                           	callstack 0
  1073   0000B1                     ___awmod@sign:
  1074                           	callstack 0
  1075                           
  1076                           ; 1 bytes @ 0x5
  1077   0000B1                     	ds	1
  1078   0000B2                     ?_abs:
  1079                           	callstack 0
  1080   0000B2                     gpio_pin_direction_initialize@ret:
  1081                           	callstack 0
  1082   0000B2                     comparing_password@result:
  1083                           	callstack 0
  1084   0000B2                     check_entered_password@stored_pass:
  1085                           	callstack 0
  1086   0000B2                     ___awdiv@quotient:
  1087                           	callstack 0
  1088   0000B2                     memset@p:
  1089                           	callstack 0
  1090   0000B2                     abs@a:
  1091                           	callstack 0
  1092                           
  1093                           ; 2 bytes @ 0x6
  1094   0000B2                     	ds	1
  1095   0000B3                     gpio_pin_write_logic@ret:
  1096                           	callstack 0
  1097   0000B3                     INTERRUPT_INTx_pin_int@int_obj:
  1098                           	callstack 0
  1099   0000B3                     check_entered_password@stored_pass_digits:
  1100                           	callstack 0
  1101                           
  1102                           ; 2 bytes @ 0x7
  1103   0000B3                     	ds	1
  1104   0000B4                     ??_abs:
  1105   0000B4                     lcd_send_4bit@lcd:
  1106                           	callstack 0
  1107   0000B4                     lcd_4bit_send_enable_enable@lcd:
  1108                           	callstack 0
  1109   0000B4                     ecu_dc_motor_move_left@dc_motor:
  1110                           	callstack 0
  1111   0000B4                     ecu_dc_motor_stop@dc_motor:
  1112                           	callstack 0
  1113   0000B4                     ecu_keypad_get_value@keypad:
  1114                           	callstack 0
  1115   0000B4                     ecu_led_turn_on@led:
  1116                           	callstack 0
  1117   0000B4                     ecu_led_turn_off@led:
  1118                           	callstack 0
  1119   0000B4                     gpio_pin_initialize@_pin_config:
  1120                           	callstack 0
  1121   0000B4                     INTERRUPT_INTx_pin_int@ret:
  1122                           	callstack 0
  1123                           
  1124                           ; 1 bytes @ 0x8
  1125   0000B4                     	ds	1
  1126   0000B5                     ??_gpio_pin_initialize:
  1127   0000B5                     ??_ecu_led_turn_on:
  1128   0000B5                     ??_ecu_led_turn_off:
  1129   0000B5                     lcd_send_4bit@command_data:
  1130                           	callstack 0
  1131   0000B5                     lcd_4bit_send_enable_enable@ret:
  1132                           	callstack 0
  1133   0000B5                     ecu_keypad_get_value@value:
  1134                           	callstack 0
  1135   0000B5                     Interrupt_INTx_Init@int_obj:
  1136                           	callstack 0
  1137   0000B5                     comparing_password@comparing_counter:
  1138                           	callstack 0
  1139   0000B5                     check_entered_password@result:
  1140                           	callstack 0
  1141                           
  1142                           ; 2 bytes @ 0x9
  1143   0000B5                     	ds	1
  1144   0000B6                     ??_ecu_keypad_get_value:
  1145   0000B6                     lcd_send_4bit@ret:
  1146                           	callstack 0
  1147   0000B6                     ecu_led_turn_on@led_pin:
  1148                           	callstack 0
  1149   0000B6                     ecu_led_turn_off@led_pin:
  1150                           	callstack 0
  1151   0000B6                     gpio_pin_initialize@ret:
  1152                           	callstack 0
  1153   0000B6                     Interrupt_INTx_Init@ret:
  1154                           	callstack 0
  1155   0000B6                     vfpfcnvrt@fp:
  1156                           	callstack 0
  1157                           
  1158                           ; 2 bytes @ 0xA
  1159   0000B6                     	ds	1
  1160   0000B7                     lcd_4bit_send_command@lcd:
  1161                           	callstack 0
  1162   0000B7                     lcd_4bit_send_char_data@lcd:
  1163                           	callstack 0
  1164   0000B7                     ecu_dc_motor_initialize@dc_motor:
  1165                           	callstack 0
  1166   0000B7                     ecu_keypad_initialize@keypad:
  1167                           	callstack 0
  1168   0000B7                     ecu_led_initialize@led:
  1169                           	callstack 0
  1170                           
  1171                           ; 1 bytes @ 0xB
  1172   0000B7                     	ds	1
  1173   0000B8                     ??_ecu_led_initialize:
  1174   0000B8                     lcd_4bit_send_command@command:
  1175                           	callstack 0
  1176   0000B8                     lcd_4bit_send_char_data@data:
  1177                           	callstack 0
  1178   0000B8                     ecu_keypad_initialize@rows:
  1179                           	callstack 0
  1180   0000B8                     ecu_keypad_get_value@column_val:
  1181                           	callstack 0
  1182   0000B8                     vfpfcnvrt@fmt:
  1183                           	callstack 0
  1184                           
  1185                           ; 1 bytes @ 0xC
  1186   0000B8                     	ds	1
  1187   0000B9                     lcd_4bit_send_command@ret:
  1188                           	callstack 0
  1189   0000B9                     lcd_4bit_send_char_data@ret:
  1190                           	callstack 0
  1191   0000B9                     ecu_keypad_initialize@columns:
  1192                           	callstack 0
  1193   0000B9                     ecu_keypad_get_value@clear_rows_counter:
  1194                           	callstack 0
  1195   0000B9                     ecu_led_initialize@led_pin:
  1196                           	callstack 0
  1197   0000B9                     check_entered_password@comparing_counter:
  1198                           	callstack 0
  1199   0000B9                     vfpfcnvrt@ap:
  1200                           	callstack 0
  1201                           
  1202                           ; 2 bytes @ 0xD
  1203   0000B9                     	ds	1
  1204   0000BA                     lcd_4bit_initialize@lcd:
  1205                           	callstack 0
  1206   0000BA                     lcd_4bit_set_curser@lcd:
  1207                           	callstack 0
  1208   0000BA                     ecu_keypad_get_value@rows:
  1209                           	callstack 0
  1210   0000BA                     check_entered_password@helper_counter:
  1211                           	callstack 0
  1212                           
  1213                           ; 1 bytes @ 0xE
  1214   0000BA                     	ds	1
  1215   0000BB                     ??_lcd_4bit_initialize:
  1216   0000BB                     ??_vfpfcnvrt:
  1217   0000BB                     lcd_4bit_set_curser@row:
  1218                           	callstack 0
  1219   0000BB                     ecu_keypad_get_value@columns:
  1220                           	callstack 0
  1221                           
  1222                           ; 1 bytes @ 0xF
  1223   0000BB                     	ds	1
  1224   0000BC                     lcd_4bit_initialize@counter:
  1225                           	callstack 0
  1226   0000BC                     lcd_4bit_set_curser@column:
  1227                           	callstack 0
  1228                           
  1229                           ; 1 bytes @ 0x10
  1230   0000BC                     	ds	1
  1231   0000BD                     ??_lcd_4bit_set_curser:
  1232   0000BD                     lcd_4bit_initialize@ret:
  1233                           	callstack 0
  1234   0000BD                     vfpfcnvrt@done:
  1235                           	callstack 0
  1236                           
  1237                           ; 1 bytes @ 0x11
  1238   0000BD                     	ds	1
  1239   0000BE                     vfpfcnvrt@cp:
  1240                           	callstack 0
  1241                           
  1242                           ; 2 bytes @ 0x12
  1243   0000BE                     	ds	1
  1244   0000BF                     lcd_4bit_set_curser@ret:
  1245                           	callstack 0
  1246                           
  1247                           ; 1 bytes @ 0x13
  1248   0000BF                     	ds	1
  1249   0000C0                     lcd_4bit_send_char_data_pos@lcd:
  1250                           	callstack 0
  1251   0000C0                     lcd_4bit_send_string_pos@lcd:
  1252                           	callstack 0
  1253   0000C0                     vfpfcnvrt@convarg:
  1254                           	callstack 0
  1255                           
  1256                           ; 4 bytes @ 0x14
  1257   0000C0                     	ds	1
  1258   0000C1                     lcd_4bit_send_char_data_pos@row:
  1259                           	callstack 0
  1260   0000C1                     lcd_4bit_send_string_pos@row:
  1261                           	callstack 0
  1262                           
  1263                           ; 1 bytes @ 0x15
  1264   0000C1                     	ds	1
  1265   0000C2                     lcd_4bit_send_char_data_pos@column:
  1266                           	callstack 0
  1267   0000C2                     lcd_4bit_send_string_pos@column:
  1268                           	callstack 0
  1269                           
  1270                           ; 1 bytes @ 0x16
  1271   0000C2                     	ds	1
  1272   0000C3                     lcd_4bit_send_char_data_pos@data:
  1273                           	callstack 0
  1274   0000C3                     lcd_4bit_send_string_pos@str:
  1275                           	callstack 0
  1276                           
  1277                           ; 2 bytes @ 0x17
  1278   0000C3                     	ds	1
  1279   0000C4                     lcd_4bit_send_char_data_pos@ret:
  1280                           	callstack 0
  1281   0000C4                     vfpfcnvrt@c:
  1282                           	callstack 0
  1283                           
  1284                           ; 1 bytes @ 0x18
  1285   0000C4                     	ds	1
  1286   0000C5                     ??_welcome_msg:
  1287   0000C5                     ?_vfprintf:
  1288                           	callstack 0
  1289   0000C5                     get_password@pass:
  1290                           	callstack 0
  1291   0000C5                     password_confirmation@pass:
  1292                           	callstack 0
  1293   0000C5                     vfprintf@fp:
  1294                           	callstack 0
  1295                           
  1296                           ; 2 bytes @ 0x19
  1297   0000C5                     	ds	1
  1298   0000C6                     get_password@pass_didits:
  1299                           	callstack 0
  1300   0000C6                     password_confirmation@pass_didits:
  1301                           	callstack 0
  1302                           
  1303                           ; 2 bytes @ 0x1A
  1304   0000C6                     	ds	1
  1305   0000C7                     vfprintf@fmt:
  1306                           	callstack 0
  1307                           
  1308                           ; 2 bytes @ 0x1B
  1309   0000C7                     	ds	1
  1310   0000C8                     ??_get_password:
  1311   0000C8                     password_confirmation@pass_confirm:
  1312                           	callstack 0
  1313                           
  1314                           ; 1 bytes @ 0x1C
  1315   0000C8                     	ds	1
  1316   0000C9                     password_confirmation@pass_confirm_didits:
  1317                           	callstack 0
  1318   0000C9                     vfprintf@ap:
  1319                           	callstack 0
  1320                           
  1321                           ; 2 bytes @ 0x1D
  1322   0000C9                     	ds	1
  1323   0000CA                     get_password@lcd_counter:
  1324                           	callstack 0
  1325                           
  1326                           ; 1 bytes @ 0x1E
  1327   0000CA                     	ds	1
  1328   0000CB                     ??_password_confirmation:
  1329   0000CB                     get_password@counter:
  1330                           	callstack 0
  1331   0000CB                     vfprintf@cfmt:
  1332                           	callstack 0
  1333                           
  1334                           ; 2 bytes @ 0x1F
  1335   0000CB                     	ds	2
  1336   0000CD                     ?_sprintf:
  1337                           	callstack 0
  1338   0000CD                     password_confirmation@lcd_counter:
  1339                           	callstack 0
  1340   0000CD                     sprintf@s:
  1341                           	callstack 0
  1342                           
  1343                           ; 2 bytes @ 0x21
  1344   0000CD                     	ds	1
  1345   0000CE                     password_confirmation@comparing_result:
  1346                           	callstack 0
  1347                           
  1348                           ; 1 bytes @ 0x22
  1349   0000CE                     	ds	1
  1350   0000CF                     password_confirmation@counter:
  1351                           	callstack 0
  1352   0000CF                     sprintf@fmt:
  1353                           	callstack 0
  1354                           
  1355                           ; 2 bytes @ 0x23
  1356   0000CF                     	ds	1
  1357   0000D0                     ??_change_password:
  1358                           
  1359                           ; 1 bytes @ 0x24
  1360   0000D0                     	ds	2
  1361   0000D2                     change_password@lcd_counter:
  1362                           	callstack 0
  1363                           
  1364                           ; 1 bytes @ 0x26
  1365   0000D2                     	ds	1
  1366   0000D3                     convert_byte_to_string@value:
  1367                           	callstack 0
  1368   0000D3                     change_password@comparing_result:
  1369                           	callstack 0
  1370                           
  1371                           ; 1 bytes @ 0x27
  1372   0000D3                     	ds	1
  1373   0000D4                     ??_entering_password:
  1374   0000D4                     change_password@counter:
  1375                           	callstack 0
  1376                           
  1377                           ; 1 bytes @ 0x28
  1378   0000D4                     	ds	2
  1379                           
  1380                           	psect	cstackCOMRAM
  1381   000001                     __pcstackCOMRAM:
  1382                           	callstack 0
  1383   000001                     RB4_ISR@RB4_source:
  1384                           	callstack 0
  1385   000001                     RB5_ISR@RB5_source:
  1386                           	callstack 0
  1387   000001                     RB6_ISR@RB6_source:
  1388                           	callstack 0
  1389   000001                     RB7_ISR@RB7_source:
  1390                           	callstack 0
  1391   000001                     i2gpio_pin_write_logic@_pin_config:
  1392                           	callstack 0
  1393   000001                     i2Data_EEPROM_WriteByte@badd:
  1394                           	callstack 0
  1395                           
  1396                           ; 2 bytes @ 0x0
  1397   000001                     	ds	1
  1398   000002                     i2gpio_pin_write_logic@logic:
  1399                           	callstack 0
  1400                           
  1401                           ; 1 bytes @ 0x1
  1402   000002                     	ds	1
  1403   000003                     ??i2_gpio_pin_write_logic:
  1404   000003                     i2Data_EEPROM_WriteByte@bData:
  1405                           	callstack 0
  1406                           
  1407                           ; 1 bytes @ 0x2
  1408   000003                     	ds	1
  1409   000004                     i2Data_EEPROM_WriteByte@GLOBAL_INTERRUPT_STATUS:
  1410                           	callstack 0
  1411                           
  1412                           ; 1 bytes @ 0x3
  1413   000004                     	ds	4
  1414   000008                     i2gpio_pin_write_logic@ret:
  1415                           	callstack 0
  1416                           
  1417                           ; 1 bytes @ 0x7
  1418   000008                     	ds	1
  1419   000009                     i2lcd_send_4bit@lcd:
  1420                           	callstack 0
  1421   000009                     i2lcd_4bit_send_enable_enable@lcd:
  1422                           	callstack 0
  1423                           
  1424                           ; 1 bytes @ 0x8
  1425   000009                     	ds	1
  1426   00000A                     i2lcd_send_4bit@command_data:
  1427                           	callstack 0
  1428   00000A                     i2lcd_4bit_send_enable_enable@ret:
  1429                           	callstack 0
  1430                           
  1431                           ; 1 bytes @ 0x9
  1432   00000A                     	ds	1
  1433   00000B                     i2lcd_send_4bit@ret:
  1434                           	callstack 0
  1435                           
  1436                           ; 1 bytes @ 0xA
  1437   00000B                     	ds	1
  1438   00000C                     i2lcd_4bit_send_command@lcd:
  1439                           	callstack 0
  1440   00000C                     i2lcd_4bit_send_char_data@lcd:
  1441                           	callstack 0
  1442                           
  1443                           ; 1 bytes @ 0xB
  1444   00000C                     	ds	1
  1445   00000D                     i2lcd_4bit_send_command@command:
  1446                           	callstack 0
  1447   00000D                     i2lcd_4bit_send_char_data@data:
  1448                           	callstack 0
  1449                           
  1450                           ; 1 bytes @ 0xC
  1451   00000D                     	ds	1
  1452   00000E                     i2lcd_4bit_send_command@ret:
  1453                           	callstack 0
  1454   00000E                     i2lcd_4bit_send_char_data@ret:
  1455                           	callstack 0
  1456                           
  1457                           ; 1 bytes @ 0xD
  1458   00000E                     	ds	1
  1459   00000F                     i2lcd_4bit_set_curser@lcd:
  1460                           	callstack 0
  1461                           
  1462                           ; 1 bytes @ 0xE
  1463   00000F                     	ds	1
  1464   000010                     i2lcd_4bit_set_curser@row:
  1465                           	callstack 0
  1466                           
  1467                           ; 1 bytes @ 0xF
  1468   000010                     	ds	1
  1469   000011                     i2lcd_4bit_set_curser@column:
  1470                           	callstack 0
  1471                           
  1472                           ; 1 bytes @ 0x10
  1473   000011                     	ds	1
  1474   000012                     ??i2_lcd_4bit_set_curser:
  1475                           
  1476                           ; 1 bytes @ 0x11
  1477   000012                     	ds	2
  1478   000014                     i2lcd_4bit_set_curser@ret:
  1479                           	callstack 0
  1480                           
  1481                           ; 1 bytes @ 0x13
  1482   000014                     	ds	1
  1483   000015                     i2lcd_4bit_send_string_pos@lcd:
  1484                           	callstack 0
  1485                           
  1486                           ; 1 bytes @ 0x14
  1487   000015                     	ds	1
  1488   000016                     i2lcd_4bit_send_string_pos@row:
  1489                           	callstack 0
  1490                           
  1491                           ; 1 bytes @ 0x15
  1492   000016                     	ds	1
  1493   000017                     i2lcd_4bit_send_string_pos@column:
  1494                           	callstack 0
  1495                           
  1496                           ; 1 bytes @ 0x16
  1497   000017                     	ds	1
  1498   000018                     i2lcd_4bit_send_string_pos@str:
  1499                           	callstack 0
  1500                           
  1501                           ; 2 bytes @ 0x17
  1502   000018                     	ds	2
  1503   00001A                     ??_INT0_app_ISR:
  1504   00001A                     
  1505                           ; 1 bytes @ 0x19
  1506   00001A                     	ds	2
  1507   00001C                     INT0_app_ISR@i:
  1508                           	callstack 0
  1509                           
  1510                           ; 2 bytes @ 0x1B
  1511   00001C                     	ds	2
  1512   00001E                     ??_INTERRUPT_MANAGER_HIGH:
  1513                           
  1514                           ; 1 bytes @ 0x1D
  1515   00001E                     	ds	12
  1516                           
  1517 ;;
  1518 ;;Main: autosize = 0, tempsize = 8, incstack = 0, save=0
  1519 ;;
  1520 ;; *************** function _main *****************
  1521 ;; Defined at:
  1522 ;;		line 12 in file "application.c"
  1523 ;; Parameters:    Size  Location     Type
  1524 ;;		None
  1525 ;; Auto vars:     Size  Location     Type
  1526 ;;  ret             1    0        unsigned char 
  1527 ;; Return value:  Size  Location     Type
  1528 ;;                  2  913[None  ] int 
  1529 ;; Registers used:
  1530 ;;		wreg, fsr0l, fsr0h, fsr1l, fsr1h, fsr2l, fsr2h, status,2, status,0, tblptrl, tblptrh, tblptru, prodl, prodh, cstack
  1531 ;; Tracked objects:
  1532 ;;		On entry : 0/0
  1533 ;;		On exit  : 0/0
  1534 ;;		Unchanged: 0/0
  1535 ;; Data sizes:     COMRAM   BANK0   BANK1   BANK2   BANK3   BANK4   BANK5   BANK6   BANK7   BANK8   BANK9  BANK10  BANK1
      +1  BANK12  BANK13  BANK14  BANK15
  1536 ;;      Params:         0       0       0       0       0       0       0       0       0       0       0       0       
      +0       0       0       0       0
  1537 ;;      Locals:         0       0       0       0       0       0       0       0       0       0       0       0       
      +0       0       0       0       0
  1538 ;;      Temps:          0       0       8       0       0       0       0       0       0       0       0       0       
      +0       0       0       0       0
  1539 ;;      Totals:         0       0       8       0       0       0       0       0       0       0       0       0       
      +0       0       0       0       0
  1540 ;;Total ram usage:        8 bytes
  1541 ;; Hardware stack levels required when called: 15
  1542 ;; This function calls:
  1543 ;;		_Application_Initialization
  1544 ;;		_Data_EEPROM_ReadByte
  1545 ;;		_change_password
  1546 ;;		_ecu_dc_motor_move_left
  1547 ;;		_ecu_dc_motor_stop
  1548 ;;		_ecu_keypad_get_value
  1549 ;;		_ecu_led_turn_off
  1550 ;;		_ecu_led_turn_on
  1551 ;;		_entering_password
  1552 ;;		_get_password
  1553 ;;		_gpio_pin_write_logic
  1554 ;;		_initialize_var
  1555 ;;		_lcd_4bit_send_string_pos
  1556 ;;		_password_confirmation
  1557 ;;		_welcome_msg
  1558 ;; This function is called by:
  1559 ;;		Startup code after reset
  1560 ;; This function uses a non-reentrant model
  1561 ;;
  1562                           
  1563                           	psect	text0
  1564   000F30                     __ptext0:
  1565                           	callstack 0
  1566   000F30                     _main:
  1567                           	callstack 16
  1568   000F30                     
  1569                           ;application.c: 14:     Application_Initialization();
  1570   000F30  ECA7  F01B         	call	_Application_Initialization	;wreg free
  1571   000F34                     l13223:
  1572                           
  1573                           ;application.c: 17:         initialize_var();
  1574   000F34  ECA3  F01B         	call	_initialize_var	;wreg free
  1575   000F38                     
  1576                           ;application.c: 18:         welcome_msg();
  1577   000F38  ECCF  F015         	call	_welcome_msg	;wreg free
  1578   000F3C                     
  1579                           ;application.c: 19:         Data_EEPROM_ReadByte(0x03f8,&pass_check);
  1580   000F3C  0E03               	movlw	3
  1581   000F3E  0100               	movlb	0	; () banked
  1582   000F40  6FAD               	movwf	(Data_EEPROM_ReadByte@badd+1)& (0+255),b
  1583   000F42  0EF8               	movlw	248
  1584   000F44  6FAC               	movwf	Data_EEPROM_ReadByte@badd& (0+255),b
  1585   000F46  0EAA               	movlw	low _pass_check
  1586   000F48  6FAE               	movwf	Data_EEPROM_ReadByte@bData& (0+255),b
  1587   000F4A  EC11  F01A         	call	_Data_EEPROM_ReadByte	;wreg free
  1588   000F4E                     
  1589                           ;application.c: 20:         if(pass_check == 0xff){
  1590   000F4E  0100               	movlb	0	; () banked
  1591   000F50  29AA               	incf	_pass_check& (0+255),w,b
  1592   000F52  A4D8               	btfss	status,2,c
  1593   000F54  EFAE  F007         	goto	u12991
  1594   000F58  EFB0  F007         	goto	u12990
  1595   000F5C                     u12991:
  1596   000F5C  EF3B  F008         	goto	l13253
  1597   000F60                     u12990:
  1598   000F60                     
  1599                           ; BSR set to: 0
  1600                           ;application.c: 21:             lcd_4bit_send_string_pos(&lcd1,2,1,"1-Set new password."
      +                          );
  1601   000F60  0E4C               	movlw	low _lcd1
  1602   000F62  6FC0               	movwf	lcd_4bit_send_string_pos@lcd& (0+255),b
  1603   000F64  0E02               	movlw	2
  1604   000F66  6FC1               	movwf	lcd_4bit_send_string_pos@row& (0+255),b
  1605   000F68  0E01               	movlw	1
  1606   000F6A  6FC2               	movwf	lcd_4bit_send_string_pos@column& (0+255),b
  1607   000F6C  0E55               	movlw	low STR_10
  1608   000F6E  6FC3               	movwf	lcd_4bit_send_string_pos@str& (0+255),b
  1609   000F70  0EFF               	movlw	high STR_10
  1610   000F72  6FC4               	movwf	(lcd_4bit_send_string_pos@str+1)& (0+255),b
  1611   000F74  EC78  F014         	call	_lcd_4bit_send_string_pos	;wreg free
  1612   000F78                     l13233:
  1613                           
  1614                           ;application.c: 25:                 ecu_keypad_get_value(&keypad,&keypad_value);
  1615   000F78  0EED               	movlw	low _keypad
  1616   000F7A  0100               	movlb	0	; () banked
  1617   000F7C  6FB4               	movwf	ecu_keypad_get_value@keypad& (0+255),b
  1618   000F7E  0EAB               	movlw	low _keypad_value
  1619   000F80  6FB5               	movwf	ecu_keypad_get_value@value& (0+255),b
  1620   000F82  EC28  F011         	call	_ecu_keypad_get_value	;wreg free
  1621   000F86                     
  1622                           ;application.c: 26:                 _delay((unsigned long)((100)*(8000000ul/4000.0)));
  1623   000F86  0E02               	movlw	2
  1624   000F88  0101               	movlb	1	; () banked
  1625   000F8A  6F1D               	movwf	(??_main+1)& (0+255),b
  1626   000F8C  0E04               	movlw	4
  1627   000F8E  6F1C               	movwf	??_main& (0+255),b
  1628   000F90  0EBA               	movlw	186
  1629   000F92                     u13077:
  1630   000F92  2EE8               	decfsz	wreg,f,c
  1631   000F94  D7FE               	bra	u13077
  1632   000F96  2F1C               	decfsz	??_main& (0+255),f,b
  1633   000F98  D7FC               	bra	u13077
  1634   000F9A  2F1D               	decfsz	(??_main+1)& (0+255),f,b
  1635   000F9C  D7FA               	bra	u13077
  1636   000F9E  0000               	nop	
  1637   000FA0                     
  1638                           ;application.c: 27:                 }while(keypad_value == 0 );
  1639   000FA0  0100               	movlb	0	; () banked
  1640   000FA2  51AB               	movf	_keypad_value& (0+255),w,b
  1641   000FA4  B4D8               	btfsc	status,2,c
  1642   000FA6  EFD7  F007         	goto	u13001
  1643   000FAA  EFD9  F007         	goto	u13000
  1644   000FAE                     u13001:
  1645   000FAE  EFBC  F007         	goto	l13233
  1646   000FB2                     u13000:
  1647   000FB2                     
  1648                           ; BSR set to: 0
  1649                           ;application.c: 29:                 if(keypad_value == '1'){
  1650   000FB2  0E31               	movlw	49
  1651   000FB4  19AB               	xorwf	_keypad_value& (0+255),w,b
  1652   000FB6  A4D8               	btfss	status,2,c
  1653   000FB8  EFE0  F007         	goto	u13011
  1654   000FBC  EFE2  F007         	goto	u13010
  1655   000FC0                     u13011:
  1656   000FC0  EFF1  F007         	goto	l13245
  1657   000FC4                     u13010:
  1658   000FC4                     
  1659                           ; BSR set to: 0
  1660                           ;application.c: 30:                     _delay((unsigned long)((100)*(8000000ul/4000.0))
      +                          );
  1661   000FC4  0E02               	movlw	2
  1662   000FC6  0101               	movlb	1	; () banked
  1663   000FC8  6F1D               	movwf	(??_main+1)& (0+255),b
  1664   000FCA  0E04               	movlw	4
  1665   000FCC  6F1C               	movwf	??_main& (0+255),b
  1666   000FCE  0EBA               	movlw	186
  1667   000FD0                     u13087:
  1668   000FD0  2EE8               	decfsz	wreg,f,c
  1669   000FD2  D7FE               	bra	u13087
  1670   000FD4  2F1C               	decfsz	??_main& (0+255),f,b
  1671   000FD6  D7FC               	bra	u13087
  1672   000FD8  2F1D               	decfsz	(??_main+1)& (0+255),f,b
  1673   000FDA  D7FA               	bra	u13087
  1674   000FDC  0000               	nop	
  1675                           
  1676                           ;application.c: 31:                     break;
  1677   000FDE  EF26  F008         	goto	l13251
  1678   000FE2                     l13245:
  1679                           
  1680                           ; BSR set to: 0
  1681                           ;application.c: 34:                     lcd_4bit_send_string_pos(&lcd1,4,1,"Unavailable 
      +                          process ");
  1682   000FE2  0E4C               	movlw	low _lcd1
  1683   000FE4  6FC0               	movwf	lcd_4bit_send_string_pos@lcd& (0+255),b
  1684   000FE6  0E04               	movlw	4
  1685   000FE8  6FC1               	movwf	lcd_4bit_send_string_pos@row& (0+255),b
  1686   000FEA  0E01               	movlw	1
  1687   000FEC  6FC2               	movwf	lcd_4bit_send_string_pos@column& (0+255),b
  1688   000FEE  0E40               	movlw	low STR_11
  1689   000FF0  6FC3               	movwf	lcd_4bit_send_string_pos@str& (0+255),b
  1690   000FF2  0EFF               	movlw	high STR_11
  1691   000FF4  6FC4               	movwf	(lcd_4bit_send_string_pos@str+1)& (0+255),b
  1692   000FF6  EC78  F014         	call	_lcd_4bit_send_string_pos	;wreg free
  1693   000FFA                     
  1694                           ;application.c: 35:                     _delay((unsigned long)((500)*(8000000ul/4000.0))
      +                          );
  1695   000FFA  0E06               	movlw	6
  1696   000FFC  0101               	movlb	1	; () banked
  1697   000FFE  6F1D               	movwf	(??_main+1)& (0+255),b
  1698   001000  0E13               	movlw	19
  1699   001002  6F1C               	movwf	??_main& (0+255),b
  1700   001004  0EAD               	movlw	173
  1701   001006                     u13097:
  1702   001006  2EE8               	decfsz	wreg,f,c
  1703   001008  D7FE               	bra	u13097
  1704   00100A  2F1C               	decfsz	??_main& (0+255),f,b
  1705   00100C  D7FC               	bra	u13097
  1706   00100E  2F1D               	decfsz	(??_main+1)& (0+255),f,b
  1707   001010  D7FA               	bra	u13097
  1708   001012  D000               	nop2	
  1709   001014                     
  1710                           ;application.c: 36:                     lcd_4bit_send_string_pos(&lcd1,4,1,"            
      +                                   ");
  1711   001014  0E4C               	movlw	low _lcd1
  1712   001016  0100               	movlb	0	; () banked
  1713   001018  6FC0               	movwf	lcd_4bit_send_string_pos@lcd& (0+255),b
  1714   00101A  0E04               	movlw	4
  1715   00101C  6FC1               	movwf	lcd_4bit_send_string_pos@row& (0+255),b
  1716   00101E  0E01               	movlw	1
  1717   001020  6FC2               	movwf	lcd_4bit_send_string_pos@column& (0+255),b
  1718   001022  0EFF               	movlw	low STR_12
  1719   001024  6FC3               	movwf	lcd_4bit_send_string_pos@str& (0+255),b
  1720   001026  0EFE               	movlw	high STR_12
  1721   001028  6FC4               	movwf	(lcd_4bit_send_string_pos@str+1)& (0+255),b
  1722   00102A  EC78  F014         	call	_lcd_4bit_send_string_pos	;wreg free
  1723                           
  1724                           ;application.c: 37:                     _delay((unsigned long)((500)*(8000000ul/4000.0))
      +                          );
  1725   00102E  0E06               	movlw	6
  1726   001030  0101               	movlb	1	; () banked
  1727   001032  6F1D               	movwf	(??_main+1)& (0+255),b
  1728   001034  0E13               	movlw	19
  1729   001036  6F1C               	movwf	??_main& (0+255),b
  1730   001038  0EAD               	movlw	173
  1731   00103A                     u13107:
  1732   00103A  2EE8               	decfsz	wreg,f,c
  1733   00103C  D7FE               	bra	u13107
  1734   00103E  2F1C               	decfsz	??_main& (0+255),f,b
  1735   001040  D7FC               	bra	u13107
  1736   001042  2F1D               	decfsz	(??_main+1)& (0+255),f,b
  1737   001044  D7FA               	bra	u13107
  1738   001046  D000               	nop2	
  1739   001048  EFBC  F007         	goto	l13233
  1740   00104C                     l13251:
  1741                           
  1742                           ;application.c: 41:             get_password(password,&pass_num_digits);
  1743   00104C  0E9D               	movlw	low _password
  1744   00104E  0100               	movlb	0	; () banked
  1745   001050  6FC5               	movwf	get_password@pass& (0+255),b
  1746   001052  0EA8               	movlw	low _pass_num_digits
  1747   001054  6FC6               	movwf	get_password@pass_didits& (0+255),b
  1748   001056  6BC7               	clrf	(get_password@pass_didits+1)& (0+255),b
  1749   001058  EC75  F009         	call	_get_password	;wreg free
  1750                           
  1751                           ;application.c: 43:             password_confirmation(password,&pass_num_digits,password
      +                          _confirm,&pass_confirm_num_digits);
  1752   00105C  0E9D               	movlw	low _password
  1753   00105E  0100               	movlb	0	; () banked
  1754   001060  6FC5               	movwf	password_confirmation@pass& (0+255),b
  1755   001062  0EA8               	movlw	low _pass_num_digits
  1756   001064  6FC6               	movwf	password_confirmation@pass_didits& (0+255),b
  1757   001066  6BC7               	clrf	(password_confirmation@pass_didits+1)& (0+255),b
  1758   001068  0E95               	movlw	low _password_confirm
  1759   00106A  6FC8               	movwf	password_confirmation@pass_confirm& (0+255),b
  1760   00106C  0EA7               	movlw	low _pass_confirm_num_digits
  1761   00106E  6FC9               	movwf	password_confirmation@pass_confirm_didits& (0+255),b
  1762   001070  6BCA               	clrf	(password_confirmation@pass_confirm_didits+1)& (0+255),b
  1763   001072  EC0C  F003         	call	_password_confirmation	;wreg free
  1764   001076                     l13253:
  1765                           
  1766                           ;application.c: 50:         lcd_4bit_send_string_pos(&lcd1,2,1,"1-Enter password.");
  1767   001076  0E4C               	movlw	low _lcd1
  1768   001078  0100               	movlb	0	; () banked
  1769   00107A  6FC0               	movwf	lcd_4bit_send_string_pos@lcd& (0+255),b
  1770   00107C  0E02               	movlw	2
  1771   00107E  6FC1               	movwf	lcd_4bit_send_string_pos@row& (0+255),b
  1772   001080  0E01               	movlw	1
  1773   001082  6FC2               	movwf	lcd_4bit_send_string_pos@column& (0+255),b
  1774   001084  0E7C               	movlw	low STR_13
  1775   001086  6FC3               	movwf	lcd_4bit_send_string_pos@str& (0+255),b
  1776   001088  0EFF               	movlw	high STR_13
  1777   00108A  6FC4               	movwf	(lcd_4bit_send_string_pos@str+1)& (0+255),b
  1778   00108C  EC78  F014         	call	_lcd_4bit_send_string_pos	;wreg free
  1779                           
  1780                           ;application.c: 51:         lcd_4bit_send_string_pos(&lcd1,3,1,"2-Change password.");
  1781   001090  0E4C               	movlw	low _lcd1
  1782   001092  0100               	movlb	0	; () banked
  1783   001094  6FC0               	movwf	lcd_4bit_send_string_pos@lcd& (0+255),b
  1784   001096  0E03               	movlw	3
  1785   001098  6FC1               	movwf	lcd_4bit_send_string_pos@row& (0+255),b
  1786   00109A  0E01               	movlw	1
  1787   00109C  6FC2               	movwf	lcd_4bit_send_string_pos@column& (0+255),b
  1788   00109E  0E69               	movlw	low STR_14
  1789   0010A0  6FC3               	movwf	lcd_4bit_send_string_pos@str& (0+255),b
  1790   0010A2  0EFF               	movlw	high STR_14
  1791   0010A4  6FC4               	movwf	(lcd_4bit_send_string_pos@str+1)& (0+255),b
  1792   0010A6  EC78  F014         	call	_lcd_4bit_send_string_pos	;wreg free
  1793   0010AA                     l13255:
  1794                           
  1795                           ;application.c: 56:                 ecu_keypad_get_value(&keypad,&keypad_value);
  1796   0010AA  0EED               	movlw	low _keypad
  1797   0010AC  0100               	movlb	0	; () banked
  1798   0010AE  6FB4               	movwf	ecu_keypad_get_value@keypad& (0+255),b
  1799   0010B0  0EAB               	movlw	low _keypad_value
  1800   0010B2  6FB5               	movwf	ecu_keypad_get_value@value& (0+255),b
  1801   0010B4  EC28  F011         	call	_ecu_keypad_get_value	;wreg free
  1802   0010B8                     
  1803                           ;application.c: 57:                 _delay((unsigned long)((100)*(8000000ul/4000.0)));
  1804   0010B8  0E02               	movlw	2
  1805   0010BA  0101               	movlb	1	; () banked
  1806   0010BC  6F1D               	movwf	(??_main+1)& (0+255),b
  1807   0010BE  0E04               	movlw	4
  1808   0010C0  6F1C               	movwf	??_main& (0+255),b
  1809   0010C2  0EBA               	movlw	186
  1810   0010C4                     u13117:
  1811   0010C4  2EE8               	decfsz	wreg,f,c
  1812   0010C6  D7FE               	bra	u13117
  1813   0010C8  2F1C               	decfsz	??_main& (0+255),f,b
  1814   0010CA  D7FC               	bra	u13117
  1815   0010CC  2F1D               	decfsz	(??_main+1)& (0+255),f,b
  1816   0010CE  D7FA               	bra	u13117
  1817   0010D0  0000               	nop	
  1818   0010D2                     
  1819                           ;application.c: 58:                 }while(keypad_value == 0 );
  1820   0010D2  0100               	movlb	0	; () banked
  1821   0010D4  51AB               	movf	_keypad_value& (0+255),w,b
  1822   0010D6  B4D8               	btfsc	status,2,c
  1823   0010D8  EF70  F008         	goto	u13021
  1824   0010DC  EF72  F008         	goto	u13020
  1825   0010E0                     u13021:
  1826   0010E0  EF55  F008         	goto	l13255
  1827   0010E4                     u13020:
  1828   0010E4                     
  1829                           ; BSR set to: 0
  1830                           ;application.c: 60:                 if(keypad_value == '1'){
  1831   0010E4  0E31               	movlw	49
  1832   0010E6  19AB               	xorwf	_keypad_value& (0+255),w,b
  1833   0010E8  A4D8               	btfss	status,2,c
  1834   0010EA  EF79  F008         	goto	u13031
  1835   0010EE  EF7B  F008         	goto	u13030
  1836   0010F2                     u13031:
  1837   0010F2  EF8C  F008         	goto	l13269
  1838   0010F6                     u13030:
  1839   0010F6                     
  1840                           ; BSR set to: 0
  1841                           ;application.c: 61:                     selected_mode = 1 ;
  1842   0010F6  0E01               	movlw	1
  1843   0010F8  6F84               	movwf	_selected_mode& (0+255),b
  1844   0010FA                     l13265:
  1845                           
  1846                           ; BSR set to: 0
  1847                           ;application.c: 62:                     _delay((unsigned long)((100)*(8000000ul/4000.0))
      +                          );
  1848   0010FA  0E02               	movlw	2
  1849   0010FC  0101               	movlb	1	; () banked
  1850   0010FE  6F1D               	movwf	(??_main+1)& (0+255),b
  1851   001100  0E04               	movlw	4
  1852   001102  6F1C               	movwf	??_main& (0+255),b
  1853   001104  0EBA               	movlw	186
  1854   001106                     u13127:
  1855   001106  2EE8               	decfsz	wreg,f,c
  1856   001108  D7FE               	bra	u13127
  1857   00110A  2F1C               	decfsz	??_main& (0+255),f,b
  1858   00110C  D7FC               	bra	u13127
  1859   00110E  2F1D               	decfsz	(??_main+1)& (0+255),f,b
  1860   001110  D7FA               	bra	u13127
  1861   001112  0000               	nop	
  1862                           
  1863                           ;application.c: 63:                     break;
  1864   001114  EFCE  F008         	goto	l13283
  1865   001118                     l13269:
  1866                           
  1867                           ; BSR set to: 0
  1868   001118  0E32               	movlw	50
  1869   00111A  19AB               	xorwf	_keypad_value& (0+255),w,b
  1870   00111C  A4D8               	btfss	status,2,c
  1871   00111E  EF93  F008         	goto	u13041
  1872   001122  EF95  F008         	goto	u13040
  1873   001126                     u13041:
  1874   001126  EF99  F008         	goto	l13277
  1875   00112A                     u13040:
  1876   00112A                     
  1877                           ; BSR set to: 0
  1878                           ;application.c: 66:                     selected_mode = 2 ;
  1879   00112A  0E02               	movlw	2
  1880   00112C  6F84               	movwf	_selected_mode& (0+255),b
  1881   00112E  EF7D  F008         	goto	l13265
  1882   001132                     l13277:
  1883                           
  1884                           ; BSR set to: 0
  1885                           ;application.c: 71:                     lcd_4bit_send_string_pos(&lcd1,4,1,"Unavailable 
      +                          process ");
  1886   001132  0E4C               	movlw	low _lcd1
  1887   001134  6FC0               	movwf	lcd_4bit_send_string_pos@lcd& (0+255),b
  1888   001136  0E04               	movlw	4
  1889   001138  6FC1               	movwf	lcd_4bit_send_string_pos@row& (0+255),b
  1890   00113A  0E01               	movlw	1
  1891   00113C  6FC2               	movwf	lcd_4bit_send_string_pos@column& (0+255),b
  1892   00113E  0E40               	movlw	low STR_11
  1893   001140  6FC3               	movwf	lcd_4bit_send_string_pos@str& (0+255),b
  1894   001142  0EFF               	movlw	high STR_11
  1895   001144  6FC4               	movwf	(lcd_4bit_send_string_pos@str+1)& (0+255),b
  1896   001146  EC78  F014         	call	_lcd_4bit_send_string_pos	;wreg free
  1897   00114A                     
  1898                           ;application.c: 72:                     _delay((unsigned long)((500)*(8000000ul/4000.0))
      +                          );
  1899   00114A  0E06               	movlw	6
  1900   00114C  0101               	movlb	1	; () banked
  1901   00114E  6F1D               	movwf	(??_main+1)& (0+255),b
  1902   001150  0E13               	movlw	19
  1903   001152  6F1C               	movwf	??_main& (0+255),b
  1904   001154  0EAD               	movlw	173
  1905   001156                     u13137:
  1906   001156  2EE8               	decfsz	wreg,f,c
  1907   001158  D7FE               	bra	u13137
  1908   00115A  2F1C               	decfsz	??_main& (0+255),f,b
  1909   00115C  D7FC               	bra	u13137
  1910   00115E  2F1D               	decfsz	(??_main+1)& (0+255),f,b
  1911   001160  D7FA               	bra	u13137
  1912   001162  D000               	nop2	
  1913   001164                     
  1914                           ;application.c: 73:                     lcd_4bit_send_string_pos(&lcd1,4,1,"            
      +                                   ");
  1915   001164  0E4C               	movlw	low _lcd1
  1916   001166  0100               	movlb	0	; () banked
  1917   001168  6FC0               	movwf	lcd_4bit_send_string_pos@lcd& (0+255),b
  1918   00116A  0E04               	movlw	4
  1919   00116C  6FC1               	movwf	lcd_4bit_send_string_pos@row& (0+255),b
  1920   00116E  0E01               	movlw	1
  1921   001170  6FC2               	movwf	lcd_4bit_send_string_pos@column& (0+255),b
  1922   001172  0EFF               	movlw	low STR_12
  1923   001174  6FC3               	movwf	lcd_4bit_send_string_pos@str& (0+255),b
  1924   001176  0EFE               	movlw	high STR_12
  1925   001178  6FC4               	movwf	(lcd_4bit_send_string_pos@str+1)& (0+255),b
  1926   00117A  EC78  F014         	call	_lcd_4bit_send_string_pos	;wreg free
  1927                           
  1928                           ;application.c: 74:                     _delay((unsigned long)((500)*(8000000ul/4000.0))
      +                          );
  1929   00117E  0E06               	movlw	6
  1930   001180  0101               	movlb	1	; () banked
  1931   001182  6F1D               	movwf	(??_main+1)& (0+255),b
  1932   001184  0E13               	movlw	19
  1933   001186  6F1C               	movwf	??_main& (0+255),b
  1934   001188  0EAD               	movlw	173
  1935   00118A                     u13147:
  1936   00118A  2EE8               	decfsz	wreg,f,c
  1937   00118C  D7FE               	bra	u13147
  1938   00118E  2F1C               	decfsz	??_main& (0+255),f,b
  1939   001190  D7FC               	bra	u13147
  1940   001192  2F1D               	decfsz	(??_main+1)& (0+255),f,b
  1941   001194  D7FA               	bra	u13147
  1942   001196  D000               	nop2	
  1943   001198  EF55  F008         	goto	l13255
  1944   00119C                     l13283:
  1945                           
  1946                           ;application.c: 78:         if(selected_mode == 1){
  1947   00119C  0100               	movlb	0	; () banked
  1948   00119E  0584               	decf	_selected_mode& (0+255),w,b
  1949   0011A0  A4D8               	btfss	status,2,c
  1950   0011A2  EFD5  F008         	goto	u13051
  1951   0011A6  EFD7  F008         	goto	u13050
  1952   0011AA                     u13051:
  1953   0011AA  EF42  F009         	goto	l13307
  1954   0011AE                     u13050:
  1955   0011AE                     
  1956                           ; BSR set to: 0
  1957                           ;application.c: 79:             entering_password(entered_password,&enterd_pass_num_digi
      +                          ts,stored_password,&stored_pass_num_digits,&user_statue);
  1958   0011AE  0E8D               	movlw	low _entered_password
  1959   0011B0  0101               	movlb	1	; () banked
  1960   0011B2  6F0F               	movwf	entering_password@pass_entered& (0+255),b
  1961   0011B4  0EA6               	movlw	low _enterd_pass_num_digits
  1962   0011B6  6F10               	movwf	entering_password@pass_entered_didits& (0+255),b
  1963   0011B8  0E85               	movlw	low _stored_password
  1964   0011BA  6F11               	movwf	entering_password@stored_password& (0+255),b
  1965   0011BC  0EA5               	movlw	low _stored_pass_num_digits
  1966   0011BE  6F12               	movwf	entering_password@stored_password_digits& (0+255),b
  1967   0011C0  0EA9               	movlw	low _user_statue
  1968   0011C2  6F13               	movwf	entering_password@user_statue& (0+255),b
  1969   0011C4  EC09  F000         	call	_entering_password	;wreg free
  1970   0011C8                     
  1971                           ;application.c: 80:             if(user_statue == 1){
  1972   0011C8  0100               	movlb	0	; () banked
  1973   0011CA  05A9               	decf	_user_statue& (0+255),w,b
  1974   0011CC  A4D8               	btfss	status,2,c
  1975   0011CE  EFEB  F008         	goto	u13061
  1976   0011D2  EFED  F008         	goto	u13060
  1977   0011D6                     u13061:
  1978   0011D6  EF1C  F009         	goto	l13299
  1979   0011DA                     u13060:
  1980   0011DA                     
  1981                           ; BSR set to: 0
  1982                           ;application.c: 81:                 ecu_led_turn_on(&green_led);
  1983   0011DA  0E55               	movlw	low _green_led
  1984   0011DC  6FB4               	movwf	ecu_led_turn_on@led& (0+255),b
  1985   0011DE  EC7A  F016         	call	_ecu_led_turn_on	;wreg free
  1986   0011E2                     
  1987                           ;application.c: 82:                 _delay((unsigned long)((1000)*(8000000ul/4000.0)));
  1988   0011E2  0E0B               	movlw	11
  1989   0011E4  0101               	movlb	1	; () banked
  1990   0011E6  6F1D               	movwf	(??_main+1)& (0+255),b
  1991   0011E8  0E26               	movlw	38
  1992   0011EA  6F1C               	movwf	??_main& (0+255),b
  1993   0011EC  0E5D               	movlw	93
  1994   0011EE                     u13157:
  1995   0011EE  2EE8               	decfsz	wreg,f,c
  1996   0011F0  D7FE               	bra	u13157
  1997   0011F2  2F1C               	decfsz	??_main& (0+255),f,b
  1998   0011F4  D7FC               	bra	u13157
  1999   0011F6  2F1D               	decfsz	(??_main+1)& (0+255),f,b
  2000   0011F8  D7FA               	bra	u13157
  2001   0011FA  D000               	nop2	
  2002   0011FC                     
  2003                           ;application.c: 83:                 ecu_led_turn_off(&green_led);
  2004   0011FC  0E55               	movlw	low _green_led
  2005   0011FE  0100               	movlb	0	; () banked
  2006   001200  6FB4               	movwf	ecu_led_turn_off@led& (0+255),b
  2007   001202  ECB1  F016         	call	_ecu_led_turn_off	;wreg free
  2008   001206                     
  2009                           ;application.c: 84:                 ecu_dc_motor_move_left(&motor1);
  2010   001206  0E52               	movlw	low _motor1
  2011   001208  0100               	movlb	0	; () banked
  2012   00120A  6FB4               	movwf	ecu_dc_motor_move_left@dc_motor& (0+255),b
  2013   00120C  EC61  F01A         	call	_ecu_dc_motor_move_left	;wreg free
  2014   001210                     
  2015                           ;application.c: 85:                 _delay((unsigned long)((3000)*(8000000ul/4000.0)));
  2016   001210  0E1F               	movlw	31
  2017   001212  0101               	movlb	1	; () banked
  2018   001214  6F1D               	movwf	(??_main+1)& (0+255),b
  2019   001216  0E71               	movlw	113
  2020   001218  6F1C               	movwf	??_main& (0+255),b
  2021   00121A  0E1E               	movlw	30
  2022   00121C                     u13167:
  2023   00121C  2EE8               	decfsz	wreg,f,c
  2024   00121E  D7FE               	bra	u13167
  2025   001220  2F1C               	decfsz	??_main& (0+255),f,b
  2026   001222  D7FC               	bra	u13167
  2027   001224  2F1D               	decfsz	(??_main+1)& (0+255),f,b
  2028   001226  D7FA               	bra	u13167
  2029   001228  0000               	nop	
  2030                           
  2031                           ;application.c: 86:                 ecu_dc_motor_stop(&motor1);
  2032   00122A  0E52               	movlw	low _motor1
  2033   00122C  0100               	movlb	0	; () banked
  2034   00122E  6FB4               	movwf	ecu_dc_motor_stop@dc_motor& (0+255),b
  2035   001230  EC48  F01A         	call	_ecu_dc_motor_stop	;wreg free
  2036                           
  2037                           ;application.c: 88:             }
  2038   001234  EF9A  F007         	goto	l13223
  2039   001238                     l13299:
  2040                           
  2041                           ; BSR set to: 0
  2042                           ;application.c: 90:                 gpio_pin_write_logic(&buzzer,HIGH);
  2043   001238  0E54               	movlw	low _buzzer
  2044   00123A  6FAC               	movwf	gpio_pin_write_logic@_pin_config& (0+255),b
  2045   00123C  0E01               	movlw	1
  2046   00123E  6FAD               	movwf	gpio_pin_write_logic@logic& (0+255),b
  2047   001240  EC95  F00F         	call	_gpio_pin_write_logic	;wreg free
  2048                           
  2049                           ;application.c: 91:                 ecu_led_turn_on(&red_led);
  2050   001244  0E56               	movlw	low _red_led
  2051   001246  0100               	movlb	0	; () banked
  2052   001248  6FB4               	movwf	ecu_led_turn_on@led& (0+255),b
  2053   00124A  EC7A  F016         	call	_ecu_led_turn_on	;wreg free
  2054   00124E                     
  2055                           ;application.c: 92:                 _delay((unsigned long)((3000)*(8000000ul/4000.0)));
  2056   00124E  0E1F               	movlw	31
  2057   001250  0101               	movlb	1	; () banked
  2058   001252  6F1D               	movwf	(??_main+1)& (0+255),b
  2059   001254  0E71               	movlw	113
  2060   001256  6F1C               	movwf	??_main& (0+255),b
  2061   001258  0E1E               	movlw	30
  2062   00125A                     u13177:
  2063   00125A  2EE8               	decfsz	wreg,f,c
  2064   00125C  D7FE               	bra	u13177
  2065   00125E  2F1C               	decfsz	??_main& (0+255),f,b
  2066   001260  D7FC               	bra	u13177
  2067   001262  2F1D               	decfsz	(??_main+1)& (0+255),f,b
  2068   001264  D7FA               	bra	u13177
  2069   001266  0000               	nop	
  2070   001268                     
  2071                           ;application.c: 93:                 gpio_pin_write_logic(&buzzer,LOW);
  2072   001268  0E54               	movlw	low _buzzer
  2073   00126A  0100               	movlb	0	; () banked
  2074   00126C  6FAC               	movwf	gpio_pin_write_logic@_pin_config& (0+255),b
  2075   00126E  0E00               	movlw	0
  2076   001270  6FAD               	movwf	gpio_pin_write_logic@logic& (0+255),b
  2077   001272  EC95  F00F         	call	_gpio_pin_write_logic	;wreg free
  2078   001276                     
  2079                           ;application.c: 94:                 ecu_led_turn_off(&red_led);
  2080   001276  0E56               	movlw	low _red_led
  2081   001278  0100               	movlb	0	; () banked
  2082   00127A  6FB4               	movwf	ecu_led_turn_off@led& (0+255),b
  2083   00127C  ECB1  F016         	call	_ecu_led_turn_off	;wreg free
  2084   001280  EF9A  F007         	goto	l13223
  2085   001284                     l13307:
  2086                           
  2087                           ; BSR set to: 0
  2088                           ;application.c: 103:             change_password(entered_password,enterd_pass_num_digits
      +                          ,stored_password,stored_pass_num_digits,
  2089   001284  0E8D               	movlw	low _entered_password
  2090   001286  0101               	movlb	1	; () banked
  2091   001288  6F00               	movwf	change_password@old_pass& (0+255),b
  2092   00128A  0100               	movlb	0	; () banked
  2093   00128C  51A6               	movf	_enterd_pass_num_digits& (0+255),w,b
  2094   00128E  0101               	movlb	1	; () banked
  2095   001290  6F1C               	movwf	??_main& (0+255),b
  2096   001292  6B1D               	clrf	(??_main+1)& (0+255),b
  2097   001294  C11C  F101         	movff	??_main,change_password@old_pass_didits
  2098   001298  C11D  F102         	movff	??_main+1,change_password@old_pass_didits+1
  2099   00129C  0E85               	movlw	low _stored_password
  2100   00129E  6F03               	movwf	change_password@stored_password& (0+255),b
  2101   0012A0  0100               	movlb	0	; () banked
  2102   0012A2  51A5               	movf	_stored_pass_num_digits& (0+255),w,b
  2103   0012A4  0101               	movlb	1	; () banked
  2104   0012A6  6F1E               	movwf	(??_main+2)& (0+255),b
  2105   0012A8  6B1F               	clrf	(??_main+3)& (0+255),b
  2106   0012AA  C11E  F104         	movff	??_main+2,change_password@stored_password_digits
  2107   0012AE  C11F  F105         	movff	??_main+3,change_password@stored_password_digits+1
  2108   0012B2  0E9D               	movlw	low _password
  2109   0012B4  6F06               	movwf	change_password@new_pass& (0+255),b
  2110   0012B6  0100               	movlb	0	; () banked
  2111   0012B8  51A8               	movf	_pass_num_digits& (0+255),w,b
  2112   0012BA  0101               	movlb	1	; () banked
  2113   0012BC  6F20               	movwf	(??_main+4)& (0+255),b
  2114   0012BE  6B21               	clrf	(??_main+5)& (0+255),b
  2115   0012C0  C120  F107         	movff	??_main+4,change_password@new_pass_Digits
  2116   0012C4  C121  F108         	movff	??_main+5,change_password@new_pass_Digits+1
  2117   0012C8  0E95               	movlw	low _password_confirm
  2118   0012CA  6F09               	movwf	change_password@new_pass_confirm& (0+255),b
  2119   0012CC  0100               	movlb	0	; () banked
  2120   0012CE  51A7               	movf	_pass_confirm_num_digits& (0+255),w,b
  2121   0012D0  0101               	movlb	1	; () banked
  2122   0012D2  6F22               	movwf	(??_main+6)& (0+255),b
  2123   0012D4  6B23               	clrf	(??_main+7)& (0+255),b
  2124   0012D6  C122  F10A         	movff	??_main+6,change_password@new_pass_confirm_Digits
  2125   0012DA  C123  F10B         	movff	??_main+7,change_password@new_pass_confirm_Digits+1
  2126   0012DE  EC67  F005         	call	_change_password	;wreg free
  2127   0012E2  EF9A  F007         	goto	l13223
  2128   0012E6  EF07  F000         	goto	start
  2129   0012EA                     __end_of_main:
  2130                           	callstack 0
  2131                           
  2132 ;; *************** function _welcome_msg *****************
  2133 ;; Defined at:
  2134 ;;		line 15 in file "Helper_functions/helper_fn.c"
  2135 ;; Parameters:    Size  Location     Type
  2136 ;;		None
  2137 ;; Auto vars:     Size  Location     Type
  2138 ;;		None
  2139 ;; Return value:  Size  Location     Type
  2140 ;;                  1    wreg      void 
  2141 ;; Registers used:
  2142 ;;		wreg, fsr0l, fsr0h, fsr2l, fsr2h, status,2, status,0, tblptrl, tblptrh, tblptru, prodl, prodh, cstack
  2143 ;; Tracked objects:
  2144 ;;		On entry : 0/0
  2145 ;;		On exit  : 0/0
  2146 ;;		Unchanged: 0/0
  2147 ;; Data sizes:     COMRAM   BANK0   BANK1   BANK2   BANK3   BANK4   BANK5   BANK6   BANK7   BANK8   BANK9  BANK10  BANK1
      +1  BANK12  BANK13  BANK14  BANK15
  2148 ;;      Params:         0       0       0       0       0       0       0       0       0       0       0       0       
      +0       0       0       0       0
  2149 ;;      Locals:         0       0       0       0       0       0       0       0       0       0       0       0       
      +0       0       0       0       0
  2150 ;;      Temps:          0       2       0       0       0       0       0       0       0       0       0       0       
      +0       0       0       0       0
  2151 ;;      Totals:         0       2       0       0       0       0       0       0       0       0       0       0       
      +0       0       0       0       0
  2152 ;;Total ram usage:        2 bytes
  2153 ;; Hardware stack levels used: 1
  2154 ;; Hardware stack levels required when called: 13
  2155 ;; This function calls:
  2156 ;;		_lcd_4bit_send_command
  2157 ;;		_lcd_4bit_send_string_pos
  2158 ;; This function is called by:
  2159 ;;		_main
  2160 ;; This function uses a non-reentrant model
  2161 ;;
  2162                           
  2163                           	psect	text1
  2164   002B9E                     __ptext1:
  2165                           	callstack 0
  2166   002B9E                     _welcome_msg:
  2167                           	callstack 17
  2168   002B9E                     
  2169                           ;Helper_functions/helper_fn.c: 16:     lcd_4bit_send_command(&lcd1,0x01);
  2170   002B9E  0E4C               	movlw	low _lcd1
  2171   002BA0  0100               	movlb	0	; () banked
  2172   002BA2  6FB7               	movwf	lcd_4bit_send_command@lcd& (0+255),b
  2173   002BA4  0E01               	movlw	1
  2174   002BA6  6FB8               	movwf	lcd_4bit_send_command@command& (0+255),b
  2175   002BA8  EC51  F017         	call	_lcd_4bit_send_command	;wreg free
  2176   002BAC                     
  2177                           ;Helper_functions/helper_fn.c: 17:     _delay((unsigned long)((20)*(8000000ul/4000.0)));
  2178   002BAC  0E34               	movlw	52
  2179   002BAE  0100               	movlb	0	; () banked
  2180   002BB0  6FC5               	movwf	??_welcome_msg& (0+255),b
  2181   002BB2  0EF1               	movlw	241
  2182   002BB4                     u13187:
  2183   002BB4  2EE8               	decfsz	wreg,f,c
  2184   002BB6  D7FE               	bra	u13187
  2185   002BB8  2FC5               	decfsz	??_welcome_msg& (0+255),f,b
  2186   002BBA  D7FC               	bra	u13187
  2187   002BBC  D000               	nop2	
  2188   002BBE                     
  2189                           ;Helper_functions/helper_fn.c: 18:     lcd_4bit_send_string_pos(&lcd1,2,7,"welcome");
  2190   002BBE  0E4C               	movlw	low _lcd1
  2191   002BC0  0100               	movlb	0	; () banked
  2192   002BC2  6FC0               	movwf	lcd_4bit_send_string_pos@lcd& (0+255),b
  2193   002BC4  0E02               	movlw	2
  2194   002BC6  6FC1               	movwf	lcd_4bit_send_string_pos@row& (0+255),b
  2195   002BC8  0E07               	movlw	7
  2196   002BCA  6FC2               	movwf	lcd_4bit_send_string_pos@column& (0+255),b
  2197   002BCC  0EEB               	movlw	low STR_17
  2198   002BCE  6FC3               	movwf	lcd_4bit_send_string_pos@str& (0+255),b
  2199   002BD0  0EFF               	movlw	high STR_17
  2200   002BD2  6FC4               	movwf	(lcd_4bit_send_string_pos@str+1)& (0+255),b
  2201   002BD4  EC78  F014         	call	_lcd_4bit_send_string_pos	;wreg free
  2202   002BD8                     
  2203                           ;Helper_functions/helper_fn.c: 19:     _delay((unsigned long)((1000)*(8000000ul/4000.0))
      +                          );
  2204   002BD8  0E0B               	movlw	11
  2205   002BDA  0100               	movlb	0	; () banked
  2206   002BDC  6FC6               	movwf	(??_welcome_msg+1)& (0+255),b
  2207   002BDE  0E26               	movlw	38
  2208   002BE0  6FC5               	movwf	??_welcome_msg& (0+255),b
  2209   002BE2  0E5D               	movlw	93
  2210   002BE4                     u13197:
  2211   002BE4  2EE8               	decfsz	wreg,f,c
  2212   002BE6  D7FE               	bra	u13197
  2213   002BE8  2FC5               	decfsz	??_welcome_msg& (0+255),f,b
  2214   002BEA  D7FC               	bra	u13197
  2215   002BEC  2FC6               	decfsz	(??_welcome_msg+1)& (0+255),f,b
  2216   002BEE  D7FA               	bra	u13197
  2217   002BF0  D000               	nop2	
  2218   002BF2                     
  2219                           ;Helper_functions/helper_fn.c: 20:     lcd_4bit_send_command(&lcd1,0x01);
  2220   002BF2  0E4C               	movlw	low _lcd1
  2221   002BF4  0100               	movlb	0	; () banked
  2222   002BF6  6FB7               	movwf	lcd_4bit_send_command@lcd& (0+255),b
  2223   002BF8  0E01               	movlw	1
  2224   002BFA  6FB8               	movwf	lcd_4bit_send_command@command& (0+255),b
  2225   002BFC  EC51  F017         	call	_lcd_4bit_send_command	;wreg free
  2226   002C00                     
  2227                           ;Helper_functions/helper_fn.c: 21:     _delay((unsigned long)((20)*(8000000ul/4000.0)));
  2228   002C00  0E34               	movlw	52
  2229   002C02  0100               	movlb	0	; () banked
  2230   002C04  6FC5               	movwf	??_welcome_msg& (0+255),b
  2231   002C06  0EF1               	movlw	241
  2232   002C08                     u13207:
  2233   002C08  2EE8               	decfsz	wreg,f,c
  2234   002C0A  D7FE               	bra	u13207
  2235   002C0C  2FC5               	decfsz	??_welcome_msg& (0+255),f,b
  2236   002C0E  D7FC               	bra	u13207
  2237   002C10  D000               	nop2	
  2238   002C12  0012               	return		;funcret
  2239   002C14                     __end_of_welcome_msg:
  2240                           	callstack 0
  2241                           
  2242 ;; *************** function _initialize_var *****************
  2243 ;; Defined at:
  2244 ;;		line 24 in file "Helper_functions/helper_fn.c"
  2245 ;; Parameters:    Size  Location     Type
  2246 ;;		None
  2247 ;; Auto vars:     Size  Location     Type
  2248 ;;		None
  2249 ;; Return value:  Size  Location     Type
  2250 ;;                  1    wreg      void 
  2251 ;; Registers used:
  2252 ;;		wreg, status,2
  2253 ;; Tracked objects:
  2254 ;;		On entry : 0/0
  2255 ;;		On exit  : 0/0
  2256 ;;		Unchanged: 0/0
  2257 ;; Data sizes:     COMRAM   BANK0   BANK1   BANK2   BANK3   BANK4   BANK5   BANK6   BANK7   BANK8   BANK9  BANK10  BANK1
      +1  BANK12  BANK13  BANK14  BANK15
  2258 ;;      Params:         0       0       0       0       0       0       0       0       0       0       0       0       
      +0       0       0       0       0
  2259 ;;      Locals:         0       0       0       0       0       0       0       0       0       0       0       0       
      +0       0       0       0       0
  2260 ;;      Temps:          0       0       0       0       0       0       0       0       0       0       0       0       
      +0       0       0       0       0
  2261 ;;      Totals:         0       0       0       0       0       0       0       0       0       0       0       0       
      +0       0       0       0       0
  2262 ;;Total ram usage:        0 bytes
  2263 ;; Hardware stack levels used: 1
  2264 ;; Hardware stack levels required when called: 8
  2265 ;; This function calls:
  2266 ;;		Nothing
  2267 ;; This function is called by:
  2268 ;;		_main
  2269 ;; This function uses a non-reentrant model
  2270 ;;
  2271                           
  2272                           	psect	text2
  2273   003746                     __ptext2:
  2274                           	callstack 0
  2275   003746                     _initialize_var:
  2276                           	callstack 22
  2277   003746                     
  2278                           ;Helper_functions/helper_fn.c: 25:     keypad_value = 0;
  2279   003746  0E00               	movlw	0
  2280   003748  0100               	movlb	0	; () banked
  2281   00374A  6FAB               	movwf	_keypad_value& (0+255),b
  2282   00374C                     
  2283                           ; BSR set to: 0
  2284   00374C  0012               	return		;funcret
  2285   00374E                     __end_of_initialize_var:
  2286                           	callstack 0
  2287                           
  2288 ;; *************** function _entering_password *****************
  2289 ;; Defined at:
  2290 ;;		line 188 in file "Helper_functions/helper_fn.c"
  2291 ;; Parameters:    Size  Location     Type
  2292 ;;  pass_entered    1   15[BANK1 ] PTR unsigned char 
  2293 ;;		 -> entered_password(8), 
  2294 ;;  pass_entered    1   16[BANK1 ] PTR unsigned char 
  2295 ;;		 -> enterd_pass_num_digits(1), 
  2296 ;;  stored_passw    1   17[BANK1 ] PTR unsigned char 
  2297 ;;		 -> stored_password(8), 
  2298 ;;  stored_passw    1   18[BANK1 ] PTR unsigned char 
  2299 ;;		 -> stored_pass_num_digits(1), 
  2300 ;;  user_statue     1   19[BANK1 ] PTR unsigned char 
  2301 ;;		 -> user_statue(1), 
  2302 ;; Auto vars:     Size  Location     Type
  2303 ;;  str             4   20[BANK1 ] unsigned char [4]
  2304 ;;  counter         1   27[BANK1 ] unsigned char 
  2305 ;;  lcd_counter     1   26[BANK1 ] unsigned char 
  2306 ;;  comparing_re    1   25[BANK1 ] unsigned char 
  2307 ;;  wrong_counte    1   24[BANK1 ] unsigned char 
  2308 ;; Return value:  Size  Location     Type
  2309 ;;                  1    wreg      void 
  2310 ;; Registers used:
  2311 ;;		wreg, fsr0l, fsr0h, fsr1l, fsr1h, fsr2l, fsr2h, status,2, status,0, tblptrl, tblptrh, tblptru, prodl, prodh, cstack
  2312 ;; Tracked objects:
  2313 ;;		On entry : 0/0
  2314 ;;		On exit  : 0/0
  2315 ;;		Unchanged: 0/0
  2316 ;; Data sizes:     COMRAM   BANK0   BANK1   BANK2   BANK3   BANK4   BANK5   BANK6   BANK7   BANK8   BANK9  BANK10  BANK1
      +1  BANK12  BANK13  BANK14  BANK15
  2317 ;;      Params:         0       0       5       0       0       0       0       0       0       0       0       0       
      +0       0       0       0       0
  2318 ;;      Locals:         0       0       8       0       0       0       0       0       0       0       0       0       
      +0       0       0       0       0
  2319 ;;      Temps:          0       2       0       0       0       0       0       0       0       0       0       0       
      +0       0       0       0       0
  2320 ;;      Totals:         0       2      13       0       0       0       0       0       0       0       0       0       
      +0       0       0       0       0
  2321 ;;Total ram usage:       15 bytes
  2322 ;; Hardware stack levels used: 1
  2323 ;; Hardware stack levels required when called: 14
  2324 ;; This function calls:
  2325 ;;		_check_entered_password
  2326 ;;		_convert_byte_to_string
  2327 ;;		_ecu_keypad_get_value
  2328 ;;		_lcd_4bit_send_char_data_pos
  2329 ;;		_lcd_4bit_send_command
  2330 ;;		_lcd_4bit_send_string_pos
  2331 ;; This function is called by:
  2332 ;;		_main
  2333 ;; This function uses a non-reentrant model
  2334 ;;
  2335                           
  2336                           	psect	text3
  2337   000012                     __ptext3:
  2338                           	callstack 0
  2339   000012                     _entering_password:
  2340                           	callstack 16
  2341   000012                     
  2342                           ;Helper_functions/helper_fn.c: 188: void entering_password(uint8 *pass_entered,uint8 *pa
      +                          ss_entered_didits,uint8 *stored_password,;Helper_functions/helper_fn.c: 189:            
      +                                      uint8 *stored_password_digits,uint8 *user_statue){;Helper_functions/helper_f
      +                          n.c: 190:    keypad_value = 0;
  2343   000012  0E00               	movlw	0
  2344   000014  0100               	movlb	0	; () banked
  2345   000016  6FAB               	movwf	_keypad_value& (0+255),b
  2346                           
  2347                           ;Helper_functions/helper_fn.c: 191:    uint8 counter = 0;
  2348   000018  0E00               	movlw	0
  2349   00001A  0101               	movlb	1	; () banked
  2350   00001C  6F1B               	movwf	entering_password@counter& (0+255),b
  2351                           
  2352                           ;Helper_functions/helper_fn.c: 192:    uint8 comparing_result = 1;
  2353   00001E  0E01               	movlw	1
  2354   000020  6F19               	movwf	entering_password@comparing_result& (0+255),b
  2355                           
  2356                           ;Helper_functions/helper_fn.c: 193:    uint8 lcd_counter = 2;
  2357   000022  0E02               	movlw	2
  2358   000024  6F1A               	movwf	entering_password@lcd_counter& (0+255),b
  2359                           
  2360                           ;Helper_functions/helper_fn.c: 194:    uint8 wrong_counter = 0;
  2361   000026  0E00               	movlw	0
  2362   000028  6F18               	movwf	entering_password@wrong_counter& (0+255),b
  2363   00002A                     
  2364                           ; BSR set to: 1
  2365                           ;Helper_functions/helper_fn.c: 195:    uint8 str[4];;Helper_functions/helper_fn.c: 197: 
      +                              lcd_4bit_send_command(&lcd1,0x01);
  2366   00002A  0E4C               	movlw	low _lcd1
  2367   00002C  0100               	movlb	0	; () banked
  2368   00002E  6FB7               	movwf	lcd_4bit_send_command@lcd& (0+255),b
  2369   000030  0E01               	movlw	1
  2370   000032  6FB8               	movwf	lcd_4bit_send_command@command& (0+255),b
  2371   000034  EC51  F017         	call	_lcd_4bit_send_command	;wreg free
  2372   000038                     l12951:
  2373                           
  2374                           ;Helper_functions/helper_fn.c: 198:     _delay((unsigned long)((20)*(8000000ul/4000.0)))
      +                          ;
  2375   000038  0E34               	movlw	52
  2376   00003A  0100               	movlb	0	; () banked
  2377   00003C  6FD4               	movwf	??_entering_password& (0+255),b
  2378   00003E  0EF1               	movlw	241
  2379   000040                     u13217:
  2380   000040  2EE8               	decfsz	wreg,f,c
  2381   000042  D7FE               	bra	u13217
  2382   000044  2FD4               	decfsz	??_entering_password& (0+255),f,b
  2383   000046  D7FC               	bra	u13217
  2384   000048  D000               	nop2	
  2385   00004A                     l12953:
  2386                           
  2387                           ;Helper_functions/helper_fn.c: 202:         lcd_4bit_send_string_pos(&lcd1,2,1,"enter yo
      +                          ur password ");
  2388   00004A  0E4C               	movlw	low _lcd1
  2389   00004C  0100               	movlb	0	; () banked
  2390   00004E  6FC0               	movwf	lcd_4bit_send_string_pos@lcd& (0+255),b
  2391   000050  0E02               	movlw	2
  2392   000052  6FC1               	movwf	lcd_4bit_send_string_pos@row& (0+255),b
  2393   000054  0E01               	movlw	1
  2394   000056  6FC2               	movwf	lcd_4bit_send_string_pos@column& (0+255),b
  2395   000058  0E2B               	movlw	low STR_42
  2396   00005A  6FC3               	movwf	lcd_4bit_send_string_pos@str& (0+255),b
  2397   00005C  0EFF               	movlw	high STR_42
  2398   00005E  6FC4               	movwf	(lcd_4bit_send_string_pos@str+1)& (0+255),b
  2399   000060  EC78  F014         	call	_lcd_4bit_send_string_pos	;wreg free
  2400   000064                     
  2401                           ;Helper_functions/helper_fn.c: 203:         lcd_4bit_send_string_pos(&lcd1,3,1,":");
  2402   000064  0E4C               	movlw	low _lcd1
  2403   000066  0100               	movlb	0	; () banked
  2404   000068  6FC0               	movwf	lcd_4bit_send_string_pos@lcd& (0+255),b
  2405   00006A  0E03               	movlw	3
  2406   00006C  6FC1               	movwf	lcd_4bit_send_string_pos@row& (0+255),b
  2407   00006E  0E01               	movlw	1
  2408   000070  6FC2               	movwf	lcd_4bit_send_string_pos@column& (0+255),b
  2409   000072  0EF9               	movlw	low STR_19
  2410   000074  6FC3               	movwf	lcd_4bit_send_string_pos@str& (0+255),b
  2411   000076  0EFF               	movlw	high STR_19
  2412   000078  6FC4               	movwf	(lcd_4bit_send_string_pos@str+1)& (0+255),b
  2413   00007A  EC78  F014         	call	_lcd_4bit_send_string_pos	;wreg free
  2414   00007E                     l12957:
  2415                           
  2416                           ;Helper_functions/helper_fn.c: 206:         ecu_keypad_get_value(&keypad,&keypad_value);
  2417   00007E  0EED               	movlw	low _keypad
  2418   000080  0100               	movlb	0	; () banked
  2419   000082  6FB4               	movwf	ecu_keypad_get_value@keypad& (0+255),b
  2420   000084  0EAB               	movlw	low _keypad_value
  2421   000086  6FB5               	movwf	ecu_keypad_get_value@value& (0+255),b
  2422   000088  EC28  F011         	call	_ecu_keypad_get_value	;wreg free
  2423   00008C                     
  2424                           ;Helper_functions/helper_fn.c: 207:         _delay((unsigned long)((125)*(8000000ul/4000
      +                          .0)));
  2425   00008C  0E02               	movlw	2
  2426   00008E  0100               	movlb	0	; () banked
  2427   000090  6FD5               	movwf	(??_entering_password+1)& (0+255),b
  2428   000092  0E45               	movlw	69
  2429   000094  6FD4               	movwf	??_entering_password& (0+255),b
  2430   000096  0EA9               	movlw	169
  2431   000098                     u13227:
  2432   000098  2EE8               	decfsz	wreg,f,c
  2433   00009A  D7FE               	bra	u13227
  2434   00009C  2FD4               	decfsz	??_entering_password& (0+255),f,b
  2435   00009E  D7FC               	bra	u13227
  2436   0000A0  2FD5               	decfsz	(??_entering_password+1)& (0+255),f,b
  2437   0000A2  D7FA               	bra	u13227
  2438   0000A4  D000               	nop2	
  2439   0000A6                     
  2440                           ;Helper_functions/helper_fn.c: 208:         }while(keypad_value == 0 );
  2441   0000A6  0100               	movlb	0	; () banked
  2442   0000A8  51AB               	movf	_keypad_value& (0+255),w,b
  2443   0000AA  B4D8               	btfsc	status,2,c
  2444   0000AC  EF5A  F000         	goto	u12711
  2445   0000B0  EF5C  F000         	goto	u12710
  2446   0000B4                     u12711:
  2447   0000B4  EF3F  F000         	goto	l12957
  2448   0000B8                     u12710:
  2449   0000B8                     
  2450                           ; BSR set to: 0
  2451                           ;Helper_functions/helper_fn.c: 210:         if(keypad_value == '#' && pass_entered[0] ==
      +                           '\0'){
  2452   0000B8  0E23               	movlw	35
  2453   0000BA  19AB               	xorwf	_keypad_value& (0+255),w,b
  2454   0000BC  A4D8               	btfss	status,2,c
  2455   0000BE  EF63  F000         	goto	u12721
  2456   0000C2  EF65  F000         	goto	u12720
  2457   0000C6                     u12721:
  2458   0000C6  EFA7  F000         	goto	l12973
  2459   0000CA                     u12720:
  2460   0000CA                     
  2461                           ; BSR set to: 0
  2462   0000CA  0101               	movlb	1	; () banked
  2463   0000CC  510F               	movf	entering_password@pass_entered& (0+255),w,b
  2464   0000CE  6ED9               	movwf	fsr2l,c
  2465   0000D0  6ADA               	clrf	fsr2h,c
  2466   0000D2  50DF               	movf	indf2,w,c
  2467   0000D4  A4D8               	btfss	status,2,c
  2468   0000D6  EF6F  F000         	goto	u12731
  2469   0000DA  EF71  F000         	goto	u12730
  2470   0000DE                     u12731:
  2471   0000DE  EFA7  F000         	goto	l12973
  2472   0000E2                     u12730:
  2473   0000E2                     
  2474                           ; BSR set to: 1
  2475                           ;Helper_functions/helper_fn.c: 211:             lcd_4bit_send_string_pos(&lcd1,4,1,"Unav
      +                          ailable process ");
  2476   0000E2  0E4C               	movlw	low _lcd1
  2477   0000E4  0100               	movlb	0	; () banked
  2478   0000E6  6FC0               	movwf	lcd_4bit_send_string_pos@lcd& (0+255),b
  2479   0000E8  0E04               	movlw	4
  2480   0000EA  6FC1               	movwf	lcd_4bit_send_string_pos@row& (0+255),b
  2481   0000EC  0E01               	movlw	1
  2482   0000EE  6FC2               	movwf	lcd_4bit_send_string_pos@column& (0+255),b
  2483   0000F0  0E40               	movlw	low STR_11
  2484   0000F2  6FC3               	movwf	lcd_4bit_send_string_pos@str& (0+255),b
  2485   0000F4  0EFF               	movlw	high STR_11
  2486   0000F6  6FC4               	movwf	(lcd_4bit_send_string_pos@str+1)& (0+255),b
  2487   0000F8  EC78  F014         	call	_lcd_4bit_send_string_pos	;wreg free
  2488   0000FC                     
  2489                           ;Helper_functions/helper_fn.c: 212:                  _delay((unsigned long)((500)*(80000
      +                          00ul/4000.0)));
  2490   0000FC  0E06               	movlw	6
  2491   0000FE  0100               	movlb	0	; () banked
  2492   000100  6FD5               	movwf	(??_entering_password+1)& (0+255),b
  2493   000102  0E13               	movlw	19
  2494   000104  6FD4               	movwf	??_entering_password& (0+255),b
  2495   000106  0EAD               	movlw	173
  2496   000108                     u13237:
  2497   000108  2EE8               	decfsz	wreg,f,c
  2498   00010A  D7FE               	bra	u13237
  2499   00010C  2FD4               	decfsz	??_entering_password& (0+255),f,b
  2500   00010E  D7FC               	bra	u13237
  2501   000110  2FD5               	decfsz	(??_entering_password+1)& (0+255),f,b
  2502   000112  D7FA               	bra	u13237
  2503   000114  D000               	nop2	
  2504   000116                     
  2505                           ;Helper_functions/helper_fn.c: 213:                 lcd_4bit_send_string_pos(&lcd1,4,1,"
      +                                               ");
  2506   000116  0E4C               	movlw	low _lcd1
  2507   000118  0100               	movlb	0	; () banked
  2508   00011A  6FC0               	movwf	lcd_4bit_send_string_pos@lcd& (0+255),b
  2509   00011C  0E04               	movlw	4
  2510   00011E  6FC1               	movwf	lcd_4bit_send_string_pos@row& (0+255),b
  2511   000120  0E01               	movlw	1
  2512   000122  6FC2               	movwf	lcd_4bit_send_string_pos@column& (0+255),b
  2513   000124  0EFF               	movlw	low STR_12
  2514   000126  6FC3               	movwf	lcd_4bit_send_string_pos@str& (0+255),b
  2515   000128  0EFE               	movlw	high STR_12
  2516   00012A  6FC4               	movwf	(lcd_4bit_send_string_pos@str+1)& (0+255),b
  2517   00012C  EC78  F014         	call	_lcd_4bit_send_string_pos	;wreg free
  2518                           
  2519                           ;Helper_functions/helper_fn.c: 214:                 _delay((unsigned long)((500)*(800000
      +                          0ul/4000.0)));
  2520   000130  0E06               	movlw	6
  2521   000132  0100               	movlb	0	; () banked
  2522   000134  6FD5               	movwf	(??_entering_password+1)& (0+255),b
  2523   000136  0E13               	movlw	19
  2524   000138  6FD4               	movwf	??_entering_password& (0+255),b
  2525   00013A  0EAD               	movlw	173
  2526   00013C                     u13247:
  2527   00013C  2EE8               	decfsz	wreg,f,c
  2528   00013E  D7FE               	bra	u13247
  2529   000140  2FD4               	decfsz	??_entering_password& (0+255),f,b
  2530   000142  D7FC               	bra	u13247
  2531   000144  2FD5               	decfsz	(??_entering_password+1)& (0+255),f,b
  2532   000146  D7FA               	bra	u13247
  2533   000148  D000               	nop2	
  2534                           
  2535                           ;Helper_functions/helper_fn.c: 215:         }
  2536   00014A  EF25  F000         	goto	l12953
  2537   00014E                     l12973:
  2538   00014E  0E23               	movlw	35
  2539   000150  0100               	movlb	0	; () banked
  2540   000152  19AB               	xorwf	_keypad_value& (0+255),w,b
  2541   000154  A4D8               	btfss	status,2,c
  2542   000156  EFAF  F000         	goto	u12741
  2543   00015A  EFB1  F000         	goto	u12740
  2544   00015E                     u12741:
  2545   00015E  EFC6  F000         	goto	l12983
  2546   000162                     u12740:
  2547   000162                     
  2548                           ; BSR set to: 0
  2549                           ;Helper_functions/helper_fn.c: 217:                 counter--;
  2550   000162  0101               	movlb	1	; () banked
  2551   000164  071B               	decf	entering_password@counter& (0+255),f,b
  2552   000166                     
  2553                           ; BSR set to: 1
  2554                           ;Helper_functions/helper_fn.c: 218:                 pass_entered[counter] = '\0';
  2555   000166  510F               	movf	entering_password@pass_entered& (0+255),w,b
  2556   000168  251B               	addwf	entering_password@counter& (0+255),w,b
  2557   00016A  6ED9               	movwf	fsr2l,c
  2558   00016C  6ADA               	clrf	fsr2h,c
  2559   00016E  6ADF               	clrf	indf2,c
  2560   000170                     
  2561                           ; BSR set to: 1
  2562                           ;Helper_functions/helper_fn.c: 219:                 lcd_counter--;
  2563   000170  071A               	decf	entering_password@lcd_counter& (0+255),f,b
  2564   000172                     
  2565                           ; BSR set to: 1
  2566                           ;Helper_functions/helper_fn.c: 220:                 lcd_4bit_send_char_data_pos(&lcd1,3,
      +                          lcd_counter,' ');
  2567   000172  0E4C               	movlw	low _lcd1
  2568   000174  0100               	movlb	0	; () banked
  2569   000176  6FC0               	movwf	lcd_4bit_send_char_data_pos@lcd& (0+255),b
  2570   000178  0E03               	movlw	3
  2571   00017A  6FC1               	movwf	lcd_4bit_send_char_data_pos@row& (0+255),b
  2572   00017C  C11A  F0C2         	movff	entering_password@lcd_counter,lcd_4bit_send_char_data_pos@column
  2573   000180  0E20               	movlw	32
  2574   000182  6FC3               	movwf	lcd_4bit_send_char_data_pos@data& (0+255),b
  2575   000184  ECD3  F019         	call	_lcd_4bit_send_char_data_pos	;wreg free
  2576                           
  2577                           ;Helper_functions/helper_fn.c: 221:             }
  2578   000188  EF25  F000         	goto	l12953
  2579   00018C                     l12983:
  2580                           
  2581                           ; BSR set to: 0
  2582   00018C  0E3D               	movlw	61
  2583   00018E  19AB               	xorwf	_keypad_value& (0+255),w,b
  2584   000190  A4D8               	btfss	status,2,c
  2585   000192  EFCD  F000         	goto	u12751
  2586   000196  EFCF  F000         	goto	u12750
  2587   00019A                     u12751:
  2588   00019A  EF46  F002         	goto	l13065
  2589   00019E                     u12750:
  2590   00019E                     
  2591                           ; BSR set to: 0
  2592                           ;Helper_functions/helper_fn.c: 223:                 if(counter <= 3){
  2593   00019E  0E04               	movlw	4
  2594   0001A0  0101               	movlb	1	; () banked
  2595   0001A2  611B               	cpfslt	entering_password@counter& (0+255),b
  2596   0001A4  EFD6  F000         	goto	u12761
  2597   0001A8  EFD8  F000         	goto	u12760
  2598   0001AC                     u12761:
  2599   0001AC  EF0E  F001         	goto	l12993
  2600   0001B0                     u12760:
  2601   0001B0                     
  2602                           ; BSR set to: 1
  2603                           ;Helper_functions/helper_fn.c: 224:                      lcd_4bit_send_string_pos(&lcd1,
      +                          4,1,"min 4 digits ");
  2604   0001B0  0E4C               	movlw	low _lcd1
  2605   0001B2  0100               	movlb	0	; () banked
  2606   0001B4  6FC0               	movwf	lcd_4bit_send_string_pos@lcd& (0+255),b
  2607   0001B6  0E04               	movlw	4
  2608   0001B8  6FC1               	movwf	lcd_4bit_send_string_pos@row& (0+255),b
  2609   0001BA  0E01               	movlw	1
  2610   0001BC  6FC2               	movwf	lcd_4bit_send_string_pos@column& (0+255),b
  2611   0001BE  0ECF               	movlw	low STR_22
  2612   0001C0  6FC3               	movwf	lcd_4bit_send_string_pos@str& (0+255),b
  2613   0001C2  0EFF               	movlw	high STR_22
  2614   0001C4  6FC4               	movwf	(lcd_4bit_send_string_pos@str+1)& (0+255),b
  2615   0001C6  EC78  F014         	call	_lcd_4bit_send_string_pos	;wreg free
  2616   0001CA                     
  2617                           ;Helper_functions/helper_fn.c: 225:                     _delay((unsigned long)((500)*(80
      +                          00000ul/4000.0)));
  2618   0001CA  0E06               	movlw	6
  2619   0001CC  0100               	movlb	0	; () banked
  2620   0001CE  6FD5               	movwf	(??_entering_password+1)& (0+255),b
  2621   0001D0  0E13               	movlw	19
  2622   0001D2  6FD4               	movwf	??_entering_password& (0+255),b
  2623   0001D4  0EAD               	movlw	173
  2624   0001D6                     u13257:
  2625   0001D6  2EE8               	decfsz	wreg,f,c
  2626   0001D8  D7FE               	bra	u13257
  2627   0001DA  2FD4               	decfsz	??_entering_password& (0+255),f,b
  2628   0001DC  D7FC               	bra	u13257
  2629   0001DE  2FD5               	decfsz	(??_entering_password+1)& (0+255),f,b
  2630   0001E0  D7FA               	bra	u13257
  2631   0001E2  D000               	nop2	
  2632   0001E4                     
  2633                           ;Helper_functions/helper_fn.c: 226:                     lcd_4bit_send_string_pos(&lcd1,4
      +                          ,1,"                     ");
  2634   0001E4  0E4C               	movlw	low _lcd1
  2635   0001E6  0100               	movlb	0	; () banked
  2636   0001E8  6FC0               	movwf	lcd_4bit_send_string_pos@lcd& (0+255),b
  2637   0001EA  0E04               	movlw	4
  2638   0001EC  6FC1               	movwf	lcd_4bit_send_string_pos@row& (0+255),b
  2639   0001EE  0E01               	movlw	1
  2640   0001F0  6FC2               	movwf	lcd_4bit_send_string_pos@column& (0+255),b
  2641   0001F2  0EFF               	movlw	low STR_12
  2642   0001F4  6FC3               	movwf	lcd_4bit_send_string_pos@str& (0+255),b
  2643   0001F6  0EFE               	movlw	high STR_12
  2644   0001F8  6FC4               	movwf	(lcd_4bit_send_string_pos@str+1)& (0+255),b
  2645   0001FA  EC78  F014         	call	_lcd_4bit_send_string_pos	;wreg free
  2646                           
  2647                           ;Helper_functions/helper_fn.c: 227:                     _delay((unsigned long)((500)*(80
      +                          00000ul/4000.0)));
  2648   0001FE  0E06               	movlw	6
  2649   000200  0100               	movlb	0	; () banked
  2650   000202  6FD5               	movwf	(??_entering_password+1)& (0+255),b
  2651   000204  0E13               	movlw	19
  2652   000206  6FD4               	movwf	??_entering_password& (0+255),b
  2653   000208  0EAD               	movlw	173
  2654   00020A                     u13267:
  2655   00020A  2EE8               	decfsz	wreg,f,c
  2656   00020C  D7FE               	bra	u13267
  2657   00020E  2FD4               	decfsz	??_entering_password& (0+255),f,b
  2658   000210  D7FC               	bra	u13267
  2659   000212  2FD5               	decfsz	(??_entering_password+1)& (0+255),f,b
  2660   000214  D7FA               	bra	u13267
  2661   000216  D000               	nop2	
  2662                           
  2663                           ;Helper_functions/helper_fn.c: 228:                 }
  2664   000218  EF25  F000         	goto	l12953
  2665   00021C                     l12993:
  2666                           
  2667                           ; BSR set to: 1
  2668                           ;Helper_functions/helper_fn.c: 230:                      *pass_entered_didits = counter;
  2669   00021C  5110               	movf	entering_password@pass_entered_didits& (0+255),w,b
  2670   00021E  6ED9               	movwf	fsr2l,c
  2671   000220  6ADA               	clrf	fsr2h,c
  2672   000222  C11B  FFDF         	movff	entering_password@counter,indf2
  2673   000226                     
  2674                           ; BSR set to: 1
  2675                           ;Helper_functions/helper_fn.c: 231:                    check_entered_password(pass_enter
      +                          ed,pass_entered_didits,stored_password,stored_password_digits,&comparing_result);
  2676   000226  C10F  F0AF         	movff	entering_password@pass_entered,check_entered_password@entered_pass
  2677   00022A  C110  F0B0         	movff	entering_password@pass_entered_didits,check_entered_password@entered_pass_digits
  2678   00022E  0100               	movlb	0	; () banked
  2679   000230  6BB1               	clrf	(check_entered_password@entered_pass_digits+1)& (0+255),b
  2680   000232  C111  F0B2         	movff	entering_password@stored_password,check_entered_password@stored_pass
  2681   000236  C112  F0B3         	movff	entering_password@stored_password_digits,check_entered_password@stored_pass_digit
      +                          s
  2682   00023A  6BB4               	clrf	(check_entered_password@stored_pass_digits+1)& (0+255),b
  2683   00023C  0E19               	movlw	low entering_password@comparing_result
  2684   00023E  6FB5               	movwf	check_entered_password@result& (0+255),b
  2685   000240  0E01               	movlw	high entering_password@comparing_result
  2686   000242  6FB6               	movwf	(check_entered_password@result+1)& (0+255),b
  2687   000244  ECA6  F011         	call	_check_entered_password	;wreg free
  2688   000248                     
  2689                           ;Helper_functions/helper_fn.c: 232:                     if(comparing_result == 1){
  2690   000248  0101               	movlb	1	; () banked
  2691   00024A  0519               	decf	entering_password@comparing_result& (0+255),w,b
  2692   00024C  A4D8               	btfss	status,2,c
  2693   00024E  EF2B  F001         	goto	u12771
  2694   000252  EF2D  F001         	goto	u12770
  2695   000256                     u12771:
  2696   000256  EF79  F001         	goto	l13015
  2697   00025A                     u12770:
  2698   00025A                     
  2699                           ; BSR set to: 1
  2700                           ;Helper_functions/helper_fn.c: 234:                         lcd_4bit_send_command(&lcd1,
      +                          0x01);
  2701   00025A  0E4C               	movlw	low _lcd1
  2702   00025C  0100               	movlb	0	; () banked
  2703   00025E  6FB7               	movwf	lcd_4bit_send_command@lcd& (0+255),b
  2704   000260  0E01               	movlw	1
  2705   000262  6FB8               	movwf	lcd_4bit_send_command@command& (0+255),b
  2706   000264  EC51  F017         	call	_lcd_4bit_send_command	;wreg free
  2707   000268                     
  2708                           ;Helper_functions/helper_fn.c: 235:                         _delay((unsigned long)((20)*
      +                          (8000000ul/4000.0)));
  2709   000268  0E34               	movlw	52
  2710   00026A  0100               	movlb	0	; () banked
  2711   00026C  6FD4               	movwf	??_entering_password& (0+255),b
  2712   00026E  0EF1               	movlw	241
  2713   000270                     u13277:
  2714   000270  2EE8               	decfsz	wreg,f,c
  2715   000272  D7FE               	bra	u13277
  2716   000274  2FD4               	decfsz	??_entering_password& (0+255),f,b
  2717   000276  D7FC               	bra	u13277
  2718   000278  D000               	nop2	
  2719   00027A                     
  2720                           ;Helper_functions/helper_fn.c: 236:                         lcd_4bit_send_string_pos(&lc
      +                          d1,2,4,"password correct");
  2721   00027A  0E4C               	movlw	low _lcd1
  2722   00027C  0100               	movlb	0	; () banked
  2723   00027E  6FC0               	movwf	lcd_4bit_send_string_pos@lcd& (0+255),b
  2724   000280  0E02               	movlw	2
  2725   000282  6FC1               	movwf	lcd_4bit_send_string_pos@row& (0+255),b
  2726   000284  0E04               	movlw	4
  2727   000286  6FC2               	movwf	lcd_4bit_send_string_pos@column& (0+255),b
  2728   000288  0E9F               	movlw	low STR_48
  2729   00028A  6FC3               	movwf	lcd_4bit_send_string_pos@str& (0+255),b
  2730   00028C  0EFF               	movlw	high STR_48
  2731   00028E  6FC4               	movwf	(lcd_4bit_send_string_pos@str+1)& (0+255),b
  2732   000290  EC78  F014         	call	_lcd_4bit_send_string_pos	;wreg free
  2733   000294                     
  2734                           ;Helper_functions/helper_fn.c: 237:                         _delay((unsigned long)((500)
      +                          *(8000000ul/4000.0)));
  2735   000294  0E06               	movlw	6
  2736   000296  0100               	movlb	0	; () banked
  2737   000298  6FD5               	movwf	(??_entering_password+1)& (0+255),b
  2738   00029A  0E13               	movlw	19
  2739   00029C  6FD4               	movwf	??_entering_password& (0+255),b
  2740   00029E  0EAD               	movlw	173
  2741   0002A0                     u13287:
  2742   0002A0  2EE8               	decfsz	wreg,f,c
  2743   0002A2  D7FE               	bra	u13287
  2744   0002A4  2FD4               	decfsz	??_entering_password& (0+255),f,b
  2745   0002A6  D7FC               	bra	u13287
  2746   0002A8  2FD5               	decfsz	(??_entering_password+1)& (0+255),f,b
  2747   0002AA  D7FA               	bra	u13287
  2748   0002AC  D000               	nop2	
  2749   0002AE                     
  2750                           ;Helper_functions/helper_fn.c: 238:                         lcd_4bit_send_string_pos(&lc
      +                          d1,2,4,"                     ");
  2751   0002AE  0E4C               	movlw	low _lcd1
  2752   0002B0  0100               	movlb	0	; () banked
  2753   0002B2  6FC0               	movwf	lcd_4bit_send_string_pos@lcd& (0+255),b
  2754   0002B4  0E02               	movlw	2
  2755   0002B6  6FC1               	movwf	lcd_4bit_send_string_pos@row& (0+255),b
  2756   0002B8  0E04               	movlw	4
  2757   0002BA  6FC2               	movwf	lcd_4bit_send_string_pos@column& (0+255),b
  2758   0002BC  0EFF               	movlw	low STR_12
  2759   0002BE  6FC3               	movwf	lcd_4bit_send_string_pos@str& (0+255),b
  2760   0002C0  0EFE               	movlw	high STR_12
  2761   0002C2  6FC4               	movwf	(lcd_4bit_send_string_pos@str+1)& (0+255),b
  2762   0002C4  EC78  F014         	call	_lcd_4bit_send_string_pos	;wreg free
  2763   0002C8                     
  2764                           ;Helper_functions/helper_fn.c: 239:                         _delay((unsigned long)((500)
      +                          *(8000000ul/4000.0)));
  2765   0002C8  0E06               	movlw	6
  2766   0002CA  0100               	movlb	0	; () banked
  2767   0002CC  6FD5               	movwf	(??_entering_password+1)& (0+255),b
  2768   0002CE  0E13               	movlw	19
  2769   0002D0  6FD4               	movwf	??_entering_password& (0+255),b
  2770   0002D2  0EAD               	movlw	173
  2771   0002D4                     u13297:
  2772   0002D4  2EE8               	decfsz	wreg,f,c
  2773   0002D6  D7FE               	bra	u13297
  2774   0002D8  2FD4               	decfsz	??_entering_password& (0+255),f,b
  2775   0002DA  D7FC               	bra	u13297
  2776   0002DC  2FD5               	decfsz	(??_entering_password+1)& (0+255),f,b
  2777   0002DE  D7FA               	bra	u13297
  2778   0002E0  D000               	nop2	
  2779   0002E2                     
  2780                           ;Helper_functions/helper_fn.c: 241:                         *user_statue = 1 ;
  2781   0002E2  0101               	movlb	1	; () banked
  2782   0002E4  5113               	movf	entering_password@user_statue& (0+255),w,b
  2783   0002E6  6ED9               	movwf	fsr2l,c
  2784   0002E8  6ADA               	clrf	fsr2h,c
  2785   0002EA  0E01               	movlw	1
  2786   0002EC  6EDF               	movwf	indf2,c
  2787                           
  2788                           ;Helper_functions/helper_fn.c: 243:                         break;
  2789   0002EE  EF0B  F003         	goto	l1073
  2790   0002F2                     l13015:
  2791                           
  2792                           ; BSR set to: 1
  2793                           ;Helper_functions/helper_fn.c: 245:                         if(wrong_counter == 2){
  2794   0002F2  0E02               	movlw	2
  2795   0002F4  1918               	xorwf	entering_password@wrong_counter& (0+255),w,b
  2796   0002F6  A4D8               	btfss	status,2,c
  2797   0002F8  EF80  F001         	goto	u12781
  2798   0002FC  EF82  F001         	goto	u12780
  2799   000300                     u12781:
  2800   000300  EF98  F001         	goto	l13025
  2801   000304                     u12780:
  2802   000304                     
  2803                           ; BSR set to: 1
  2804                           ;Helper_functions/helper_fn.c: 246:                             *user_statue = 0 ;
  2805   000304  5113               	movf	entering_password@user_statue& (0+255),w,b
  2806   000306  6ED9               	movwf	fsr2l,c
  2807   000308  6ADA               	clrf	fsr2h,c
  2808   00030A  6ADF               	clrf	indf2,c
  2809   00030C                     
  2810                           ; BSR set to: 1
  2811                           ;Helper_functions/helper_fn.c: 247:                             lcd_4bit_send_command(&l
      +                          cd1,0x01);
  2812   00030C  0E4C               	movlw	low _lcd1
  2813   00030E  0100               	movlb	0	; () banked
  2814   000310  6FB7               	movwf	lcd_4bit_send_command@lcd& (0+255),b
  2815   000312  0E01               	movlw	1
  2816   000314  6FB8               	movwf	lcd_4bit_send_command@command& (0+255),b
  2817   000316  EC51  F017         	call	_lcd_4bit_send_command	;wreg free
  2818   00031A                     
  2819                           ;Helper_functions/helper_fn.c: 248:                             _delay((unsigned long)((
      +                          40)*(8000000ul/4000.0)));
  2820   00031A  0E68               	movlw	104
  2821   00031C  0100               	movlb	0	; () banked
  2822   00031E  6FD4               	movwf	??_entering_password& (0+255),b
  2823   000320  0EE4               	movlw	228
  2824   000322                     u13307:
  2825   000322  2EE8               	decfsz	wreg,f,c
  2826   000324  D7FE               	bra	u13307
  2827   000326  2FD4               	decfsz	??_entering_password& (0+255),f,b
  2828   000328  D7FC               	bra	u13307
  2829   00032A  0000               	nop	
  2830                           
  2831                           ;Helper_functions/helper_fn.c: 249:                             break;
  2832   00032C  EF0B  F003         	goto	l1073
  2833   000330                     l13025:
  2834                           
  2835                           ; BSR set to: 1
  2836                           ;Helper_functions/helper_fn.c: 252:                             wrong_counter++;
  2837   000330  2B18               	incf	entering_password@wrong_counter& (0+255),f,b
  2838   000332                     
  2839                           ; BSR set to: 1
  2840                           ;Helper_functions/helper_fn.c: 253:                             lcd_4bit_send_command(&l
      +                          cd1,0x01);
  2841   000332  0E4C               	movlw	low _lcd1
  2842   000334  0100               	movlb	0	; () banked
  2843   000336  6FB7               	movwf	lcd_4bit_send_command@lcd& (0+255),b
  2844   000338  0E01               	movlw	1
  2845   00033A  6FB8               	movwf	lcd_4bit_send_command@command& (0+255),b
  2846   00033C  EC51  F017         	call	_lcd_4bit_send_command	;wreg free
  2847   000340                     
  2848                           ;Helper_functions/helper_fn.c: 254:                             _delay((unsigned long)((
      +                          40)*(8000000ul/4000.0)));
  2849   000340  0E68               	movlw	104
  2850   000342  0100               	movlb	0	; () banked
  2851   000344  6FD4               	movwf	??_entering_password& (0+255),b
  2852   000346  0EE4               	movlw	228
  2853   000348                     u13317:
  2854   000348  2EE8               	decfsz	wreg,f,c
  2855   00034A  D7FE               	bra	u13317
  2856   00034C  2FD4               	decfsz	??_entering_password& (0+255),f,b
  2857   00034E  D7FC               	bra	u13317
  2858   000350  0000               	nop	
  2859   000352                     
  2860                           ;Helper_functions/helper_fn.c: 255:                             lcd_4bit_send_string_pos
      +                          (&lcd1,2,4,"wrong password ");
  2861   000352  0E4C               	movlw	low _lcd1
  2862   000354  0100               	movlb	0	; () banked
  2863   000356  6FC0               	movwf	lcd_4bit_send_string_pos@lcd& (0+255),b
  2864   000358  0E02               	movlw	2
  2865   00035A  6FC1               	movwf	lcd_4bit_send_string_pos@row& (0+255),b
  2866   00035C  0E04               	movlw	4
  2867   00035E  6FC2               	movwf	lcd_4bit_send_string_pos@column& (0+255),b
  2868   000360  0EB0               	movlw	low STR_36
  2869   000362  6FC3               	movwf	lcd_4bit_send_string_pos@str& (0+255),b
  2870   000364  0EFF               	movlw	high STR_36
  2871   000366  6FC4               	movwf	(lcd_4bit_send_string_pos@str+1)& (0+255),b
  2872   000368  EC78  F014         	call	_lcd_4bit_send_string_pos	;wreg free
  2873   00036C                     
  2874                           ;Helper_functions/helper_fn.c: 256:                             convert_byte_to_string(w
      +                          rong_counter,str);
  2875   00036C  0E14               	movlw	low entering_password@str
  2876   00036E  0101               	movlb	1	; () banked
  2877   000370  6F0D               	movwf	convert_byte_to_string@str& (0+255),b
  2878   000372  0E01               	movlw	high entering_password@str
  2879   000374  6F0E               	movwf	(convert_byte_to_string@str+1)& (0+255),b
  2880   000376  5118               	movf	entering_password@wrong_counter& (0+255),w,b
  2881   000378  EC9F  F018         	call	_convert_byte_to_string
  2882   00037C                     
  2883                           ;Helper_functions/helper_fn.c: 257:                             lcd_4bit_send_string_pos
      +                          (&lcd1,4,1,str);
  2884   00037C  0E4C               	movlw	low _lcd1
  2885   00037E  0100               	movlb	0	; () banked
  2886   000380  6FC0               	movwf	lcd_4bit_send_string_pos@lcd& (0+255),b
  2887   000382  0E04               	movlw	4
  2888   000384  6FC1               	movwf	lcd_4bit_send_string_pos@row& (0+255),b
  2889   000386  0E01               	movlw	1
  2890   000388  6FC2               	movwf	lcd_4bit_send_string_pos@column& (0+255),b
  2891   00038A  0E14               	movlw	low entering_password@str
  2892   00038C  6FC3               	movwf	lcd_4bit_send_string_pos@str& (0+255),b
  2893   00038E  0E01               	movlw	high entering_password@str
  2894   000390  6FC4               	movwf	(lcd_4bit_send_string_pos@str+1)& (0+255),b
  2895   000392  EC78  F014         	call	_lcd_4bit_send_string_pos	;wreg free
  2896   000396                     
  2897                           ;Helper_functions/helper_fn.c: 258:                             lcd_4bit_send_string_pos
      +                          (&lcd1,4,2,"/3");
  2898   000396  0E4C               	movlw	low _lcd1
  2899   000398  0100               	movlb	0	; () banked
  2900   00039A  6FC0               	movwf	lcd_4bit_send_string_pos@lcd& (0+255),b
  2901   00039C  0E04               	movlw	4
  2902   00039E  6FC1               	movwf	lcd_4bit_send_string_pos@row& (0+255),b
  2903   0003A0  0E02               	movlw	2
  2904   0003A2  6FC2               	movwf	lcd_4bit_send_string_pos@column& (0+255),b
  2905   0003A4  0EF3               	movlw	low STR_51
  2906   0003A6  6FC3               	movwf	lcd_4bit_send_string_pos@str& (0+255),b
  2907   0003A8  0EFF               	movlw	high STR_51
  2908   0003AA  6FC4               	movwf	(lcd_4bit_send_string_pos@str+1)& (0+255),b
  2909   0003AC  EC78  F014         	call	_lcd_4bit_send_string_pos	;wreg free
  2910   0003B0                     
  2911                           ;Helper_functions/helper_fn.c: 259:                             _delay((unsigned long)((
      +                          500)*(8000000ul/4000.0)));
  2912   0003B0  0E06               	movlw	6
  2913   0003B2  0100               	movlb	0	; () banked
  2914   0003B4  6FD5               	movwf	(??_entering_password+1)& (0+255),b
  2915   0003B6  0E13               	movlw	19
  2916   0003B8  6FD4               	movwf	??_entering_password& (0+255),b
  2917   0003BA  0EAD               	movlw	173
  2918   0003BC                     u13327:
  2919   0003BC  2EE8               	decfsz	wreg,f,c
  2920   0003BE  D7FE               	bra	u13327
  2921   0003C0  2FD4               	decfsz	??_entering_password& (0+255),f,b
  2922   0003C2  D7FC               	bra	u13327
  2923   0003C4  2FD5               	decfsz	(??_entering_password+1)& (0+255),f,b
  2924   0003C6  D7FA               	bra	u13327
  2925   0003C8  D000               	nop2	
  2926   0003CA                     
  2927                           ;Helper_functions/helper_fn.c: 260:                             lcd_4bit_send_string_pos
      +                          (&lcd1,2,4,"                     ");
  2928   0003CA  0E4C               	movlw	low _lcd1
  2929   0003CC  0100               	movlb	0	; () banked
  2930   0003CE  6FC0               	movwf	lcd_4bit_send_string_pos@lcd& (0+255),b
  2931   0003D0  0E02               	movlw	2
  2932   0003D2  6FC1               	movwf	lcd_4bit_send_string_pos@row& (0+255),b
  2933   0003D4  0E04               	movlw	4
  2934   0003D6  6FC2               	movwf	lcd_4bit_send_string_pos@column& (0+255),b
  2935   0003D8  0EFF               	movlw	low STR_12
  2936   0003DA  6FC3               	movwf	lcd_4bit_send_string_pos@str& (0+255),b
  2937   0003DC  0EFE               	movlw	high STR_12
  2938   0003DE  6FC4               	movwf	(lcd_4bit_send_string_pos@str+1)& (0+255),b
  2939   0003E0  EC78  F014         	call	_lcd_4bit_send_string_pos	;wreg free
  2940   0003E4                     
  2941                           ;Helper_functions/helper_fn.c: 261:                             lcd_4bit_send_string_pos
      +                          (&lcd1,4,1,"   ");
  2942   0003E4  0E4C               	movlw	low _lcd1
  2943   0003E6  0100               	movlb	0	; () banked
  2944   0003E8  6FC0               	movwf	lcd_4bit_send_string_pos@lcd& (0+255),b
  2945   0003EA  0E04               	movlw	4
  2946   0003EC  6FC1               	movwf	lcd_4bit_send_string_pos@row& (0+255),b
  2947   0003EE  0E01               	movlw	1
  2948   0003F0  6FC2               	movwf	lcd_4bit_send_string_pos@column& (0+255),b
  2949   0003F2  0E11               	movlw	low (STR_12+18)
  2950   0003F4  6FC3               	movwf	lcd_4bit_send_string_pos@str& (0+255),b
  2951   0003F6  0EFF               	movlw	high (STR_12+18)
  2952   0003F8  6FC4               	movwf	(lcd_4bit_send_string_pos@str+1)& (0+255),b
  2953   0003FA  EC78  F014         	call	_lcd_4bit_send_string_pos	;wreg free
  2954   0003FE                     
  2955                           ;Helper_functions/helper_fn.c: 262:                             _delay((unsigned long)((
      +                          500)*(8000000ul/4000.0)));
  2956   0003FE  0E06               	movlw	6
  2957   000400  0100               	movlb	0	; () banked
  2958   000402  6FD5               	movwf	(??_entering_password+1)& (0+255),b
  2959   000404  0E13               	movlw	19
  2960   000406  6FD4               	movwf	??_entering_password& (0+255),b
  2961   000408  0EAD               	movlw	173
  2962   00040A                     u13337:
  2963   00040A  2EE8               	decfsz	wreg,f,c
  2964   00040C  D7FE               	bra	u13337
  2965   00040E  2FD4               	decfsz	??_entering_password& (0+255),f,b
  2966   000410  D7FC               	bra	u13337
  2967   000412  2FD5               	decfsz	(??_entering_password+1)& (0+255),f,b
  2968   000414  D7FA               	bra	u13337
  2969   000416  D000               	nop2	
  2970   000418                     
  2971                           ;Helper_functions/helper_fn.c: 264:                             lcd_4bit_send_command(&l
      +                          cd1,0x08);
  2972   000418  0E4C               	movlw	low _lcd1
  2973   00041A  0100               	movlb	0	; () banked
  2974   00041C  6FB7               	movwf	lcd_4bit_send_command@lcd& (0+255),b
  2975   00041E  0E08               	movlw	8
  2976   000420  6FB8               	movwf	lcd_4bit_send_command@command& (0+255),b
  2977   000422  EC51  F017         	call	_lcd_4bit_send_command	;wreg free
  2978   000426                     
  2979                           ;Helper_functions/helper_fn.c: 265:                             _delay((unsigned long)((
      +                          300)*(8000000ul/4000.0)));
  2980   000426  0E04               	movlw	4
  2981   000428  0100               	movlb	0	; () banked
  2982   00042A  6FD5               	movwf	(??_entering_password+1)& (0+255),b
  2983   00042C  0E0C               	movlw	12
  2984   00042E  6FD4               	movwf	??_entering_password& (0+255),b
  2985   000430  0E33               	movlw	51
  2986   000432                     u13347:
  2987   000432  2EE8               	decfsz	wreg,f,c
  2988   000434  D7FE               	bra	u13347
  2989   000436  2FD4               	decfsz	??_entering_password& (0+255),f,b
  2990   000438  D7FC               	bra	u13347
  2991   00043A  2FD5               	decfsz	(??_entering_password+1)& (0+255),f,b
  2992   00043C  D7FA               	bra	u13347
  2993   00043E  D000               	nop2	
  2994                           
  2995                           ;Helper_functions/helper_fn.c: 267:                           while(counter){
  2996   000440  EF34  F002         	goto	l13059
  2997   000444                     l13051:
  2998                           
  2999                           ; BSR set to: 1
  3000                           ;Helper_functions/helper_fn.c: 268:                               counter--;
  3001   000444  071B               	decf	entering_password@counter& (0+255),f,b
  3002   000446                     
  3003                           ; BSR set to: 1
  3004                           ;Helper_functions/helper_fn.c: 269:                               pass_entered[counter] 
      +                          = '\0';
  3005   000446  510F               	movf	entering_password@pass_entered& (0+255),w,b
  3006   000448  251B               	addwf	entering_password@counter& (0+255),w,b
  3007   00044A  6ED9               	movwf	fsr2l,c
  3008   00044C  6ADA               	clrf	fsr2h,c
  3009   00044E  6ADF               	clrf	indf2,c
  3010   000450                     
  3011                           ; BSR set to: 1
  3012                           ;Helper_functions/helper_fn.c: 270:                               lcd_counter--;
  3013   000450  071A               	decf	entering_password@lcd_counter& (0+255),f,b
  3014   000452                     
  3015                           ; BSR set to: 1
  3016                           ;Helper_functions/helper_fn.c: 271:                               lcd_4bit_send_char_dat
      +                          a_pos(&lcd1,3,lcd_counter,' ');
  3017   000452  0E4C               	movlw	low _lcd1
  3018   000454  0100               	movlb	0	; () banked
  3019   000456  6FC0               	movwf	lcd_4bit_send_char_data_pos@lcd& (0+255),b
  3020   000458  0E03               	movlw	3
  3021   00045A  6FC1               	movwf	lcd_4bit_send_char_data_pos@row& (0+255),b
  3022   00045C  C11A  F0C2         	movff	entering_password@lcd_counter,lcd_4bit_send_char_data_pos@column
  3023   000460  0E20               	movlw	32
  3024   000462  6FC3               	movwf	lcd_4bit_send_char_data_pos@data& (0+255),b
  3025   000464  ECD3  F019         	call	_lcd_4bit_send_char_data_pos	;wreg free
  3026   000468                     l13059:
  3027                           
  3028                           ;Helper_functions/helper_fn.c: 267:                           while(counter){
  3029   000468  0101               	movlb	1	; () banked
  3030   00046A  511B               	movf	entering_password@counter& (0+255),w,b
  3031   00046C  A4D8               	btfss	status,2,c
  3032   00046E  EF3B  F002         	goto	u12791
  3033   000472  EF3D  F002         	goto	u12790
  3034   000476                     u12791:
  3035   000476  EF22  F002         	goto	l13051
  3036   00047A                     u12790:
  3037   00047A                     
  3038                           ; BSR set to: 1
  3039                           ;Helper_functions/helper_fn.c: 274:                           lcd_4bit_send_command(&lcd
      +                          1,0x0C);
  3040   00047A  0E4C               	movlw	low _lcd1
  3041   00047C  0100               	movlb	0	; () banked
  3042   00047E  6FB7               	movwf	lcd_4bit_send_command@lcd& (0+255),b
  3043   000480  0E0C               	movlw	12
  3044   000482  6FB8               	movwf	lcd_4bit_send_command@command& (0+255),b
  3045   000484  EC51  F017         	call	_lcd_4bit_send_command	;wreg free
  3046   000488  EF1C  F000         	goto	l12951
  3047   00048C                     l13065:
  3048                           
  3049                           ; BSR set to: 0
  3050   00048C  0E2F               	movlw	47
  3051   00048E  19AB               	xorwf	_keypad_value& (0+255),w,b
  3052   000490  B4D8               	btfsc	status,2,c
  3053   000492  EF4D  F002         	goto	u12801
  3054   000496  EF4F  F002         	goto	u12800
  3055   00049A                     u12801:
  3056   00049A  EF6A  F002         	goto	l13073
  3057   00049E                     u12800:
  3058   00049E                     
  3059                           ; BSR set to: 0
  3060   00049E  0E2A               	movlw	42
  3061   0004A0  19AB               	xorwf	_keypad_value& (0+255),w,b
  3062   0004A2  B4D8               	btfsc	status,2,c
  3063   0004A4  EF56  F002         	goto	u12811
  3064   0004A8  EF58  F002         	goto	u12810
  3065   0004AC                     u12811:
  3066   0004AC  EF6A  F002         	goto	l13073
  3067   0004B0                     u12810:
  3068   0004B0                     
  3069                           ; BSR set to: 0
  3070   0004B0  0E2B               	movlw	43
  3071   0004B2  19AB               	xorwf	_keypad_value& (0+255),w,b
  3072   0004B4  B4D8               	btfsc	status,2,c
  3073   0004B6  EF5F  F002         	goto	u12821
  3074   0004BA  EF61  F002         	goto	u12820
  3075   0004BE                     u12821:
  3076   0004BE  EF6A  F002         	goto	l13073
  3077   0004C2                     u12820:
  3078   0004C2                     
  3079                           ; BSR set to: 0
  3080   0004C2  0E2D               	movlw	45
  3081   0004C4  19AB               	xorwf	_keypad_value& (0+255),w,b
  3082   0004C6  A4D8               	btfss	status,2,c
  3083   0004C8  EF68  F002         	goto	u12831
  3084   0004CC  EF6A  F002         	goto	u12830
  3085   0004D0                     u12831:
  3086   0004D0  EF9F  F002         	goto	l13079
  3087   0004D4                     u12830:
  3088   0004D4                     l13073:
  3089                           
  3090                           ; BSR set to: 0
  3091                           ;Helper_functions/helper_fn.c: 282:                     lcd_4bit_send_string_pos(&lcd1,4
      +                          ,1,"Unavailable process ");
  3092   0004D4  0E4C               	movlw	low _lcd1
  3093   0004D6  6FC0               	movwf	lcd_4bit_send_string_pos@lcd& (0+255),b
  3094   0004D8  0E04               	movlw	4
  3095   0004DA  6FC1               	movwf	lcd_4bit_send_string_pos@row& (0+255),b
  3096   0004DC  0E01               	movlw	1
  3097   0004DE  6FC2               	movwf	lcd_4bit_send_string_pos@column& (0+255),b
  3098   0004E0  0E40               	movlw	low STR_11
  3099   0004E2  6FC3               	movwf	lcd_4bit_send_string_pos@str& (0+255),b
  3100   0004E4  0EFF               	movlw	high STR_11
  3101   0004E6  6FC4               	movwf	(lcd_4bit_send_string_pos@str+1)& (0+255),b
  3102   0004E8  EC78  F014         	call	_lcd_4bit_send_string_pos	;wreg free
  3103   0004EC                     
  3104                           ;Helper_functions/helper_fn.c: 283:                      _delay((unsigned long)((500)*(8
      +                          000000ul/4000.0)));
  3105   0004EC  0E06               	movlw	6
  3106   0004EE  0100               	movlb	0	; () banked
  3107   0004F0  6FD5               	movwf	(??_entering_password+1)& (0+255),b
  3108   0004F2  0E13               	movlw	19
  3109   0004F4  6FD4               	movwf	??_entering_password& (0+255),b
  3110   0004F6  0EAD               	movlw	173
  3111   0004F8                     u13357:
  3112   0004F8  2EE8               	decfsz	wreg,f,c
  3113   0004FA  D7FE               	bra	u13357
  3114   0004FC  2FD4               	decfsz	??_entering_password& (0+255),f,b
  3115   0004FE  D7FC               	bra	u13357
  3116   000500  2FD5               	decfsz	(??_entering_password+1)& (0+255),f,b
  3117   000502  D7FA               	bra	u13357
  3118   000504  D000               	nop2	
  3119   000506                     
  3120                           ;Helper_functions/helper_fn.c: 284:                     lcd_4bit_send_string_pos(&lcd1,4
      +                          ,1,"                     ");
  3121   000506  0E4C               	movlw	low _lcd1
  3122   000508  0100               	movlb	0	; () banked
  3123   00050A  6FC0               	movwf	lcd_4bit_send_string_pos@lcd& (0+255),b
  3124   00050C  0E04               	movlw	4
  3125   00050E  6FC1               	movwf	lcd_4bit_send_string_pos@row& (0+255),b
  3126   000510  0E01               	movlw	1
  3127   000512  6FC2               	movwf	lcd_4bit_send_string_pos@column& (0+255),b
  3128   000514  0EFF               	movlw	low STR_12
  3129   000516  6FC3               	movwf	lcd_4bit_send_string_pos@str& (0+255),b
  3130   000518  0EFE               	movlw	high STR_12
  3131   00051A  6FC4               	movwf	(lcd_4bit_send_string_pos@str+1)& (0+255),b
  3132   00051C  EC78  F014         	call	_lcd_4bit_send_string_pos	;wreg free
  3133                           
  3134                           ;Helper_functions/helper_fn.c: 285:                     _delay((unsigned long)((500)*(80
      +                          00000ul/4000.0)));
  3135   000520  0E06               	movlw	6
  3136   000522  0100               	movlb	0	; () banked
  3137   000524  6FD5               	movwf	(??_entering_password+1)& (0+255),b
  3138   000526  0E13               	movlw	19
  3139   000528  6FD4               	movwf	??_entering_password& (0+255),b
  3140   00052A  0EAD               	movlw	173
  3141   00052C                     u13367:
  3142   00052C  2EE8               	decfsz	wreg,f,c
  3143   00052E  D7FE               	bra	u13367
  3144   000530  2FD4               	decfsz	??_entering_password& (0+255),f,b
  3145   000532  D7FC               	bra	u13367
  3146   000534  2FD5               	decfsz	(??_entering_password+1)& (0+255),f,b
  3147   000536  D7FA               	bra	u13367
  3148   000538  D000               	nop2	
  3149                           
  3150                           ;Helper_functions/helper_fn.c: 286:                 }
  3151   00053A  EF25  F000         	goto	l12953
  3152   00053E                     l13079:
  3153                           
  3154                           ; BSR set to: 0
  3155                           ;Helper_functions/helper_fn.c: 288:             if(counter < 8){
  3156   00053E  0E08               	movlw	8
  3157   000540  0101               	movlb	1	; () banked
  3158   000542  611B               	cpfslt	entering_password@counter& (0+255),b
  3159   000544  EFA6  F002         	goto	u12841
  3160   000548  EFA8  F002         	goto	u12840
  3161   00054C                     u12841:
  3162   00054C  EFD5  F002         	goto	l13093
  3163   000550                     u12840:
  3164   000550                     
  3165                           ; BSR set to: 1
  3166                           ;Helper_functions/helper_fn.c: 289:                         pass_entered[counter] = keyp
      +                          ad_value;
  3167   000550  510F               	movf	entering_password@pass_entered& (0+255),w,b
  3168   000552  251B               	addwf	entering_password@counter& (0+255),w,b
  3169   000554  6ED9               	movwf	fsr2l,c
  3170   000556  6ADA               	clrf	fsr2h,c
  3171   000558  C0AB  FFDF         	movff	_keypad_value,indf2
  3172   00055C                     
  3173                           ; BSR set to: 1
  3174                           ;Helper_functions/helper_fn.c: 290:                         lcd_4bit_send_char_data_pos(
      +                          &lcd1,3,lcd_counter,keypad_value);
  3175   00055C  0E4C               	movlw	low _lcd1
  3176   00055E  0100               	movlb	0	; () banked
  3177   000560  6FC0               	movwf	lcd_4bit_send_char_data_pos@lcd& (0+255),b
  3178   000562  0E03               	movlw	3
  3179   000564  6FC1               	movwf	lcd_4bit_send_char_data_pos@row& (0+255),b
  3180   000566  C11A  F0C2         	movff	entering_password@lcd_counter,lcd_4bit_send_char_data_pos@column
  3181   00056A  C0AB  F0C3         	movff	_keypad_value,lcd_4bit_send_char_data_pos@data
  3182   00056E  ECD3  F019         	call	_lcd_4bit_send_char_data_pos	;wreg free
  3183   000572                     
  3184                           ;Helper_functions/helper_fn.c: 291:                         _delay((unsigned long)((200)
      +                          *(8000000ul/4000.0)));
  3185   000572  0E03               	movlw	3
  3186   000574  0100               	movlb	0	; () banked
  3187   000576  6FD5               	movwf	(??_entering_password+1)& (0+255),b
  3188   000578  0E08               	movlw	8
  3189   00057A  6FD4               	movwf	??_entering_password& (0+255),b
  3190   00057C  0E77               	movlw	119
  3191   00057E                     u13377:
  3192   00057E  2EE8               	decfsz	wreg,f,c
  3193   000580  D7FE               	bra	u13377
  3194   000582  2FD4               	decfsz	??_entering_password& (0+255),f,b
  3195   000584  D7FC               	bra	u13377
  3196   000586  2FD5               	decfsz	(??_entering_password+1)& (0+255),f,b
  3197   000588  D7FA               	bra	u13377
  3198   00058A                     
  3199                           ;Helper_functions/helper_fn.c: 292:                         lcd_4bit_send_char_data_pos(
      +                          &lcd1,3,lcd_counter,'*');
  3200   00058A  0E4C               	movlw	low _lcd1
  3201   00058C  0100               	movlb	0	; () banked
  3202   00058E  6FC0               	movwf	lcd_4bit_send_char_data_pos@lcd& (0+255),b
  3203   000590  0E03               	movlw	3
  3204   000592  6FC1               	movwf	lcd_4bit_send_char_data_pos@row& (0+255),b
  3205   000594  C11A  F0C2         	movff	entering_password@lcd_counter,lcd_4bit_send_char_data_pos@column
  3206   000598  0E2A               	movlw	42
  3207   00059A  6FC3               	movwf	lcd_4bit_send_char_data_pos@data& (0+255),b
  3208   00059C  ECD3  F019         	call	_lcd_4bit_send_char_data_pos	;wreg free
  3209   0005A0                     
  3210                           ;Helper_functions/helper_fn.c: 293:                         counter++;
  3211   0005A0  0101               	movlb	1	; () banked
  3212   0005A2  2B1B               	incf	entering_password@counter& (0+255),f,b
  3213   0005A4                     
  3214                           ; BSR set to: 1
  3215                           ;Helper_functions/helper_fn.c: 294:                         lcd_counter++;
  3216   0005A4  2B1A               	incf	entering_password@lcd_counter& (0+255),f,b
  3217                           
  3218                           ;Helper_functions/helper_fn.c: 295:             }
  3219   0005A6  EF25  F000         	goto	l12953
  3220   0005AA                     l13093:
  3221                           
  3222                           ; BSR set to: 1
  3223                           ;Helper_functions/helper_fn.c: 297:                 lcd_4bit_send_string_pos(&lcd1,4,1,"
      +                          max 8 digits ");
  3224   0005AA  0E4C               	movlw	low _lcd1
  3225   0005AC  0100               	movlb	0	; () banked
  3226   0005AE  6FC0               	movwf	lcd_4bit_send_string_pos@lcd& (0+255),b
  3227   0005B0  0E04               	movlw	4
  3228   0005B2  6FC1               	movwf	lcd_4bit_send_string_pos@row& (0+255),b
  3229   0005B4  0E01               	movlw	1
  3230   0005B6  6FC2               	movwf	lcd_4bit_send_string_pos@column& (0+255),b
  3231   0005B8  0EDD               	movlw	low STR_26
  3232   0005BA  6FC3               	movwf	lcd_4bit_send_string_pos@str& (0+255),b
  3233   0005BC  0EFF               	movlw	high STR_26
  3234   0005BE  6FC4               	movwf	(lcd_4bit_send_string_pos@str+1)& (0+255),b
  3235   0005C0  EC78  F014         	call	_lcd_4bit_send_string_pos	;wreg free
  3236   0005C4                     
  3237                           ;Helper_functions/helper_fn.c: 298:                  _delay((unsigned long)((500)*(80000
      +                          00ul/4000.0)));
  3238   0005C4  0E06               	movlw	6
  3239   0005C6  0100               	movlb	0	; () banked
  3240   0005C8  6FD5               	movwf	(??_entering_password+1)& (0+255),b
  3241   0005CA  0E13               	movlw	19
  3242   0005CC  6FD4               	movwf	??_entering_password& (0+255),b
  3243   0005CE  0EAD               	movlw	173
  3244   0005D0                     u13387:
  3245   0005D0  2EE8               	decfsz	wreg,f,c
  3246   0005D2  D7FE               	bra	u13387
  3247   0005D4  2FD4               	decfsz	??_entering_password& (0+255),f,b
  3248   0005D6  D7FC               	bra	u13387
  3249   0005D8  2FD5               	decfsz	(??_entering_password+1)& (0+255),f,b
  3250   0005DA  D7FA               	bra	u13387
  3251   0005DC  D000               	nop2	
  3252   0005DE                     
  3253                           ;Helper_functions/helper_fn.c: 299:                 lcd_4bit_send_string_pos(&lcd1,4,1,"
      +                                               ");
  3254   0005DE  0E4C               	movlw	low _lcd1
  3255   0005E0  0100               	movlb	0	; () banked
  3256   0005E2  6FC0               	movwf	lcd_4bit_send_string_pos@lcd& (0+255),b
  3257   0005E4  0E04               	movlw	4
  3258   0005E6  6FC1               	movwf	lcd_4bit_send_string_pos@row& (0+255),b
  3259   0005E8  0E01               	movlw	1
  3260   0005EA  6FC2               	movwf	lcd_4bit_send_string_pos@column& (0+255),b
  3261   0005EC  0EFF               	movlw	low STR_12
  3262   0005EE  6FC3               	movwf	lcd_4bit_send_string_pos@str& (0+255),b
  3263   0005F0  0EFE               	movlw	high STR_12
  3264   0005F2  6FC4               	movwf	(lcd_4bit_send_string_pos@str+1)& (0+255),b
  3265   0005F4  EC78  F014         	call	_lcd_4bit_send_string_pos	;wreg free
  3266                           
  3267                           ;Helper_functions/helper_fn.c: 300:                  _delay((unsigned long)((500)*(80000
      +                          00ul/4000.0)));
  3268   0005F8  0E06               	movlw	6
  3269   0005FA  0100               	movlb	0	; () banked
  3270   0005FC  6FD5               	movwf	(??_entering_password+1)& (0+255),b
  3271   0005FE  0E13               	movlw	19
  3272   000600  6FD4               	movwf	??_entering_password& (0+255),b
  3273   000602  0EAD               	movlw	173
  3274   000604                     u13397:
  3275   000604  2EE8               	decfsz	wreg,f,c
  3276   000606  D7FE               	bra	u13397
  3277   000608  2FD4               	decfsz	??_entering_password& (0+255),f,b
  3278   00060A  D7FC               	bra	u13397
  3279   00060C  2FD5               	decfsz	(??_entering_password+1)& (0+255),f,b
  3280   00060E  D7FA               	bra	u13397
  3281   000610  D000               	nop2	
  3282   000612  EF25  F000         	goto	l12953
  3283   000616                     l1073:
  3284   000616  0012               	return		;funcret
  3285   000618                     __end_of_entering_password:
  3286                           	callstack 0
  3287                           
  3288 ;; *************** function _convert_byte_to_string *****************
  3289 ;; Defined at:
  3290 ;;		line 427 in file "ECU_layer/chr_LCD/ecu_chr_LCD.c"
  3291 ;; Parameters:    Size  Location     Type
  3292 ;;  value           1    wreg     unsigned char 
  3293 ;;  str             2   13[BANK1 ] PTR unsigned char 
  3294 ;;		 -> entering_password@str(4), 
  3295 ;; Auto vars:     Size  Location     Type
  3296 ;;  value           1   39[BANK0 ] unsigned char 
  3297 ;;  ret             1    0        unsigned char 
  3298 ;; Return value:  Size  Location     Type
  3299 ;;                  1    wreg      unsigned char 
  3300 ;; Registers used:
  3301 ;;		wreg, fsr1l, fsr1h, fsr2l, fsr2h, status,2, status,0, tblptrl, tblptrh, tblptru, cstack
  3302 ;; Tracked objects:
  3303 ;;		On entry : 0/0
  3304 ;;		On exit  : 0/0
  3305 ;;		Unchanged: 0/0
  3306 ;; Data sizes:     COMRAM   BANK0   BANK1   BANK2   BANK3   BANK4   BANK5   BANK6   BANK7   BANK8   BANK9  BANK10  BANK1
      +1  BANK12  BANK13  BANK14  BANK15
  3307 ;;      Params:         0       0       2       0       0       0       0       0       0       0       0       0       
      +0       0       0       0       0
  3308 ;;      Locals:         0       1       0       0       0       0       0       0       0       0       0       0       
      +0       0       0       0       0
  3309 ;;      Temps:          0       0       0       0       0       0       0       0       0       0       0       0       
      +0       0       0       0       0
  3310 ;;      Totals:         0       1       2       0       0       0       0       0       0       0       0       0       
      +0       0       0       0       0
  3311 ;;Total ram usage:        3 bytes
  3312 ;; Hardware stack levels used: 1
  3313 ;; Hardware stack levels required when called: 13
  3314 ;; This function calls:
  3315 ;;		_memset
  3316 ;;		_sprintf
  3317 ;; This function is called by:
  3318 ;;		_entering_password
  3319 ;; This function uses a non-reentrant model
  3320 ;;
  3321                           
  3322                           	psect	text4
  3323   00313E                     __ptext4:
  3324                           	callstack 0
  3325   00313E                     _convert_byte_to_string:
  3326                           	callstack 16
  3327                           
  3328                           ;incstack = 0
  3329                           ;convert_byte_to_string@value stored from wreg
  3330   00313E  0100               	movlb	0	; () banked
  3331   003140  6FD3               	movwf	convert_byte_to_string@value& (0+255),b
  3332   003142                     
  3333                           ;ECU_layer/chr_LCD/ecu_chr_LCD.c: 429:     if(((void*)0) == str)
  3334   003142  0101               	movlb	1	; () banked
  3335   003144  510D               	movf	convert_byte_to_string@str& (0+255),w,b
  3336   003146  110E               	iorwf	(convert_byte_to_string@str+1)& (0+255),w,b
  3337   003148  A4D8               	btfss	status,2,c
  3338   00314A  EFA9  F018         	goto	u12661
  3339   00314E  EFAB  F018         	goto	u12660
  3340   003152                     u12661:
  3341   003152  EFAD  F018         	goto	l12911
  3342   003156                     u12660:
  3343   003156                     
  3344                           ; BSR set to: 1
  3345                           ;ECU_layer/chr_LCD/ecu_chr_LCD.c: 432:     }
  3346   003156  EFCA  F018         	goto	l162
  3347   00315A                     l12911:
  3348                           
  3349                           ; BSR set to: 1
  3350                           ;ECU_layer/chr_LCD/ecu_chr_LCD.c: 434:     {;ECU_layer/chr_LCD/ecu_chr_LCD.c: 435:      
      +                             memset(str,'/0',4);
  3351   00315A  C10D  F0AC         	movff	convert_byte_to_string@str,memset@dest
  3352   00315E  C10E  F0AD         	movff	convert_byte_to_string@str+1,memset@dest+1
  3353   003162  0E2F               	movlw	47
  3354   003164  0100               	movlb	0	; () banked
  3355   003166  6FAF               	movwf	(memset@c+1)& (0+255),b
  3356   003168  0E30               	movlw	48
  3357   00316A  6FAE               	movwf	memset@c& (0+255),b
  3358   00316C  0E00               	movlw	0
  3359   00316E  6FB1               	movwf	(memset@n+1)& (0+255),b
  3360   003170  0E04               	movlw	4
  3361   003172  6FB0               	movwf	memset@n& (0+255),b
  3362   003174  ECF4  F019         	call	_memset	;wreg free
  3363   003178                     
  3364                           ;ECU_layer/chr_LCD/ecu_chr_LCD.c: 436:         sprintf(str,"%i",value);
  3365   003178  C10D  F0CD         	movff	convert_byte_to_string@str,sprintf@s
  3366   00317C  C10E  F0CE         	movff	convert_byte_to_string@str+1,sprintf@s+1
  3367   003180  0EF6               	movlw	low STR_1
  3368   003182  0100               	movlb	0	; () banked
  3369   003184  6FCF               	movwf	sprintf@fmt& (0+255),b
  3370   003186  0EFF               	movlw	high STR_1
  3371   003188  6FD0               	movwf	(sprintf@fmt+1)& (0+255),b
  3372   00318A  C0D3  F0D1         	movff	convert_byte_to_string@value,?_sprintf+4
  3373   00318E  6BD2               	clrf	(?_sprintf+5)& (0+255),b
  3374   003190  ECCB  F018         	call	_sprintf	;wreg free
  3375   003194                     l162:
  3376   003194  0012               	return		;funcret
  3377   003196                     __end_of_convert_byte_to_string:
  3378                           	callstack 0
  3379                           
  3380 ;; *************** function _sprintf *****************
  3381 ;; Defined at:
  3382 ;;		line 9 in file "C:\Program Files\Microchip\xc8\v2.45\pic\sources\c99\common\nf_sprintf.c"
  3383 ;; Parameters:    Size  Location     Type
  3384 ;;  s               2   33[BANK0 ] PTR unsigned char 
  3385 ;;		 -> entering_password@str(4), 
  3386 ;;  fmt             2   35[BANK0 ] PTR const unsigned char 
  3387 ;;		 -> STR_3(3), STR_2(3), STR_1(3), 
  3388 ;; Auto vars:     Size  Location     Type
  3389 ;;  f              12    1[BANK1 ] struct _IO_FILE
  3390 ;;  ret             2    0        int 
  3391 ;;  ap              1    0[BANK1 ] PTR void [1]
  3392 ;;		 -> ?_sprintf(2), 
  3393 ;; Return value:  Size  Location     Type
  3394 ;;                  2   33[BANK0 ] int 
  3395 ;; Registers used:
  3396 ;;		wreg, fsr1l, fsr1h, fsr2l, fsr2h, status,2, status,0, tblptrl, tblptrh, tblptru, cstack
  3397 ;; Tracked objects:
  3398 ;;		On entry : 0/0
  3399 ;;		On exit  : 0/0
  3400 ;;		Unchanged: 0/0
  3401 ;; Data sizes:     COMRAM   BANK0   BANK1   BANK2   BANK3   BANK4   BANK5   BANK6   BANK7   BANK8   BANK9  BANK10  BANK1
      +1  BANK12  BANK13  BANK14  BANK15
  3402 ;;      Params:         0       6       0       0       0       0       0       0       0       0       0       0       
      +0       0       0       0       0
  3403 ;;      Locals:         0       0      13       0       0       0       0       0       0       0       0       0       
      +0       0       0       0       0
  3404 ;;      Temps:          0       0       0       0       0       0       0       0       0       0       0       0       
      +0       0       0       0       0
  3405 ;;      Totals:         0       6      13       0       0       0       0       0       0       0       0       0       
      +0       0       0       0       0
  3406 ;;Total ram usage:       19 bytes
  3407 ;; Hardware stack levels used: 1
  3408 ;; Hardware stack levels required when called: 12
  3409 ;; This function calls:
  3410 ;;		_vfprintf
  3411 ;; This function is called by:
  3412 ;;		_convert_byte_to_string
  3413 ;;		_convert_short_to_string
  3414 ;;		_convert_int_to_string
  3415 ;; This function uses a non-reentrant model
  3416 ;;
  3417                           
  3418                           	psect	text5
  3419   003196                     __ptext5:
  3420                           	callstack 0
  3421   003196                     _sprintf:
  3422                           	callstack 16
  3423   003196  0ED1               	movlw	low (?_sprintf+4)
  3424   003198  0101               	movlb	1	; () banked
  3425   00319A  6F00               	movwf	sprintf@ap& (0+255),b
  3426   00319C  C0CD  F101         	movff	sprintf@s,sprintf@f
  3427   0031A0  C0CE  F102         	movff	sprintf@s+1,sprintf@f+1
  3428   0031A4                     
  3429                           ; BSR set to: 1
  3430   0031A4  0E00               	movlw	0
  3431   0031A6  6F05               	movwf	(sprintf@f+4)& (0+255),b
  3432   0031A8  0E00               	movlw	0
  3433   0031AA  6F04               	movwf	(sprintf@f+3)& (0+255),b
  3434   0031AC                     
  3435                           ; BSR set to: 1
  3436   0031AC  0E00               	movlw	0
  3437   0031AE  6F0C               	movwf	(sprintf@f+11)& (0+255),b
  3438   0031B0  0E00               	movlw	0
  3439   0031B2  6F0B               	movwf	(sprintf@f+10)& (0+255),b
  3440   0031B4                     
  3441                           ; BSR set to: 1
  3442   0031B4  0E01               	movlw	low sprintf@f
  3443   0031B6  0100               	movlb	0	; () banked
  3444   0031B8  6FC5               	movwf	vfprintf@fp& (0+255),b
  3445   0031BA  0E01               	movlw	high sprintf@f
  3446   0031BC  6FC6               	movwf	(vfprintf@fp+1)& (0+255),b
  3447   0031BE  C0CF  F0C7         	movff	sprintf@fmt,vfprintf@fmt
  3448   0031C2  C0D0  F0C8         	movff	sprintf@fmt+1,vfprintf@fmt+1
  3449   0031C6  0E00               	movlw	low sprintf@ap
  3450   0031C8  6FC9               	movwf	vfprintf@ap& (0+255),b
  3451   0031CA  0E01               	movlw	high sprintf@ap
  3452   0031CC  6FCA               	movwf	(vfprintf@ap+1)& (0+255),b
  3453   0031CE  ECF5  F018         	call	_vfprintf	;wreg free
  3454   0031D2  0101               	movlb	1	; () banked
  3455   0031D4  5104               	movf	(sprintf@f+3)& (0+255),w,b
  3456   0031D6  0100               	movlb	0	; () banked
  3457   0031D8  25CD               	addwf	sprintf@s& (0+255),w,b
  3458   0031DA  6ED9               	movwf	fsr2l,c
  3459   0031DC  0101               	movlb	1	; () banked
  3460   0031DE  5105               	movf	(sprintf@f+4)& (0+255),w,b
  3461   0031E0  0100               	movlb	0	; () banked
  3462   0031E2  21CE               	addwfc	(sprintf@s+1)& (0+255),w,b
  3463   0031E4  6EDA               	movwf	fsr2h,c
  3464   0031E6  6ADF               	clrf	indf2,c
  3465   0031E8                     
  3466                           ; BSR set to: 0
  3467   0031E8  0012               	return		;funcret
  3468   0031EA                     __end_of_sprintf:
  3469                           	callstack 0
  3470                           
  3471 ;; *************** function _vfprintf *****************
  3472 ;; Defined at:
  3473 ;;		line 1817 in file "C:\Program Files\Microchip\xc8\v2.45\pic\sources\c99\common\doprnt.c"
  3474 ;; Parameters:    Size  Location     Type
  3475 ;;  fp              2   25[BANK0 ] PTR struct _IO_FILE
  3476 ;;		 -> sprintf@f(12), 
  3477 ;;  fmt             2   27[BANK0 ] PTR const unsigned char 
  3478 ;;		 -> STR_3(3), STR_2(3), STR_1(3), 
  3479 ;;  ap              2   29[BANK0 ] PTR PTR void 
  3480 ;;		 -> sprintf@ap(1), 
  3481 ;; Auto vars:     Size  Location     Type
  3482 ;;  cfmt            2   31[BANK0 ] PTR unsigned char 
  3483 ;;		 -> STR_3(3), STR_2(3), STR_1(3), 
  3484 ;; Return value:  Size  Location     Type
  3485 ;;                  2   25[BANK0 ] int 
  3486 ;; Registers used:
  3487 ;;		wreg, fsr1l, fsr1h, fsr2l, fsr2h, status,2, status,0, tblptrl, tblptrh, tblptru, cstack
  3488 ;; Tracked objects:
  3489 ;;		On entry : 0/0
  3490 ;;		On exit  : 0/0
  3491 ;;		Unchanged: 0/0
  3492 ;; Data sizes:     COMRAM   BANK0   BANK1   BANK2   BANK3   BANK4   BANK5   BANK6   BANK7   BANK8   BANK9  BANK10  BANK1
      +1  BANK12  BANK13  BANK14  BANK15
  3493 ;;      Params:         0       6       0       0       0       0       0       0       0       0       0       0       
      +0       0       0       0       0
  3494 ;;      Locals:         0       2       0       0       0       0       0       0       0       0       0       0       
      +0       0       0       0       0
  3495 ;;      Temps:          0       0       0       0       0       0       0       0       0       0       0       0       
      +0       0       0       0       0
  3496 ;;      Totals:         0       8       0       0       0       0       0       0       0       0       0       0       
      +0       0       0       0       0
  3497 ;;Total ram usage:        8 bytes
  3498 ;; Hardware stack levels used: 1
  3499 ;; Hardware stack levels required when called: 11
  3500 ;; This function calls:
  3501 ;;		_vfpfcnvrt
  3502 ;; This function is called by:
  3503 ;;		_sprintf
  3504 ;; This function uses a non-reentrant model
  3505 ;;
  3506                           
  3507                           	psect	text6
  3508   0031EA                     __ptext6:
  3509                           	callstack 0
  3510   0031EA                     _vfprintf:
  3511                           	callstack 16
  3512   0031EA                     
  3513                           ;C:\Program Files\Microchip\xc8\v2.45\pic\sources\c99\common\doprnt.c: 1817: int vfprint
      +                          f(FILE *fp, const char *fmt, va_list ap);C:\Program Files\Microchip\xc8\v2.45\pic\source
      +                          s\c99\common\doprnt.c: 1818: {;C:\Program Files\Microchip\xc8\v2.45\pic\sources\c99\comm
      +                          on\doprnt.c: 1820:     char *cfmt;;C:\Program Files\Microchip\xc8\v2.45\pic\sources\c99\
      +                          common\doprnt.c: 1822:     cfmt = (char *)fmt;
  3514   0031EA  C0C7  F0CB         	movff	vfprintf@fmt,vfprintf@cfmt
  3515   0031EE  C0C8  F0CC         	movff	vfprintf@fmt+1,vfprintf@cfmt+1
  3516                           
  3517                           ;C:\Program Files\Microchip\xc8\v2.45\pic\sources\c99\common\doprnt.c: 1826:     while (
      +                          *cfmt) {
  3518   0031F2  EF08  F019         	goto	l11235
  3519   0031F6                     l11233:
  3520                           
  3521                           ;C:\Program Files\Microchip\xc8\v2.45\pic\sources\c99\common\doprnt.c: 1830:    vfpfcnvr
      +                          t(fp, &cfmt, ap);
  3522   0031F6  C0C5  F0B6         	movff	vfprintf@fp,vfpfcnvrt@fp
  3523   0031FA  C0C6  F0B7         	movff	vfprintf@fp+1,vfpfcnvrt@fp+1
  3524   0031FE  0ECB               	movlw	low vfprintf@cfmt
  3525   003200  0100               	movlb	0	; () banked
  3526   003202  6FB8               	movwf	vfpfcnvrt@fmt& (0+255),b
  3527   003204  C0C9  F0B9         	movff	vfprintf@ap,vfpfcnvrt@ap
  3528   003208  C0CA  F0BA         	movff	vfprintf@ap+1,vfpfcnvrt@ap+1
  3529   00320C  ECBA  F00C         	call	_vfpfcnvrt	;wreg free
  3530   003210                     l11235:
  3531                           
  3532                           ;C:\Program Files\Microchip\xc8\v2.45\pic\sources\c99\common\doprnt.c: 1826:     while (
      +                          *cfmt) {
  3533   003210  C0CB  FFF6         	movff	vfprintf@cfmt,tblptrl
  3534   003214  C0CC  FFF7         	movff	vfprintf@cfmt+1,tblptrh
  3535   003218                     	if	1	;Program memory is < 0x10000, tblptru is always zero
  3536   003218  6AF8               	clrf	tblptru,c
  3537   00321A                     	endif
  3538   00321A                     	if	0	;tblptru may be non-zero
  3539   00321A                     	endif
  3540   00321A  0008               	tblrd		*
  3541   00321C  50F5               	movf	tablat,w,c
  3542   00321E  0900               	iorlw	0
  3543   003220  A4D8               	btfss	status,2,c
  3544   003222  EF15  F019         	goto	u10841
  3545   003226  EF17  F019         	goto	u10840
  3546   00322A                     u10841:
  3547   00322A  EFFB  F018         	goto	l11233
  3548   00322E                     u10840:
  3549   00322E                     
  3550                           ;C:\Program Files\Microchip\xc8\v2.45\pic\sources\c99\common\doprnt.c: 1835:  return 0;
  3551   00322E  0E00               	movlw	0
  3552   003230  0100               	movlb	0	; () banked
  3553   003232  6FC6               	movwf	(?_vfprintf+1)& (0+255),b
  3554   003234  0E00               	movlw	0
  3555   003236  6FC5               	movwf	?_vfprintf& (0+255),b
  3556   003238                     
  3557                           ; BSR set to: 0
  3558   003238  0012               	return		;funcret
  3559   00323A                     __end_of_vfprintf:
  3560                           	callstack 0
  3561                           
  3562 ;; *************** function _vfpfcnvrt *****************
  3563 ;; Defined at:
  3564 ;;		line 1177 in file "C:\Program Files\Microchip\xc8\v2.45\pic\sources\c99\common\doprnt.c"
  3565 ;; Parameters:    Size  Location     Type
  3566 ;;  fp              2   10[BANK0 ] PTR struct _IO_FILE
  3567 ;;		 -> sprintf@f(12), 
  3568 ;;  fmt             1   12[BANK0 ] PTR PTR unsigned char 
  3569 ;;		 -> vfprintf@cfmt(2), 
  3570 ;;  ap              2   13[BANK0 ] PTR PTR void 
  3571 ;;		 -> sprintf@ap(1), 
  3572 ;; Auto vars:     Size  Location     Type
  3573 ;;  convarg         4   20[BANK0 ] struct .
  3574 ;;  cp              2   18[BANK0 ] PTR unsigned char 
  3575 ;;		 -> STR_3(3), STR_2(3), STR_1(3), 
  3576 ;;  c               1   24[BANK0 ] unsigned char 
  3577 ;;  done            1   17[BANK0 ] _Bool 
  3578 ;; Return value:  Size  Location     Type
  3579 ;;                  1    wreg      void 
  3580 ;; Registers used:
  3581 ;;		wreg, fsr1l, fsr1h, fsr2l, fsr2h, status,2, status,0, tblptrl, tblptrh, tblptru, cstack
  3582 ;; Tracked objects:
  3583 ;;		On entry : 0/0
  3584 ;;		On exit  : 0/0
  3585 ;;		Unchanged: 0/0
  3586 ;; Data sizes:     COMRAM   BANK0   BANK1   BANK2   BANK3   BANK4   BANK5   BANK6   BANK7   BANK8   BANK9  BANK10  BANK1
      +1  BANK12  BANK13  BANK14  BANK15
  3587 ;;      Params:         0       5       0       0       0       0       0       0       0       0       0       0       
      +0       0       0       0       0
  3588 ;;      Locals:         0       8       0       0       0       0       0       0       0       0       0       0       
      +0       0       0       0       0
  3589 ;;      Temps:          0       2       0       0       0       0       0       0       0       0       0       0       
      +0       0       0       0       0
  3590 ;;      Totals:         0      15       0       0       0       0       0       0       0       0       0       0       
      +0       0       0       0       0
  3591 ;;Total ram usage:       15 bytes
  3592 ;; Hardware stack levels used: 1
  3593 ;; Hardware stack levels required when called: 10
  3594 ;; This function calls:
  3595 ;;		___awdiv
  3596 ;;		___awmod
  3597 ;;		_abs
  3598 ;;		_fputc
  3599 ;; This function is called by:
  3600 ;;		_vfprintf
  3601 ;; This function uses a non-reentrant model
  3602 ;;
  3603                           
  3604                           	psect	text7
  3605   001974                     __ptext7:
  3606                           	callstack 0
  3607   001974                     _vfpfcnvrt:
  3608                           	callstack 16
  3609   001974                     
  3610                           ;C:\Program Files\Microchip\xc8\v2.45\pic\sources\c99\common\doprnt.c: 1177: vfpfcnvrt(F
      +                          ILE *fp, char *fmt[], va_list ap);C:\Program Files\Microchip\xc8\v2.45\pic\sources\c99\c
      +                          ommon\doprnt.c: 1178: {;C:\Program Files\Microchip\xc8\v2.45\pic\sources\c99\common\dopr
      +                          nt.c: 1179:     char c, *cp;;C:\Program Files\Microchip\xc8\v2.45\pic\sources\c99\common
      +                          \doprnt.c: 1180:     _Bool done;;C:\Program Files\Microchip\xc8\v2.45\pic\sources\c99\co
      +                          mmon\doprnt.c: 1188:  } convarg;;C:\Program Files\Microchip\xc8\v2.45\pic\sources\c99\co
      +                          mmon\doprnt.c: 1201:     if ((*fmt)[0] == '%') {
  3611   001974  0100               	movlb	0	; () banked
  3612   001976  51B8               	movf	vfpfcnvrt@fmt& (0+255),w,b
  3613   001978  6ED9               	movwf	fsr2l,c
  3614   00197A  6ADA               	clrf	fsr2h,c
  3615   00197C  CFDE FFF6          	movff	postinc2,tblptrl
  3616   001980  CFDD FFF7          	movff	postdec2,tblptrh
  3617   001984                     	if	1	;Program memory is < 0x10000, tblptru is always zero
  3618   001984  6AF8               	clrf	tblptru,c
  3619   001986                     	endif
  3620   001986                     	if	0	;tblptru may be non-zero
  3621   001986                     	endif
  3622   001986  0008               	tblrd		*
  3623   001988  50F5               	movf	tablat,w,c
  3624   00198A  0A25               	xorlw	37
  3625   00198C  A4D8               	btfss	status,2,c
  3626   00198E  EFCB  F00C         	goto	u10641
  3627   001992  EFCD  F00C         	goto	u10640
  3628   001996                     u10641:
  3629   001996  EFA3  F00D         	goto	l11135
  3630   00199A                     u10640:
  3631   00199A                     
  3632                           ; BSR set to: 0
  3633                           ;C:\Program Files\Microchip\xc8\v2.45\pic\sources\c99\common\doprnt.c: 1202:         ++*
      +                          fmt;
  3634   00199A  51B8               	movf	vfpfcnvrt@fmt& (0+255),w,b
  3635   00199C  6ED9               	movwf	fsr2l,c
  3636   00199E  6ADA               	clrf	fsr2h,c
  3637   0019A0  2ADE               	incf	postinc2,f,c
  3638   0019A2  0E00               	movlw	0
  3639   0019A4  22DD               	addwfc	postdec2,f,c
  3640   0019A6                     
  3641                           ; BSR set to: 0
  3642                           ;C:\Program Files\Microchip\xc8\v2.45\pic\sources\c99\common\doprnt.c: 1204:         fla
      +                          gs = width = 0;
  3643   0019A6  0E00               	movlw	0
  3644   0019A8  6F81               	movwf	(_width+1)& (0+255),b
  3645   0019AA  0E00               	movlw	0
  3646   0019AC  6F80               	movwf	_width& (0+255),b
  3647   0019AE  C080  F040         	movff	_width,_flags
  3648   0019B2                     
  3649                           ; BSR set to: 0
  3650                           ;C:\Program Files\Microchip\xc8\v2.45\pic\sources\c99\common\doprnt.c: 1205:         pre
      +                          c = -1;
  3651   0019B2  6982               	setf	_prec& (0+255),b
  3652   0019B4  6983               	setf	(_prec+1)& (0+255),b
  3653   0019B6                     
  3654                           ; BSR set to: 0
  3655                           ;C:\Program Files\Microchip\xc8\v2.45\pic\sources\c99\common\doprnt.c: 1291:   cp = *fmt
      +                          ;
  3656   0019B6  51B8               	movf	vfpfcnvrt@fmt& (0+255),w,b
  3657   0019B8  6ED9               	movwf	fsr2l,c
  3658   0019BA  6ADA               	clrf	fsr2h,c
  3659   0019BC  CFDE F0BE          	movff	postinc2,vfpfcnvrt@cp
  3660   0019C0  CFDD F0BF          	movff	postdec2,vfpfcnvrt@cp+1
  3661   0019C4                     
  3662                           ; BSR set to: 0
  3663                           ;C:\Program Files\Microchip\xc8\v2.45\pic\sources\c99\common\doprnt.c: 1361:   if (*cp =
      +                          = 'd' || *cp == 'i') {
  3664   0019C4  C0BE  FFF6         	movff	vfpfcnvrt@cp,tblptrl
  3665   0019C8  C0BF  FFF7         	movff	vfpfcnvrt@cp+1,tblptrh
  3666   0019CC                     	if	1	;Program memory is < 0x10000, tblptru is always zero
  3667   0019CC  6AF8               	clrf	tblptru,c
  3668   0019CE                     	endif
  3669   0019CE                     	if	0	;tblptru may be non-zero
  3670   0019CE                     	endif
  3671   0019CE  0008               	tblrd		*
  3672   0019D0  50F5               	movf	tablat,w,c
  3673   0019D2  0A64               	xorlw	100
  3674   0019D4  B4D8               	btfsc	status,2,c
  3675   0019D6  EFEF  F00C         	goto	u10651
  3676   0019DA  EFF1  F00C         	goto	u10650
  3677   0019DE                     u10651:
  3678   0019DE  EF00  F00D         	goto	l11103
  3679   0019E2                     u10650:
  3680   0019E2                     
  3681                           ; BSR set to: 0
  3682   0019E2  C0BE  FFF6         	movff	vfpfcnvrt@cp,tblptrl
  3683   0019E6  C0BF  FFF7         	movff	vfpfcnvrt@cp+1,tblptrh
  3684   0019EA                     	if	1	;Program memory is < 0x10000, tblptru is always zero
  3685   0019EA  6AF8               	clrf	tblptru,c
  3686   0019EC                     	endif
  3687   0019EC                     	if	0	;tblptru may be non-zero
  3688   0019EC                     	endif
  3689   0019EC  0008               	tblrd		*
  3690   0019EE  50F5               	movf	tablat,w,c
  3691   0019F0  0A69               	xorlw	105
  3692   0019F2  A4D8               	btfss	status,2,c
  3693   0019F4  EFFE  F00C         	goto	u10661
  3694   0019F8  EF00  F00D         	goto	u10660
  3695   0019FC                     u10661:
  3696   0019FC  EF9A  F00D         	goto	l11131
  3697   001A00                     u10660:
  3698   001A00                     l11103:
  3699                           
  3700                           ; BSR set to: 0
  3701                           ;C:\Program Files\Microchip\xc8\v2.45\pic\sources\c99\common\doprnt.c: 1404:    convarg.
      +                          sint = (vfpf_sint_t)(int)(*(int *)__va_arg(*(int **)ap, (int)0));
  3702   001A00  C0B9  FFD9         	movff	vfpfcnvrt@ap,fsr2l
  3703   001A04  C0BA  FFDA         	movff	vfpfcnvrt@ap+1,fsr2h
  3704   001A08  0E02               	movlw	2
  3705   001A0A  26DF               	addwf	indf2,f,c
  3706   001A0C  5CDF               	subwf	indf2,w,c
  3707   001A0E  6ED9               	movwf	fsr2l,c
  3708   001A10  6ADA               	clrf	fsr2h,c
  3709   001A12  CFDE F0C0          	movff	postinc2,vfpfcnvrt@convarg
  3710   001A16  CFDE F0C1          	movff	postinc2,vfpfcnvrt@convarg+1
  3711   001A1A                     
  3712                           ; BSR set to: 0
  3713                           ;C:\Program Files\Microchip\xc8\v2.45\pic\sources\c99\common\doprnt.c: 1406:    *fmt = c
      +                          p+1;
  3714   001A1A  0E01               	movlw	1
  3715   001A1C  25BE               	addwf	vfpfcnvrt@cp& (0+255),w,b
  3716   001A1E  6FBB               	movwf	??_vfpfcnvrt& (0+255),b
  3717   001A20  0E00               	movlw	0
  3718   001A22  21BF               	addwfc	(vfpfcnvrt@cp+1)& (0+255),w,b
  3719   001A24  6FBC               	movwf	(??_vfpfcnvrt+1)& (0+255),b
  3720   001A26  51B8               	movf	vfpfcnvrt@fmt& (0+255),w,b
  3721   001A28  6ED9               	movwf	fsr2l,c
  3722   001A2A  6ADA               	clrf	fsr2h,c
  3723   001A2C  C0BB  FFDE         	movff	??_vfpfcnvrt,postinc2
  3724   001A30  C0BC  FFDD         	movff	??_vfpfcnvrt+1,postdec2
  3725   001A34                     
  3726                           ; BSR set to: 0
  3727                           ;C:\Program Files\Microchip\xc8\v2.45\pic\sources\c99\common\doprnt.c: 1408:    c = size
      +                          of(dbuf);
  3728   001A34  0E20               	movlw	32
  3729   001A36  6FC4               	movwf	vfpfcnvrt@c& (0+255),b
  3730   001A38                     
  3731                           ; BSR set to: 0
  3732                           ;C:\Program Files\Microchip\xc8\v2.45\pic\sources\c99\common\doprnt.c: 1409:    done = c
      +                          onvarg.sint < 0;
  3733   001A38  BFC1               	btfsc	(vfpfcnvrt@convarg+1)& (0+255),7,b
  3734   001A3A  EF21  F00D         	goto	u10671
  3735   001A3E  EF24  F00D         	goto	u10670
  3736   001A42                     u10671:
  3737   001A42  0E01               	movlw	1
  3738   001A44  EF25  F00D         	goto	u10680
  3739   001A48                     u10670:
  3740   001A48  0E00               	movlw	0
  3741   001A4A                     u10680:
  3742   001A4A  6FBD               	movwf	vfpfcnvrt@done& (0+255),b
  3743   001A4C                     l11111:
  3744                           
  3745                           ; BSR set to: 0
  3746                           ;C:\Program Files\Microchip\xc8\v2.45\pic\sources\c99\common\doprnt.c: 1411:     dbuf[--
      +                          c] = abs(convarg.sint % 10) + '0';
  3747   001A4C  07C4               	decf	vfpfcnvrt@c& (0+255),f,b
  3748   001A4E  0E24               	movlw	low _dbuf
  3749   001A50  25C4               	addwf	vfpfcnvrt@c& (0+255),w,b
  3750   001A52  6ED9               	movwf	fsr2l,c
  3751   001A54  6ADA               	clrf	fsr2h,c
  3752   001A56  0E01               	movlw	high _dbuf
  3753   001A58  22DA               	addwfc	fsr2h,f,c
  3754   001A5A  C0C0  F0AC         	movff	vfpfcnvrt@convarg,___awmod@dividend
  3755   001A5E  C0C1  F0AD         	movff	vfpfcnvrt@convarg+1,___awmod@dividend+1
  3756   001A62  0E00               	movlw	0
  3757   001A64  6FAF               	movwf	(___awmod@divisor+1)& (0+255),b
  3758   001A66  0E0A               	movlw	10
  3759   001A68  6FAE               	movwf	___awmod@divisor& (0+255),b
  3760   001A6A  ECDE  F012         	call	___awmod	;wreg free
  3761   001A6E  C0AC  F0B2         	movff	?___awmod,abs@a
  3762   001A72  C0AD  F0B3         	movff	?___awmod+1,abs@a+1
  3763   001A76  EC2D  F01A         	call	_abs	;wreg free
  3764   001A7A  0100               	movlb	0	; () banked
  3765   001A7C  51B2               	movf	?_abs& (0+255),w,b
  3766   001A7E  0F30               	addlw	48
  3767   001A80  6EDF               	movwf	indf2,c
  3768   001A82                     
  3769                           ; BSR set to: 0
  3770                           ;C:\Program Files\Microchip\xc8\v2.45\pic\sources\c99\common\doprnt.c: 1412:     convarg
      +                          .sint /= 10;
  3771   001A82  C0C0  F0AC         	movff	vfpfcnvrt@convarg,___awdiv@dividend
  3772   001A86  C0C1  F0AD         	movff	vfpfcnvrt@convarg+1,___awdiv@dividend+1
  3773   001A8A  0E00               	movlw	0
  3774   001A8C  6FAF               	movwf	(___awdiv@divisor+1)& (0+255),b
  3775   001A8E  0E0A               	movlw	10
  3776   001A90  6FAE               	movwf	___awdiv@divisor& (0+255),b
  3777   001A92  EC7B  F012         	call	___awdiv	;wreg free
  3778   001A96  C0AC  F0C0         	movff	?___awdiv,vfpfcnvrt@convarg
  3779   001A9A  C0AD  F0C1         	movff	?___awdiv+1,vfpfcnvrt@convarg+1
  3780   001A9E                     
  3781                           ;C:\Program Files\Microchip\xc8\v2.45\pic\sources\c99\common\doprnt.c: 1416:    } while 
      +                          (convarg.sint != 0 && c != 0);
  3782   001A9E  0100               	movlb	0	; () banked
  3783   001AA0  51C0               	movf	vfpfcnvrt@convarg& (0+255),w,b
  3784   001AA2  11C1               	iorwf	(vfpfcnvrt@convarg+1)& (0+255),w,b
  3785   001AA4  B4D8               	btfsc	status,2,c
  3786   001AA6  EF57  F00D         	goto	u10691
  3787   001AAA  EF59  F00D         	goto	u10690
  3788   001AAE                     u10691:
  3789   001AAE  EF61  F00D         	goto	l11119
  3790   001AB2                     u10690:
  3791   001AB2                     
  3792                           ; BSR set to: 0
  3793   001AB2  51C4               	movf	vfpfcnvrt@c& (0+255),w,b
  3794   001AB4  A4D8               	btfss	status,2,c
  3795   001AB6  EF5F  F00D         	goto	u10701
  3796   001ABA  EF61  F00D         	goto	u10700
  3797   001ABE                     u10701:
  3798   001ABE  EF26  F00D         	goto	l11111
  3799   001AC2                     u10700:
  3800   001AC2                     l11119:
  3801                           
  3802                           ; BSR set to: 0
  3803                           ;C:\Program Files\Microchip\xc8\v2.45\pic\sources\c99\common\doprnt.c: 1417:    if (c !=
      +                           0 && done) {
  3804   001AC2  51C4               	movf	vfpfcnvrt@c& (0+255),w,b
  3805   001AC4  B4D8               	btfsc	status,2,c
  3806   001AC6  EF67  F00D         	goto	u10711
  3807   001ACA  EF69  F00D         	goto	u10710
  3808   001ACE                     u10711:
  3809   001ACE  EF8F  F00D         	goto	l11129
  3810   001AD2                     u10710:
  3811   001AD2                     
  3812                           ; BSR set to: 0
  3813   001AD2  51BD               	movf	vfpfcnvrt@done& (0+255),w,b
  3814   001AD4  B4D8               	btfsc	status,2,c
  3815   001AD6  EF6F  F00D         	goto	u10721
  3816   001ADA  EF71  F00D         	goto	u10720
  3817   001ADE                     u10721:
  3818   001ADE  EF8F  F00D         	goto	l11129
  3819   001AE2                     u10720:
  3820   001AE2                     
  3821                           ; BSR set to: 0
  3822                           ;C:\Program Files\Microchip\xc8\v2.45\pic\sources\c99\common\doprnt.c: 1418:     dbuf[--
      +                          c] = '-';
  3823   001AE2  07C4               	decf	vfpfcnvrt@c& (0+255),f,b
  3824   001AE4  0E24               	movlw	low _dbuf
  3825   001AE6  25C4               	addwf	vfpfcnvrt@c& (0+255),w,b
  3826   001AE8  6ED9               	movwf	fsr2l,c
  3827   001AEA  6ADA               	clrf	fsr2h,c
  3828   001AEC  0E01               	movlw	high _dbuf
  3829   001AEE  22DA               	addwfc	fsr2h,f,c
  3830   001AF0  0E2D               	movlw	45
  3831   001AF2  6EDF               	movwf	indf2,c
  3832   001AF4  EF8F  F00D         	goto	l11129
  3833   001AF8                     l11125:
  3834                           
  3835                           ; BSR set to: 0
  3836                           ;C:\Program Files\Microchip\xc8\v2.45\pic\sources\c99\common\doprnt.c: 1424:     fputc(d
      +                          buf[c++], fp);
  3837   001AF8  0E24               	movlw	low _dbuf
  3838   001AFA  25C4               	addwf	vfpfcnvrt@c& (0+255),w,b
  3839   001AFC  6ED9               	movwf	fsr2l,c
  3840   001AFE  6ADA               	clrf	fsr2h,c
  3841   001B00  0E01               	movlw	high _dbuf
  3842   001B02  22DA               	addwfc	fsr2h,f,c
  3843   001B04  50DF               	movf	indf2,w,c
  3844   001B06  6FBB               	movwf	??_vfpfcnvrt& (0+255),b
  3845   001B08  51BB               	movf	??_vfpfcnvrt& (0+255),w,b
  3846   001B0A  6FAC               	movwf	fputc@c& (0+255),b
  3847   001B0C  6BAD               	clrf	(fputc@c+1)& (0+255),b
  3848   001B0E  C0B6  F0AE         	movff	vfpfcnvrt@fp,fputc@fp
  3849   001B12  C0B7  F0AF         	movff	vfpfcnvrt@fp+1,fputc@fp+1
  3850   001B16  EC15  F012         	call	_fputc	;wreg free
  3851   001B1A  0100               	movlb	0	; () banked
  3852   001B1C  2BC4               	incf	vfpfcnvrt@c& (0+255),f,b
  3853   001B1E                     l11129:
  3854                           
  3855                           ; BSR set to: 0
  3856                           ;C:\Program Files\Microchip\xc8\v2.45\pic\sources\c99\common\doprnt.c: 1423:    while (c
      +                           != sizeof(dbuf)) {
  3857   001B1E  0E20               	movlw	32
  3858   001B20  19C4               	xorwf	vfpfcnvrt@c& (0+255),w,b
  3859   001B22  A4D8               	btfss	status,2,c
  3860   001B24  EF96  F00D         	goto	u10731
  3861   001B28  EF98  F00D         	goto	u10730
  3862   001B2C                     u10731:
  3863   001B2C  EF7C  F00D         	goto	l11125
  3864   001B30                     u10730:
  3865   001B30  EFB7  F00D         	goto	l1853
  3866   001B34                     l11131:
  3867                           
  3868                           ;C:\Program Files\Microchip\xc8\v2.45\pic\sources\c99\common\doprnt.c: 1806:         ++*
      +                          fmt;
  3869   001B34  0100               	movlb	0	; () banked
  3870   001B36  51B8               	movf	vfpfcnvrt@fmt& (0+255),w,b
  3871   001B38  6ED9               	movwf	fsr2l,c
  3872   001B3A  6ADA               	clrf	fsr2h,c
  3873   001B3C  2ADE               	incf	postinc2,f,c
  3874   001B3E  0E00               	movlw	0
  3875   001B40  22DD               	addwfc	postdec2,f,c
  3876   001B42  EFB7  F00D         	goto	l1853
  3877   001B46                     l11135:
  3878                           
  3879                           ; BSR set to: 0
  3880                           ;C:\Program Files\Microchip\xc8\v2.45\pic\sources\c99\common\doprnt.c: 1811:     fputc((
      +                          int)(*fmt)[0], fp);
  3881   001B46  51B8               	movf	vfpfcnvrt@fmt& (0+255),w,b
  3882   001B48  6ED9               	movwf	fsr2l,c
  3883   001B4A  6ADA               	clrf	fsr2h,c
  3884   001B4C  CFDE FFF6          	movff	postinc2,tblptrl
  3885   001B50  CFDD FFF7          	movff	postdec2,tblptrh
  3886   001B54                     	if	1	;Program memory is < 0x10000, tblptru is always zero
  3887   001B54  6AF8               	clrf	tblptru,c
  3888   001B56                     	endif
  3889   001B56                     	if	0	;tblptru may be non-zero
  3890   001B56                     	endif
  3891   001B56  0008               	tblrd		*
  3892   001B58  50F5               	movf	tablat,w,c
  3893   001B5A  6FAC               	movwf	fputc@c& (0+255),b
  3894   001B5C  6BAD               	clrf	(fputc@c+1)& (0+255),b
  3895   001B5E  C0B6  F0AE         	movff	vfpfcnvrt@fp,fputc@fp
  3896   001B62  C0B7  F0AF         	movff	vfpfcnvrt@fp+1,fputc@fp+1
  3897   001B66  EC15  F012         	call	_fputc	;wreg free
  3898   001B6A  EF9A  F00D         	goto	l11131
  3899   001B6E                     l1853:
  3900                           
  3901                           ; BSR set to: 0
  3902   001B6E  0012               	return		;funcret
  3903   001B70                     __end_of_vfpfcnvrt:
  3904                           	callstack 0
  3905                           
  3906 ;; *************** function _fputc *****************
  3907 ;; Defined at:
  3908 ;;		line 8 in file "C:\Program Files\Microchip\xc8\v2.45\pic\sources\c99\common\nf_fputc.c"
  3909 ;; Parameters:    Size  Location     Type
  3910 ;;  c               2    0[BANK0 ] int 
  3911 ;;  fp              2    2[BANK0 ] PTR struct _IO_FILE
  3912 ;;		 -> sprintf@f(12), 
  3913 ;; Auto vars:     Size  Location     Type
  3914 ;;		None
  3915 ;; Return value:  Size  Location     Type
  3916 ;;                  2    0[BANK0 ] int 
  3917 ;; Registers used:
  3918 ;;		wreg, fsr1l, fsr1h, fsr2l, fsr2h, status,2, status,0, cstack
  3919 ;; Tracked objects:
  3920 ;;		On entry : 0/0
  3921 ;;		On exit  : 0/0
  3922 ;;		Unchanged: 0/0
  3923 ;; Data sizes:     COMRAM   BANK0   BANK1   BANK2   BANK3   BANK4   BANK5   BANK6   BANK7   BANK8   BANK9  BANK10  BANK1
      +1  BANK12  BANK13  BANK14  BANK15
  3924 ;;      Params:         0       4       0       0       0       0       0       0       0       0       0       0       
      +0       0       0       0       0
  3925 ;;      Locals:         0       0       0       0       0       0       0       0       0       0       0       0       
      +0       0       0       0       0
  3926 ;;      Temps:          0       5       0       0       0       0       0       0       0       0       0       0       
      +0       0       0       0       0
  3927 ;;      Totals:         0       9       0       0       0       0       0       0       0       0       0       0       
      +0       0       0       0       0
  3928 ;;Total ram usage:        9 bytes
  3929 ;; Hardware stack levels used: 1
  3930 ;; Hardware stack levels required when called: 9
  3931 ;; This function calls:
  3932 ;;		_putch
  3933 ;; This function is called by:
  3934 ;;		_vfpfcnvrt
  3935 ;; This function uses a non-reentrant model
  3936 ;;
  3937                           
  3938                           	psect	text8
  3939   00242A                     __ptext8:
  3940                           	callstack 0
  3941   00242A                     _fputc:
  3942                           	callstack 16
  3943   00242A  0100               	movlb	0	; () banked
  3944   00242C  51AE               	movf	fputc@fp& (0+255),w,b
  3945   00242E  11AF               	iorwf	(fputc@fp+1)& (0+255),w,b
  3946   002430  B4D8               	btfsc	status,2,c
  3947   002432  EF1D  F012         	goto	u10581
  3948   002436  EF1F  F012         	goto	u10580
  3949   00243A                     u10581:
  3950   00243A  EF28  F012         	goto	l11041
  3951   00243E                     u10580:
  3952   00243E                     
  3953                           ; BSR set to: 0
  3954   00243E  51AE               	movf	fputc@fp& (0+255),w,b
  3955   002440  11AF               	iorwf	(fputc@fp+1)& (0+255),w,b
  3956   002442  A4D8               	btfss	status,2,c
  3957   002444  EF26  F012         	goto	u10591
  3958   002448  EF28  F012         	goto	u10590
  3959   00244C                     u10591:
  3960   00244C  EF2D  F012         	goto	l11043
  3961   002450                     u10590:
  3962   002450                     l11041:
  3963                           
  3964                           ; BSR set to: 0
  3965   002450  51AC               	movf	fputc@c& (0+255),w,b
  3966   002452  ECAA  F01B         	call	_putch
  3967   002456  EF7A  F012         	goto	l1878
  3968   00245A                     l11043:
  3969                           
  3970                           ; BSR set to: 0
  3971   00245A  EE20 F00A          	lfsr	2,10
  3972   00245E  51AE               	movf	fputc@fp& (0+255),w,b
  3973   002460  26D9               	addwf	fsr2l,f,c
  3974   002462  51AF               	movf	(fputc@fp+1)& (0+255),w,b
  3975   002464  22DA               	addwfc	fsr2h,f,c
  3976   002466  50DE               	movf	postinc2,w,c
  3977   002468  10DE               	iorwf	postinc2,w,c
  3978   00246A  B4D8               	btfsc	status,2,c
  3979   00246C  EF3A  F012         	goto	u10601
  3980   002470  EF3C  F012         	goto	u10600
  3981   002474                     u10601:
  3982   002474  EF57  F012         	goto	l11047
  3983   002478                     u10600:
  3984   002478                     
  3985                           ; BSR set to: 0
  3986   002478  EE20 F00A          	lfsr	2,10
  3987   00247C  51AE               	movf	fputc@fp& (0+255),w,b
  3988   00247E  26D9               	addwf	fsr2l,f,c
  3989   002480  51AF               	movf	(fputc@fp+1)& (0+255),w,b
  3990   002482  22DA               	addwfc	fsr2h,f,c
  3991   002484  EE10 F003          	lfsr	1,3
  3992   002488  51AE               	movf	fputc@fp& (0+255),w,b
  3993   00248A  26E1               	addwf	fsr1l,f,c
  3994   00248C  51AF               	movf	(fputc@fp+1)& (0+255),w,b
  3995   00248E  22E2               	addwfc	fsr1h,f,c
  3996   002490  50DE               	movf	postinc2,w,c
  3997   002492  5CE6               	subwf	postinc1,w,c
  3998   002494  50E6               	movf	postinc1,w,c
  3999   002496  0A80               	xorlw	128
  4000   002498  6FB4               	movwf	(??_fputc+4)& (0+255),b
  4001   00249A  50DE               	movf	postinc2,w,c
  4002   00249C  0A80               	xorlw	128
  4003   00249E  59B4               	subwfb	(??_fputc+4)& (0+255),w,b
  4004   0024A0  B0D8               	btfsc	status,0,c
  4005   0024A2  EF55  F012         	goto	u10611
  4006   0024A6  EF57  F012         	goto	u10610
  4007   0024AA                     u10611:
  4008   0024AA  EF7A  F012         	goto	l1878
  4009   0024AE                     u10610:
  4010   0024AE                     l11047:
  4011                           
  4012                           ; BSR set to: 0
  4013   0024AE  EE20 F003          	lfsr	2,3
  4014   0024B2  51AE               	movf	fputc@fp& (0+255),w,b
  4015   0024B4  26D9               	addwf	fsr2l,f,c
  4016   0024B6  51AF               	movf	(fputc@fp+1)& (0+255),w,b
  4017   0024B8  22DA               	addwfc	fsr2h,f,c
  4018   0024BA  CFDE F0B0          	movff	postinc2,??_fputc
  4019   0024BE  CFDD F0B1          	movff	postdec2,??_fputc+1
  4020   0024C2  C0AE  FFD9         	movff	fputc@fp,fsr2l
  4021   0024C6  C0AF  FFDA         	movff	fputc@fp+1,fsr2h
  4022   0024CA  CFDE F0B2          	movff	postinc2,??_fputc+2
  4023   0024CE  CFDD F0B3          	movff	postdec2,??_fputc+3
  4024   0024D2  51B0               	movf	??_fputc& (0+255),w,b
  4025   0024D4  25B2               	addwf	(??_fputc+2)& (0+255),w,b
  4026   0024D6  6ED9               	movwf	fsr2l,c
  4027   0024D8  51B1               	movf	(??_fputc+1)& (0+255),w,b
  4028   0024DA  21B3               	addwfc	(??_fputc+3)& (0+255),w,b
  4029   0024DC  6EDA               	movwf	fsr2h,c
  4030   0024DE  C0AC  FFDF         	movff	fputc@c,indf2
  4031   0024E2  EE20 F003          	lfsr	2,3
  4032   0024E6  51AE               	movf	fputc@fp& (0+255),w,b
  4033   0024E8  26D9               	addwf	fsr2l,f,c
  4034   0024EA  51AF               	movf	(fputc@fp+1)& (0+255),w,b
  4035   0024EC  22DA               	addwfc	fsr2h,f,c
  4036   0024EE  2ADE               	incf	postinc2,f,c
  4037   0024F0  0E00               	movlw	0
  4038   0024F2  22DD               	addwfc	postdec2,f,c
  4039   0024F4                     l1878:
  4040   0024F4  0012               	return		;funcret
  4041   0024F6                     __end_of_fputc:
  4042                           	callstack 0
  4043                           
  4044 ;; *************** function _putch *****************
  4045 ;; Defined at:
  4046 ;;		line 7 in file "C:\Program Files\Microchip\xc8\v2.45\pic\sources\c99\common\putch.c"
  4047 ;; Parameters:    Size  Location     Type
  4048 ;;  c               1    wreg     unsigned char 
  4049 ;; Auto vars:     Size  Location     Type
  4050 ;;  c               1    0[COMRAM] unsigned char 
  4051 ;; Return value:  Size  Location     Type
  4052 ;;                  1    wreg      void 
  4053 ;; Registers used:
  4054 ;;		wreg
  4055 ;; Tracked objects:
  4056 ;;		On entry : 0/0
  4057 ;;		On exit  : 0/0
  4058 ;;		Unchanged: 0/0
  4059 ;; Data sizes:     COMRAM   BANK0   BANK1   BANK2   BANK3   BANK4   BANK5   BANK6   BANK7   BANK8   BANK9  BANK10  BANK1
      +1  BANK12  BANK13  BANK14  BANK15
  4060 ;;      Params:         0       0       0       0       0       0       0       0       0       0       0       0       
      +0       0       0       0       0
  4061 ;;      Locals:         0       0       0       0       0       0       0       0       0       0       0       0       
      +0       0       0       0       0
  4062 ;;      Temps:          0       0       0       0       0       0       0       0       0       0       0       0       
      +0       0       0       0       0
  4063 ;;      Totals:         0       0       0       0       0       0       0       0       0       0       0       0       
      +0       0       0       0       0
  4064 ;;Total ram usage:        0 bytes
  4065 ;; Hardware stack levels used: 1
  4066 ;; Hardware stack levels required when called: 8
  4067 ;; This function calls:
  4068 ;;		Nothing
  4069 ;; This function is called by:
  4070 ;;		_fputc
  4071 ;; This function uses a non-reentrant model
  4072 ;;
  4073                           
  4074                           	psect	text9
  4075   003754                     __ptext9:
  4076                           	callstack 0
  4077   003754                     _putch:
  4078                           	callstack 16
  4079   003754  0012               	return		;funcret
  4080   003756                     __end_of_putch:
  4081                           	callstack 0
  4082                           
  4083 ;; *************** function _abs *****************
  4084 ;; Defined at:
  4085 ;;		line 1 in file "C:\Program Files\Microchip\xc8\v2.45\pic\sources\c99\common\abs.c"
  4086 ;; Parameters:    Size  Location     Type
  4087 ;;  a               2    6[BANK0 ] int 
  4088 ;; Auto vars:     Size  Location     Type
  4089 ;;		None
  4090 ;; Return value:  Size  Location     Type
  4091 ;;                  2    6[BANK0 ] int 
  4092 ;; Registers used:
  4093 ;;		wreg, status,2, status,0
  4094 ;; Tracked objects:
  4095 ;;		On entry : 0/0
  4096 ;;		On exit  : 0/0
  4097 ;;		Unchanged: 0/0
  4098 ;; Data sizes:     COMRAM   BANK0   BANK1   BANK2   BANK3   BANK4   BANK5   BANK6   BANK7   BANK8   BANK9  BANK10  BANK1
      +1  BANK12  BANK13  BANK14  BANK15
  4099 ;;      Params:         0       2       0       0       0       0       0       0       0       0       0       0       
      +0       0       0       0       0
  4100 ;;      Locals:         0       0       0       0       0       0       0       0       0       0       0       0       
      +0       0       0       0       0
  4101 ;;      Temps:          0       2       0       0       0       0       0       0       0       0       0       0       
      +0       0       0       0       0
  4102 ;;      Totals:         0       4       0       0       0       0       0       0       0       0       0       0       
      +0       0       0       0       0
  4103 ;;Total ram usage:        4 bytes
  4104 ;; Hardware stack levels used: 1
  4105 ;; Hardware stack levels required when called: 8
  4106 ;; This function calls:
  4107 ;;		Nothing
  4108 ;; This function is called by:
  4109 ;;		_vfpfcnvrt
  4110 ;; This function uses a non-reentrant model
  4111 ;;
  4112                           
  4113                           	psect	text10
  4114   00345A                     __ptext10:
  4115                           	callstack 0
  4116   00345A                     _abs:
  4117                           	callstack 17
  4118   00345A  0100               	movlb	0	; () banked
  4119   00345C  BFB3               	btfsc	(abs@a+1)& (0+255),7,b
  4120   00345E  EF33  F01A         	goto	u10621
  4121   003462  EF35  F01A         	goto	u10620
  4122   003466                     u10621:
  4123   003466  EF3B  F01A         	goto	l1863
  4124   00346A                     u10620:
  4125   00346A                     
  4126                           ; BSR set to: 0
  4127   00346A  C0B2  F0B2         	movff	abs@a,?_abs
  4128   00346E  C0B3  F0B3         	movff	abs@a+1,?_abs+1
  4129   003472  EF47  F01A         	goto	l1866
  4130   003476                     l1863:
  4131                           
  4132                           ; BSR set to: 0
  4133   003476  C0B2  F0B4         	movff	abs@a,??_abs
  4134   00347A  C0B3  F0B5         	movff	abs@a+1,??_abs+1
  4135   00347E  1FB4               	comf	??_abs& (0+255),f,b
  4136   003480  1FB5               	comf	(??_abs+1)& (0+255),f,b
  4137   003482  4BB4               	infsnz	??_abs& (0+255),f,b
  4138   003484  2BB5               	incf	(??_abs+1)& (0+255),f,b
  4139   003486  C0B4  F0B2         	movff	??_abs,?_abs
  4140   00348A  C0B5  F0B3         	movff	??_abs+1,?_abs+1
  4141   00348E                     l1866:
  4142                           
  4143                           ; BSR set to: 0
  4144   00348E  0012               	return		;funcret
  4145   003490                     __end_of_abs:
  4146                           	callstack 0
  4147                           
  4148 ;; *************** function ___awmod *****************
  4149 ;; Defined at:
  4150 ;;		line 7 in file "C:\Program Files\Microchip\xc8\v2.45\pic\sources\c99\common\awmod.c"
  4151 ;; Parameters:    Size  Location     Type
  4152 ;;  dividend        2    0[BANK0 ] int 
  4153 ;;  divisor         2    2[BANK0 ] int 
  4154 ;; Auto vars:     Size  Location     Type
  4155 ;;  sign            1    5[BANK0 ] unsigned char 
  4156 ;;  counter         1    4[BANK0 ] unsigned char 
  4157 ;; Return value:  Size  Location     Type
  4158 ;;                  2    0[BANK0 ] int 
  4159 ;; Registers used:
  4160 ;;		wreg, status,2, status,0
  4161 ;; Tracked objects:
  4162 ;;		On entry : 0/0
  4163 ;;		On exit  : 0/0
  4164 ;;		Unchanged: 0/0
  4165 ;; Data sizes:     COMRAM   BANK0   BANK1   BANK2   BANK3   BANK4   BANK5   BANK6   BANK7   BANK8   BANK9  BANK10  BANK1
      +1  BANK12  BANK13  BANK14  BANK15
  4166 ;;      Params:         0       4       0       0       0       0       0       0       0       0       0       0       
      +0       0       0       0       0
  4167 ;;      Locals:         0       2       0       0       0       0       0       0       0       0       0       0       
      +0       0       0       0       0
  4168 ;;      Temps:          0       0       0       0       0       0       0       0       0       0       0       0       
      +0       0       0       0       0
  4169 ;;      Totals:         0       6       0       0       0       0       0       0       0       0       0       0       
      +0       0       0       0       0
  4170 ;;Total ram usage:        6 bytes
  4171 ;; Hardware stack levels used: 1
  4172 ;; Hardware stack levels required when called: 8
  4173 ;; This function calls:
  4174 ;;		Nothing
  4175 ;; This function is called by:
  4176 ;;		_vfpfcnvrt
  4177 ;; This function uses a non-reentrant model
  4178 ;;
  4179                           
  4180                           	psect	text11
  4181   0025BC                     __ptext11:
  4182                           	callstack 0
  4183   0025BC                     ___awmod:
  4184                           	callstack 17
  4185   0025BC  0E00               	movlw	0
  4186   0025BE  0100               	movlb	0	; () banked
  4187   0025C0  6FB1               	movwf	___awmod@sign& (0+255),b
  4188   0025C2                     
  4189                           ; BSR set to: 0
  4190   0025C2  BFAD               	btfsc	(___awmod@dividend+1)& (0+255),7,b
  4191   0025C4  EFE8  F012         	goto	u10520
  4192   0025C8  EFE6  F012         	goto	u10521
  4193   0025CC                     u10521:
  4194   0025CC  EFEE  F012         	goto	l11009
  4195   0025D0                     u10520:
  4196   0025D0                     
  4197                           ; BSR set to: 0
  4198   0025D0  6DAC               	negf	___awmod@dividend& (0+255),b
  4199   0025D2  1FAD               	comf	(___awmod@dividend+1)& (0+255),f,b
  4200   0025D4  B0D8               	btfsc	status,0,c
  4201   0025D6  2BAD               	incf	(___awmod@dividend+1)& (0+255),f,b
  4202   0025D8                     
  4203                           ; BSR set to: 0
  4204   0025D8  0E01               	movlw	1
  4205   0025DA  6FB1               	movwf	___awmod@sign& (0+255),b
  4206   0025DC                     l11009:
  4207                           
  4208                           ; BSR set to: 0
  4209   0025DC  BFAF               	btfsc	(___awmod@divisor+1)& (0+255),7,b
  4210   0025DE  EFF5  F012         	goto	u10530
  4211   0025E2  EFF3  F012         	goto	u10531
  4212   0025E6                     u10531:
  4213   0025E6  EFF9  F012         	goto	l11013
  4214   0025EA                     u10530:
  4215   0025EA                     
  4216                           ; BSR set to: 0
  4217   0025EA  6DAE               	negf	___awmod@divisor& (0+255),b
  4218   0025EC  1FAF               	comf	(___awmod@divisor+1)& (0+255),f,b
  4219   0025EE  B0D8               	btfsc	status,0,c
  4220   0025F0  2BAF               	incf	(___awmod@divisor+1)& (0+255),f,b
  4221   0025F2                     l11013:
  4222                           
  4223                           ; BSR set to: 0
  4224   0025F2  51AE               	movf	___awmod@divisor& (0+255),w,b
  4225   0025F4  11AF               	iorwf	(___awmod@divisor+1)& (0+255),w,b
  4226   0025F6  B4D8               	btfsc	status,2,c
  4227   0025F8  EF00  F013         	goto	u10541
  4228   0025FC  EF02  F013         	goto	u10540
  4229   002600                     u10541:
  4230   002600  EF26  F013         	goto	l11029
  4231   002604                     u10540:
  4232   002604                     
  4233                           ; BSR set to: 0
  4234   002604  0E01               	movlw	1
  4235   002606  6FB0               	movwf	___awmod@counter& (0+255),b
  4236   002608  EF0A  F013         	goto	l11019
  4237   00260C                     l11017:
  4238                           
  4239                           ; BSR set to: 0
  4240   00260C  90D8               	bcf	status,0,c
  4241   00260E  37AE               	rlcf	___awmod@divisor& (0+255),f,b
  4242   002610  37AF               	rlcf	(___awmod@divisor+1)& (0+255),f,b
  4243   002612  2BB0               	incf	___awmod@counter& (0+255),f,b
  4244   002614                     l11019:
  4245                           
  4246                           ; BSR set to: 0
  4247   002614  AFAF               	btfss	(___awmod@divisor+1)& (0+255),7,b
  4248   002616  EF0F  F013         	goto	u10551
  4249   00261A  EF11  F013         	goto	u10550
  4250   00261E                     u10551:
  4251   00261E  EF06  F013         	goto	l11017
  4252   002622                     u10550:
  4253   002622                     l11021:
  4254                           
  4255                           ; BSR set to: 0
  4256   002622  51AE               	movf	___awmod@divisor& (0+255),w,b
  4257   002624  5DAC               	subwf	___awmod@dividend& (0+255),w,b
  4258   002626  51AF               	movf	(___awmod@divisor+1)& (0+255),w,b
  4259   002628  59AD               	subwfb	(___awmod@dividend+1)& (0+255),w,b
  4260   00262A  A0D8               	btfss	status,0,c
  4261   00262C  EF1A  F013         	goto	u10561
  4262   002630  EF1C  F013         	goto	u10560
  4263   002634                     u10561:
  4264   002634  EF20  F013         	goto	l11025
  4265   002638                     u10560:
  4266   002638                     
  4267                           ; BSR set to: 0
  4268   002638  51AE               	movf	___awmod@divisor& (0+255),w,b
  4269   00263A  5FAC               	subwf	___awmod@dividend& (0+255),f,b
  4270   00263C  51AF               	movf	(___awmod@divisor+1)& (0+255),w,b
  4271   00263E  5BAD               	subwfb	(___awmod@dividend+1)& (0+255),f,b
  4272   002640                     l11025:
  4273                           
  4274                           ; BSR set to: 0
  4275   002640  90D8               	bcf	status,0,c
  4276   002642  33AF               	rrcf	(___awmod@divisor+1)& (0+255),f,b
  4277   002644  33AE               	rrcf	___awmod@divisor& (0+255),f,b
  4278   002646                     
  4279                           ; BSR set to: 0
  4280   002646  2FB0               	decfsz	___awmod@counter& (0+255),f,b
  4281   002648  EF11  F013         	goto	l11021
  4282   00264C                     l11029:
  4283                           
  4284                           ; BSR set to: 0
  4285   00264C  51B1               	movf	___awmod@sign& (0+255),w,b
  4286   00264E  B4D8               	btfsc	status,2,c
  4287   002650  EF2C  F013         	goto	u10571
  4288   002654  EF2E  F013         	goto	u10570
  4289   002658                     u10571:
  4290   002658  EF32  F013         	goto	l11033
  4291   00265C                     u10570:
  4292   00265C                     
  4293                           ; BSR set to: 0
  4294   00265C  6DAC               	negf	___awmod@dividend& (0+255),b
  4295   00265E  1FAD               	comf	(___awmod@dividend+1)& (0+255),f,b
  4296   002660  B0D8               	btfsc	status,0,c
  4297   002662  2BAD               	incf	(___awmod@dividend+1)& (0+255),f,b
  4298   002664                     l11033:
  4299                           
  4300                           ; BSR set to: 0
  4301   002664  C0AC  F0AC         	movff	___awmod@dividend,?___awmod
  4302   002668  C0AD  F0AD         	movff	___awmod@dividend+1,?___awmod+1
  4303   00266C                     
  4304                           ; BSR set to: 0
  4305   00266C  0012               	return		;funcret
  4306   00266E                     __end_of___awmod:
  4307                           	callstack 0
  4308                           
  4309 ;; *************** function ___awdiv *****************
  4310 ;; Defined at:
  4311 ;;		line 7 in file "C:\Program Files\Microchip\xc8\v2.45\pic\sources\c99\common\awdiv.c"
  4312 ;; Parameters:    Size  Location     Type
  4313 ;;  dividend        2    0[BANK0 ] int 
  4314 ;;  divisor         2    2[BANK0 ] int 
  4315 ;; Auto vars:     Size  Location     Type
  4316 ;;  quotient        2    6[BANK0 ] int 
  4317 ;;  sign            1    5[BANK0 ] unsigned char 
  4318 ;;  counter         1    4[BANK0 ] unsigned char 
  4319 ;; Return value:  Size  Location     Type
  4320 ;;                  2    0[BANK0 ] int 
  4321 ;; Registers used:
  4322 ;;		wreg, status,2, status,0
  4323 ;; Tracked objects:
  4324 ;;		On entry : 0/0
  4325 ;;		On exit  : 0/0
  4326 ;;		Unchanged: 0/0
  4327 ;; Data sizes:     COMRAM   BANK0   BANK1   BANK2   BANK3   BANK4   BANK5   BANK6   BANK7   BANK8   BANK9  BANK10  BANK1
      +1  BANK12  BANK13  BANK14  BANK15
  4328 ;;      Params:         0       4       0       0       0       0       0       0       0       0       0       0       
      +0       0       0       0       0
  4329 ;;      Locals:         0       4       0       0       0       0       0       0       0       0       0       0       
      +0       0       0       0       0
  4330 ;;      Temps:          0       0       0       0       0       0       0       0       0       0       0       0       
      +0       0       0       0       0
  4331 ;;      Totals:         0       8       0       0       0       0       0       0       0       0       0       0       
      +0       0       0       0       0
  4332 ;;Total ram usage:        8 bytes
  4333 ;; Hardware stack levels used: 1
  4334 ;; Hardware stack levels required when called: 8
  4335 ;; This function calls:
  4336 ;;		Nothing
  4337 ;; This function is called by:
  4338 ;;		_vfpfcnvrt
  4339 ;; This function uses a non-reentrant model
  4340 ;;
  4341                           
  4342                           	psect	text12
  4343   0024F6                     __ptext12:
  4344                           	callstack 0
  4345   0024F6                     ___awdiv:
  4346                           	callstack 17
  4347   0024F6  0E00               	movlw	0
  4348   0024F8  0100               	movlb	0	; () banked
  4349   0024FA  6FB1               	movwf	___awdiv@sign& (0+255),b
  4350   0024FC                     
  4351                           ; BSR set to: 0
  4352   0024FC  BFAF               	btfsc	(___awdiv@divisor+1)& (0+255),7,b
  4353   0024FE  EF85  F012         	goto	u10460
  4354   002502  EF83  F012         	goto	u10461
  4355   002506                     u10461:
  4356   002506  EF8B  F012         	goto	l10965
  4357   00250A                     u10460:
  4358   00250A                     
  4359                           ; BSR set to: 0
  4360   00250A  6DAE               	negf	___awdiv@divisor& (0+255),b
  4361   00250C  1FAF               	comf	(___awdiv@divisor+1)& (0+255),f,b
  4362   00250E  B0D8               	btfsc	status,0,c
  4363   002510  2BAF               	incf	(___awdiv@divisor+1)& (0+255),f,b
  4364   002512                     
  4365                           ; BSR set to: 0
  4366   002512  0E01               	movlw	1
  4367   002514  6FB1               	movwf	___awdiv@sign& (0+255),b
  4368   002516                     l10965:
  4369                           
  4370                           ; BSR set to: 0
  4371   002516  BFAD               	btfsc	(___awdiv@dividend+1)& (0+255),7,b
  4372   002518  EF92  F012         	goto	u10470
  4373   00251C  EF90  F012         	goto	u10471
  4374   002520                     u10471:
  4375   002520  EF98  F012         	goto	l10971
  4376   002524                     u10470:
  4377   002524                     
  4378                           ; BSR set to: 0
  4379   002524  6DAC               	negf	___awdiv@dividend& (0+255),b
  4380   002526  1FAD               	comf	(___awdiv@dividend+1)& (0+255),f,b
  4381   002528  B0D8               	btfsc	status,0,c
  4382   00252A  2BAD               	incf	(___awdiv@dividend+1)& (0+255),f,b
  4383   00252C                     
  4384                           ; BSR set to: 0
  4385   00252C  0E01               	movlw	1
  4386   00252E  1BB1               	xorwf	___awdiv@sign& (0+255),f,b
  4387   002530                     l10971:
  4388                           
  4389                           ; BSR set to: 0
  4390   002530  0E00               	movlw	0
  4391   002532  6FB3               	movwf	(___awdiv@quotient+1)& (0+255),b
  4392   002534  0E00               	movlw	0
  4393   002536  6FB2               	movwf	___awdiv@quotient& (0+255),b
  4394   002538                     
  4395                           ; BSR set to: 0
  4396   002538  51AE               	movf	___awdiv@divisor& (0+255),w,b
  4397   00253A  11AF               	iorwf	(___awdiv@divisor+1)& (0+255),w,b
  4398   00253C  B4D8               	btfsc	status,2,c
  4399   00253E  EFA3  F012         	goto	u10481
  4400   002542  EFA5  F012         	goto	u10480
  4401   002546                     u10481:
  4402   002546  EFCD  F012         	goto	l10993
  4403   00254A                     u10480:
  4404   00254A                     
  4405                           ; BSR set to: 0
  4406   00254A  0E01               	movlw	1
  4407   00254C  6FB0               	movwf	___awdiv@counter& (0+255),b
  4408   00254E  EFAD  F012         	goto	l10979
  4409   002552                     l10977:
  4410                           
  4411                           ; BSR set to: 0
  4412   002552  90D8               	bcf	status,0,c
  4413   002554  37AE               	rlcf	___awdiv@divisor& (0+255),f,b
  4414   002556  37AF               	rlcf	(___awdiv@divisor+1)& (0+255),f,b
  4415   002558  2BB0               	incf	___awdiv@counter& (0+255),f,b
  4416   00255A                     l10979:
  4417                           
  4418                           ; BSR set to: 0
  4419   00255A  AFAF               	btfss	(___awdiv@divisor+1)& (0+255),7,b
  4420   00255C  EFB2  F012         	goto	u10491
  4421   002560  EFB4  F012         	goto	u10490
  4422   002564                     u10491:
  4423   002564  EFA9  F012         	goto	l10977
  4424   002568                     u10490:
  4425   002568                     l10981:
  4426                           
  4427                           ; BSR set to: 0
  4428   002568  90D8               	bcf	status,0,c
  4429   00256A  37B2               	rlcf	___awdiv@quotient& (0+255),f,b
  4430   00256C  37B3               	rlcf	(___awdiv@quotient+1)& (0+255),f,b
  4431   00256E                     
  4432                           ; BSR set to: 0
  4433   00256E  51AE               	movf	___awdiv@divisor& (0+255),w,b
  4434   002570  5DAC               	subwf	___awdiv@dividend& (0+255),w,b
  4435   002572  51AF               	movf	(___awdiv@divisor+1)& (0+255),w,b
  4436   002574  59AD               	subwfb	(___awdiv@dividend+1)& (0+255),w,b
  4437   002576  A0D8               	btfss	status,0,c
  4438   002578  EFC0  F012         	goto	u10501
  4439   00257C  EFC2  F012         	goto	u10500
  4440   002580                     u10501:
  4441   002580  EFC7  F012         	goto	l10989
  4442   002584                     u10500:
  4443   002584                     
  4444                           ; BSR set to: 0
  4445   002584  51AE               	movf	___awdiv@divisor& (0+255),w,b
  4446   002586  5FAC               	subwf	___awdiv@dividend& (0+255),f,b
  4447   002588  51AF               	movf	(___awdiv@divisor+1)& (0+255),w,b
  4448   00258A  5BAD               	subwfb	(___awdiv@dividend+1)& (0+255),f,b
  4449   00258C                     
  4450                           ; BSR set to: 0
  4451   00258C  81B2               	bsf	___awdiv@quotient& (0+255),0,b
  4452   00258E                     l10989:
  4453                           
  4454                           ; BSR set to: 0
  4455   00258E  90D8               	bcf	status,0,c
  4456   002590  33AF               	rrcf	(___awdiv@divisor+1)& (0+255),f,b
  4457   002592  33AE               	rrcf	___awdiv@divisor& (0+255),f,b
  4458   002594                     
  4459                           ; BSR set to: 0
  4460   002594  2FB0               	decfsz	___awdiv@counter& (0+255),f,b
  4461   002596  EFB4  F012         	goto	l10981
  4462   00259A                     l10993:
  4463                           
  4464                           ; BSR set to: 0
  4465   00259A  51B1               	movf	___awdiv@sign& (0+255),w,b
  4466   00259C  B4D8               	btfsc	status,2,c
  4467   00259E  EFD3  F012         	goto	u10511
  4468   0025A2  EFD5  F012         	goto	u10510
  4469   0025A6                     u10511:
  4470   0025A6  EFD9  F012         	goto	l10997
  4471   0025AA                     u10510:
  4472   0025AA                     
  4473                           ; BSR set to: 0
  4474   0025AA  6DB2               	negf	___awdiv@quotient& (0+255),b
  4475   0025AC  1FB3               	comf	(___awdiv@quotient+1)& (0+255),f,b
  4476   0025AE  B0D8               	btfsc	status,0,c
  4477   0025B0  2BB3               	incf	(___awdiv@quotient+1)& (0+255),f,b
  4478   0025B2                     l10997:
  4479                           
  4480                           ; BSR set to: 0
  4481   0025B2  C0B2  F0AC         	movff	___awdiv@quotient,?___awdiv
  4482   0025B6  C0B3  F0AD         	movff	___awdiv@quotient+1,?___awdiv+1
  4483   0025BA                     
  4484                           ; BSR set to: 0
  4485   0025BA  0012               	return		;funcret
  4486   0025BC                     __end_of___awdiv:
  4487                           	callstack 0
  4488                           
  4489 ;; *************** function _memset *****************
  4490 ;; Defined at:
  4491 ;;		line 3 in file "C:\Program Files\Microchip\xc8\v2.45\pic\sources\c99\common\memset.c"
  4492 ;; Parameters:    Size  Location     Type
  4493 ;;  dest            2    0[BANK0 ] PTR void 
  4494 ;;		 -> entering_password@str(4), 
  4495 ;;  c               2    2[BANK0 ] int 
  4496 ;;  n               2    4[BANK0 ] unsigned int 
  4497 ;; Auto vars:     Size  Location     Type
  4498 ;;  p               2    6[BANK0 ] PTR unsigned char 
  4499 ;;		 -> entering_password@str(4), 
  4500 ;; Return value:  Size  Location     Type
  4501 ;;                  2    0[BANK0 ] PTR void 
  4502 ;; Registers used:
  4503 ;;		wreg, fsr2l, fsr2h, status,2, status,0
  4504 ;; Tracked objects:
  4505 ;;		On entry : 0/0
  4506 ;;		On exit  : 0/0
  4507 ;;		Unchanged: 0/0
  4508 ;; Data sizes:     COMRAM   BANK0   BANK1   BANK2   BANK3   BANK4   BANK5   BANK6   BANK7   BANK8   BANK9  BANK10  BANK1
      +1  BANK12  BANK13  BANK14  BANK15
  4509 ;;      Params:         0       6       0       0       0       0       0       0       0       0       0       0       
      +0       0       0       0       0
  4510 ;;      Locals:         0       2       0       0       0       0       0       0       0       0       0       0       
      +0       0       0       0       0
  4511 ;;      Temps:          0       0       0       0       0       0       0       0       0       0       0       0       
      +0       0       0       0       0
  4512 ;;      Totals:         0       8       0       0       0       0       0       0       0       0       0       0       
      +0       0       0       0       0
  4513 ;;Total ram usage:        8 bytes
  4514 ;; Hardware stack levels used: 1
  4515 ;; Hardware stack levels required when called: 8
  4516 ;; This function calls:
  4517 ;;		Nothing
  4518 ;; This function is called by:
  4519 ;;		_convert_byte_to_string
  4520 ;;		_convert_short_to_string
  4521 ;;		_convert_int_to_string
  4522 ;; This function uses a non-reentrant model
  4523 ;;
  4524                           
  4525                           	psect	text13
  4526   0033E8                     __ptext13:
  4527                           	callstack 0
  4528   0033E8                     _memset:
  4529                           	callstack 20
  4530   0033E8  C0AC  F0B2         	movff	memset@dest,memset@p
  4531   0033EC  C0AD  F0B3         	movff	memset@dest+1,memset@p+1
  4532   0033F0  EF02  F01A         	goto	l12903
  4533   0033F4                     l12899:
  4534                           
  4535                           ; BSR set to: 0
  4536   0033F4  C0B2  FFD9         	movff	memset@p,fsr2l
  4537   0033F8  C0B3  FFDA         	movff	memset@p+1,fsr2h
  4538   0033FC  C0AE  FFDF         	movff	memset@c,indf2
  4539   003400                     
  4540                           ; BSR set to: 0
  4541   003400  4BB2               	infsnz	memset@p& (0+255),f,b
  4542   003402  2BB3               	incf	(memset@p+1)& (0+255),f,b
  4543   003404                     l12903:
  4544   003404  0100               	movlb	0	; () banked
  4545   003406  07B0               	decf	memset@n& (0+255),f,b
  4546   003408  A0D8               	btfss	status,0,c
  4547   00340A  07B1               	decf	(memset@n+1)& (0+255),f,b
  4548   00340C  29B0               	incf	memset@n& (0+255),w,b
  4549   00340E  E106               	bnz	u12651
  4550   003410  29B1               	incf	(memset@n+1)& (0+255),w,b
  4551   003412  A4D8               	btfss	status,2,c
  4552   003414  EF0E  F01A         	goto	u12651
  4553   003418  EF10  F01A         	goto	u12650
  4554   00341C                     u12651:
  4555   00341C  EFFA  F019         	goto	l12899
  4556   003420                     u12650:
  4557   003420                     
  4558                           ; BSR set to: 0
  4559   003420  0012               	return		;funcret
  4560   003422                     __end_of_memset:
  4561                           	callstack 0
  4562                           
  4563 ;; *************** function _ecu_led_turn_on *****************
  4564 ;; Defined at:
  4565 ;;		line 40 in file "ECU_layer/LED/ecu_led.c"
  4566 ;; Parameters:    Size  Location     Type
  4567 ;;  led             1    8[BANK0 ] PTR const struct .
  4568 ;;		 -> green_led(1), red_led(1), 
  4569 ;; Auto vars:     Size  Location     Type
  4570 ;;  led_pin         1   10[BANK0 ] struct .
  4571 ;;  ret             1    0        unsigned char 
  4572 ;; Return value:  Size  Location     Type
  4573 ;;                  1    wreg      unsigned char 
  4574 ;; Registers used:
  4575 ;;		wreg, fsr2l, fsr2h, status,2, status,0, prodl, prodh, cstack
  4576 ;; Tracked objects:
  4577 ;;		On entry : 0/0
  4578 ;;		On exit  : 0/0
  4579 ;;		Unchanged: 0/0
  4580 ;; Data sizes:     COMRAM   BANK0   BANK1   BANK2   BANK3   BANK4   BANK5   BANK6   BANK7   BANK8   BANK9  BANK10  BANK1
      +1  BANK12  BANK13  BANK14  BANK15
  4581 ;;      Params:         0       1       0       0       0       0       0       0       0       0       0       0       
      +0       0       0       0       0
  4582 ;;      Locals:         0       1       0       0       0       0       0       0       0       0       0       0       
      +0       0       0       0       0
  4583 ;;      Temps:          0       1       0       0       0       0       0       0       0       0       0       0       
      +0       0       0       0       0
  4584 ;;      Totals:         0       3       0       0       0       0       0       0       0       0       0       0       
      +0       0       0       0       0
  4585 ;;Total ram usage:        3 bytes
  4586 ;; Hardware stack levels used: 1
  4587 ;; Hardware stack levels required when called: 9
  4588 ;; This function calls:
  4589 ;;		_gpio_pin_write_logic
  4590 ;; This function is called by:
  4591 ;;		_main
  4592 ;; This function uses a non-reentrant model
  4593 ;;
  4594                           
  4595                           	psect	text14
  4596   002CF4                     __ptext14:
  4597                           	callstack 0
  4598   002CF4                     _ecu_led_turn_on:
  4599                           	callstack 21
  4600   002CF4                     
  4601                           ;ECU_layer/LED/ecu_led.c: 42:     if(((void*)0) == led)
  4602   002CF4  0100               	movlb	0	; () banked
  4603   002CF6  51B4               	movf	ecu_led_turn_on@led& (0+255),w,b
  4604   002CF8  A4D8               	btfss	status,2,c
  4605   002CFA  EF81  F016         	goto	u11531
  4606   002CFE  EF83  F016         	goto	u11530
  4607   002D02                     u11531:
  4608   002D02  EF85  F016         	goto	l276
  4609   002D06                     u11530:
  4610   002D06                     
  4611                           ; BSR set to: 0
  4612                           ;ECU_layer/LED/ecu_led.c: 45:     }
  4613   002D06  EFB0  F016         	goto	l280
  4614   002D0A                     l276:
  4615                           
  4616                           ; BSR set to: 0
  4617                           ;ECU_layer/LED/ecu_led.c: 47:     {;ECU_layer/LED/ecu_led.c: 48:         pin_config_t le
      +                          d_pin = {.port =led->port_name , .pin = led->pin ,
  4618   002D0A  C046  F0B6         	movff	ecu_led_turn_on@F3064,ecu_led_turn_on@led_pin
  4619   002D0E                     
  4620                           ; BSR set to: 0
  4621   002D0E  51B4               	movf	ecu_led_turn_on@led& (0+255),w,b
  4622   002D10  6ED9               	movwf	fsr2l,c
  4623   002D12  6ADA               	clrf	fsr2h,c
  4624   002D14  50DF               	movf	223,w,c
  4625   002D16  0B0F               	andlw	15
  4626   002D18  6FB5               	movwf	??_ecu_led_turn_on& (0+255),b
  4627   002D1A  51B6               	movf	ecu_led_turn_on@led_pin& (0+255),w,b
  4628   002D1C  19B5               	xorwf	??_ecu_led_turn_on& (0+255),w,b
  4629   002D1E  0BF8               	andlw	-8
  4630   002D20  19B5               	xorwf	??_ecu_led_turn_on& (0+255),w,b
  4631   002D22  6FB6               	movwf	ecu_led_turn_on@led_pin& (0+255),b
  4632   002D24  51B4               	movf	ecu_led_turn_on@led& (0+255),w,b
  4633   002D26  6ED9               	movwf	fsr2l,c
  4634   002D28  6ADA               	clrf	fsr2h,c
  4635   002D2A  38DF               	swapf	223,w,c
  4636   002D2C  0B07               	andlw	7
  4637   002D2E  6FB5               	movwf	??_ecu_led_turn_on& (0+255),b
  4638   002D30  47B5               	rlncf	??_ecu_led_turn_on& (0+255),f,b
  4639   002D32  47B5               	rlncf	??_ecu_led_turn_on& (0+255),f,b
  4640   002D34  47B5               	rlncf	??_ecu_led_turn_on& (0+255),f,b
  4641   002D36  51B6               	movf	ecu_led_turn_on@led_pin& (0+255),w,b
  4642   002D38  19B5               	xorwf	??_ecu_led_turn_on& (0+255),w,b
  4643   002D3A  0BC7               	andlw	-57
  4644   002D3C  19B5               	xorwf	??_ecu_led_turn_on& (0+255),w,b
  4645   002D3E  6FB6               	movwf	ecu_led_turn_on@led_pin& (0+255),b
  4646   002D40                     
  4647                           ; BSR set to: 0
  4648   002D40  9DB6               	bcf	ecu_led_turn_on@led_pin& (0+255),6,b
  4649   002D42                     
  4650                           ; BSR set to: 0
  4651   002D42  51B4               	movf	ecu_led_turn_on@led& (0+255),w,b
  4652   002D44  6ED9               	movwf	fsr2l,c
  4653   002D46  6ADA               	clrf	fsr2h,c
  4654   002D48  AEDF               	btfss	indf2,7,c
  4655   002D4A  D002               	bra	u11545
  4656   002D4C  8FB6               	bsf	ecu_led_turn_on@led_pin& (0+255),7,b
  4657   002D4E  D002               	bra	u11547
  4658   002D50                     u11545:
  4659   002D50  0100               	movlb	0	; () banked
  4660   002D52  9FB6               	bcf	ecu_led_turn_on@led_pin& (0+255),7,b
  4661   002D54                     u11547:
  4662   002D54                     
  4663                           ; BSR set to: 0
  4664                           ;ECU_layer/LED/ecu_led.c: 50:         gpio_pin_write_logic(&led_pin,HIGH);
  4665   002D54  0EB6               	movlw	low ecu_led_turn_on@led_pin
  4666   002D56  6FAC               	movwf	gpio_pin_write_logic@_pin_config& (0+255),b
  4667   002D58  0E01               	movlw	1
  4668   002D5A  6FAD               	movwf	gpio_pin_write_logic@logic& (0+255),b
  4669   002D5C  EC95  F00F         	call	_gpio_pin_write_logic	;wreg free
  4670   002D60                     l280:
  4671   002D60  0012               	return		;funcret
  4672   002D62                     __end_of_ecu_led_turn_on:
  4673                           	callstack 0
  4674                           
  4675 ;; *************** function _ecu_led_turn_off *****************
  4676 ;; Defined at:
  4677 ;;		line 64 in file "ECU_layer/LED/ecu_led.c"
  4678 ;; Parameters:    Size  Location     Type
  4679 ;;  led             1    8[BANK0 ] PTR const struct .
  4680 ;;		 -> green_led(1), red_led(1), 
  4681 ;; Auto vars:     Size  Location     Type
  4682 ;;  led_pin         1   10[BANK0 ] struct .
  4683 ;;  ret             1    0        unsigned char 
  4684 ;; Return value:  Size  Location     Type
  4685 ;;                  1    wreg      unsigned char 
  4686 ;; Registers used:
  4687 ;;		wreg, fsr2l, fsr2h, status,2, status,0, prodl, prodh, cstack
  4688 ;; Tracked objects:
  4689 ;;		On entry : 0/0
  4690 ;;		On exit  : 0/0
  4691 ;;		Unchanged: 0/0
  4692 ;; Data sizes:     COMRAM   BANK0   BANK1   BANK2   BANK3   BANK4   BANK5   BANK6   BANK7   BANK8   BANK9  BANK10  BANK1
      +1  BANK12  BANK13  BANK14  BANK15
  4693 ;;      Params:         0       1       0       0       0       0       0       0       0       0       0       0       
      +0       0       0       0       0
  4694 ;;      Locals:         0       1       0       0       0       0       0       0       0       0       0       0       
      +0       0       0       0       0
  4695 ;;      Temps:          0       1       0       0       0       0       0       0       0       0       0       0       
      +0       0       0       0       0
  4696 ;;      Totals:         0       3       0       0       0       0       0       0       0       0       0       0       
      +0       0       0       0       0
  4697 ;;Total ram usage:        3 bytes
  4698 ;; Hardware stack levels used: 1
  4699 ;; Hardware stack levels required when called: 9
  4700 ;; This function calls:
  4701 ;;		_gpio_pin_write_logic
  4702 ;; This function is called by:
  4703 ;;		_main
  4704 ;; This function uses a non-reentrant model
  4705 ;;
  4706                           
  4707                           	psect	text15
  4708   002D62                     __ptext15:
  4709                           	callstack 0
  4710   002D62                     _ecu_led_turn_off:
  4711                           	callstack 21
  4712   002D62                     
  4713                           ;ECU_layer/LED/ecu_led.c: 66:     if(((void*)0) == led)
  4714   002D62  0100               	movlb	0	; () banked
  4715   002D64  51B4               	movf	ecu_led_turn_off@led& (0+255),w,b
  4716   002D66  A4D8               	btfss	status,2,c
  4717   002D68  EFB8  F016         	goto	u11551
  4718   002D6C  EFBA  F016         	goto	u11550
  4719   002D70                     u11551:
  4720   002D70  EFBC  F016         	goto	l283
  4721   002D74                     u11550:
  4722   002D74                     
  4723                           ; BSR set to: 0
  4724                           ;ECU_layer/LED/ecu_led.c: 69:     }
  4725   002D74  EFE7  F016         	goto	l287
  4726   002D78                     l283:
  4727                           
  4728                           ; BSR set to: 0
  4729                           ;ECU_layer/LED/ecu_led.c: 71:     {;ECU_layer/LED/ecu_led.c: 72:         pin_config_t le
      +                          d_pin = {.port =led->port_name , .pin = led->pin ,
  4730   002D78  C045  F0B6         	movff	ecu_led_turn_off@F3069,ecu_led_turn_off@led_pin
  4731   002D7C                     
  4732                           ; BSR set to: 0
  4733   002D7C  51B4               	movf	ecu_led_turn_off@led& (0+255),w,b
  4734   002D7E  6ED9               	movwf	fsr2l,c
  4735   002D80  6ADA               	clrf	fsr2h,c
  4736   002D82  50DF               	movf	223,w,c
  4737   002D84  0B0F               	andlw	15
  4738   002D86  6FB5               	movwf	??_ecu_led_turn_off& (0+255),b
  4739   002D88  51B6               	movf	ecu_led_turn_off@led_pin& (0+255),w,b
  4740   002D8A  19B5               	xorwf	??_ecu_led_turn_off& (0+255),w,b
  4741   002D8C  0BF8               	andlw	-8
  4742   002D8E  19B5               	xorwf	??_ecu_led_turn_off& (0+255),w,b
  4743   002D90  6FB6               	movwf	ecu_led_turn_off@led_pin& (0+255),b
  4744   002D92  51B4               	movf	ecu_led_turn_off@led& (0+255),w,b
  4745   002D94  6ED9               	movwf	fsr2l,c
  4746   002D96  6ADA               	clrf	fsr2h,c
  4747   002D98  38DF               	swapf	223,w,c
  4748   002D9A  0B07               	andlw	7
  4749   002D9C  6FB5               	movwf	??_ecu_led_turn_off& (0+255),b
  4750   002D9E  47B5               	rlncf	??_ecu_led_turn_off& (0+255),f,b
  4751   002DA0  47B5               	rlncf	??_ecu_led_turn_off& (0+255),f,b
  4752   002DA2  47B5               	rlncf	??_ecu_led_turn_off& (0+255),f,b
  4753   002DA4  51B6               	movf	ecu_led_turn_off@led_pin& (0+255),w,b
  4754   002DA6  19B5               	xorwf	??_ecu_led_turn_off& (0+255),w,b
  4755   002DA8  0BC7               	andlw	-57
  4756   002DAA  19B5               	xorwf	??_ecu_led_turn_off& (0+255),w,b
  4757   002DAC  6FB6               	movwf	ecu_led_turn_off@led_pin& (0+255),b
  4758   002DAE                     
  4759                           ; BSR set to: 0
  4760   002DAE  9DB6               	bcf	ecu_led_turn_off@led_pin& (0+255),6,b
  4761   002DB0                     
  4762                           ; BSR set to: 0
  4763   002DB0  51B4               	movf	ecu_led_turn_off@led& (0+255),w,b
  4764   002DB2  6ED9               	movwf	fsr2l,c
  4765   002DB4  6ADA               	clrf	fsr2h,c
  4766   002DB6  AEDF               	btfss	indf2,7,c
  4767   002DB8  D002               	bra	u11565
  4768   002DBA  8FB6               	bsf	ecu_led_turn_off@led_pin& (0+255),7,b
  4769   002DBC  D002               	bra	u11567
  4770   002DBE                     u11565:
  4771   002DBE  0100               	movlb	0	; () banked
  4772   002DC0  9FB6               	bcf	ecu_led_turn_off@led_pin& (0+255),7,b
  4773   002DC2                     u11567:
  4774   002DC2                     
  4775                           ; BSR set to: 0
  4776                           ;ECU_layer/LED/ecu_led.c: 74:         gpio_pin_write_logic(&led_pin,LOW);
  4777   002DC2  0EB6               	movlw	low ecu_led_turn_off@led_pin
  4778   002DC4  6FAC               	movwf	gpio_pin_write_logic@_pin_config& (0+255),b
  4779   002DC6  0E00               	movlw	0
  4780   002DC8  6FAD               	movwf	gpio_pin_write_logic@logic& (0+255),b
  4781   002DCA  EC95  F00F         	call	_gpio_pin_write_logic	;wreg free
  4782   002DCE                     l287:
  4783   002DCE  0012               	return		;funcret
  4784   002DD0                     __end_of_ecu_led_turn_off:
  4785                           	callstack 0
  4786                           
  4787 ;; *************** function _ecu_dc_motor_stop *****************
  4788 ;; Defined at:
  4789 ;;		line 87 in file "ECU_layer/DC_motor/ecu_DC_motor.c"
  4790 ;; Parameters:    Size  Location     Type
  4791 ;;  dc_motor        1    8[BANK0 ] PTR const struct .
  4792 ;;		 -> motor1(2), 
  4793 ;; Auto vars:     Size  Location     Type
  4794 ;;  ret             1    0        unsigned char 
  4795 ;; Return value:  Size  Location     Type
  4796 ;;                  1    wreg      unsigned char 
  4797 ;; Registers used:
  4798 ;;		wreg, fsr2l, fsr2h, status,2, status,0, prodl, prodh, cstack
  4799 ;; Tracked objects:
  4800 ;;		On entry : 0/0
  4801 ;;		On exit  : 0/0
  4802 ;;		Unchanged: 0/0
  4803 ;; Data sizes:     COMRAM   BANK0   BANK1   BANK2   BANK3   BANK4   BANK5   BANK6   BANK7   BANK8   BANK9  BANK10  BANK1
      +1  BANK12  BANK13  BANK14  BANK15
  4804 ;;      Params:         0       1       0       0       0       0       0       0       0       0       0       0       
      +0       0       0       0       0
  4805 ;;      Locals:         0       0       0       0       0       0       0       0       0       0       0       0       
      +0       0       0       0       0
  4806 ;;      Temps:          0       0       0       0       0       0       0       0       0       0       0       0       
      +0       0       0       0       0
  4807 ;;      Totals:         0       1       0       0       0       0       0       0       0       0       0       0       
      +0       0       0       0       0
  4808 ;;Total ram usage:        1 bytes
  4809 ;; Hardware stack levels used: 1
  4810 ;; Hardware stack levels required when called: 9
  4811 ;; This function calls:
  4812 ;;		_gpio_pin_write_logic
  4813 ;; This function is called by:
  4814 ;;		_main
  4815 ;; This function uses a non-reentrant model
  4816 ;;
  4817                           
  4818                           	psect	text16
  4819   003490                     __ptext16:
  4820                           	callstack 0
  4821   003490                     _ecu_dc_motor_stop:
  4822                           	callstack 21
  4823   003490                     
  4824                           ;ECU_layer/DC_motor/ecu_DC_motor.c: 89:     if(((void*)0) == dc_motor)
  4825   003490  0100               	movlb	0	; () banked
  4826   003492  51B4               	movf	ecu_dc_motor_stop@dc_motor& (0+255),w,b
  4827   003494  A4D8               	btfss	status,2,c
  4828   003496  EF4F  F01A         	goto	u11521
  4829   00349A  EF51  F01A         	goto	u11520
  4830   00349E                     u11521:
  4831   00349E  EF53  F01A         	goto	l11887
  4832   0034A2                     u11520:
  4833   0034A2                     
  4834                           ; BSR set to: 0
  4835                           ;ECU_layer/DC_motor/ecu_DC_motor.c: 92:     }
  4836   0034A2  EF60  F01A         	goto	l225
  4837   0034A6                     l11887:
  4838                           
  4839                           ; BSR set to: 0
  4840                           ;ECU_layer/DC_motor/ecu_DC_motor.c: 94:     {;ECU_layer/DC_motor/ecu_DC_motor.c: 95:    
      +                               gpio_pin_write_logic(&(dc_motor->dc_motor_pin[0]),LOW);
  4841   0034A6  C0B4  F0AC         	movff	ecu_dc_motor_stop@dc_motor,gpio_pin_write_logic@_pin_config
  4842   0034AA  0E00               	movlw	0
  4843   0034AC  6FAD               	movwf	gpio_pin_write_logic@logic& (0+255),b
  4844   0034AE  EC95  F00F         	call	_gpio_pin_write_logic	;wreg free
  4845                           
  4846                           ;ECU_layer/DC_motor/ecu_DC_motor.c: 96:         gpio_pin_write_logic(&(dc_motor->dc_moto
      +                          r_pin[1]),LOW);
  4847   0034B2  0100               	movlb	0	; () banked
  4848   0034B4  29B4               	incf	ecu_dc_motor_stop@dc_motor& (0+255),w,b
  4849   0034B6  6FAC               	movwf	gpio_pin_write_logic@_pin_config& (0+255),b
  4850   0034B8  0E00               	movlw	0
  4851   0034BA  6FAD               	movwf	gpio_pin_write_logic@logic& (0+255),b
  4852   0034BC  EC95  F00F         	call	_gpio_pin_write_logic	;wreg free
  4853   0034C0                     l225:
  4854   0034C0  0012               	return		;funcret
  4855   0034C2                     __end_of_ecu_dc_motor_stop:
  4856                           	callstack 0
  4857                           
  4858 ;; *************** function _ecu_dc_motor_move_left *****************
  4859 ;; Defined at:
  4860 ;;		line 64 in file "ECU_layer/DC_motor/ecu_DC_motor.c"
  4861 ;; Parameters:    Size  Location     Type
  4862 ;;  dc_motor        1    8[BANK0 ] PTR const struct .
  4863 ;;		 -> motor1(2), 
  4864 ;; Auto vars:     Size  Location     Type
  4865 ;;  ret             1    0        unsigned char 
  4866 ;; Return value:  Size  Location     Type
  4867 ;;                  1    wreg      unsigned char 
  4868 ;; Registers used:
  4869 ;;		wreg, fsr2l, fsr2h, status,2, status,0, prodl, prodh, cstack
  4870 ;; Tracked objects:
  4871 ;;		On entry : 0/0
  4872 ;;		On exit  : 0/0
  4873 ;;		Unchanged: 0/0
  4874 ;; Data sizes:     COMRAM   BANK0   BANK1   BANK2   BANK3   BANK4   BANK5   BANK6   BANK7   BANK8   BANK9  BANK10  BANK1
      +1  BANK12  BANK13  BANK14  BANK15
  4875 ;;      Params:         0       1       0       0       0       0       0       0       0       0       0       0       
      +0       0       0       0       0
  4876 ;;      Locals:         0       0       0       0       0       0       0       0       0       0       0       0       
      +0       0       0       0       0
  4877 ;;      Temps:          0       0       0       0       0       0       0       0       0       0       0       0       
      +0       0       0       0       0
  4878 ;;      Totals:         0       1       0       0       0       0       0       0       0       0       0       0       
      +0       0       0       0       0
  4879 ;;Total ram usage:        1 bytes
  4880 ;; Hardware stack levels used: 1
  4881 ;; Hardware stack levels required when called: 9
  4882 ;; This function calls:
  4883 ;;		_gpio_pin_write_logic
  4884 ;; This function is called by:
  4885 ;;		_main
  4886 ;; This function uses a non-reentrant model
  4887 ;;
  4888                           
  4889                           	psect	text17
  4890   0034C2                     __ptext17:
  4891                           	callstack 0
  4892   0034C2                     _ecu_dc_motor_move_left:
  4893                           	callstack 21
  4894   0034C2                     
  4895                           ;ECU_layer/DC_motor/ecu_DC_motor.c: 66:     if(((void*)0) == dc_motor)
  4896   0034C2  0100               	movlb	0	; () banked
  4897   0034C4  51B4               	movf	ecu_dc_motor_move_left@dc_motor& (0+255),w,b
  4898   0034C6  A4D8               	btfss	status,2,c
  4899   0034C8  EF68  F01A         	goto	u11511
  4900   0034CC  EF6A  F01A         	goto	u11510
  4901   0034D0                     u11511:
  4902   0034D0  EF6C  F01A         	goto	l11879
  4903   0034D4                     u11510:
  4904   0034D4                     
  4905                           ; BSR set to: 0
  4906                           ;ECU_layer/DC_motor/ecu_DC_motor.c: 69:     }
  4907   0034D4  EF79  F01A         	goto	l220
  4908   0034D8                     l11879:
  4909                           
  4910                           ; BSR set to: 0
  4911                           ;ECU_layer/DC_motor/ecu_DC_motor.c: 71:     {;ECU_layer/DC_motor/ecu_DC_motor.c: 72:    
      +                               gpio_pin_write_logic(&(dc_motor->dc_motor_pin[0]),LOW);
  4912   0034D8  C0B4  F0AC         	movff	ecu_dc_motor_move_left@dc_motor,gpio_pin_write_logic@_pin_config
  4913   0034DC  0E00               	movlw	0
  4914   0034DE  6FAD               	movwf	gpio_pin_write_logic@logic& (0+255),b
  4915   0034E0  EC95  F00F         	call	_gpio_pin_write_logic	;wreg free
  4916                           
  4917                           ;ECU_layer/DC_motor/ecu_DC_motor.c: 73:         gpio_pin_write_logic(&(dc_motor->dc_moto
      +                          r_pin[1]),HIGH);
  4918   0034E4  0100               	movlb	0	; () banked
  4919   0034E6  29B4               	incf	ecu_dc_motor_move_left@dc_motor& (0+255),w,b
  4920   0034E8  6FAC               	movwf	gpio_pin_write_logic@_pin_config& (0+255),b
  4921   0034EA  0E01               	movlw	1
  4922   0034EC  6FAD               	movwf	gpio_pin_write_logic@logic& (0+255),b
  4923   0034EE  EC95  F00F         	call	_gpio_pin_write_logic	;wreg free
  4924   0034F2                     l220:
  4925   0034F2  0012               	return		;funcret
  4926   0034F4                     __end_of_ecu_dc_motor_move_left:
  4927                           	callstack 0
  4928                           
  4929 ;; *************** function _change_password *****************
  4930 ;; Defined at:
  4931 ;;		line 306 in file "Helper_functions/helper_fn.c"
  4932 ;; Parameters:    Size  Location     Type
  4933 ;;  old_pass        1    0[BANK1 ] PTR unsigned char 
  4934 ;;		 -> entered_password(8), 
  4935 ;;  old_pass_did    2    1[BANK1 ] PTR unsigned char 
  4936 ;;		 -> RAM(4095), 
  4937 ;;  stored_passw    1    3[BANK1 ] PTR unsigned char 
  4938 ;;		 -> stored_password(8), 
  4939 ;;  stored_passw    2    4[BANK1 ] PTR unsigned char 
  4940 ;;		 -> RAM(4095), 
  4941 ;;  new_pass        1    6[BANK1 ] PTR unsigned char 
  4942 ;;		 -> password(8), 
  4943 ;;  new_pass_Dig    2    7[BANK1 ] PTR unsigned char 
  4944 ;;		 -> RAM(4095), 
  4945 ;;  new_pass_con    1    9[BANK1 ] PTR unsigned char 
  4946 ;;		 -> password_confirm(8), 
  4947 ;;  new_pass_con    2   10[BANK1 ] PTR unsigned char 
  4948 ;;		 -> RAM(4095), 
  4949 ;; Auto vars:     Size  Location     Type
  4950 ;;  counter         1   40[BANK0 ] unsigned char 
  4951 ;;  comparing_re    1   39[BANK0 ] unsigned char 
  4952 ;;  lcd_counter     1   38[BANK0 ] unsigned char 
  4953 ;; Return value:  Size  Location     Type
  4954 ;;                  1    wreg      void 
  4955 ;; Registers used:
  4956 ;;		wreg, fsr0l, fsr0h, fsr1l, fsr1h, fsr2l, fsr2h, status,2, status,0, tblptrl, tblptrh, tblptru, prodl, prodh, cstack
  4957 ;; Tracked objects:
  4958 ;;		On entry : 0/0
  4959 ;;		On exit  : 0/0
  4960 ;;		Unchanged: 0/0
  4961 ;; Data sizes:     COMRAM   BANK0   BANK1   BANK2   BANK3   BANK4   BANK5   BANK6   BANK7   BANK8   BANK9  BANK10  BANK1
      +1  BANK12  BANK13  BANK14  BANK15
  4962 ;;      Params:         0       0      12       0       0       0       0       0       0       0       0       0       
      +0       0       0       0       0
  4963 ;;      Locals:         0       3       0       0       0       0       0       0       0       0       0       0       
      +0       0       0       0       0
  4964 ;;      Temps:          0       2       0       0       0       0       0       0       0       0       0       0       
      +0       0       0       0       0
  4965 ;;      Totals:         0       5      12       0       0       0       0       0       0       0       0       0       
      +0       0       0       0       0
  4966 ;;Total ram usage:       17 bytes
  4967 ;; Hardware stack levels used: 1
  4968 ;; Hardware stack levels required when called: 14
  4969 ;; This function calls:
  4970 ;;		_check_entered_password
  4971 ;;		_ecu_keypad_get_value
  4972 ;;		_get_password
  4973 ;;		_lcd_4bit_send_char_data_pos
  4974 ;;		_lcd_4bit_send_command
  4975 ;;		_lcd_4bit_send_string_pos
  4976 ;;		_password_confirmation
  4977 ;; This function is called by:
  4978 ;;		_main
  4979 ;; This function uses a non-reentrant model
  4980 ;;
  4981                           
  4982                           	psect	text18
  4983   000ACE                     __ptext18:
  4984                           	callstack 0
  4985   000ACE                     _change_password:
  4986                           	callstack 16
  4987   000ACE                     
  4988                           ;Helper_functions/helper_fn.c: 306: void change_password(uint8 *old_pass,uint8 *old_pass
      +                          _didits,uint8 *stored_password,;Helper_functions/helper_fn.c: 307:                      
      +                            uint8 *stored_password_digits,uint8 *new_pass,uint8 *new_pass_Digits,;Helper_functions
      +                          /helper_fn.c: 308:                             uint8 *new_pass_confirm,uint8 *new_pass_c
      +                          onfirm_Digits){;Helper_functions/helper_fn.c: 309:    keypad_value = 0;
  4989   000ACE  0E00               	movlw	0
  4990   000AD0  0100               	movlb	0	; () banked
  4991   000AD2  6FAB               	movwf	_keypad_value& (0+255),b
  4992                           
  4993                           ;Helper_functions/helper_fn.c: 310:    uint8 counter = 0;
  4994   000AD4  0E00               	movlw	0
  4995   000AD6  6FD4               	movwf	change_password@counter& (0+255),b
  4996                           
  4997                           ;Helper_functions/helper_fn.c: 311:    uint8 comparing_result = 1;
  4998   000AD8  0E01               	movlw	1
  4999   000ADA  6FD3               	movwf	change_password@comparing_result& (0+255),b
  5000                           
  5001                           ;Helper_functions/helper_fn.c: 312:    uint8 lcd_counter = 2;
  5002   000ADC  0E02               	movlw	2
  5003   000ADE  6FD2               	movwf	change_password@lcd_counter& (0+255),b
  5004   000AE0                     
  5005                           ; BSR set to: 0
  5006                           ;Helper_functions/helper_fn.c: 314:     lcd_4bit_send_command(&lcd1,0x01);
  5007   000AE0  0E4C               	movlw	low _lcd1
  5008   000AE2  6FB7               	movwf	lcd_4bit_send_command@lcd& (0+255),b
  5009   000AE4  0E01               	movlw	1
  5010   000AE6  6FB8               	movwf	lcd_4bit_send_command@command& (0+255),b
  5011   000AE8  EC51  F017         	call	_lcd_4bit_send_command	;wreg free
  5012   000AEC                     
  5013                           ;Helper_functions/helper_fn.c: 315:     _delay((unsigned long)((20)*(8000000ul/4000.0)))
      +                          ;
  5014   000AEC  0E34               	movlw	52
  5015   000AEE  0100               	movlb	0	; () banked
  5016   000AF0  6FD0               	movwf	??_change_password& (0+255),b
  5017   000AF2  0EF1               	movlw	241
  5018   000AF4                     u13407:
  5019   000AF4  2EE8               	decfsz	wreg,f,c
  5020   000AF6  D7FE               	bra	u13407
  5021   000AF8  2FD0               	decfsz	??_change_password& (0+255),f,b
  5022   000AFA  D7FC               	bra	u13407
  5023   000AFC  D000               	nop2	
  5024   000AFE                     l13105:
  5025                           
  5026                           ;Helper_functions/helper_fn.c: 319:         lcd_4bit_send_string_pos(&lcd1,2,1,"the old 
      +                          password");
  5027   000AFE  0E4C               	movlw	low _lcd1
  5028   000B00  0100               	movlb	0	; () banked
  5029   000B02  6FC0               	movwf	lcd_4bit_send_string_pos@lcd& (0+255),b
  5030   000B04  0E02               	movlw	2
  5031   000B06  6FC1               	movwf	lcd_4bit_send_string_pos@row& (0+255),b
  5032   000B08  0E01               	movlw	1
  5033   000B0A  6FC2               	movwf	lcd_4bit_send_string_pos@column& (0+255),b
  5034   000B0C  0E8E               	movlw	low STR_58
  5035   000B0E  6FC3               	movwf	lcd_4bit_send_string_pos@str& (0+255),b
  5036   000B10  0EFF               	movlw	high STR_58
  5037   000B12  6FC4               	movwf	(lcd_4bit_send_string_pos@str+1)& (0+255),b
  5038   000B14  EC78  F014         	call	_lcd_4bit_send_string_pos	;wreg free
  5039   000B18                     
  5040                           ;Helper_functions/helper_fn.c: 320:         lcd_4bit_send_string_pos(&lcd1,3,1,":");
  5041   000B18  0E4C               	movlw	low _lcd1
  5042   000B1A  0100               	movlb	0	; () banked
  5043   000B1C  6FC0               	movwf	lcd_4bit_send_string_pos@lcd& (0+255),b
  5044   000B1E  0E03               	movlw	3
  5045   000B20  6FC1               	movwf	lcd_4bit_send_string_pos@row& (0+255),b
  5046   000B22  0E01               	movlw	1
  5047   000B24  6FC2               	movwf	lcd_4bit_send_string_pos@column& (0+255),b
  5048   000B26  0EF9               	movlw	low STR_19
  5049   000B28  6FC3               	movwf	lcd_4bit_send_string_pos@str& (0+255),b
  5050   000B2A  0EFF               	movlw	high STR_19
  5051   000B2C  6FC4               	movwf	(lcd_4bit_send_string_pos@str+1)& (0+255),b
  5052   000B2E  EC78  F014         	call	_lcd_4bit_send_string_pos	;wreg free
  5053   000B32                     l13109:
  5054                           
  5055                           ;Helper_functions/helper_fn.c: 323:         ecu_keypad_get_value(&keypad,&keypad_value);
  5056   000B32  0EED               	movlw	low _keypad
  5057   000B34  0100               	movlb	0	; () banked
  5058   000B36  6FB4               	movwf	ecu_keypad_get_value@keypad& (0+255),b
  5059   000B38  0EAB               	movlw	low _keypad_value
  5060   000B3A  6FB5               	movwf	ecu_keypad_get_value@value& (0+255),b
  5061   000B3C  EC28  F011         	call	_ecu_keypad_get_value	;wreg free
  5062   000B40                     
  5063                           ;Helper_functions/helper_fn.c: 324:         _delay((unsigned long)((125)*(8000000ul/4000
      +                          .0)));
  5064   000B40  0E02               	movlw	2
  5065   000B42  0100               	movlb	0	; () banked
  5066   000B44  6FD1               	movwf	(??_change_password+1)& (0+255),b
  5067   000B46  0E45               	movlw	69
  5068   000B48  6FD0               	movwf	??_change_password& (0+255),b
  5069   000B4A  0EA9               	movlw	169
  5070   000B4C                     u13417:
  5071   000B4C  2EE8               	decfsz	wreg,f,c
  5072   000B4E  D7FE               	bra	u13417
  5073   000B50  2FD0               	decfsz	??_change_password& (0+255),f,b
  5074   000B52  D7FC               	bra	u13417
  5075   000B54  2FD1               	decfsz	(??_change_password+1)& (0+255),f,b
  5076   000B56  D7FA               	bra	u13417
  5077   000B58  D000               	nop2	
  5078   000B5A                     
  5079                           ;Helper_functions/helper_fn.c: 325:         }while(keypad_value == 0 );
  5080   000B5A  0100               	movlb	0	; () banked
  5081   000B5C  51AB               	movf	_keypad_value& (0+255),w,b
  5082   000B5E  B4D8               	btfsc	status,2,c
  5083   000B60  EFB4  F005         	goto	u12851
  5084   000B64  EFB6  F005         	goto	u12850
  5085   000B68                     u12851:
  5086   000B68  EF99  F005         	goto	l13109
  5087   000B6C                     u12850:
  5088   000B6C                     
  5089                           ; BSR set to: 0
  5090                           ;Helper_functions/helper_fn.c: 327:         if(keypad_value == '#' && old_pass[0] == '\0
      +                          '){
  5091   000B6C  0E23               	movlw	35
  5092   000B6E  19AB               	xorwf	_keypad_value& (0+255),w,b
  5093   000B70  A4D8               	btfss	status,2,c
  5094   000B72  EFBD  F005         	goto	u12861
  5095   000B76  EFBF  F005         	goto	u12860
  5096   000B7A                     u12861:
  5097   000B7A  EF01  F006         	goto	l13125
  5098   000B7E                     u12860:
  5099   000B7E                     
  5100                           ; BSR set to: 0
  5101   000B7E  0101               	movlb	1	; () banked
  5102   000B80  5100               	movf	change_password@old_pass& (0+255),w,b
  5103   000B82  6ED9               	movwf	fsr2l,c
  5104   000B84  6ADA               	clrf	fsr2h,c
  5105   000B86  50DF               	movf	indf2,w,c
  5106   000B88  A4D8               	btfss	status,2,c
  5107   000B8A  EFC9  F005         	goto	u12871
  5108   000B8E  EFCB  F005         	goto	u12870
  5109   000B92                     u12871:
  5110   000B92  EF01  F006         	goto	l13125
  5111   000B96                     u12870:
  5112   000B96                     
  5113                           ; BSR set to: 1
  5114                           ;Helper_functions/helper_fn.c: 328:             lcd_4bit_send_string_pos(&lcd1,4,1,"Unav
      +                          ailable process ");
  5115   000B96  0E4C               	movlw	low _lcd1
  5116   000B98  0100               	movlb	0	; () banked
  5117   000B9A  6FC0               	movwf	lcd_4bit_send_string_pos@lcd& (0+255),b
  5118   000B9C  0E04               	movlw	4
  5119   000B9E  6FC1               	movwf	lcd_4bit_send_string_pos@row& (0+255),b
  5120   000BA0  0E01               	movlw	1
  5121   000BA2  6FC2               	movwf	lcd_4bit_send_string_pos@column& (0+255),b
  5122   000BA4  0E40               	movlw	low STR_11
  5123   000BA6  6FC3               	movwf	lcd_4bit_send_string_pos@str& (0+255),b
  5124   000BA8  0EFF               	movlw	high STR_11
  5125   000BAA  6FC4               	movwf	(lcd_4bit_send_string_pos@str+1)& (0+255),b
  5126   000BAC  EC78  F014         	call	_lcd_4bit_send_string_pos	;wreg free
  5127   000BB0                     
  5128                           ;Helper_functions/helper_fn.c: 329:                  _delay((unsigned long)((500)*(80000
      +                          00ul/4000.0)));
  5129   000BB0  0E06               	movlw	6
  5130   000BB2  0100               	movlb	0	; () banked
  5131   000BB4  6FD1               	movwf	(??_change_password+1)& (0+255),b
  5132   000BB6  0E13               	movlw	19
  5133   000BB8  6FD0               	movwf	??_change_password& (0+255),b
  5134   000BBA  0EAD               	movlw	173
  5135   000BBC                     u13427:
  5136   000BBC  2EE8               	decfsz	wreg,f,c
  5137   000BBE  D7FE               	bra	u13427
  5138   000BC0  2FD0               	decfsz	??_change_password& (0+255),f,b
  5139   000BC2  D7FC               	bra	u13427
  5140   000BC4  2FD1               	decfsz	(??_change_password+1)& (0+255),f,b
  5141   000BC6  D7FA               	bra	u13427
  5142   000BC8  D000               	nop2	
  5143   000BCA                     
  5144                           ;Helper_functions/helper_fn.c: 330:                 lcd_4bit_send_string_pos(&lcd1,4,1,"
      +                                               ");
  5145   000BCA  0E4C               	movlw	low _lcd1
  5146   000BCC  0100               	movlb	0	; () banked
  5147   000BCE  6FC0               	movwf	lcd_4bit_send_string_pos@lcd& (0+255),b
  5148   000BD0  0E04               	movlw	4
  5149   000BD2  6FC1               	movwf	lcd_4bit_send_string_pos@row& (0+255),b
  5150   000BD4  0E01               	movlw	1
  5151   000BD6  6FC2               	movwf	lcd_4bit_send_string_pos@column& (0+255),b
  5152   000BD8  0EFF               	movlw	low STR_12
  5153   000BDA  6FC3               	movwf	lcd_4bit_send_string_pos@str& (0+255),b
  5154   000BDC  0EFE               	movlw	high STR_12
  5155   000BDE  6FC4               	movwf	(lcd_4bit_send_string_pos@str+1)& (0+255),b
  5156   000BE0  EC78  F014         	call	_lcd_4bit_send_string_pos	;wreg free
  5157                           
  5158                           ;Helper_functions/helper_fn.c: 331:                 _delay((unsigned long)((500)*(800000
      +                          0ul/4000.0)));
  5159   000BE4  0E06               	movlw	6
  5160   000BE6  0100               	movlb	0	; () banked
  5161   000BE8  6FD1               	movwf	(??_change_password+1)& (0+255),b
  5162   000BEA  0E13               	movlw	19
  5163   000BEC  6FD0               	movwf	??_change_password& (0+255),b
  5164   000BEE  0EAD               	movlw	173
  5165   000BF0                     u13437:
  5166   000BF0  2EE8               	decfsz	wreg,f,c
  5167   000BF2  D7FE               	bra	u13437
  5168   000BF4  2FD0               	decfsz	??_change_password& (0+255),f,b
  5169   000BF6  D7FC               	bra	u13437
  5170   000BF8  2FD1               	decfsz	(??_change_password+1)& (0+255),f,b
  5171   000BFA  D7FA               	bra	u13437
  5172   000BFC  D000               	nop2	
  5173                           
  5174                           ;Helper_functions/helper_fn.c: 332:         }
  5175   000BFE  EF7F  F005         	goto	l13105
  5176   000C02                     l13125:
  5177   000C02  0E23               	movlw	35
  5178   000C04  0100               	movlb	0	; () banked
  5179   000C06  19AB               	xorwf	_keypad_value& (0+255),w,b
  5180   000C08  A4D8               	btfss	status,2,c
  5181   000C0A  EF09  F006         	goto	u12881
  5182   000C0E  EF0B  F006         	goto	u12880
  5183   000C12                     u12881:
  5184   000C12  EF20  F006         	goto	l13135
  5185   000C16                     u12880:
  5186   000C16                     
  5187                           ; BSR set to: 0
  5188                           ;Helper_functions/helper_fn.c: 334:                 counter--;
  5189   000C16  07D4               	decf	change_password@counter& (0+255),f,b
  5190   000C18                     
  5191                           ; BSR set to: 0
  5192                           ;Helper_functions/helper_fn.c: 335:                 old_pass[counter] = '\0';
  5193   000C18  0101               	movlb	1	; () banked
  5194   000C1A  5100               	movf	change_password@old_pass& (0+255),w,b
  5195   000C1C  0100               	movlb	0	; () banked
  5196   000C1E  25D4               	addwf	change_password@counter& (0+255),w,b
  5197   000C20  6ED9               	movwf	fsr2l,c
  5198   000C22  6ADA               	clrf	fsr2h,c
  5199   000C24  6ADF               	clrf	indf2,c
  5200   000C26                     
  5201                           ; BSR set to: 0
  5202                           ;Helper_functions/helper_fn.c: 336:                 lcd_counter--;
  5203   000C26  07D2               	decf	change_password@lcd_counter& (0+255),f,b
  5204   000C28                     
  5205                           ; BSR set to: 0
  5206                           ;Helper_functions/helper_fn.c: 337:                 lcd_4bit_send_char_data_pos(&lcd1,3,
      +                          lcd_counter,' ');
  5207   000C28  0E4C               	movlw	low _lcd1
  5208   000C2A  6FC0               	movwf	lcd_4bit_send_char_data_pos@lcd& (0+255),b
  5209   000C2C  0E03               	movlw	3
  5210   000C2E  6FC1               	movwf	lcd_4bit_send_char_data_pos@row& (0+255),b
  5211   000C30  C0D2  F0C2         	movff	change_password@lcd_counter,lcd_4bit_send_char_data_pos@column
  5212   000C34  0E20               	movlw	32
  5213   000C36  6FC3               	movwf	lcd_4bit_send_char_data_pos@data& (0+255),b
  5214   000C38  ECD3  F019         	call	_lcd_4bit_send_char_data_pos	;wreg free
  5215                           
  5216                           ;Helper_functions/helper_fn.c: 338:             }
  5217   000C3C  EF7F  F005         	goto	l13105
  5218   000C40                     l13135:
  5219                           
  5220                           ; BSR set to: 0
  5221   000C40  0E3D               	movlw	61
  5222   000C42  19AB               	xorwf	_keypad_value& (0+255),w,b
  5223   000C44  A4D8               	btfss	status,2,c
  5224   000C46  EF27  F006         	goto	u12891
  5225   000C4A  EF29  F006         	goto	u12890
  5226   000C4E                     u12891:
  5227   000C4E  EFD3  F006         	goto	l13161
  5228   000C52                     u12890:
  5229   000C52                     
  5230                           ; BSR set to: 0
  5231                           ;Helper_functions/helper_fn.c: 340:                 if(counter <= 3){
  5232   000C52  0E04               	movlw	4
  5233   000C54  61D4               	cpfslt	change_password@counter& (0+255),b
  5234   000C56  EF2F  F006         	goto	u12901
  5235   000C5A  EF31  F006         	goto	u12900
  5236   000C5E                     u12901:
  5237   000C5E  EF66  F006         	goto	l13145
  5238   000C62                     u12900:
  5239   000C62                     
  5240                           ; BSR set to: 0
  5241                           ;Helper_functions/helper_fn.c: 341:                      lcd_4bit_send_string_pos(&lcd1,
      +                          4,1,"min 4 digits ");
  5242   000C62  0E4C               	movlw	low _lcd1
  5243   000C64  6FC0               	movwf	lcd_4bit_send_string_pos@lcd& (0+255),b
  5244   000C66  0E04               	movlw	4
  5245   000C68  6FC1               	movwf	lcd_4bit_send_string_pos@row& (0+255),b
  5246   000C6A  0E01               	movlw	1
  5247   000C6C  6FC2               	movwf	lcd_4bit_send_string_pos@column& (0+255),b
  5248   000C6E  0ECF               	movlw	low STR_22
  5249   000C70  6FC3               	movwf	lcd_4bit_send_string_pos@str& (0+255),b
  5250   000C72  0EFF               	movlw	high STR_22
  5251   000C74  6FC4               	movwf	(lcd_4bit_send_string_pos@str+1)& (0+255),b
  5252   000C76  EC78  F014         	call	_lcd_4bit_send_string_pos	;wreg free
  5253   000C7A                     
  5254                           ;Helper_functions/helper_fn.c: 342:                     _delay((unsigned long)((500)*(80
      +                          00000ul/4000.0)));
  5255   000C7A  0E06               	movlw	6
  5256   000C7C  0100               	movlb	0	; () banked
  5257   000C7E  6FD1               	movwf	(??_change_password+1)& (0+255),b
  5258   000C80  0E13               	movlw	19
  5259   000C82  6FD0               	movwf	??_change_password& (0+255),b
  5260   000C84  0EAD               	movlw	173
  5261   000C86                     u13447:
  5262   000C86  2EE8               	decfsz	wreg,f,c
  5263   000C88  D7FE               	bra	u13447
  5264   000C8A  2FD0               	decfsz	??_change_password& (0+255),f,b
  5265   000C8C  D7FC               	bra	u13447
  5266   000C8E  2FD1               	decfsz	(??_change_password+1)& (0+255),f,b
  5267   000C90  D7FA               	bra	u13447
  5268   000C92  D000               	nop2	
  5269   000C94                     
  5270                           ;Helper_functions/helper_fn.c: 343:                     lcd_4bit_send_string_pos(&lcd1,4
      +                          ,1,"                     ");
  5271   000C94  0E4C               	movlw	low _lcd1
  5272   000C96  0100               	movlb	0	; () banked
  5273   000C98  6FC0               	movwf	lcd_4bit_send_string_pos@lcd& (0+255),b
  5274   000C9A  0E04               	movlw	4
  5275   000C9C  6FC1               	movwf	lcd_4bit_send_string_pos@row& (0+255),b
  5276   000C9E  0E01               	movlw	1
  5277   000CA0  6FC2               	movwf	lcd_4bit_send_string_pos@column& (0+255),b
  5278   000CA2  0EFF               	movlw	low STR_12
  5279   000CA4  6FC3               	movwf	lcd_4bit_send_string_pos@str& (0+255),b
  5280   000CA6  0EFE               	movlw	high STR_12
  5281   000CA8  6FC4               	movwf	(lcd_4bit_send_string_pos@str+1)& (0+255),b
  5282   000CAA  EC78  F014         	call	_lcd_4bit_send_string_pos	;wreg free
  5283                           
  5284                           ;Helper_functions/helper_fn.c: 344:                     _delay((unsigned long)((500)*(80
      +                          00000ul/4000.0)));
  5285   000CAE  0E06               	movlw	6
  5286   000CB0  0100               	movlb	0	; () banked
  5287   000CB2  6FD1               	movwf	(??_change_password+1)& (0+255),b
  5288   000CB4  0E13               	movlw	19
  5289   000CB6  6FD0               	movwf	??_change_password& (0+255),b
  5290   000CB8  0EAD               	movlw	173
  5291   000CBA                     u13457:
  5292   000CBA  2EE8               	decfsz	wreg,f,c
  5293   000CBC  D7FE               	bra	u13457
  5294   000CBE  2FD0               	decfsz	??_change_password& (0+255),f,b
  5295   000CC0  D7FC               	bra	u13457
  5296   000CC2  2FD1               	decfsz	(??_change_password+1)& (0+255),f,b
  5297   000CC4  D7FA               	bra	u13457
  5298   000CC6  D000               	nop2	
  5299                           
  5300                           ;Helper_functions/helper_fn.c: 345:                 }
  5301   000CC8  EF7F  F005         	goto	l13105
  5302   000CCC                     l13145:
  5303                           
  5304                           ; BSR set to: 0
  5305                           ;Helper_functions/helper_fn.c: 347:                      *old_pass_didits = counter;
  5306   000CCC  C101  FFD9         	movff	change_password@old_pass_didits,fsr2l
  5307   000CD0  C102  FFDA         	movff	change_password@old_pass_didits+1,fsr2h
  5308   000CD4  C0D4  FFDF         	movff	change_password@counter,indf2
  5309   000CD8                     
  5310                           ; BSR set to: 0
  5311                           ;Helper_functions/helper_fn.c: 348:                    check_entered_password(old_pass,o
      +                          ld_pass_didits,stored_password,stored_password_digits,&comparing_result);
  5312   000CD8  C100  F0AF         	movff	change_password@old_pass,check_entered_password@entered_pass
  5313   000CDC  C101  F0B0         	movff	change_password@old_pass_didits,check_entered_password@entered_pass_digits
  5314   000CE0  C102  F0B1         	movff	change_password@old_pass_didits+1,check_entered_password@entered_pass_digits+1
  5315   000CE4  C103  F0B2         	movff	change_password@stored_password,check_entered_password@stored_pass
  5316   000CE8  C104  F0B3         	movff	change_password@stored_password_digits,check_entered_password@stored_pass_digits
  5317   000CEC  C105  F0B4         	movff	change_password@stored_password_digits+1,check_entered_password@stored_pass_digit
      +                          s+1
  5318   000CF0  0ED3               	movlw	low change_password@comparing_result
  5319   000CF2  6FB5               	movwf	check_entered_password@result& (0+255),b
  5320   000CF4  6BB6               	clrf	(check_entered_password@result+1)& (0+255),b
  5321   000CF6  ECA6  F011         	call	_check_entered_password	;wreg free
  5322   000CFA                     
  5323                           ;Helper_functions/helper_fn.c: 349:                     if(comparing_result == 1){
  5324   000CFA  0100               	movlb	0	; () banked
  5325   000CFC  05D3               	decf	change_password@comparing_result& (0+255),w,b
  5326   000CFE  A4D8               	btfss	status,2,c
  5327   000D00  EF84  F006         	goto	u12911
  5328   000D04  EF86  F006         	goto	u12910
  5329   000D08                     u12911:
  5330   000D08  EF9E  F006         	goto	l13155
  5331   000D0C                     u12910:
  5332   000D0C                     
  5333                           ; BSR set to: 0
  5334                           ;Helper_functions/helper_fn.c: 350:                         get_password(new_pass,new_pa
      +                          ss_Digits);
  5335   000D0C  C106  F0C5         	movff	change_password@new_pass,get_password@pass
  5336   000D10  C107  F0C6         	movff	change_password@new_pass_Digits,get_password@pass_didits
  5337   000D14  C108  F0C7         	movff	change_password@new_pass_Digits+1,get_password@pass_didits+1
  5338   000D18  EC75  F009         	call	_get_password	;wreg free
  5339                           
  5340                           ;Helper_functions/helper_fn.c: 351:                         password_confirmation(new_pa
      +                          ss,new_pass_Digits,new_pass_confirm,new_pass_confirm_Digits);
  5341   000D1C  C106  F0C5         	movff	change_password@new_pass,password_confirmation@pass
  5342   000D20  C107  F0C6         	movff	change_password@new_pass_Digits,password_confirmation@pass_didits
  5343   000D24  C108  F0C7         	movff	change_password@new_pass_Digits+1,password_confirmation@pass_didits+1
  5344   000D28  C109  F0C8         	movff	change_password@new_pass_confirm,password_confirmation@pass_confirm
  5345   000D2C  C10A  F0C9         	movff	change_password@new_pass_confirm_Digits,password_confirmation@pass_confirm_didits
  5346   000D30  C10B  F0CA         	movff	change_password@new_pass_confirm_Digits+1,password_confirmation@pass_confirm_didi
      +                          ts+1
  5347   000D34  EC0C  F003         	call	_password_confirmation	;wreg free
  5348                           
  5349                           ;Helper_functions/helper_fn.c: 352:                         break;
  5350   000D38  EF97  F007         	goto	l1097
  5351   000D3C                     l13155:
  5352                           
  5353                           ; BSR set to: 0
  5354                           ;Helper_functions/helper_fn.c: 354:                          lcd_4bit_send_string_pos(&l
      +                          cd1,4,1,"wrong password ");
  5355   000D3C  0E4C               	movlw	low _lcd1
  5356   000D3E  6FC0               	movwf	lcd_4bit_send_string_pos@lcd& (0+255),b
  5357   000D40  0E04               	movlw	4
  5358   000D42  6FC1               	movwf	lcd_4bit_send_string_pos@row& (0+255),b
  5359   000D44  0E01               	movlw	1
  5360   000D46  6FC2               	movwf	lcd_4bit_send_string_pos@column& (0+255),b
  5361   000D48  0EB0               	movlw	low STR_36
  5362   000D4A  6FC3               	movwf	lcd_4bit_send_string_pos@str& (0+255),b
  5363   000D4C  0EFF               	movlw	high STR_36
  5364   000D4E  6FC4               	movwf	(lcd_4bit_send_string_pos@str+1)& (0+255),b
  5365   000D50  EC78  F014         	call	_lcd_4bit_send_string_pos	;wreg free
  5366   000D54                     
  5367                           ;Helper_functions/helper_fn.c: 355:                          _delay((unsigned long)((500
      +                          )*(8000000ul/4000.0)));
  5368   000D54  0E06               	movlw	6
  5369   000D56  0100               	movlb	0	; () banked
  5370   000D58  6FD1               	movwf	(??_change_password+1)& (0+255),b
  5371   000D5A  0E13               	movlw	19
  5372   000D5C  6FD0               	movwf	??_change_password& (0+255),b
  5373   000D5E  0EAD               	movlw	173
  5374   000D60                     u13467:
  5375   000D60  2EE8               	decfsz	wreg,f,c
  5376   000D62  D7FE               	bra	u13467
  5377   000D64  2FD0               	decfsz	??_change_password& (0+255),f,b
  5378   000D66  D7FC               	bra	u13467
  5379   000D68  2FD1               	decfsz	(??_change_password+1)& (0+255),f,b
  5380   000D6A  D7FA               	bra	u13467
  5381   000D6C  D000               	nop2	
  5382   000D6E                     
  5383                           ;Helper_functions/helper_fn.c: 356:                         lcd_4bit_send_string_pos(&lc
      +                          d1,4,1,"                     ");
  5384   000D6E  0E4C               	movlw	low _lcd1
  5385   000D70  0100               	movlb	0	; () banked
  5386   000D72  6FC0               	movwf	lcd_4bit_send_string_pos@lcd& (0+255),b
  5387   000D74  0E04               	movlw	4
  5388   000D76  6FC1               	movwf	lcd_4bit_send_string_pos@row& (0+255),b
  5389   000D78  0E01               	movlw	1
  5390   000D7A  6FC2               	movwf	lcd_4bit_send_string_pos@column& (0+255),b
  5391   000D7C  0EFF               	movlw	low STR_12
  5392   000D7E  6FC3               	movwf	lcd_4bit_send_string_pos@str& (0+255),b
  5393   000D80  0EFE               	movlw	high STR_12
  5394   000D82  6FC4               	movwf	(lcd_4bit_send_string_pos@str+1)& (0+255),b
  5395   000D84  EC78  F014         	call	_lcd_4bit_send_string_pos	;wreg free
  5396                           
  5397                           ;Helper_functions/helper_fn.c: 357:                         _delay((unsigned long)((500)
      +                          *(8000000ul/4000.0)));
  5398   000D88  0E06               	movlw	6
  5399   000D8A  0100               	movlb	0	; () banked
  5400   000D8C  6FD1               	movwf	(??_change_password+1)& (0+255),b
  5401   000D8E  0E13               	movlw	19
  5402   000D90  6FD0               	movwf	??_change_password& (0+255),b
  5403   000D92  0EAD               	movlw	173
  5404   000D94                     u13477:
  5405   000D94  2EE8               	decfsz	wreg,f,c
  5406   000D96  D7FE               	bra	u13477
  5407   000D98  2FD0               	decfsz	??_change_password& (0+255),f,b
  5408   000D9A  D7FC               	bra	u13477
  5409   000D9C  2FD1               	decfsz	(??_change_password+1)& (0+255),f,b
  5410   000D9E  D7FA               	bra	u13477
  5411   000DA0  D000               	nop2	
  5412   000DA2  EF7F  F005         	goto	l13105
  5413   000DA6                     l13161:
  5414                           
  5415                           ; BSR set to: 0
  5416   000DA6  0E2F               	movlw	47
  5417   000DA8  19AB               	xorwf	_keypad_value& (0+255),w,b
  5418   000DAA  B4D8               	btfsc	status,2,c
  5419   000DAC  EFDA  F006         	goto	u12921
  5420   000DB0  EFDC  F006         	goto	u12920
  5421   000DB4                     u12921:
  5422   000DB4  EFF7  F006         	goto	l13169
  5423   000DB8                     u12920:
  5424   000DB8                     
  5425                           ; BSR set to: 0
  5426   000DB8  0E2A               	movlw	42
  5427   000DBA  19AB               	xorwf	_keypad_value& (0+255),w,b
  5428   000DBC  B4D8               	btfsc	status,2,c
  5429   000DBE  EFE3  F006         	goto	u12931
  5430   000DC2  EFE5  F006         	goto	u12930
  5431   000DC6                     u12931:
  5432   000DC6  EFF7  F006         	goto	l13169
  5433   000DCA                     u12930:
  5434   000DCA                     
  5435                           ; BSR set to: 0
  5436   000DCA  0E2B               	movlw	43
  5437   000DCC  19AB               	xorwf	_keypad_value& (0+255),w,b
  5438   000DCE  B4D8               	btfsc	status,2,c
  5439   000DD0  EFEC  F006         	goto	u12941
  5440   000DD4  EFEE  F006         	goto	u12940
  5441   000DD8                     u12941:
  5442   000DD8  EFF7  F006         	goto	l13169
  5443   000DDC                     u12940:
  5444   000DDC                     
  5445                           ; BSR set to: 0
  5446   000DDC  0E2D               	movlw	45
  5447   000DDE  19AB               	xorwf	_keypad_value& (0+255),w,b
  5448   000DE0  A4D8               	btfss	status,2,c
  5449   000DE2  EFF5  F006         	goto	u12951
  5450   000DE6  EFF7  F006         	goto	u12950
  5451   000DEA                     u12951:
  5452   000DEA  EF2C  F007         	goto	l13175
  5453   000DEE                     u12950:
  5454   000DEE                     l13169:
  5455                           
  5456                           ; BSR set to: 0
  5457                           ;Helper_functions/helper_fn.c: 362:                     lcd_4bit_send_string_pos(&lcd1,4
      +                          ,1,"Unavailable process ");
  5458   000DEE  0E4C               	movlw	low _lcd1
  5459   000DF0  6FC0               	movwf	lcd_4bit_send_string_pos@lcd& (0+255),b
  5460   000DF2  0E04               	movlw	4
  5461   000DF4  6FC1               	movwf	lcd_4bit_send_string_pos@row& (0+255),b
  5462   000DF6  0E01               	movlw	1
  5463   000DF8  6FC2               	movwf	lcd_4bit_send_string_pos@column& (0+255),b
  5464   000DFA  0E40               	movlw	low STR_11
  5465   000DFC  6FC3               	movwf	lcd_4bit_send_string_pos@str& (0+255),b
  5466   000DFE  0EFF               	movlw	high STR_11
  5467   000E00  6FC4               	movwf	(lcd_4bit_send_string_pos@str+1)& (0+255),b
  5468   000E02  EC78  F014         	call	_lcd_4bit_send_string_pos	;wreg free
  5469   000E06                     
  5470                           ;Helper_functions/helper_fn.c: 363:                      _delay((unsigned long)((500)*(8
      +                          000000ul/4000.0)));
  5471   000E06  0E06               	movlw	6
  5472   000E08  0100               	movlb	0	; () banked
  5473   000E0A  6FD1               	movwf	(??_change_password+1)& (0+255),b
  5474   000E0C  0E13               	movlw	19
  5475   000E0E  6FD0               	movwf	??_change_password& (0+255),b
  5476   000E10  0EAD               	movlw	173
  5477   000E12                     u13487:
  5478   000E12  2EE8               	decfsz	wreg,f,c
  5479   000E14  D7FE               	bra	u13487
  5480   000E16  2FD0               	decfsz	??_change_password& (0+255),f,b
  5481   000E18  D7FC               	bra	u13487
  5482   000E1A  2FD1               	decfsz	(??_change_password+1)& (0+255),f,b
  5483   000E1C  D7FA               	bra	u13487
  5484   000E1E  D000               	nop2	
  5485   000E20                     
  5486                           ;Helper_functions/helper_fn.c: 364:                     lcd_4bit_send_string_pos(&lcd1,4
      +                          ,1,"                     ");
  5487   000E20  0E4C               	movlw	low _lcd1
  5488   000E22  0100               	movlb	0	; () banked
  5489   000E24  6FC0               	movwf	lcd_4bit_send_string_pos@lcd& (0+255),b
  5490   000E26  0E04               	movlw	4
  5491   000E28  6FC1               	movwf	lcd_4bit_send_string_pos@row& (0+255),b
  5492   000E2A  0E01               	movlw	1
  5493   000E2C  6FC2               	movwf	lcd_4bit_send_string_pos@column& (0+255),b
  5494   000E2E  0EFF               	movlw	low STR_12
  5495   000E30  6FC3               	movwf	lcd_4bit_send_string_pos@str& (0+255),b
  5496   000E32  0EFE               	movlw	high STR_12
  5497   000E34  6FC4               	movwf	(lcd_4bit_send_string_pos@str+1)& (0+255),b
  5498   000E36  EC78  F014         	call	_lcd_4bit_send_string_pos	;wreg free
  5499                           
  5500                           ;Helper_functions/helper_fn.c: 365:                     _delay((unsigned long)((500)*(80
      +                          00000ul/4000.0)));
  5501   000E3A  0E06               	movlw	6
  5502   000E3C  0100               	movlb	0	; () banked
  5503   000E3E  6FD1               	movwf	(??_change_password+1)& (0+255),b
  5504   000E40  0E13               	movlw	19
  5505   000E42  6FD0               	movwf	??_change_password& (0+255),b
  5506   000E44  0EAD               	movlw	173
  5507   000E46                     u13497:
  5508   000E46  2EE8               	decfsz	wreg,f,c
  5509   000E48  D7FE               	bra	u13497
  5510   000E4A  2FD0               	decfsz	??_change_password& (0+255),f,b
  5511   000E4C  D7FC               	bra	u13497
  5512   000E4E  2FD1               	decfsz	(??_change_password+1)& (0+255),f,b
  5513   000E50  D7FA               	bra	u13497
  5514   000E52  D000               	nop2	
  5515                           
  5516                           ;Helper_functions/helper_fn.c: 366:                 }
  5517   000E54  EF7F  F005         	goto	l13105
  5518   000E58                     l13175:
  5519                           
  5520                           ; BSR set to: 0
  5521                           ;Helper_functions/helper_fn.c: 368:             if(counter < 8){
  5522   000E58  0E08               	movlw	8
  5523   000E5A  61D4               	cpfslt	change_password@counter& (0+255),b
  5524   000E5C  EF32  F007         	goto	u12961
  5525   000E60  EF34  F007         	goto	u12960
  5526   000E64                     u12961:
  5527   000E64  EF62  F007         	goto	l13189
  5528   000E68                     u12960:
  5529   000E68                     
  5530                           ; BSR set to: 0
  5531                           ;Helper_functions/helper_fn.c: 369:                         old_pass[counter] = keypad_v
      +                          alue;
  5532   000E68  0101               	movlb	1	; () banked
  5533   000E6A  5100               	movf	change_password@old_pass& (0+255),w,b
  5534   000E6C  0100               	movlb	0	; () banked
  5535   000E6E  25D4               	addwf	change_password@counter& (0+255),w,b
  5536   000E70  6ED9               	movwf	fsr2l,c
  5537   000E72  6ADA               	clrf	fsr2h,c
  5538   000E74  C0AB  FFDF         	movff	_keypad_value,indf2
  5539   000E78                     
  5540                           ; BSR set to: 0
  5541                           ;Helper_functions/helper_fn.c: 370:                         lcd_4bit_send_char_data_pos(
      +                          &lcd1,3,lcd_counter,keypad_value);
  5542   000E78  0E4C               	movlw	low _lcd1
  5543   000E7A  6FC0               	movwf	lcd_4bit_send_char_data_pos@lcd& (0+255),b
  5544   000E7C  0E03               	movlw	3
  5545   000E7E  6FC1               	movwf	lcd_4bit_send_char_data_pos@row& (0+255),b
  5546   000E80  C0D2  F0C2         	movff	change_password@lcd_counter,lcd_4bit_send_char_data_pos@column
  5547   000E84  C0AB  F0C3         	movff	_keypad_value,lcd_4bit_send_char_data_pos@data
  5548   000E88  ECD3  F019         	call	_lcd_4bit_send_char_data_pos	;wreg free
  5549   000E8C                     
  5550                           ;Helper_functions/helper_fn.c: 371:                         _delay((unsigned long)((200)
      +                          *(8000000ul/4000.0)));
  5551   000E8C  0E03               	movlw	3
  5552   000E8E  0100               	movlb	0	; () banked
  5553   000E90  6FD1               	movwf	(??_change_password+1)& (0+255),b
  5554   000E92  0E08               	movlw	8
  5555   000E94  6FD0               	movwf	??_change_password& (0+255),b
  5556   000E96  0E77               	movlw	119
  5557   000E98                     u13507:
  5558   000E98  2EE8               	decfsz	wreg,f,c
  5559   000E9A  D7FE               	bra	u13507
  5560   000E9C  2FD0               	decfsz	??_change_password& (0+255),f,b
  5561   000E9E  D7FC               	bra	u13507
  5562   000EA0  2FD1               	decfsz	(??_change_password+1)& (0+255),f,b
  5563   000EA2  D7FA               	bra	u13507
  5564   000EA4                     
  5565                           ;Helper_functions/helper_fn.c: 372:                         lcd_4bit_send_char_data_pos(
      +                          &lcd1,3,lcd_counter,'*');
  5566   000EA4  0E4C               	movlw	low _lcd1
  5567   000EA6  0100               	movlb	0	; () banked
  5568   000EA8  6FC0               	movwf	lcd_4bit_send_char_data_pos@lcd& (0+255),b
  5569   000EAA  0E03               	movlw	3
  5570   000EAC  6FC1               	movwf	lcd_4bit_send_char_data_pos@row& (0+255),b
  5571   000EAE  C0D2  F0C2         	movff	change_password@lcd_counter,lcd_4bit_send_char_data_pos@column
  5572   000EB2  0E2A               	movlw	42
  5573   000EB4  6FC3               	movwf	lcd_4bit_send_char_data_pos@data& (0+255),b
  5574   000EB6  ECD3  F019         	call	_lcd_4bit_send_char_data_pos	;wreg free
  5575   000EBA                     
  5576                           ;Helper_functions/helper_fn.c: 373:                         counter++;
  5577   000EBA  0100               	movlb	0	; () banked
  5578   000EBC  2BD4               	incf	change_password@counter& (0+255),f,b
  5579   000EBE                     
  5580                           ; BSR set to: 0
  5581                           ;Helper_functions/helper_fn.c: 374:                         lcd_counter++;
  5582   000EBE  2BD2               	incf	change_password@lcd_counter& (0+255),f,b
  5583                           
  5584                           ;Helper_functions/helper_fn.c: 375:             }
  5585   000EC0  EF7F  F005         	goto	l13105
  5586   000EC4                     l13189:
  5587                           
  5588                           ; BSR set to: 0
  5589                           ;Helper_functions/helper_fn.c: 377:                 lcd_4bit_send_string_pos(&lcd1,4,1,"
      +                          max 8 digits ");
  5590   000EC4  0E4C               	movlw	low _lcd1
  5591   000EC6  6FC0               	movwf	lcd_4bit_send_string_pos@lcd& (0+255),b
  5592   000EC8  0E04               	movlw	4
  5593   000ECA  6FC1               	movwf	lcd_4bit_send_string_pos@row& (0+255),b
  5594   000ECC  0E01               	movlw	1
  5595   000ECE  6FC2               	movwf	lcd_4bit_send_string_pos@column& (0+255),b
  5596   000ED0  0EDD               	movlw	low STR_26
  5597   000ED2  6FC3               	movwf	lcd_4bit_send_string_pos@str& (0+255),b
  5598   000ED4  0EFF               	movlw	high STR_26
  5599   000ED6  6FC4               	movwf	(lcd_4bit_send_string_pos@str+1)& (0+255),b
  5600   000ED8  EC78  F014         	call	_lcd_4bit_send_string_pos	;wreg free
  5601   000EDC                     
  5602                           ;Helper_functions/helper_fn.c: 378:                  _delay((unsigned long)((500)*(80000
      +                          00ul/4000.0)));
  5603   000EDC  0E06               	movlw	6
  5604   000EDE  0100               	movlb	0	; () banked
  5605   000EE0  6FD1               	movwf	(??_change_password+1)& (0+255),b
  5606   000EE2  0E13               	movlw	19
  5607   000EE4  6FD0               	movwf	??_change_password& (0+255),b
  5608   000EE6  0EAD               	movlw	173
  5609   000EE8                     u13517:
  5610   000EE8  2EE8               	decfsz	wreg,f,c
  5611   000EEA  D7FE               	bra	u13517
  5612   000EEC  2FD0               	decfsz	??_change_password& (0+255),f,b
  5613   000EEE  D7FC               	bra	u13517
  5614   000EF0  2FD1               	decfsz	(??_change_password+1)& (0+255),f,b
  5615   000EF2  D7FA               	bra	u13517
  5616   000EF4  D000               	nop2	
  5617   000EF6                     
  5618                           ;Helper_functions/helper_fn.c: 379:                 lcd_4bit_send_string_pos(&lcd1,4,1,"
      +                                               ");
  5619   000EF6  0E4C               	movlw	low _lcd1
  5620   000EF8  0100               	movlb	0	; () banked
  5621   000EFA  6FC0               	movwf	lcd_4bit_send_string_pos@lcd& (0+255),b
  5622   000EFC  0E04               	movlw	4
  5623   000EFE  6FC1               	movwf	lcd_4bit_send_string_pos@row& (0+255),b
  5624   000F00  0E01               	movlw	1
  5625   000F02  6FC2               	movwf	lcd_4bit_send_string_pos@column& (0+255),b
  5626   000F04  0EFF               	movlw	low STR_12
  5627   000F06  6FC3               	movwf	lcd_4bit_send_string_pos@str& (0+255),b
  5628   000F08  0EFE               	movlw	high STR_12
  5629   000F0A  6FC4               	movwf	(lcd_4bit_send_string_pos@str+1)& (0+255),b
  5630   000F0C  EC78  F014         	call	_lcd_4bit_send_string_pos	;wreg free
  5631                           
  5632                           ;Helper_functions/helper_fn.c: 380:                  _delay((unsigned long)((500)*(80000
      +                          00ul/4000.0)));
  5633   000F10  0E06               	movlw	6
  5634   000F12  0100               	movlb	0	; () banked
  5635   000F14  6FD1               	movwf	(??_change_password+1)& (0+255),b
  5636   000F16  0E13               	movlw	19
  5637   000F18  6FD0               	movwf	??_change_password& (0+255),b
  5638   000F1A  0EAD               	movlw	173
  5639   000F1C                     u13527:
  5640   000F1C  2EE8               	decfsz	wreg,f,c
  5641   000F1E  D7FE               	bra	u13527
  5642   000F20  2FD0               	decfsz	??_change_password& (0+255),f,b
  5643   000F22  D7FC               	bra	u13527
  5644   000F24  2FD1               	decfsz	(??_change_password+1)& (0+255),f,b
  5645   000F26  D7FA               	bra	u13527
  5646   000F28  D000               	nop2	
  5647   000F2A  EF7F  F005         	goto	l13105
  5648   000F2E                     l1097:
  5649   000F2E  0012               	return		;funcret
  5650   000F30                     __end_of_change_password:
  5651                           	callstack 0
  5652                           
  5653 ;; *************** function _password_confirmation *****************
  5654 ;; Defined at:
  5655 ;;		line 101 in file "Helper_functions/helper_fn.c"
  5656 ;; Parameters:    Size  Location     Type
  5657 ;;  pass            1   25[BANK0 ] PTR unsigned char 
  5658 ;;		 -> password(8), 
  5659 ;;  pass_didits     2   26[BANK0 ] PTR unsigned char 
  5660 ;;		 -> RAM(4095), pass_num_digits(1), 
  5661 ;;  pass_confirm    1   28[BANK0 ] PTR unsigned char 
  5662 ;;		 -> password_confirm(8), 
  5663 ;;  pass_confirm    2   29[BANK0 ] PTR unsigned char 
  5664 ;;		 -> RAM(4095), pass_confirm_num_digits(1), 
  5665 ;; Auto vars:     Size  Location     Type
  5666 ;;  counter         1   35[BANK0 ] unsigned char 
  5667 ;;  comparing_re    1   34[BANK0 ] unsigned char 
  5668 ;;  lcd_counter     1   33[BANK0 ] unsigned char 
  5669 ;; Return value:  Size  Location     Type
  5670 ;;                  1    wreg      void 
  5671 ;; Registers used:
  5672 ;;		wreg, fsr0l, fsr0h, fsr1l, fsr1h, fsr2l, fsr2h, status,2, status,0, tblptrl, tblptrh, tblptru, prodl, prodh, cstack
  5673 ;; Tracked objects:
  5674 ;;		On entry : 0/0
  5675 ;;		On exit  : 0/0
  5676 ;;		Unchanged: 0/0
  5677 ;; Data sizes:     COMRAM   BANK0   BANK1   BANK2   BANK3   BANK4   BANK5   BANK6   BANK7   BANK8   BANK9  BANK10  BANK1
      +1  BANK12  BANK13  BANK14  BANK15
  5678 ;;      Params:         0       6       0       0       0       0       0       0       0       0       0       0       
      +0       0       0       0       0
  5679 ;;      Locals:         0       3       0       0       0       0       0       0       0       0       0       0       
      +0       0       0       0       0
  5680 ;;      Temps:          0       2       0       0       0       0       0       0       0       0       0       0       
      +0       0       0       0       0
  5681 ;;      Totals:         0      11       0       0       0       0       0       0       0       0       0       0       
      +0       0       0       0       0
  5682 ;;Total ram usage:       11 bytes
  5683 ;; Hardware stack levels used: 1
  5684 ;; Hardware stack levels required when called: 13
  5685 ;; This function calls:
  5686 ;;		_comparing_password
  5687 ;;		_ecu_keypad_get_value
  5688 ;;		_lcd_4bit_send_char_data_pos
  5689 ;;		_lcd_4bit_send_command
  5690 ;;		_lcd_4bit_send_string_pos
  5691 ;;		_save_password
  5692 ;; This function is called by:
  5693 ;;		_main
  5694 ;;		_change_password
  5695 ;; This function uses a non-reentrant model
  5696 ;;
  5697                           
  5698                           	psect	text19
  5699   000618                     __ptext19:
  5700                           	callstack 0
  5701   000618                     _password_confirmation:
  5702                           	callstack 17
  5703   000618                     
  5704                           ;Helper_functions/helper_fn.c: 102:    keypad_value = 0;
  5705   000618  0E00               	movlw	0
  5706   00061A  0100               	movlb	0	; () banked
  5707   00061C  6FAB               	movwf	_keypad_value& (0+255),b
  5708                           
  5709                           ;Helper_functions/helper_fn.c: 103:    uint8 counter = 0;
  5710   00061E  0E00               	movlw	0
  5711   000620  6FCF               	movwf	password_confirmation@counter& (0+255),b
  5712                           
  5713                           ;Helper_functions/helper_fn.c: 104:    uint8 comparing_result = 1;
  5714   000622  0E01               	movlw	1
  5715   000624  6FCE               	movwf	password_confirmation@comparing_result& (0+255),b
  5716                           
  5717                           ;Helper_functions/helper_fn.c: 105:    uint8 lcd_counter = 2;
  5718   000626  0E02               	movlw	2
  5719   000628  6FCD               	movwf	password_confirmation@lcd_counter& (0+255),b
  5720   00062A                     
  5721                           ; BSR set to: 0
  5722                           ;Helper_functions/helper_fn.c: 107:     lcd_4bit_send_command(&lcd1,0x01);
  5723   00062A  0E4C               	movlw	low _lcd1
  5724   00062C  6FB7               	movwf	lcd_4bit_send_command@lcd& (0+255),b
  5725   00062E  0E01               	movlw	1
  5726   000630  6FB8               	movwf	lcd_4bit_send_command@command& (0+255),b
  5727   000632  EC51  F017         	call	_lcd_4bit_send_command	;wreg free
  5728   000636                     
  5729                           ;Helper_functions/helper_fn.c: 108:     _delay((unsigned long)((20)*(8000000ul/4000.0)))
      +                          ;
  5730   000636  0E34               	movlw	52
  5731   000638  0100               	movlb	0	; () banked
  5732   00063A  6FCB               	movwf	??_password_confirmation& (0+255),b
  5733   00063C  0EF1               	movlw	241
  5734   00063E                     u13537:
  5735   00063E  2EE8               	decfsz	wreg,f,c
  5736   000640  D7FE               	bra	u13537
  5737   000642  2FCB               	decfsz	??_password_confirmation& (0+255),f,b
  5738   000644  D7FC               	bra	u13537
  5739   000646  D000               	nop2	
  5740   000648                     l11705:
  5741                           
  5742                           ;Helper_functions/helper_fn.c: 112:         lcd_4bit_send_string_pos(&lcd1,2,1,"confirm 
      +                          The password ");
  5743   000648  0E4C               	movlw	low _lcd1
  5744   00064A  0100               	movlb	0	; () banked
  5745   00064C  6FC0               	movwf	lcd_4bit_send_string_pos@lcd& (0+255),b
  5746   00064E  0E02               	movlw	2
  5747   000650  6FC1               	movwf	lcd_4bit_send_string_pos@row& (0+255),b
  5748   000652  0E01               	movlw	1
  5749   000654  6FC2               	movwf	lcd_4bit_send_string_pos@column& (0+255),b
  5750   000656  0EE9               	movlw	low STR_28
  5751   000658  6FC3               	movwf	lcd_4bit_send_string_pos@str& (0+255),b
  5752   00065A  0EFE               	movlw	high STR_28
  5753   00065C  6FC4               	movwf	(lcd_4bit_send_string_pos@str+1)& (0+255),b
  5754   00065E  EC78  F014         	call	_lcd_4bit_send_string_pos	;wreg free
  5755   000662                     
  5756                           ;Helper_functions/helper_fn.c: 113:         lcd_4bit_send_string_pos(&lcd1,3,1,":");
  5757   000662  0E4C               	movlw	low _lcd1
  5758   000664  0100               	movlb	0	; () banked
  5759   000666  6FC0               	movwf	lcd_4bit_send_string_pos@lcd& (0+255),b
  5760   000668  0E03               	movlw	3
  5761   00066A  6FC1               	movwf	lcd_4bit_send_string_pos@row& (0+255),b
  5762   00066C  0E01               	movlw	1
  5763   00066E  6FC2               	movwf	lcd_4bit_send_string_pos@column& (0+255),b
  5764   000670  0EF9               	movlw	low STR_19
  5765   000672  6FC3               	movwf	lcd_4bit_send_string_pos@str& (0+255),b
  5766   000674  0EFF               	movlw	high STR_19
  5767   000676  6FC4               	movwf	(lcd_4bit_send_string_pos@str+1)& (0+255),b
  5768   000678  EC78  F014         	call	_lcd_4bit_send_string_pos	;wreg free
  5769   00067C                     l11709:
  5770                           
  5771                           ;Helper_functions/helper_fn.c: 116:         ecu_keypad_get_value(&keypad,&keypad_value);
  5772   00067C  0EED               	movlw	low _keypad
  5773   00067E  0100               	movlb	0	; () banked
  5774   000680  6FB4               	movwf	ecu_keypad_get_value@keypad& (0+255),b
  5775   000682  0EAB               	movlw	low _keypad_value
  5776   000684  6FB5               	movwf	ecu_keypad_get_value@value& (0+255),b
  5777   000686  EC28  F011         	call	_ecu_keypad_get_value	;wreg free
  5778   00068A                     
  5779                           ;Helper_functions/helper_fn.c: 117:         _delay((unsigned long)((125)*(8000000ul/4000
      +                          .0)));
  5780   00068A  0E02               	movlw	2
  5781   00068C  0100               	movlb	0	; () banked
  5782   00068E  6FCC               	movwf	(??_password_confirmation+1)& (0+255),b
  5783   000690  0E45               	movlw	69
  5784   000692  6FCB               	movwf	??_password_confirmation& (0+255),b
  5785   000694  0EA9               	movlw	169
  5786   000696                     u13547:
  5787   000696  2EE8               	decfsz	wreg,f,c
  5788   000698  D7FE               	bra	u13547
  5789   00069A  2FCB               	decfsz	??_password_confirmation& (0+255),f,b
  5790   00069C  D7FC               	bra	u13547
  5791   00069E  2FCC               	decfsz	(??_password_confirmation+1)& (0+255),f,b
  5792   0006A0  D7FA               	bra	u13547
  5793   0006A2  D000               	nop2	
  5794   0006A4                     
  5795                           ;Helper_functions/helper_fn.c: 118:         }while(keypad_value == 0 );
  5796   0006A4  0100               	movlb	0	; () banked
  5797   0006A6  51AB               	movf	_keypad_value& (0+255),w,b
  5798   0006A8  B4D8               	btfsc	status,2,c
  5799   0006AA  EF59  F003         	goto	u11311
  5800   0006AE  EF5B  F003         	goto	u11310
  5801   0006B2                     u11311:
  5802   0006B2  EF3E  F003         	goto	l11709
  5803   0006B6                     u11310:
  5804   0006B6                     
  5805                           ; BSR set to: 0
  5806                           ;Helper_functions/helper_fn.c: 120:         if(keypad_value == '#' && pass_confirm[0] ==
      +                           '\0'){
  5807   0006B6  0E23               	movlw	35
  5808   0006B8  19AB               	xorwf	_keypad_value& (0+255),w,b
  5809   0006BA  A4D8               	btfss	status,2,c
  5810   0006BC  EF62  F003         	goto	u11321
  5811   0006C0  EF64  F003         	goto	u11320
  5812   0006C4                     u11321:
  5813   0006C4  EFA4  F003         	goto	l11725
  5814   0006C8                     u11320:
  5815   0006C8                     
  5816                           ; BSR set to: 0
  5817   0006C8  51C8               	movf	password_confirmation@pass_confirm& (0+255),w,b
  5818   0006CA  6ED9               	movwf	fsr2l,c
  5819   0006CC  6ADA               	clrf	fsr2h,c
  5820   0006CE  50DF               	movf	indf2,w,c
  5821   0006D0  A4D8               	btfss	status,2,c
  5822   0006D2  EF6D  F003         	goto	u11331
  5823   0006D6  EF6F  F003         	goto	u11330
  5824   0006DA                     u11331:
  5825   0006DA  EFA4  F003         	goto	l11725
  5826   0006DE                     u11330:
  5827   0006DE                     
  5828                           ; BSR set to: 0
  5829                           ;Helper_functions/helper_fn.c: 121:             lcd_4bit_send_string_pos(&lcd1,4,1,"Unav
      +                          ailable process ");
  5830   0006DE  0E4C               	movlw	low _lcd1
  5831   0006E0  6FC0               	movwf	lcd_4bit_send_string_pos@lcd& (0+255),b
  5832   0006E2  0E04               	movlw	4
  5833   0006E4  6FC1               	movwf	lcd_4bit_send_string_pos@row& (0+255),b
  5834   0006E6  0E01               	movlw	1
  5835   0006E8  6FC2               	movwf	lcd_4bit_send_string_pos@column& (0+255),b
  5836   0006EA  0E40               	movlw	low STR_11
  5837   0006EC  6FC3               	movwf	lcd_4bit_send_string_pos@str& (0+255),b
  5838   0006EE  0EFF               	movlw	high STR_11
  5839   0006F0  6FC4               	movwf	(lcd_4bit_send_string_pos@str+1)& (0+255),b
  5840   0006F2  EC78  F014         	call	_lcd_4bit_send_string_pos	;wreg free
  5841   0006F6                     
  5842                           ;Helper_functions/helper_fn.c: 122:                  _delay((unsigned long)((500)*(80000
      +                          00ul/4000.0)));
  5843   0006F6  0E06               	movlw	6
  5844   0006F8  0100               	movlb	0	; () banked
  5845   0006FA  6FCC               	movwf	(??_password_confirmation+1)& (0+255),b
  5846   0006FC  0E13               	movlw	19
  5847   0006FE  6FCB               	movwf	??_password_confirmation& (0+255),b
  5848   000700  0EAD               	movlw	173
  5849   000702                     u13557:
  5850   000702  2EE8               	decfsz	wreg,f,c
  5851   000704  D7FE               	bra	u13557
  5852   000706  2FCB               	decfsz	??_password_confirmation& (0+255),f,b
  5853   000708  D7FC               	bra	u13557
  5854   00070A  2FCC               	decfsz	(??_password_confirmation+1)& (0+255),f,b
  5855   00070C  D7FA               	bra	u13557
  5856   00070E  D000               	nop2	
  5857   000710                     
  5858                           ;Helper_functions/helper_fn.c: 123:                 lcd_4bit_send_string_pos(&lcd1,4,1,"
      +                                               ");
  5859   000710  0E4C               	movlw	low _lcd1
  5860   000712  0100               	movlb	0	; () banked
  5861   000714  6FC0               	movwf	lcd_4bit_send_string_pos@lcd& (0+255),b
  5862   000716  0E04               	movlw	4
  5863   000718  6FC1               	movwf	lcd_4bit_send_string_pos@row& (0+255),b
  5864   00071A  0E01               	movlw	1
  5865   00071C  6FC2               	movwf	lcd_4bit_send_string_pos@column& (0+255),b
  5866   00071E  0EFF               	movlw	low STR_12
  5867   000720  6FC3               	movwf	lcd_4bit_send_string_pos@str& (0+255),b
  5868   000722  0EFE               	movlw	high STR_12
  5869   000724  6FC4               	movwf	(lcd_4bit_send_string_pos@str+1)& (0+255),b
  5870   000726  EC78  F014         	call	_lcd_4bit_send_string_pos	;wreg free
  5871                           
  5872                           ;Helper_functions/helper_fn.c: 124:                 _delay((unsigned long)((500)*(800000
      +                          0ul/4000.0)));
  5873   00072A  0E06               	movlw	6
  5874   00072C  0100               	movlb	0	; () banked
  5875   00072E  6FCC               	movwf	(??_password_confirmation+1)& (0+255),b
  5876   000730  0E13               	movlw	19
  5877   000732  6FCB               	movwf	??_password_confirmation& (0+255),b
  5878   000734  0EAD               	movlw	173
  5879   000736                     u13567:
  5880   000736  2EE8               	decfsz	wreg,f,c
  5881   000738  D7FE               	bra	u13567
  5882   00073A  2FCB               	decfsz	??_password_confirmation& (0+255),f,b
  5883   00073C  D7FC               	bra	u13567
  5884   00073E  2FCC               	decfsz	(??_password_confirmation+1)& (0+255),f,b
  5885   000740  D7FA               	bra	u13567
  5886   000742  D000               	nop2	
  5887                           
  5888                           ;Helper_functions/helper_fn.c: 125:         }
  5889   000744  EF24  F003         	goto	l11705
  5890   000748                     l11725:
  5891                           
  5892                           ; BSR set to: 0
  5893   000748  0E23               	movlw	35
  5894   00074A  19AB               	xorwf	_keypad_value& (0+255),w,b
  5895   00074C  A4D8               	btfss	status,2,c
  5896   00074E  EFAB  F003         	goto	u11341
  5897   000752  EFAD  F003         	goto	u11340
  5898   000756                     u11341:
  5899   000756  EFC0  F003         	goto	l11735
  5900   00075A                     u11340:
  5901   00075A                     
  5902                           ; BSR set to: 0
  5903                           ;Helper_functions/helper_fn.c: 127:                 counter--;
  5904   00075A  07CF               	decf	password_confirmation@counter& (0+255),f,b
  5905   00075C                     
  5906                           ; BSR set to: 0
  5907                           ;Helper_functions/helper_fn.c: 128:                 pass_confirm[counter] = '\0';
  5908   00075C  51C8               	movf	password_confirmation@pass_confirm& (0+255),w,b
  5909   00075E  25CF               	addwf	password_confirmation@counter& (0+255),w,b
  5910   000760  6ED9               	movwf	fsr2l,c
  5911   000762  6ADA               	clrf	fsr2h,c
  5912   000764  6ADF               	clrf	indf2,c
  5913   000766                     
  5914                           ; BSR set to: 0
  5915                           ;Helper_functions/helper_fn.c: 129:                 lcd_counter--;
  5916   000766  07CD               	decf	password_confirmation@lcd_counter& (0+255),f,b
  5917   000768                     
  5918                           ; BSR set to: 0
  5919                           ;Helper_functions/helper_fn.c: 130:                 lcd_4bit_send_char_data_pos(&lcd1,3,
      +                          lcd_counter,' ');
  5920   000768  0E4C               	movlw	low _lcd1
  5921   00076A  6FC0               	movwf	lcd_4bit_send_char_data_pos@lcd& (0+255),b
  5922   00076C  0E03               	movlw	3
  5923   00076E  6FC1               	movwf	lcd_4bit_send_char_data_pos@row& (0+255),b
  5924   000770  C0CD  F0C2         	movff	password_confirmation@lcd_counter,lcd_4bit_send_char_data_pos@column
  5925   000774  0E20               	movlw	32
  5926   000776  6FC3               	movwf	lcd_4bit_send_char_data_pos@data& (0+255),b
  5927   000778  ECD3  F019         	call	_lcd_4bit_send_char_data_pos	;wreg free
  5928                           
  5929                           ;Helper_functions/helper_fn.c: 131:             }
  5930   00077C  EF24  F003         	goto	l11705
  5931   000780                     l11735:
  5932                           
  5933                           ; BSR set to: 0
  5934   000780  0E3D               	movlw	61
  5935   000782  19AB               	xorwf	_keypad_value& (0+255),w,b
  5936   000784  A4D8               	btfss	status,2,c
  5937   000786  EFC7  F003         	goto	u11351
  5938   00078A  EFC9  F003         	goto	u11350
  5939   00078E                     u11351:
  5940   00078E  EFA4  F004         	goto	l11773
  5941   000792                     u11350:
  5942   000792                     
  5943                           ; BSR set to: 0
  5944                           ;Helper_functions/helper_fn.c: 133:                 if(counter <= 3){
  5945   000792  0E04               	movlw	4
  5946   000794  61CF               	cpfslt	password_confirmation@counter& (0+255),b
  5947   000796  EFCF  F003         	goto	u11361
  5948   00079A  EFD1  F003         	goto	u11360
  5949   00079E                     u11361:
  5950   00079E  EF06  F004         	goto	l11745
  5951   0007A2                     u11360:
  5952   0007A2                     
  5953                           ; BSR set to: 0
  5954                           ;Helper_functions/helper_fn.c: 134:                      lcd_4bit_send_string_pos(&lcd1,
      +                          4,1,"min 4 digits ");
  5955   0007A2  0E4C               	movlw	low _lcd1
  5956   0007A4  6FC0               	movwf	lcd_4bit_send_string_pos@lcd& (0+255),b
  5957   0007A6  0E04               	movlw	4
  5958   0007A8  6FC1               	movwf	lcd_4bit_send_string_pos@row& (0+255),b
  5959   0007AA  0E01               	movlw	1
  5960   0007AC  6FC2               	movwf	lcd_4bit_send_string_pos@column& (0+255),b
  5961   0007AE  0ECF               	movlw	low STR_22
  5962   0007B0  6FC3               	movwf	lcd_4bit_send_string_pos@str& (0+255),b
  5963   0007B2  0EFF               	movlw	high STR_22
  5964   0007B4  6FC4               	movwf	(lcd_4bit_send_string_pos@str+1)& (0+255),b
  5965   0007B6  EC78  F014         	call	_lcd_4bit_send_string_pos	;wreg free
  5966   0007BA                     
  5967                           ;Helper_functions/helper_fn.c: 135:                     _delay((unsigned long)((500)*(80
      +                          00000ul/4000.0)));
  5968   0007BA  0E06               	movlw	6
  5969   0007BC  0100               	movlb	0	; () banked
  5970   0007BE  6FCC               	movwf	(??_password_confirmation+1)& (0+255),b
  5971   0007C0  0E13               	movlw	19
  5972   0007C2  6FCB               	movwf	??_password_confirmation& (0+255),b
  5973   0007C4  0EAD               	movlw	173
  5974   0007C6                     u13577:
  5975   0007C6  2EE8               	decfsz	wreg,f,c
  5976   0007C8  D7FE               	bra	u13577
  5977   0007CA  2FCB               	decfsz	??_password_confirmation& (0+255),f,b
  5978   0007CC  D7FC               	bra	u13577
  5979   0007CE  2FCC               	decfsz	(??_password_confirmation+1)& (0+255),f,b
  5980   0007D0  D7FA               	bra	u13577
  5981   0007D2  D000               	nop2	
  5982   0007D4                     
  5983                           ;Helper_functions/helper_fn.c: 136:                     lcd_4bit_send_string_pos(&lcd1,4
      +                          ,1,"                     ");
  5984   0007D4  0E4C               	movlw	low _lcd1
  5985   0007D6  0100               	movlb	0	; () banked
  5986   0007D8  6FC0               	movwf	lcd_4bit_send_string_pos@lcd& (0+255),b
  5987   0007DA  0E04               	movlw	4
  5988   0007DC  6FC1               	movwf	lcd_4bit_send_string_pos@row& (0+255),b
  5989   0007DE  0E01               	movlw	1
  5990   0007E0  6FC2               	movwf	lcd_4bit_send_string_pos@column& (0+255),b
  5991   0007E2  0EFF               	movlw	low STR_12
  5992   0007E4  6FC3               	movwf	lcd_4bit_send_string_pos@str& (0+255),b
  5993   0007E6  0EFE               	movlw	high STR_12
  5994   0007E8  6FC4               	movwf	(lcd_4bit_send_string_pos@str+1)& (0+255),b
  5995   0007EA  EC78  F014         	call	_lcd_4bit_send_string_pos	;wreg free
  5996                           
  5997                           ;Helper_functions/helper_fn.c: 137:                     _delay((unsigned long)((500)*(80
      +                          00000ul/4000.0)));
  5998   0007EE  0E06               	movlw	6
  5999   0007F0  0100               	movlb	0	; () banked
  6000   0007F2  6FCC               	movwf	(??_password_confirmation+1)& (0+255),b
  6001   0007F4  0E13               	movlw	19
  6002   0007F6  6FCB               	movwf	??_password_confirmation& (0+255),b
  6003   0007F8  0EAD               	movlw	173
  6004   0007FA                     u13587:
  6005   0007FA  2EE8               	decfsz	wreg,f,c
  6006   0007FC  D7FE               	bra	u13587
  6007   0007FE  2FCB               	decfsz	??_password_confirmation& (0+255),f,b
  6008   000800  D7FC               	bra	u13587
  6009   000802  2FCC               	decfsz	(??_password_confirmation+1)& (0+255),f,b
  6010   000804  D7FA               	bra	u13587
  6011   000806  D000               	nop2	
  6012                           
  6013                           ;Helper_functions/helper_fn.c: 138:                 }
  6014   000808  EF24  F003         	goto	l11705
  6015   00080C                     l11745:
  6016                           
  6017                           ; BSR set to: 0
  6018                           ;Helper_functions/helper_fn.c: 140:                      *pass_confirm_didits = counter;
  6019   00080C  C0C9  FFD9         	movff	password_confirmation@pass_confirm_didits,fsr2l
  6020   000810  C0CA  FFDA         	movff	password_confirmation@pass_confirm_didits+1,fsr2h
  6021   000814  C0CF  FFDF         	movff	password_confirmation@counter,indf2
  6022   000818                     
  6023                           ; BSR set to: 0
  6024                           ;Helper_functions/helper_fn.c: 141:                    comparing_password(pass,pass_didi
      +                          ts,pass_confirm,pass_confirm_didits,&comparing_result);
  6025   000818  C0C5  F0AC         	movff	password_confirmation@pass,comparing_password@pass
  6026   00081C  C0C6  F0AD         	movff	password_confirmation@pass_didits,comparing_password@pass_digits
  6027   000820  C0C7  F0AE         	movff	password_confirmation@pass_didits+1,comparing_password@pass_digits+1
  6028   000824  C0C8  F0AF         	movff	password_confirmation@pass_confirm,comparing_password@pass_confirm
  6029   000828  C0C9  F0B0         	movff	password_confirmation@pass_confirm_didits,comparing_password@pass_confirm_digits
  6030   00082C  C0CA  F0B1         	movff	password_confirmation@pass_confirm_didits+1,comparing_password@pass_confirm_digit
      +                          s+1
  6031   000830  0ECE               	movlw	low password_confirmation@comparing_result
  6032   000832  6FB2               	movwf	comparing_password@result& (0+255),b
  6033   000834  EC4E  F015         	call	_comparing_password	;wreg free
  6034   000838                     
  6035                           ;Helper_functions/helper_fn.c: 142:                     if(comparing_result == 1){
  6036   000838  0100               	movlb	0	; () banked
  6037   00083A  05CE               	decf	password_confirmation@comparing_result& (0+255),w,b
  6038   00083C  A4D8               	btfss	status,2,c
  6039   00083E  EF23  F004         	goto	u11371
  6040   000842  EF25  F004         	goto	u11370
  6041   000846                     u11371:
  6042   000846  EF6F  F004         	goto	l11767
  6043   00084A                     u11370:
  6044   00084A                     
  6045                           ; BSR set to: 0
  6046                           ;Helper_functions/helper_fn.c: 143:                         save_password(pass);
  6047   00084A  C0C5  F0B0         	movff	password_confirmation@pass,save_password@pass
  6048   00084E  EC45  F019         	call	_save_password	;wreg free
  6049   000852                     
  6050                           ;Helper_functions/helper_fn.c: 144:                         lcd_4bit_send_command(&lcd1,
      +                          0x01);
  6051   000852  0E4C               	movlw	low _lcd1
  6052   000854  0100               	movlb	0	; () banked
  6053   000856  6FB7               	movwf	lcd_4bit_send_command@lcd& (0+255),b
  6054   000858  0E01               	movlw	1
  6055   00085A  6FB8               	movwf	lcd_4bit_send_command@command& (0+255),b
  6056   00085C  EC51  F017         	call	_lcd_4bit_send_command	;wreg free
  6057   000860                     
  6058                           ;Helper_functions/helper_fn.c: 145:                         _delay((unsigned long)((20)*
      +                          (8000000ul/4000.0)));
  6059   000860  0E34               	movlw	52
  6060   000862  0100               	movlb	0	; () banked
  6061   000864  6FCB               	movwf	??_password_confirmation& (0+255),b
  6062   000866  0EF1               	movlw	241
  6063   000868                     u13597:
  6064   000868  2EE8               	decfsz	wreg,f,c
  6065   00086A  D7FE               	bra	u13597
  6066   00086C  2FCB               	decfsz	??_password_confirmation& (0+255),f,b
  6067   00086E  D7FC               	bra	u13597
  6068   000870  D000               	nop2	
  6069   000872                     
  6070                           ;Helper_functions/helper_fn.c: 146:                         lcd_4bit_send_string_pos(&lc
      +                          d1,2,4,"password saved");
  6071   000872  0E4C               	movlw	low _lcd1
  6072   000874  0100               	movlb	0	; () banked
  6073   000876  6FC0               	movwf	lcd_4bit_send_string_pos@lcd& (0+255),b
  6074   000878  0E02               	movlw	2
  6075   00087A  6FC1               	movwf	lcd_4bit_send_string_pos@row& (0+255),b
  6076   00087C  0E04               	movlw	4
  6077   00087E  6FC2               	movwf	lcd_4bit_send_string_pos@column& (0+255),b
  6078   000880  0EC0               	movlw	low STR_34
  6079   000882  6FC3               	movwf	lcd_4bit_send_string_pos@str& (0+255),b
  6080   000884  0EFF               	movlw	high STR_34
  6081   000886  6FC4               	movwf	(lcd_4bit_send_string_pos@str+1)& (0+255),b
  6082   000888  EC78  F014         	call	_lcd_4bit_send_string_pos	;wreg free
  6083   00088C                     
  6084                           ;Helper_functions/helper_fn.c: 147:                         _delay((unsigned long)((500)
      +                          *(8000000ul/4000.0)));
  6085   00088C  0E06               	movlw	6
  6086   00088E  0100               	movlb	0	; () banked
  6087   000890  6FCC               	movwf	(??_password_confirmation+1)& (0+255),b
  6088   000892  0E13               	movlw	19
  6089   000894  6FCB               	movwf	??_password_confirmation& (0+255),b
  6090   000896  0EAD               	movlw	173
  6091   000898                     u13607:
  6092   000898  2EE8               	decfsz	wreg,f,c
  6093   00089A  D7FE               	bra	u13607
  6094   00089C  2FCB               	decfsz	??_password_confirmation& (0+255),f,b
  6095   00089E  D7FC               	bra	u13607
  6096   0008A0  2FCC               	decfsz	(??_password_confirmation+1)& (0+255),f,b
  6097   0008A2  D7FA               	bra	u13607
  6098   0008A4  D000               	nop2	
  6099   0008A6                     
  6100                           ;Helper_functions/helper_fn.c: 148:                         lcd_4bit_send_string_pos(&lc
      +                          d1,2,4,"                     ");
  6101   0008A6  0E4C               	movlw	low _lcd1
  6102   0008A8  0100               	movlb	0	; () banked
  6103   0008AA  6FC0               	movwf	lcd_4bit_send_string_pos@lcd& (0+255),b
  6104   0008AC  0E02               	movlw	2
  6105   0008AE  6FC1               	movwf	lcd_4bit_send_string_pos@row& (0+255),b
  6106   0008B0  0E04               	movlw	4
  6107   0008B2  6FC2               	movwf	lcd_4bit_send_string_pos@column& (0+255),b
  6108   0008B4  0EFF               	movlw	low STR_12
  6109   0008B6  6FC3               	movwf	lcd_4bit_send_string_pos@str& (0+255),b
  6110   0008B8  0EFE               	movlw	high STR_12
  6111   0008BA  6FC4               	movwf	(lcd_4bit_send_string_pos@str+1)& (0+255),b
  6112   0008BC  EC78  F014         	call	_lcd_4bit_send_string_pos	;wreg free
  6113   0008C0                     
  6114                           ;Helper_functions/helper_fn.c: 149:                         _delay((unsigned long)((500)
      +                          *(8000000ul/4000.0)));
  6115   0008C0  0E06               	movlw	6
  6116   0008C2  0100               	movlb	0	; () banked
  6117   0008C4  6FCC               	movwf	(??_password_confirmation+1)& (0+255),b
  6118   0008C6  0E13               	movlw	19
  6119   0008C8  6FCB               	movwf	??_password_confirmation& (0+255),b
  6120   0008CA  0EAD               	movlw	173
  6121   0008CC                     u13617:
  6122   0008CC  2EE8               	decfsz	wreg,f,c
  6123   0008CE  D7FE               	bra	u13617
  6124   0008D0  2FCB               	decfsz	??_password_confirmation& (0+255),f,b
  6125   0008D2  D7FC               	bra	u13617
  6126   0008D4  2FCC               	decfsz	(??_password_confirmation+1)& (0+255),f,b
  6127   0008D6  D7FA               	bra	u13617
  6128   0008D8  D000               	nop2	
  6129                           
  6130                           ;Helper_functions/helper_fn.c: 150:                         break;
  6131   0008DA  EF66  F005         	goto	l1044
  6132   0008DE                     l11767:
  6133                           
  6134                           ; BSR set to: 0
  6135                           ;Helper_functions/helper_fn.c: 152:                          lcd_4bit_send_string_pos(&l
      +                          cd1,4,1,"wrong password ");
  6136   0008DE  0E4C               	movlw	low _lcd1
  6137   0008E0  6FC0               	movwf	lcd_4bit_send_string_pos@lcd& (0+255),b
  6138   0008E2  0E04               	movlw	4
  6139   0008E4  6FC1               	movwf	lcd_4bit_send_string_pos@row& (0+255),b
  6140   0008E6  0E01               	movlw	1
  6141   0008E8  6FC2               	movwf	lcd_4bit_send_string_pos@column& (0+255),b
  6142   0008EA  0EB0               	movlw	low STR_36
  6143   0008EC  6FC3               	movwf	lcd_4bit_send_string_pos@str& (0+255),b
  6144   0008EE  0EFF               	movlw	high STR_36
  6145   0008F0  6FC4               	movwf	(lcd_4bit_send_string_pos@str+1)& (0+255),b
  6146   0008F2  EC78  F014         	call	_lcd_4bit_send_string_pos	;wreg free
  6147   0008F6                     
  6148                           ;Helper_functions/helper_fn.c: 153:                          _delay((unsigned long)((500
      +                          )*(8000000ul/4000.0)));
  6149   0008F6  0E06               	movlw	6
  6150   0008F8  0100               	movlb	0	; () banked
  6151   0008FA  6FCC               	movwf	(??_password_confirmation+1)& (0+255),b
  6152   0008FC  0E13               	movlw	19
  6153   0008FE  6FCB               	movwf	??_password_confirmation& (0+255),b
  6154   000900  0EAD               	movlw	173
  6155   000902                     u13627:
  6156   000902  2EE8               	decfsz	wreg,f,c
  6157   000904  D7FE               	bra	u13627
  6158   000906  2FCB               	decfsz	??_password_confirmation& (0+255),f,b
  6159   000908  D7FC               	bra	u13627
  6160   00090A  2FCC               	decfsz	(??_password_confirmation+1)& (0+255),f,b
  6161   00090C  D7FA               	bra	u13627
  6162   00090E  D000               	nop2	
  6163   000910                     
  6164                           ;Helper_functions/helper_fn.c: 154:                         lcd_4bit_send_string_pos(&lc
      +                          d1,4,1,"                     ");
  6165   000910  0E4C               	movlw	low _lcd1
  6166   000912  0100               	movlb	0	; () banked
  6167   000914  6FC0               	movwf	lcd_4bit_send_string_pos@lcd& (0+255),b
  6168   000916  0E04               	movlw	4
  6169   000918  6FC1               	movwf	lcd_4bit_send_string_pos@row& (0+255),b
  6170   00091A  0E01               	movlw	1
  6171   00091C  6FC2               	movwf	lcd_4bit_send_string_pos@column& (0+255),b
  6172   00091E  0EFF               	movlw	low STR_12
  6173   000920  6FC3               	movwf	lcd_4bit_send_string_pos@str& (0+255),b
  6174   000922  0EFE               	movlw	high STR_12
  6175   000924  6FC4               	movwf	(lcd_4bit_send_string_pos@str+1)& (0+255),b
  6176   000926  EC78  F014         	call	_lcd_4bit_send_string_pos	;wreg free
  6177                           
  6178                           ;Helper_functions/helper_fn.c: 155:                         _delay((unsigned long)((500)
      +                          *(8000000ul/4000.0)));
  6179   00092A  0E06               	movlw	6
  6180   00092C  0100               	movlb	0	; () banked
  6181   00092E  6FCC               	movwf	(??_password_confirmation+1)& (0+255),b
  6182   000930  0E13               	movlw	19
  6183   000932  6FCB               	movwf	??_password_confirmation& (0+255),b
  6184   000934  0EAD               	movlw	173
  6185   000936                     u13637:
  6186   000936  2EE8               	decfsz	wreg,f,c
  6187   000938  D7FE               	bra	u13637
  6188   00093A  2FCB               	decfsz	??_password_confirmation& (0+255),f,b
  6189   00093C  D7FC               	bra	u13637
  6190   00093E  2FCC               	decfsz	(??_password_confirmation+1)& (0+255),f,b
  6191   000940  D7FA               	bra	u13637
  6192   000942  D000               	nop2	
  6193   000944  EF24  F003         	goto	l11705
  6194   000948                     l11773:
  6195                           
  6196                           ; BSR set to: 0
  6197   000948  0E2F               	movlw	47
  6198   00094A  19AB               	xorwf	_keypad_value& (0+255),w,b
  6199   00094C  B4D8               	btfsc	status,2,c
  6200   00094E  EFAB  F004         	goto	u11381
  6201   000952  EFAD  F004         	goto	u11380
  6202   000956                     u11381:
  6203   000956  EFC8  F004         	goto	l11781
  6204   00095A                     u11380:
  6205   00095A                     
  6206                           ; BSR set to: 0
  6207   00095A  0E2A               	movlw	42
  6208   00095C  19AB               	xorwf	_keypad_value& (0+255),w,b
  6209   00095E  B4D8               	btfsc	status,2,c
  6210   000960  EFB4  F004         	goto	u11391
  6211   000964  EFB6  F004         	goto	u11390
  6212   000968                     u11391:
  6213   000968  EFC8  F004         	goto	l11781
  6214   00096C                     u11390:
  6215   00096C                     
  6216                           ; BSR set to: 0
  6217   00096C  0E2B               	movlw	43
  6218   00096E  19AB               	xorwf	_keypad_value& (0+255),w,b
  6219   000970  B4D8               	btfsc	status,2,c
  6220   000972  EFBD  F004         	goto	u11401
  6221   000976  EFBF  F004         	goto	u11400
  6222   00097A                     u11401:
  6223   00097A  EFC8  F004         	goto	l11781
  6224   00097E                     u11400:
  6225   00097E                     
  6226                           ; BSR set to: 0
  6227   00097E  0E2D               	movlw	45
  6228   000980  19AB               	xorwf	_keypad_value& (0+255),w,b
  6229   000982  A4D8               	btfss	status,2,c
  6230   000984  EFC6  F004         	goto	u11411
  6231   000988  EFC8  F004         	goto	u11410
  6232   00098C                     u11411:
  6233   00098C  EFFD  F004         	goto	l11787
  6234   000990                     u11410:
  6235   000990                     l11781:
  6236                           
  6237                           ; BSR set to: 0
  6238                           ;Helper_functions/helper_fn.c: 160:                     lcd_4bit_send_string_pos(&lcd1,4
      +                          ,1,"Unavailable process ");
  6239   000990  0E4C               	movlw	low _lcd1
  6240   000992  6FC0               	movwf	lcd_4bit_send_string_pos@lcd& (0+255),b
  6241   000994  0E04               	movlw	4
  6242   000996  6FC1               	movwf	lcd_4bit_send_string_pos@row& (0+255),b
  6243   000998  0E01               	movlw	1
  6244   00099A  6FC2               	movwf	lcd_4bit_send_string_pos@column& (0+255),b
  6245   00099C  0E40               	movlw	low STR_11
  6246   00099E  6FC3               	movwf	lcd_4bit_send_string_pos@str& (0+255),b
  6247   0009A0  0EFF               	movlw	high STR_11
  6248   0009A2  6FC4               	movwf	(lcd_4bit_send_string_pos@str+1)& (0+255),b
  6249   0009A4  EC78  F014         	call	_lcd_4bit_send_string_pos	;wreg free
  6250   0009A8                     
  6251                           ;Helper_functions/helper_fn.c: 161:                      _delay((unsigned long)((500)*(8
      +                          000000ul/4000.0)));
  6252   0009A8  0E06               	movlw	6
  6253   0009AA  0100               	movlb	0	; () banked
  6254   0009AC  6FCC               	movwf	(??_password_confirmation+1)& (0+255),b
  6255   0009AE  0E13               	movlw	19
  6256   0009B0  6FCB               	movwf	??_password_confirmation& (0+255),b
  6257   0009B2  0EAD               	movlw	173
  6258   0009B4                     u13647:
  6259   0009B4  2EE8               	decfsz	wreg,f,c
  6260   0009B6  D7FE               	bra	u13647
  6261   0009B8  2FCB               	decfsz	??_password_confirmation& (0+255),f,b
  6262   0009BA  D7FC               	bra	u13647
  6263   0009BC  2FCC               	decfsz	(??_password_confirmation+1)& (0+255),f,b
  6264   0009BE  D7FA               	bra	u13647
  6265   0009C0  D000               	nop2	
  6266   0009C2                     
  6267                           ;Helper_functions/helper_fn.c: 162:                     lcd_4bit_send_string_pos(&lcd1,4
      +                          ,1,"                     ");
  6268   0009C2  0E4C               	movlw	low _lcd1
  6269   0009C4  0100               	movlb	0	; () banked
  6270   0009C6  6FC0               	movwf	lcd_4bit_send_string_pos@lcd& (0+255),b
  6271   0009C8  0E04               	movlw	4
  6272   0009CA  6FC1               	movwf	lcd_4bit_send_string_pos@row& (0+255),b
  6273   0009CC  0E01               	movlw	1
  6274   0009CE  6FC2               	movwf	lcd_4bit_send_string_pos@column& (0+255),b
  6275   0009D0  0EFF               	movlw	low STR_12
  6276   0009D2  6FC3               	movwf	lcd_4bit_send_string_pos@str& (0+255),b
  6277   0009D4  0EFE               	movlw	high STR_12
  6278   0009D6  6FC4               	movwf	(lcd_4bit_send_string_pos@str+1)& (0+255),b
  6279   0009D8  EC78  F014         	call	_lcd_4bit_send_string_pos	;wreg free
  6280                           
  6281                           ;Helper_functions/helper_fn.c: 163:                     _delay((unsigned long)((500)*(80
      +                          00000ul/4000.0)));
  6282   0009DC  0E06               	movlw	6
  6283   0009DE  0100               	movlb	0	; () banked
  6284   0009E0  6FCC               	movwf	(??_password_confirmation+1)& (0+255),b
  6285   0009E2  0E13               	movlw	19
  6286   0009E4  6FCB               	movwf	??_password_confirmation& (0+255),b
  6287   0009E6  0EAD               	movlw	173
  6288   0009E8                     u13657:
  6289   0009E8  2EE8               	decfsz	wreg,f,c
  6290   0009EA  D7FE               	bra	u13657
  6291   0009EC  2FCB               	decfsz	??_password_confirmation& (0+255),f,b
  6292   0009EE  D7FC               	bra	u13657
  6293   0009F0  2FCC               	decfsz	(??_password_confirmation+1)& (0+255),f,b
  6294   0009F2  D7FA               	bra	u13657
  6295   0009F4  D000               	nop2	
  6296                           
  6297                           ;Helper_functions/helper_fn.c: 164:                 }
  6298   0009F6  EF24  F003         	goto	l11705
  6299   0009FA                     l11787:
  6300                           
  6301                           ; BSR set to: 0
  6302                           ;Helper_functions/helper_fn.c: 166:             if(counter < 8){
  6303   0009FA  0E08               	movlw	8
  6304   0009FC  61CF               	cpfslt	password_confirmation@counter& (0+255),b
  6305   0009FE  EF03  F005         	goto	u11421
  6306   000A02  EF05  F005         	goto	u11420
  6307   000A06                     u11421:
  6308   000A06  EF31  F005         	goto	l11801
  6309   000A0A                     u11420:
  6310   000A0A                     
  6311                           ; BSR set to: 0
  6312                           ;Helper_functions/helper_fn.c: 167:                         pass_confirm[counter] = keyp
      +                          ad_value;
  6313   000A0A  51C8               	movf	password_confirmation@pass_confirm& (0+255),w,b
  6314   000A0C  25CF               	addwf	password_confirmation@counter& (0+255),w,b
  6315   000A0E  6ED9               	movwf	fsr2l,c
  6316   000A10  6ADA               	clrf	fsr2h,c
  6317   000A12  C0AB  FFDF         	movff	_keypad_value,indf2
  6318   000A16                     
  6319                           ; BSR set to: 0
  6320                           ;Helper_functions/helper_fn.c: 168:                         lcd_4bit_send_char_data_pos(
      +                          &lcd1,3,lcd_counter,keypad_value);
  6321   000A16  0E4C               	movlw	low _lcd1
  6322   000A18  6FC0               	movwf	lcd_4bit_send_char_data_pos@lcd& (0+255),b
  6323   000A1A  0E03               	movlw	3
  6324   000A1C  6FC1               	movwf	lcd_4bit_send_char_data_pos@row& (0+255),b
  6325   000A1E  C0CD  F0C2         	movff	password_confirmation@lcd_counter,lcd_4bit_send_char_data_pos@column
  6326   000A22  C0AB  F0C3         	movff	_keypad_value,lcd_4bit_send_char_data_pos@data
  6327   000A26  ECD3  F019         	call	_lcd_4bit_send_char_data_pos	;wreg free
  6328   000A2A                     
  6329                           ;Helper_functions/helper_fn.c: 169:                         _delay((unsigned long)((200)
      +                          *(8000000ul/4000.0)));
  6330   000A2A  0E03               	movlw	3
  6331   000A2C  0100               	movlb	0	; () banked
  6332   000A2E  6FCC               	movwf	(??_password_confirmation+1)& (0+255),b
  6333   000A30  0E08               	movlw	8
  6334   000A32  6FCB               	movwf	??_password_confirmation& (0+255),b
  6335   000A34  0E77               	movlw	119
  6336   000A36                     u13667:
  6337   000A36  2EE8               	decfsz	wreg,f,c
  6338   000A38  D7FE               	bra	u13667
  6339   000A3A  2FCB               	decfsz	??_password_confirmation& (0+255),f,b
  6340   000A3C  D7FC               	bra	u13667
  6341   000A3E  2FCC               	decfsz	(??_password_confirmation+1)& (0+255),f,b
  6342   000A40  D7FA               	bra	u13667
  6343   000A42                     
  6344                           ;Helper_functions/helper_fn.c: 170:                         lcd_4bit_send_char_data_pos(
      +                          &lcd1,3,lcd_counter,'*');
  6345   000A42  0E4C               	movlw	low _lcd1
  6346   000A44  0100               	movlb	0	; () banked
  6347   000A46  6FC0               	movwf	lcd_4bit_send_char_data_pos@lcd& (0+255),b
  6348   000A48  0E03               	movlw	3
  6349   000A4A  6FC1               	movwf	lcd_4bit_send_char_data_pos@row& (0+255),b
  6350   000A4C  C0CD  F0C2         	movff	password_confirmation@lcd_counter,lcd_4bit_send_char_data_pos@column
  6351   000A50  0E2A               	movlw	42
  6352   000A52  6FC3               	movwf	lcd_4bit_send_char_data_pos@data& (0+255),b
  6353   000A54  ECD3  F019         	call	_lcd_4bit_send_char_data_pos	;wreg free
  6354   000A58                     
  6355                           ;Helper_functions/helper_fn.c: 171:                         counter++;
  6356   000A58  0100               	movlb	0	; () banked
  6357   000A5A  2BCF               	incf	password_confirmation@counter& (0+255),f,b
  6358   000A5C                     
  6359                           ; BSR set to: 0
  6360                           ;Helper_functions/helper_fn.c: 172:                         lcd_counter++;
  6361   000A5C  2BCD               	incf	password_confirmation@lcd_counter& (0+255),f,b
  6362                           
  6363                           ;Helper_functions/helper_fn.c: 173:             }
  6364   000A5E  EF24  F003         	goto	l11705
  6365   000A62                     l11801:
  6366                           
  6367                           ; BSR set to: 0
  6368                           ;Helper_functions/helper_fn.c: 175:                 lcd_4bit_send_string_pos(&lcd1,4,1,"
      +                          max 8 digits ");
  6369   000A62  0E4C               	movlw	low _lcd1
  6370   000A64  6FC0               	movwf	lcd_4bit_send_string_pos@lcd& (0+255),b
  6371   000A66  0E04               	movlw	4
  6372   000A68  6FC1               	movwf	lcd_4bit_send_string_pos@row& (0+255),b
  6373   000A6A  0E01               	movlw	1
  6374   000A6C  6FC2               	movwf	lcd_4bit_send_string_pos@column& (0+255),b
  6375   000A6E  0EDD               	movlw	low STR_26
  6376   000A70  6FC3               	movwf	lcd_4bit_send_string_pos@str& (0+255),b
  6377   000A72  0EFF               	movlw	high STR_26
  6378   000A74  6FC4               	movwf	(lcd_4bit_send_string_pos@str+1)& (0+255),b
  6379   000A76  EC78  F014         	call	_lcd_4bit_send_string_pos	;wreg free
  6380   000A7A                     
  6381                           ;Helper_functions/helper_fn.c: 176:                  _delay((unsigned long)((500)*(80000
      +                          00ul/4000.0)));
  6382   000A7A  0E06               	movlw	6
  6383   000A7C  0100               	movlb	0	; () banked
  6384   000A7E  6FCC               	movwf	(??_password_confirmation+1)& (0+255),b
  6385   000A80  0E13               	movlw	19
  6386   000A82  6FCB               	movwf	??_password_confirmation& (0+255),b
  6387   000A84  0EAD               	movlw	173
  6388   000A86                     u13677:
  6389   000A86  2EE8               	decfsz	wreg,f,c
  6390   000A88  D7FE               	bra	u13677
  6391   000A8A  2FCB               	decfsz	??_password_confirmation& (0+255),f,b
  6392   000A8C  D7FC               	bra	u13677
  6393   000A8E  2FCC               	decfsz	(??_password_confirmation+1)& (0+255),f,b
  6394   000A90  D7FA               	bra	u13677
  6395   000A92  D000               	nop2	
  6396   000A94                     
  6397                           ;Helper_functions/helper_fn.c: 177:                 lcd_4bit_send_string_pos(&lcd1,4,1,"
      +                                               ");
  6398   000A94  0E4C               	movlw	low _lcd1
  6399   000A96  0100               	movlb	0	; () banked
  6400   000A98  6FC0               	movwf	lcd_4bit_send_string_pos@lcd& (0+255),b
  6401   000A9A  0E04               	movlw	4
  6402   000A9C  6FC1               	movwf	lcd_4bit_send_string_pos@row& (0+255),b
  6403   000A9E  0E01               	movlw	1
  6404   000AA0  6FC2               	movwf	lcd_4bit_send_string_pos@column& (0+255),b
  6405   000AA2  0EFF               	movlw	low STR_12
  6406   000AA4  6FC3               	movwf	lcd_4bit_send_string_pos@str& (0+255),b
  6407   000AA6  0EFE               	movlw	high STR_12
  6408   000AA8  6FC4               	movwf	(lcd_4bit_send_string_pos@str+1)& (0+255),b
  6409   000AAA  EC78  F014         	call	_lcd_4bit_send_string_pos	;wreg free
  6410                           
  6411                           ;Helper_functions/helper_fn.c: 178:                  _delay((unsigned long)((500)*(80000
      +                          00ul/4000.0)));
  6412   000AAE  0E06               	movlw	6
  6413   000AB0  0100               	movlb	0	; () banked
  6414   000AB2  6FCC               	movwf	(??_password_confirmation+1)& (0+255),b
  6415   000AB4  0E13               	movlw	19
  6416   000AB6  6FCB               	movwf	??_password_confirmation& (0+255),b
  6417   000AB8  0EAD               	movlw	173
  6418   000ABA                     u13687:
  6419   000ABA  2EE8               	decfsz	wreg,f,c
  6420   000ABC  D7FE               	bra	u13687
  6421   000ABE  2FCB               	decfsz	??_password_confirmation& (0+255),f,b
  6422   000AC0  D7FC               	bra	u13687
  6423   000AC2  2FCC               	decfsz	(??_password_confirmation+1)& (0+255),f,b
  6424   000AC4  D7FA               	bra	u13687
  6425   000AC6  D000               	nop2	
  6426   000AC8  EF24  F003         	goto	l11705
  6427   000ACC                     l1044:
  6428   000ACC  0012               	return		;funcret
  6429   000ACE                     __end_of_password_confirmation:
  6430                           	callstack 0
  6431                           
  6432 ;; *************** function _save_password *****************
  6433 ;; Defined at:
  6434 ;;		line 389 in file "Helper_functions/helper_fn.c"
  6435 ;; Parameters:    Size  Location     Type
  6436 ;;  pass            1    4[BANK0 ] PTR unsigned char 
  6437 ;;		 -> password(8), 
  6438 ;; Auto vars:     Size  Location     Type
  6439 ;;  counter         1    5[BANK0 ] unsigned char 
  6440 ;; Return value:  Size  Location     Type
  6441 ;;                  1    wreg      void 
  6442 ;; Registers used:
  6443 ;;		wreg, fsr2l, fsr2h, status,2, status,0, cstack
  6444 ;; Tracked objects:
  6445 ;;		On entry : 0/0
  6446 ;;		On exit  : 0/0
  6447 ;;		Unchanged: 0/0
  6448 ;; Data sizes:     COMRAM   BANK0   BANK1   BANK2   BANK3   BANK4   BANK5   BANK6   BANK7   BANK8   BANK9  BANK10  BANK1
      +1  BANK12  BANK13  BANK14  BANK15
  6449 ;;      Params:         0       1       0       0       0       0       0       0       0       0       0       0       
      +0       0       0       0       0
  6450 ;;      Locals:         0       1       0       0       0       0       0       0       0       0       0       0       
      +0       0       0       0       0
  6451 ;;      Temps:          0       0       0       0       0       0       0       0       0       0       0       0       
      +0       0       0       0       0
  6452 ;;      Totals:         0       2       0       0       0       0       0       0       0       0       0       0       
      +0       0       0       0       0
  6453 ;;Total ram usage:        2 bytes
  6454 ;; Hardware stack levels used: 1
  6455 ;; Hardware stack levels required when called: 9
  6456 ;; This function calls:
  6457 ;;		_Data_EEPROM_WriteByte
  6458 ;; This function is called by:
  6459 ;;		_password_confirmation
  6460 ;; This function uses a non-reentrant model
  6461 ;;
  6462                           
  6463                           	psect	text20
  6464   00328A                     __ptext20:
  6465                           	callstack 0
  6466   00328A                     _save_password:
  6467                           	callstack 20
  6468   00328A                     
  6469                           ;Helper_functions/helper_fn.c: 390:     uint8 counter = 0;
  6470   00328A  0E00               	movlw	0
  6471   00328C  0100               	movlb	0	; () banked
  6472   00328E  6FB1               	movwf	save_password@counter& (0+255),b
  6473                           
  6474                           ;Helper_functions/helper_fn.c: 391:     counter = 0;
  6475   003290  0E00               	movlw	0
  6476   003292  6FB1               	movwf	save_password@counter& (0+255),b
  6477                           
  6478                           ;Helper_functions/helper_fn.c: 392:     while(pass[counter]){
  6479   003294  EF5C  F019         	goto	l11505
  6480   003298                     l11501:
  6481                           
  6482                           ; BSR set to: 0
  6483                           ;Helper_functions/helper_fn.c: 393:         Data_EEPROM_WriteByte(0x03f8 + counter,pass[
      +                          counter]);
  6484   003298  0EF8               	movlw	248
  6485   00329A  25B1               	addwf	save_password@counter& (0+255),w,b
  6486   00329C  6FAC               	movwf	Data_EEPROM_WriteByte@badd& (0+255),b
  6487   00329E  6BAD               	clrf	(Data_EEPROM_WriteByte@badd+1)& (0+255),b
  6488   0032A0  0E03               	movlw	3
  6489   0032A2  23AD               	addwfc	(Data_EEPROM_WriteByte@badd+1)& (0+255),f,b
  6490   0032A4  51B0               	movf	save_password@pass& (0+255),w,b
  6491   0032A6  25B1               	addwf	save_password@counter& (0+255),w,b
  6492   0032A8  6ED9               	movwf	fsr2l,c
  6493   0032AA  6ADA               	clrf	fsr2h,c
  6494   0032AC  50DF               	movf	indf2,w,c
  6495   0032AE  6FAE               	movwf	Data_EEPROM_WriteByte@bData& (0+255),b
  6496   0032B0  EC69  F019         	call	_Data_EEPROM_WriteByte	;wreg free
  6497   0032B4                     
  6498                           ;Helper_functions/helper_fn.c: 394:         counter++;
  6499   0032B4  0100               	movlb	0	; () banked
  6500   0032B6  2BB1               	incf	save_password@counter& (0+255),f,b
  6501   0032B8                     l11505:
  6502                           
  6503                           ; BSR set to: 0
  6504                           ;Helper_functions/helper_fn.c: 392:     while(pass[counter]){
  6505   0032B8  51B0               	movf	save_password@pass& (0+255),w,b
  6506   0032BA  25B1               	addwf	save_password@counter& (0+255),w,b
  6507   0032BC  6ED9               	movwf	fsr2l,c
  6508   0032BE  6ADA               	clrf	fsr2h,c
  6509   0032C0  50DF               	movf	indf2,w,c
  6510   0032C2  A4D8               	btfss	status,2,c
  6511   0032C4  EF66  F019         	goto	u11101
  6512   0032C8  EF68  F019         	goto	u11100
  6513   0032CC                     u11101:
  6514   0032CC  EF4C  F019         	goto	l11501
  6515   0032D0                     u11100:
  6516   0032D0                     
  6517                           ; BSR set to: 0
  6518   0032D0  0012               	return		;funcret
  6519   0032D2                     __end_of_save_password:
  6520                           	callstack 0
  6521                           
  6522 ;; *************** function _Data_EEPROM_WriteByte *****************
  6523 ;; Defined at:
  6524 ;;		line 10 in file "MCAL_layer/EEPROM/hal_eeprom.c"
  6525 ;; Parameters:    Size  Location     Type
  6526 ;;  badd            2    0[BANK0 ] unsigned short 
  6527 ;;  bData           1    2[BANK0 ] unsigned char 
  6528 ;; Auto vars:     Size  Location     Type
  6529 ;;  GLOBAL_INTER    1    3[BANK0 ] unsigned char 
  6530 ;;  ret             1    0        unsigned char 
  6531 ;; Return value:  Size  Location     Type
  6532 ;;                  1    wreg      unsigned char 
  6533 ;; Registers used:
  6534 ;;		wreg, status,2, status,0
  6535 ;; Tracked objects:
  6536 ;;		On entry : 0/0
  6537 ;;		On exit  : 0/0
  6538 ;;		Unchanged: 0/0
  6539 ;; Data sizes:     COMRAM   BANK0   BANK1   BANK2   BANK3   BANK4   BANK5   BANK6   BANK7   BANK8   BANK9  BANK10  BANK1
      +1  BANK12  BANK13  BANK14  BANK15
  6540 ;;      Params:         0       3       0       0       0       0       0       0       0       0       0       0       
      +0       0       0       0       0
  6541 ;;      Locals:         0       1       0       0       0       0       0       0       0       0       0       0       
      +0       0       0       0       0
  6542 ;;      Temps:          0       0       0       0       0       0       0       0       0       0       0       0       
      +0       0       0       0       0
  6543 ;;      Totals:         0       4       0       0       0       0       0       0       0       0       0       0       
      +0       0       0       0       0
  6544 ;;Total ram usage:        4 bytes
  6545 ;; Hardware stack levels used: 1
  6546 ;; Hardware stack levels required when called: 8
  6547 ;; This function calls:
  6548 ;;		Nothing
  6549 ;; This function is called by:
  6550 ;;		_save_password
  6551 ;; This function uses a non-reentrant model
  6552 ;;
  6553                           
  6554                           	psect	text21
  6555   0032D2                     __ptext21:
  6556                           	callstack 0
  6557   0032D2                     _Data_EEPROM_WriteByte:
  6558                           	callstack 20
  6559   0032D2                     
  6560                           ;MCAL_layer/EEPROM/hal_eeprom.c: 14:     uint8 GLOBAL_INTERRUPT_STATUS = INTCONbits.GIE;
  6561   0032D2  0E00               	movlw	0
  6562   0032D4  BEF2               	btfsc	242,7,c	;volatile
  6563   0032D6  0E01               	movlw	1
  6564   0032D8  0100               	movlb	0	; () banked
  6565   0032DA  6FAF               	movwf	Data_EEPROM_WriteByte@GLOBAL_INTERRUPT_STATUS& (0+255),b
  6566   0032DC                     
  6567                           ; BSR set to: 0
  6568                           ;MCAL_layer/EEPROM/hal_eeprom.c: 16:     EEADRH = (uint8)((badd >> 8) & 0x03) ;
  6569   0032DC  51AD               	movf	(Data_EEPROM_WriteByte@badd+1)& (0+255),w,b
  6570   0032DE  0B03               	andlw	3
  6571   0032E0  6EAA               	movwf	170,c	;volatile
  6572   0032E2                     
  6573                           ; BSR set to: 0
  6574                           ;MCAL_layer/EEPROM/hal_eeprom.c: 17:     EEADR = (uint8)(badd & 0xFF) ;
  6575   0032E2  C0AC  FFA9         	movff	Data_EEPROM_WriteByte@badd,4009	;volatile
  6576   0032E6                     
  6577                           ; BSR set to: 0
  6578                           ;MCAL_layer/EEPROM/hal_eeprom.c: 19:     EEDATA = bData;
  6579   0032E6  C0AE  FFA8         	movff	Data_EEPROM_WriteByte@bData,4008	;volatile
  6580   0032EA                     
  6581                           ; BSR set to: 0
  6582                           ;MCAL_layer/EEPROM/hal_eeprom.c: 21:     EECON1bits.EEPGD = 0;
  6583   0032EA  9EA6               	bcf	166,7,c	;volsfr
  6584   0032EC                     
  6585                           ; BSR set to: 0
  6586                           ;MCAL_layer/EEPROM/hal_eeprom.c: 22:     EECON1bits.CFGS = 0;
  6587   0032EC  9CA6               	bcf	166,6,c	;volsfr
  6588   0032EE                     
  6589                           ; BSR set to: 0
  6590                           ;MCAL_layer/EEPROM/hal_eeprom.c: 24:     EECON1bits.WREN = 1;
  6591   0032EE  84A6               	bsf	166,2,c	;volsfr
  6592   0032F0                     
  6593                           ; BSR set to: 0
  6594                           ;MCAL_layer/EEPROM/hal_eeprom.c: 26:     (INTCONbits.GIE = 0);
  6595   0032F0  9EF2               	bcf	242,7,c	;volatile
  6596   0032F2                     
  6597                           ; BSR set to: 0
  6598                           ;MCAL_layer/EEPROM/hal_eeprom.c: 28:     EECON2 = 0x55;
  6599   0032F2  0E55               	movlw	85
  6600   0032F4  6EA7               	movwf	167,c	;volsfr
  6601   0032F6                     
  6602                           ; BSR set to: 0
  6603                           ;MCAL_layer/EEPROM/hal_eeprom.c: 29:     EECON2 = 0xAA;
  6604   0032F6  0EAA               	movlw	170
  6605   0032F8  6EA7               	movwf	167,c	;volsfr
  6606   0032FA                     
  6607                           ; BSR set to: 0
  6608                           ;MCAL_layer/EEPROM/hal_eeprom.c: 31:     EECON1bits.WR = 1;
  6609   0032FA  82A6               	bsf	166,1,c	;volsfr
  6610   0032FC                     l382:
  6611                           
  6612                           ;MCAL_layer/EEPROM/hal_eeprom.c: 33:     while(EECON1bits.WR){
  6613   0032FC  B2A6               	btfsc	166,1,c	;volsfr
  6614   0032FE  EF83  F019         	goto	u10821
  6615   003302  EF85  F019         	goto	u10820
  6616   003306                     u10821:
  6617   003306  EF7E  F019         	goto	l382
  6618   00330A                     u10820:
  6619   00330A                     
  6620                           ;MCAL_layer/EEPROM/hal_eeprom.c: 37:     EECON1bits.WREN = 0;
  6621   00330A  94A6               	bcf	166,2,c	;volsfr
  6622                           
  6623                           ;MCAL_layer/EEPROM/hal_eeprom.c: 39:     INTCONbits.GIE = GLOBAL_INTERRUPT_STATUS;
  6624   00330C  0100               	movlb	0	; () banked
  6625   00330E  B1AF               	btfsc	Data_EEPROM_WriteByte@GLOBAL_INTERRUPT_STATUS& (0+255),0,b
  6626   003310  D002               	bra	u10835
  6627   003312  9EF2               	bcf	242,7,c	;volatile
  6628   003314  D001               	bra	u10836
  6629   003316                     u10835:
  6630   003316  8EF2               	bsf	242,7,c	;volatile
  6631   003318                     u10836:
  6632   003318  0012               	return		;funcret
  6633   00331A                     __end_of_Data_EEPROM_WriteByte:
  6634                           	callstack 0
  6635                           
  6636 ;; *************** function _comparing_password *****************
  6637 ;; Defined at:
  6638 ;;		line 398 in file "Helper_functions/helper_fn.c"
  6639 ;; Parameters:    Size  Location     Type
  6640 ;;  pass            1    0[BANK0 ] PTR unsigned char 
  6641 ;;		 -> password(8), 
  6642 ;;  pass_digits     2    1[BANK0 ] PTR unsigned char 
  6643 ;;		 -> RAM(4095), pass_num_digits(1), 
  6644 ;;  pass_confirm    1    3[BANK0 ] PTR unsigned char 
  6645 ;;		 -> password_confirm(8), 
  6646 ;;  pass_confirm    2    4[BANK0 ] PTR unsigned char 
  6647 ;;		 -> RAM(4095), pass_confirm_num_digits(1), 
  6648 ;;  result          1    6[BANK0 ] PTR unsigned char 
  6649 ;;		 -> password_confirmation@comparing_result(1), 
  6650 ;; Auto vars:     Size  Location     Type
  6651 ;;  comparing_co    1    9[BANK0 ] unsigned char 
  6652 ;; Return value:  Size  Location     Type
  6653 ;;                  1    wreg      void 
  6654 ;; Registers used:
  6655 ;;		wreg, fsr1l, fsr1h, fsr2l, fsr2h, status,2, status,0
  6656 ;; Tracked objects:
  6657 ;;		On entry : 0/0
  6658 ;;		On exit  : 0/0
  6659 ;;		Unchanged: 0/0
  6660 ;; Data sizes:     COMRAM   BANK0   BANK1   BANK2   BANK3   BANK4   BANK5   BANK6   BANK7   BANK8   BANK9  BANK10  BANK1
      +1  BANK12  BANK13  BANK14  BANK15
  6661 ;;      Params:         0       7       0       0       0       0       0       0       0       0       0       0       
      +0       0       0       0       0
  6662 ;;      Locals:         0       1       0       0       0       0       0       0       0       0       0       0       
      +0       0       0       0       0
  6663 ;;      Temps:          0       2       0       0       0       0       0       0       0       0       0       0       
      +0       0       0       0       0
  6664 ;;      Totals:         0      10       0       0       0       0       0       0       0       0       0       0       
      +0       0       0       0       0
  6665 ;;Total ram usage:       10 bytes
  6666 ;; Hardware stack levels used: 1
  6667 ;; Hardware stack levels required when called: 8
  6668 ;; This function calls:
  6669 ;;		Nothing
  6670 ;; This function is called by:
  6671 ;;		_password_confirmation
  6672 ;; This function uses a non-reentrant model
  6673 ;;
  6674                           
  6675                           	psect	text22
  6676   002A9C                     __ptext22:
  6677                           	callstack 0
  6678   002A9C                     _comparing_password:
  6679                           	callstack 21
  6680   002A9C                     
  6681                           ;Helper_functions/helper_fn.c: 399: uint8 comparing_counter = 0;
  6682   002A9C  0E00               	movlw	0
  6683   002A9E  0100               	movlb	0	; () banked
  6684   002AA0  6FB5               	movwf	comparing_password@comparing_counter& (0+255),b
  6685   002AA2                     
  6686                           ; BSR set to: 0
  6687                           ;Helper_functions/helper_fn.c: 400: *result = 1;
  6688   002AA2  51B2               	movf	comparing_password@result& (0+255),w,b
  6689   002AA4  6ED9               	movwf	fsr2l,c
  6690   002AA6  6ADA               	clrf	fsr2h,c
  6691   002AA8  0E01               	movlw	1
  6692   002AAA  6EDF               	movwf	indf2,c
  6693   002AAC                     
  6694                           ; BSR set to: 0
  6695                           ;Helper_functions/helper_fn.c: 401:     if(*pass_digits == *pass_confirm_digits){
  6696   002AAC  C0B0  FFD9         	movff	comparing_password@pass_confirm_digits,fsr2l
  6697   002AB0  C0B1  FFDA         	movff	comparing_password@pass_confirm_digits+1,fsr2h
  6698   002AB4  C0AD  FFE1         	movff	comparing_password@pass_digits,fsr1l
  6699   002AB8  C0AE  FFE2         	movff	comparing_password@pass_digits+1,fsr1h
  6700   002ABC  50DE               	movf	postinc2,w,c
  6701   002ABE  18E6               	xorwf	postinc1,w,c
  6702   002AC0  A4D8               	btfss	status,2,c
  6703   002AC2  EF65  F015         	goto	u11071
  6704   002AC6  EF67  F015         	goto	u11070
  6705   002ACA                     u11071:
  6706   002ACA  EF7D  F015         	goto	l11493
  6707   002ACE                     u11070:
  6708   002ACE  EF83  F015         	goto	l11495
  6709   002AD2                     l11489:
  6710                           
  6711                           ; BSR set to: 0
  6712                           ;Helper_functions/helper_fn.c: 403:             if(pass[comparing_counter] == pass_confi
      +                          rm[comparing_counter]){
  6713   002AD2  51AF               	movf	comparing_password@pass_confirm& (0+255),w,b
  6714   002AD4  25B5               	addwf	comparing_password@comparing_counter& (0+255),w,b
  6715   002AD6  6ED9               	movwf	fsr2l,c
  6716   002AD8  6ADA               	clrf	fsr2h,c
  6717   002ADA  51AC               	movf	comparing_password@pass& (0+255),w,b
  6718   002ADC  25B5               	addwf	comparing_password@comparing_counter& (0+255),w,b
  6719   002ADE  6EE1               	movwf	fsr1l,c
  6720   002AE0  6AE2               	clrf	fsr1h,c
  6721   002AE2  50DE               	movf	postinc2,w,c
  6722   002AE4  18E6               	xorwf	postinc1,w,c
  6723   002AE6  A4D8               	btfss	status,2,c
  6724   002AE8  EF78  F015         	goto	u11081
  6725   002AEC  EF7A  F015         	goto	u11080
  6726   002AF0                     u11081:
  6727   002AF0  EF7D  F015         	goto	l11493
  6728   002AF4                     u11080:
  6729   002AF4                     
  6730                           ; BSR set to: 0
  6731                           ;Helper_functions/helper_fn.c: 404:                 comparing_counter++;
  6732   002AF4  2BB5               	incf	comparing_password@comparing_counter& (0+255),f,b
  6733                           
  6734                           ;Helper_functions/helper_fn.c: 405:             }
  6735   002AF6  EF83  F015         	goto	l11495
  6736   002AFA                     l11493:
  6737                           
  6738                           ; BSR set to: 0
  6739                           ;Helper_functions/helper_fn.c: 407:                 *result = 0;
  6740   002AFA  51B2               	movf	comparing_password@result& (0+255),w,b
  6741   002AFC  6ED9               	movwf	fsr2l,c
  6742   002AFE  6ADA               	clrf	fsr2h,c
  6743   002B00  6ADF               	clrf	indf2,c
  6744                           
  6745                           ;Helper_functions/helper_fn.c: 408:                 break;
  6746   002B02  EF90  F015         	goto	l1113
  6747   002B06                     l11495:
  6748                           
  6749                           ; BSR set to: 0
  6750                           ;Helper_functions/helper_fn.c: 402:         while((*pass_digits)--){
  6751   002B06  C0AD  FFD9         	movff	comparing_password@pass_digits,fsr2l
  6752   002B0A  C0AE  FFDA         	movff	comparing_password@pass_digits+1,fsr2h
  6753   002B0E  06DF               	decf	indf2,f,c
  6754   002B10  28DE               	incf	postinc2,w,c
  6755   002B12  A4D8               	btfss	status,2,c
  6756   002B14  EF8E  F015         	goto	u11091
  6757   002B18  EF90  F015         	goto	u11090
  6758   002B1C                     u11091:
  6759   002B1C  EF69  F015         	goto	l11489
  6760   002B20                     u11090:
  6761   002B20                     l1113:
  6762                           
  6763                           ; BSR set to: 0
  6764   002B20  0012               	return		;funcret
  6765   002B22                     __end_of_comparing_password:
  6766                           	callstack 0
  6767                           
  6768 ;; *************** function _get_password *****************
  6769 ;; Defined at:
  6770 ;;		line 29 in file "Helper_functions/helper_fn.c"
  6771 ;; Parameters:    Size  Location     Type
  6772 ;;  pass            1   25[BANK0 ] PTR unsigned char 
  6773 ;;		 -> password(8), 
  6774 ;;  pass_didits     2   26[BANK0 ] PTR unsigned char 
  6775 ;;		 -> RAM(4095), pass_num_digits(1), 
  6776 ;; Auto vars:     Size  Location     Type
  6777 ;;  counter         1   31[BANK0 ] unsigned char 
  6778 ;;  lcd_counter     1   30[BANK0 ] unsigned char 
  6779 ;; Return value:  Size  Location     Type
  6780 ;;                  1    wreg      void 
  6781 ;; Registers used:
  6782 ;;		wreg, fsr0l, fsr0h, fsr1l, fsr1h, fsr2l, fsr2h, status,2, status,0, tblptrl, tblptrh, tblptru, prodl, prodh, cstack
  6783 ;; Tracked objects:
  6784 ;;		On entry : 0/0
  6785 ;;		On exit  : 0/0
  6786 ;;		Unchanged: 0/0
  6787 ;; Data sizes:     COMRAM   BANK0   BANK1   BANK2   BANK3   BANK4   BANK5   BANK6   BANK7   BANK8   BANK9  BANK10  BANK1
      +1  BANK12  BANK13  BANK14  BANK15
  6788 ;;      Params:         0       3       0       0       0       0       0       0       0       0       0       0       
      +0       0       0       0       0
  6789 ;;      Locals:         0       2       0       0       0       0       0       0       0       0       0       0       
      +0       0       0       0       0
  6790 ;;      Temps:          0       2       0       0       0       0       0       0       0       0       0       0       
      +0       0       0       0       0
  6791 ;;      Totals:         0       7       0       0       0       0       0       0       0       0       0       0       
      +0       0       0       0       0
  6792 ;;Total ram usage:        7 bytes
  6793 ;; Hardware stack levels used: 1
  6794 ;; Hardware stack levels required when called: 13
  6795 ;; This function calls:
  6796 ;;		_ecu_keypad_get_value
  6797 ;;		_lcd_4bit_send_char_data_pos
  6798 ;;		_lcd_4bit_send_command
  6799 ;;		_lcd_4bit_send_string_pos
  6800 ;; This function is called by:
  6801 ;;		_main
  6802 ;;		_change_password
  6803 ;; This function uses a non-reentrant model
  6804 ;;
  6805                           
  6806                           	psect	text23
  6807   0012EA                     __ptext23:
  6808                           	callstack 0
  6809   0012EA                     _get_password:
  6810                           	callstack 17
  6811   0012EA                     
  6812                           ;Helper_functions/helper_fn.c: 30:    keypad_value = 0;
  6813   0012EA  0E00               	movlw	0
  6814   0012EC  0100               	movlb	0	; () banked
  6815   0012EE  6FAB               	movwf	_keypad_value& (0+255),b
  6816                           
  6817                           ;Helper_functions/helper_fn.c: 31:    uint8 counter = 0;
  6818   0012F0  0E00               	movlw	0
  6819   0012F2  6FCB               	movwf	get_password@counter& (0+255),b
  6820                           
  6821                           ;Helper_functions/helper_fn.c: 32:    uint8 lcd_counter = 2;
  6822   0012F4  0E02               	movlw	2
  6823   0012F6  6FCA               	movwf	get_password@lcd_counter& (0+255),b
  6824   0012F8                     
  6825                           ; BSR set to: 0
  6826                           ;Helper_functions/helper_fn.c: 34:     lcd_4bit_send_command(&lcd1,0x01);
  6827   0012F8  0E4C               	movlw	low _lcd1
  6828   0012FA  6FB7               	movwf	lcd_4bit_send_command@lcd& (0+255),b
  6829   0012FC  0E01               	movlw	1
  6830   0012FE  6FB8               	movwf	lcd_4bit_send_command@command& (0+255),b
  6831   001300  EC51  F017         	call	_lcd_4bit_send_command	;wreg free
  6832   001304                     
  6833                           ;Helper_functions/helper_fn.c: 35:     _delay((unsigned long)((20)*(8000000ul/4000.0)));
  6834   001304  0E34               	movlw	52
  6835   001306  0100               	movlb	0	; () banked
  6836   001308  6FC8               	movwf	??_get_password& (0+255),b
  6837   00130A  0EF1               	movlw	241
  6838   00130C                     u13697:
  6839   00130C  2EE8               	decfsz	wreg,f,c
  6840   00130E  D7FE               	bra	u13697
  6841   001310  2FC8               	decfsz	??_get_password& (0+255),f,b
  6842   001312  D7FC               	bra	u13697
  6843   001314  D000               	nop2	
  6844   001316                     l11617:
  6845                           
  6846                           ;Helper_functions/helper_fn.c: 39:         lcd_4bit_send_string_pos(&lcd1,2,1,"The passw
      +                          ord ");
  6847   001316  0E4C               	movlw	low _lcd1
  6848   001318  0100               	movlb	0	; () banked
  6849   00131A  6FC0               	movwf	lcd_4bit_send_string_pos@lcd& (0+255),b
  6850   00131C  0E02               	movlw	2
  6851   00131E  6FC1               	movwf	lcd_4bit_send_string_pos@row& (0+255),b
  6852   001320  0E01               	movlw	1
  6853   001322  6FC2               	movwf	lcd_4bit_send_string_pos@column& (0+255),b
  6854   001324  0EF1               	movlw	low (STR_28+8)
  6855   001326  6FC3               	movwf	lcd_4bit_send_string_pos@str& (0+255),b
  6856   001328  0EFE               	movlw	high (STR_28+8)
  6857   00132A  6FC4               	movwf	(lcd_4bit_send_string_pos@str+1)& (0+255),b
  6858   00132C  EC78  F014         	call	_lcd_4bit_send_string_pos	;wreg free
  6859   001330                     
  6860                           ;Helper_functions/helper_fn.c: 40:         lcd_4bit_send_string_pos(&lcd1,3,1,":");
  6861   001330  0E4C               	movlw	low _lcd1
  6862   001332  0100               	movlb	0	; () banked
  6863   001334  6FC0               	movwf	lcd_4bit_send_string_pos@lcd& (0+255),b
  6864   001336  0E03               	movlw	3
  6865   001338  6FC1               	movwf	lcd_4bit_send_string_pos@row& (0+255),b
  6866   00133A  0E01               	movlw	1
  6867   00133C  6FC2               	movwf	lcd_4bit_send_string_pos@column& (0+255),b
  6868   00133E  0EF9               	movlw	low STR_19
  6869   001340  6FC3               	movwf	lcd_4bit_send_string_pos@str& (0+255),b
  6870   001342  0EFF               	movlw	high STR_19
  6871   001344  6FC4               	movwf	(lcd_4bit_send_string_pos@str+1)& (0+255),b
  6872   001346  EC78  F014         	call	_lcd_4bit_send_string_pos	;wreg free
  6873   00134A                     l11621:
  6874                           
  6875                           ;Helper_functions/helper_fn.c: 43:         ecu_keypad_get_value(&keypad,&keypad_value);
  6876   00134A  0EED               	movlw	low _keypad
  6877   00134C  0100               	movlb	0	; () banked
  6878   00134E  6FB4               	movwf	ecu_keypad_get_value@keypad& (0+255),b
  6879   001350  0EAB               	movlw	low _keypad_value
  6880   001352  6FB5               	movwf	ecu_keypad_get_value@value& (0+255),b
  6881   001354  EC28  F011         	call	_ecu_keypad_get_value	;wreg free
  6882   001358                     
  6883                           ;Helper_functions/helper_fn.c: 44:         _delay((unsigned long)((125)*(8000000ul/4000.
      +                          0)));
  6884   001358  0E02               	movlw	2
  6885   00135A  0100               	movlb	0	; () banked
  6886   00135C  6FC9               	movwf	(??_get_password+1)& (0+255),b
  6887   00135E  0E45               	movlw	69
  6888   001360  6FC8               	movwf	??_get_password& (0+255),b
  6889   001362  0EA9               	movlw	169
  6890   001364                     u13707:
  6891   001364  2EE8               	decfsz	wreg,f,c
  6892   001366  D7FE               	bra	u13707
  6893   001368  2FC8               	decfsz	??_get_password& (0+255),f,b
  6894   00136A  D7FC               	bra	u13707
  6895   00136C  2FC9               	decfsz	(??_get_password+1)& (0+255),f,b
  6896   00136E  D7FA               	bra	u13707
  6897   001370  D000               	nop2	
  6898   001372                     
  6899                           ;Helper_functions/helper_fn.c: 45:         }while(keypad_value == 0 );
  6900   001372  0100               	movlb	0	; () banked
  6901   001374  51AB               	movf	_keypad_value& (0+255),w,b
  6902   001376  B4D8               	btfsc	status,2,c
  6903   001378  EFC0  F009         	goto	u11201
  6904   00137C  EFC2  F009         	goto	u11200
  6905   001380                     u11201:
  6906   001380  EFA5  F009         	goto	l11621
  6907   001384                     u11200:
  6908   001384                     
  6909                           ; BSR set to: 0
  6910                           ;Helper_functions/helper_fn.c: 47:         if(keypad_value == '#' && pass[0] == '\0'){
  6911   001384  0E23               	movlw	35
  6912   001386  19AB               	xorwf	_keypad_value& (0+255),w,b
  6913   001388  A4D8               	btfss	status,2,c
  6914   00138A  EFC9  F009         	goto	u11211
  6915   00138E  EFCB  F009         	goto	u11210
  6916   001392                     u11211:
  6917   001392  EF0B  F00A         	goto	l11637
  6918   001396                     u11210:
  6919   001396                     
  6920                           ; BSR set to: 0
  6921   001396  51C5               	movf	get_password@pass& (0+255),w,b
  6922   001398  6ED9               	movwf	fsr2l,c
  6923   00139A  6ADA               	clrf	fsr2h,c
  6924   00139C  50DF               	movf	indf2,w,c
  6925   00139E  A4D8               	btfss	status,2,c
  6926   0013A0  EFD4  F009         	goto	u11221
  6927   0013A4  EFD6  F009         	goto	u11220
  6928   0013A8                     u11221:
  6929   0013A8  EF0B  F00A         	goto	l11637
  6930   0013AC                     u11220:
  6931   0013AC                     
  6932                           ; BSR set to: 0
  6933                           ;Helper_functions/helper_fn.c: 48:             lcd_4bit_send_string_pos(&lcd1,4,1,"Unava
      +                          ilable process ");
  6934   0013AC  0E4C               	movlw	low _lcd1
  6935   0013AE  6FC0               	movwf	lcd_4bit_send_string_pos@lcd& (0+255),b
  6936   0013B0  0E04               	movlw	4
  6937   0013B2  6FC1               	movwf	lcd_4bit_send_string_pos@row& (0+255),b
  6938   0013B4  0E01               	movlw	1
  6939   0013B6  6FC2               	movwf	lcd_4bit_send_string_pos@column& (0+255),b
  6940   0013B8  0E40               	movlw	low STR_11
  6941   0013BA  6FC3               	movwf	lcd_4bit_send_string_pos@str& (0+255),b
  6942   0013BC  0EFF               	movlw	high STR_11
  6943   0013BE  6FC4               	movwf	(lcd_4bit_send_string_pos@str+1)& (0+255),b
  6944   0013C0  EC78  F014         	call	_lcd_4bit_send_string_pos	;wreg free
  6945   0013C4                     
  6946                           ;Helper_functions/helper_fn.c: 49:                  _delay((unsigned long)((500)*(800000
      +                          0ul/4000.0)));
  6947   0013C4  0E06               	movlw	6
  6948   0013C6  0100               	movlb	0	; () banked
  6949   0013C8  6FC9               	movwf	(??_get_password+1)& (0+255),b
  6950   0013CA  0E13               	movlw	19
  6951   0013CC  6FC8               	movwf	??_get_password& (0+255),b
  6952   0013CE  0EAD               	movlw	173
  6953   0013D0                     u13717:
  6954   0013D0  2EE8               	decfsz	wreg,f,c
  6955   0013D2  D7FE               	bra	u13717
  6956   0013D4  2FC8               	decfsz	??_get_password& (0+255),f,b
  6957   0013D6  D7FC               	bra	u13717
  6958   0013D8  2FC9               	decfsz	(??_get_password+1)& (0+255),f,b
  6959   0013DA  D7FA               	bra	u13717
  6960   0013DC  D000               	nop2	
  6961   0013DE                     
  6962                           ;Helper_functions/helper_fn.c: 50:                 lcd_4bit_send_string_pos(&lcd1,4,1," 
      +                                              ");
  6963   0013DE  0E4C               	movlw	low _lcd1
  6964   0013E0  0100               	movlb	0	; () banked
  6965   0013E2  6FC0               	movwf	lcd_4bit_send_string_pos@lcd& (0+255),b
  6966   0013E4  0E04               	movlw	4
  6967   0013E6  6FC1               	movwf	lcd_4bit_send_string_pos@row& (0+255),b
  6968   0013E8  0E01               	movlw	1
  6969   0013EA  6FC2               	movwf	lcd_4bit_send_string_pos@column& (0+255),b
  6970   0013EC  0EFF               	movlw	low STR_12
  6971   0013EE  6FC3               	movwf	lcd_4bit_send_string_pos@str& (0+255),b
  6972   0013F0  0EFE               	movlw	high STR_12
  6973   0013F2  6FC4               	movwf	(lcd_4bit_send_string_pos@str+1)& (0+255),b
  6974   0013F4  EC78  F014         	call	_lcd_4bit_send_string_pos	;wreg free
  6975                           
  6976                           ;Helper_functions/helper_fn.c: 51:                 _delay((unsigned long)((500)*(8000000
      +                          ul/4000.0)));
  6977   0013F8  0E06               	movlw	6
  6978   0013FA  0100               	movlb	0	; () banked
  6979   0013FC  6FC9               	movwf	(??_get_password+1)& (0+255),b
  6980   0013FE  0E13               	movlw	19
  6981   001400  6FC8               	movwf	??_get_password& (0+255),b
  6982   001402  0EAD               	movlw	173
  6983   001404                     u13727:
  6984   001404  2EE8               	decfsz	wreg,f,c
  6985   001406  D7FE               	bra	u13727
  6986   001408  2FC8               	decfsz	??_get_password& (0+255),f,b
  6987   00140A  D7FC               	bra	u13727
  6988   00140C  2FC9               	decfsz	(??_get_password+1)& (0+255),f,b
  6989   00140E  D7FA               	bra	u13727
  6990   001410  D000               	nop2	
  6991                           
  6992                           ;Helper_functions/helper_fn.c: 52:         }
  6993   001412  EF8B  F009         	goto	l11617
  6994   001416                     l11637:
  6995                           
  6996                           ; BSR set to: 0
  6997   001416  0E23               	movlw	35
  6998   001418  19AB               	xorwf	_keypad_value& (0+255),w,b
  6999   00141A  A4D8               	btfss	status,2,c
  7000   00141C  EF12  F00A         	goto	u11231
  7001   001420  EF14  F00A         	goto	u11230
  7002   001424                     u11231:
  7003   001424  EF27  F00A         	goto	l11647
  7004   001428                     u11230:
  7005   001428                     
  7006                           ; BSR set to: 0
  7007                           ;Helper_functions/helper_fn.c: 54:                 counter--;
  7008   001428  07CB               	decf	get_password@counter& (0+255),f,b
  7009   00142A                     
  7010                           ; BSR set to: 0
  7011                           ;Helper_functions/helper_fn.c: 55:                 pass[counter] = '\0';
  7012   00142A  51C5               	movf	get_password@pass& (0+255),w,b
  7013   00142C  25CB               	addwf	get_password@counter& (0+255),w,b
  7014   00142E  6ED9               	movwf	fsr2l,c
  7015   001430  6ADA               	clrf	fsr2h,c
  7016   001432  6ADF               	clrf	indf2,c
  7017   001434                     
  7018                           ; BSR set to: 0
  7019                           ;Helper_functions/helper_fn.c: 56:                 lcd_counter--;
  7020   001434  07CA               	decf	get_password@lcd_counter& (0+255),f,b
  7021   001436                     
  7022                           ; BSR set to: 0
  7023                           ;Helper_functions/helper_fn.c: 57:                 lcd_4bit_send_char_data_pos(&lcd1,3,l
      +                          cd_counter,' ');
  7024   001436  0E4C               	movlw	low _lcd1
  7025   001438  6FC0               	movwf	lcd_4bit_send_char_data_pos@lcd& (0+255),b
  7026   00143A  0E03               	movlw	3
  7027   00143C  6FC1               	movwf	lcd_4bit_send_char_data_pos@row& (0+255),b
  7028   00143E  C0CA  F0C2         	movff	get_password@lcd_counter,lcd_4bit_send_char_data_pos@column
  7029   001442  0E20               	movlw	32
  7030   001444  6FC3               	movwf	lcd_4bit_send_char_data_pos@data& (0+255),b
  7031   001446  ECD3  F019         	call	_lcd_4bit_send_char_data_pos	;wreg free
  7032                           
  7033                           ;Helper_functions/helper_fn.c: 58:             }
  7034   00144A  EF8B  F009         	goto	l11617
  7035   00144E                     l11647:
  7036                           
  7037                           ; BSR set to: 0
  7038   00144E  0E3D               	movlw	61
  7039   001450  19AB               	xorwf	_keypad_value& (0+255),w,b
  7040   001452  A4D8               	btfss	status,2,c
  7041   001454  EF2E  F00A         	goto	u11241
  7042   001458  EF30  F00A         	goto	u11240
  7043   00145C                     u11241:
  7044   00145C  EF84  F00A         	goto	l11665
  7045   001460                     u11240:
  7046   001460                     
  7047                           ; BSR set to: 0
  7048                           ;Helper_functions/helper_fn.c: 60:                 if(counter <= 3){
  7049   001460  0E04               	movlw	4
  7050   001462  61CB               	cpfslt	get_password@counter& (0+255),b
  7051   001464  EF36  F00A         	goto	u11251
  7052   001468  EF38  F00A         	goto	u11250
  7053   00146C                     u11251:
  7054   00146C  EF6D  F00A         	goto	l11657
  7055   001470                     u11250:
  7056   001470                     
  7057                           ; BSR set to: 0
  7058                           ;Helper_functions/helper_fn.c: 61:                      lcd_4bit_send_string_pos(&lcd1,4
      +                          ,1,"min 4 digits ");
  7059   001470  0E4C               	movlw	low _lcd1
  7060   001472  6FC0               	movwf	lcd_4bit_send_string_pos@lcd& (0+255),b
  7061   001474  0E04               	movlw	4
  7062   001476  6FC1               	movwf	lcd_4bit_send_string_pos@row& (0+255),b
  7063   001478  0E01               	movlw	1
  7064   00147A  6FC2               	movwf	lcd_4bit_send_string_pos@column& (0+255),b
  7065   00147C  0ECF               	movlw	low STR_22
  7066   00147E  6FC3               	movwf	lcd_4bit_send_string_pos@str& (0+255),b
  7067   001480  0EFF               	movlw	high STR_22
  7068   001482  6FC4               	movwf	(lcd_4bit_send_string_pos@str+1)& (0+255),b
  7069   001484  EC78  F014         	call	_lcd_4bit_send_string_pos	;wreg free
  7070   001488                     
  7071                           ;Helper_functions/helper_fn.c: 62:                     _delay((unsigned long)((500)*(800
      +                          0000ul/4000.0)));
  7072   001488  0E06               	movlw	6
  7073   00148A  0100               	movlb	0	; () banked
  7074   00148C  6FC9               	movwf	(??_get_password+1)& (0+255),b
  7075   00148E  0E13               	movlw	19
  7076   001490  6FC8               	movwf	??_get_password& (0+255),b
  7077   001492  0EAD               	movlw	173
  7078   001494                     u13737:
  7079   001494  2EE8               	decfsz	wreg,f,c
  7080   001496  D7FE               	bra	u13737
  7081   001498  2FC8               	decfsz	??_get_password& (0+255),f,b
  7082   00149A  D7FC               	bra	u13737
  7083   00149C  2FC9               	decfsz	(??_get_password+1)& (0+255),f,b
  7084   00149E  D7FA               	bra	u13737
  7085   0014A0  D000               	nop2	
  7086   0014A2                     
  7087                           ;Helper_functions/helper_fn.c: 63:                     lcd_4bit_send_string_pos(&lcd1,4,
      +                          1,"                     ");
  7088   0014A2  0E4C               	movlw	low _lcd1
  7089   0014A4  0100               	movlb	0	; () banked
  7090   0014A6  6FC0               	movwf	lcd_4bit_send_string_pos@lcd& (0+255),b
  7091   0014A8  0E04               	movlw	4
  7092   0014AA  6FC1               	movwf	lcd_4bit_send_string_pos@row& (0+255),b
  7093   0014AC  0E01               	movlw	1
  7094   0014AE  6FC2               	movwf	lcd_4bit_send_string_pos@column& (0+255),b
  7095   0014B0  0EFF               	movlw	low STR_12
  7096   0014B2  6FC3               	movwf	lcd_4bit_send_string_pos@str& (0+255),b
  7097   0014B4  0EFE               	movlw	high STR_12
  7098   0014B6  6FC4               	movwf	(lcd_4bit_send_string_pos@str+1)& (0+255),b
  7099   0014B8  EC78  F014         	call	_lcd_4bit_send_string_pos	;wreg free
  7100                           
  7101                           ;Helper_functions/helper_fn.c: 64:                     _delay((unsigned long)((500)*(800
      +                          0000ul/4000.0)));
  7102   0014BC  0E06               	movlw	6
  7103   0014BE  0100               	movlb	0	; () banked
  7104   0014C0  6FC9               	movwf	(??_get_password+1)& (0+255),b
  7105   0014C2  0E13               	movlw	19
  7106   0014C4  6FC8               	movwf	??_get_password& (0+255),b
  7107   0014C6  0EAD               	movlw	173
  7108   0014C8                     u13747:
  7109   0014C8  2EE8               	decfsz	wreg,f,c
  7110   0014CA  D7FE               	bra	u13747
  7111   0014CC  2FC8               	decfsz	??_get_password& (0+255),f,b
  7112   0014CE  D7FC               	bra	u13747
  7113   0014D0  2FC9               	decfsz	(??_get_password+1)& (0+255),f,b
  7114   0014D2  D7FA               	bra	u13747
  7115   0014D4  D000               	nop2	
  7116                           
  7117                           ;Helper_functions/helper_fn.c: 65:                 }
  7118   0014D6  EF8B  F009         	goto	l11617
  7119   0014DA                     l11657:
  7120                           
  7121                           ; BSR set to: 0
  7122                           ;Helper_functions/helper_fn.c: 67:                     *pass_didits = counter;
  7123   0014DA  C0C6  FFD9         	movff	get_password@pass_didits,fsr2l
  7124   0014DE  C0C7  FFDA         	movff	get_password@pass_didits+1,fsr2h
  7125   0014E2  C0CB  FFDF         	movff	get_password@counter,indf2
  7126   0014E6                     
  7127                           ; BSR set to: 0
  7128                           ;Helper_functions/helper_fn.c: 68:                    lcd_4bit_send_command(&lcd1,0x01);
  7129   0014E6  0E4C               	movlw	low _lcd1
  7130   0014E8  6FB7               	movwf	lcd_4bit_send_command@lcd& (0+255),b
  7131   0014EA  0E01               	movlw	1
  7132   0014EC  6FB8               	movwf	lcd_4bit_send_command@command& (0+255),b
  7133   0014EE  EC51  F017         	call	_lcd_4bit_send_command	;wreg free
  7134   0014F2                     
  7135                           ;Helper_functions/helper_fn.c: 69:                     _delay((unsigned long)((20)*(8000
      +                          000ul/4000.0)));
  7136   0014F2  0E34               	movlw	52
  7137   0014F4  0100               	movlb	0	; () banked
  7138   0014F6  6FC8               	movwf	??_get_password& (0+255),b
  7139   0014F8  0EF1               	movlw	241
  7140   0014FA                     u13757:
  7141   0014FA  2EE8               	decfsz	wreg,f,c
  7142   0014FC  D7FE               	bra	u13757
  7143   0014FE  2FC8               	decfsz	??_get_password& (0+255),f,b
  7144   001500  D7FC               	bra	u13757
  7145   001502  D000               	nop2	
  7146   001504  EF46  F00B         	goto	l1011
  7147   001508                     l11665:
  7148                           
  7149                           ; BSR set to: 0
  7150   001508  0E2F               	movlw	47
  7151   00150A  19AB               	xorwf	_keypad_value& (0+255),w,b
  7152   00150C  B4D8               	btfsc	status,2,c
  7153   00150E  EF8B  F00A         	goto	u11261
  7154   001512  EF8D  F00A         	goto	u11260
  7155   001516                     u11261:
  7156   001516  EFA8  F00A         	goto	l11673
  7157   00151A                     u11260:
  7158   00151A                     
  7159                           ; BSR set to: 0
  7160   00151A  0E2A               	movlw	42
  7161   00151C  19AB               	xorwf	_keypad_value& (0+255),w,b
  7162   00151E  B4D8               	btfsc	status,2,c
  7163   001520  EF94  F00A         	goto	u11271
  7164   001524  EF96  F00A         	goto	u11270
  7165   001528                     u11271:
  7166   001528  EFA8  F00A         	goto	l11673
  7167   00152C                     u11270:
  7168   00152C                     
  7169                           ; BSR set to: 0
  7170   00152C  0E2B               	movlw	43
  7171   00152E  19AB               	xorwf	_keypad_value& (0+255),w,b
  7172   001530  B4D8               	btfsc	status,2,c
  7173   001532  EF9D  F00A         	goto	u11281
  7174   001536  EF9F  F00A         	goto	u11280
  7175   00153A                     u11281:
  7176   00153A  EFA8  F00A         	goto	l11673
  7177   00153E                     u11280:
  7178   00153E                     
  7179                           ; BSR set to: 0
  7180   00153E  0E2D               	movlw	45
  7181   001540  19AB               	xorwf	_keypad_value& (0+255),w,b
  7182   001542  A4D8               	btfss	status,2,c
  7183   001544  EFA6  F00A         	goto	u11291
  7184   001548  EFA8  F00A         	goto	u11290
  7185   00154C                     u11291:
  7186   00154C  EFDD  F00A         	goto	l11679
  7187   001550                     u11290:
  7188   001550                     l11673:
  7189                           
  7190                           ; BSR set to: 0
  7191                           ;Helper_functions/helper_fn.c: 74:                     lcd_4bit_send_string_pos(&lcd1,4,
      +                          1,"Unavailable process ");
  7192   001550  0E4C               	movlw	low _lcd1
  7193   001552  6FC0               	movwf	lcd_4bit_send_string_pos@lcd& (0+255),b
  7194   001554  0E04               	movlw	4
  7195   001556  6FC1               	movwf	lcd_4bit_send_string_pos@row& (0+255),b
  7196   001558  0E01               	movlw	1
  7197   00155A  6FC2               	movwf	lcd_4bit_send_string_pos@column& (0+255),b
  7198   00155C  0E40               	movlw	low STR_11
  7199   00155E  6FC3               	movwf	lcd_4bit_send_string_pos@str& (0+255),b
  7200   001560  0EFF               	movlw	high STR_11
  7201   001562  6FC4               	movwf	(lcd_4bit_send_string_pos@str+1)& (0+255),b
  7202   001564  EC78  F014         	call	_lcd_4bit_send_string_pos	;wreg free
  7203   001568                     
  7204                           ;Helper_functions/helper_fn.c: 75:                      _delay((unsigned long)((500)*(80
      +                          00000ul/4000.0)));
  7205   001568  0E06               	movlw	6
  7206   00156A  0100               	movlb	0	; () banked
  7207   00156C  6FC9               	movwf	(??_get_password+1)& (0+255),b
  7208   00156E  0E13               	movlw	19
  7209   001570  6FC8               	movwf	??_get_password& (0+255),b
  7210   001572  0EAD               	movlw	173
  7211   001574                     u13767:
  7212   001574  2EE8               	decfsz	wreg,f,c
  7213   001576  D7FE               	bra	u13767
  7214   001578  2FC8               	decfsz	??_get_password& (0+255),f,b
  7215   00157A  D7FC               	bra	u13767
  7216   00157C  2FC9               	decfsz	(??_get_password+1)& (0+255),f,b
  7217   00157E  D7FA               	bra	u13767
  7218   001580  D000               	nop2	
  7219   001582                     
  7220                           ;Helper_functions/helper_fn.c: 76:                     lcd_4bit_send_string_pos(&lcd1,4,
      +                          1,"                     ");
  7221   001582  0E4C               	movlw	low _lcd1
  7222   001584  0100               	movlb	0	; () banked
  7223   001586  6FC0               	movwf	lcd_4bit_send_string_pos@lcd& (0+255),b
  7224   001588  0E04               	movlw	4
  7225   00158A  6FC1               	movwf	lcd_4bit_send_string_pos@row& (0+255),b
  7226   00158C  0E01               	movlw	1
  7227   00158E  6FC2               	movwf	lcd_4bit_send_string_pos@column& (0+255),b
  7228   001590  0EFF               	movlw	low STR_12
  7229   001592  6FC3               	movwf	lcd_4bit_send_string_pos@str& (0+255),b
  7230   001594  0EFE               	movlw	high STR_12
  7231   001596  6FC4               	movwf	(lcd_4bit_send_string_pos@str+1)& (0+255),b
  7232   001598  EC78  F014         	call	_lcd_4bit_send_string_pos	;wreg free
  7233                           
  7234                           ;Helper_functions/helper_fn.c: 77:                     _delay((unsigned long)((500)*(800
      +                          0000ul/4000.0)));
  7235   00159C  0E06               	movlw	6
  7236   00159E  0100               	movlb	0	; () banked
  7237   0015A0  6FC9               	movwf	(??_get_password+1)& (0+255),b
  7238   0015A2  0E13               	movlw	19
  7239   0015A4  6FC8               	movwf	??_get_password& (0+255),b
  7240   0015A6  0EAD               	movlw	173
  7241   0015A8                     u13777:
  7242   0015A8  2EE8               	decfsz	wreg,f,c
  7243   0015AA  D7FE               	bra	u13777
  7244   0015AC  2FC8               	decfsz	??_get_password& (0+255),f,b
  7245   0015AE  D7FC               	bra	u13777
  7246   0015B0  2FC9               	decfsz	(??_get_password+1)& (0+255),f,b
  7247   0015B2  D7FA               	bra	u13777
  7248   0015B4  D000               	nop2	
  7249                           
  7250                           ;Helper_functions/helper_fn.c: 78:                 }
  7251   0015B6  EF8B  F009         	goto	l11617
  7252   0015BA                     l11679:
  7253                           
  7254                           ; BSR set to: 0
  7255                           ;Helper_functions/helper_fn.c: 80:             if(counter < 8){
  7256   0015BA  0E08               	movlw	8
  7257   0015BC  61CB               	cpfslt	get_password@counter& (0+255),b
  7258   0015BE  EFE3  F00A         	goto	u11301
  7259   0015C2  EFE5  F00A         	goto	u11300
  7260   0015C6                     u11301:
  7261   0015C6  EF11  F00B         	goto	l11693
  7262   0015CA                     u11300:
  7263   0015CA                     
  7264                           ; BSR set to: 0
  7265                           ;Helper_functions/helper_fn.c: 81:                         pass[counter] = keypad_value;
  7266   0015CA  51C5               	movf	get_password@pass& (0+255),w,b
  7267   0015CC  25CB               	addwf	get_password@counter& (0+255),w,b
  7268   0015CE  6ED9               	movwf	fsr2l,c
  7269   0015D0  6ADA               	clrf	fsr2h,c
  7270   0015D2  C0AB  FFDF         	movff	_keypad_value,indf2
  7271   0015D6                     
  7272                           ; BSR set to: 0
  7273                           ;Helper_functions/helper_fn.c: 82:                         lcd_4bit_send_char_data_pos(&
      +                          lcd1,3,lcd_counter,keypad_value);
  7274   0015D6  0E4C               	movlw	low _lcd1
  7275   0015D8  6FC0               	movwf	lcd_4bit_send_char_data_pos@lcd& (0+255),b
  7276   0015DA  0E03               	movlw	3
  7277   0015DC  6FC1               	movwf	lcd_4bit_send_char_data_pos@row& (0+255),b
  7278   0015DE  C0CA  F0C2         	movff	get_password@lcd_counter,lcd_4bit_send_char_data_pos@column
  7279   0015E2  C0AB  F0C3         	movff	_keypad_value,lcd_4bit_send_char_data_pos@data
  7280   0015E6  ECD3  F019         	call	_lcd_4bit_send_char_data_pos	;wreg free
  7281   0015EA                     
  7282                           ;Helper_functions/helper_fn.c: 83:                         _delay((unsigned long)((200)*
      +                          (8000000ul/4000.0)));
  7283   0015EA  0E03               	movlw	3
  7284   0015EC  0100               	movlb	0	; () banked
  7285   0015EE  6FC9               	movwf	(??_get_password+1)& (0+255),b
  7286   0015F0  0E08               	movlw	8
  7287   0015F2  6FC8               	movwf	??_get_password& (0+255),b
  7288   0015F4  0E77               	movlw	119
  7289   0015F6                     u13787:
  7290   0015F6  2EE8               	decfsz	wreg,f,c
  7291   0015F8  D7FE               	bra	u13787
  7292   0015FA  2FC8               	decfsz	??_get_password& (0+255),f,b
  7293   0015FC  D7FC               	bra	u13787
  7294   0015FE  2FC9               	decfsz	(??_get_password+1)& (0+255),f,b
  7295   001600  D7FA               	bra	u13787
  7296   001602                     
  7297                           ;Helper_functions/helper_fn.c: 84:                         lcd_4bit_send_char_data_pos(&
      +                          lcd1,3,lcd_counter,'*');
  7298   001602  0E4C               	movlw	low _lcd1
  7299   001604  0100               	movlb	0	; () banked
  7300   001606  6FC0               	movwf	lcd_4bit_send_char_data_pos@lcd& (0+255),b
  7301   001608  0E03               	movlw	3
  7302   00160A  6FC1               	movwf	lcd_4bit_send_char_data_pos@row& (0+255),b
  7303   00160C  C0CA  F0C2         	movff	get_password@lcd_counter,lcd_4bit_send_char_data_pos@column
  7304   001610  0E2A               	movlw	42
  7305   001612  6FC3               	movwf	lcd_4bit_send_char_data_pos@data& (0+255),b
  7306   001614  ECD3  F019         	call	_lcd_4bit_send_char_data_pos	;wreg free
  7307   001618                     
  7308                           ;Helper_functions/helper_fn.c: 85:                         counter++;
  7309   001618  0100               	movlb	0	; () banked
  7310   00161A  2BCB               	incf	get_password@counter& (0+255),f,b
  7311   00161C                     
  7312                           ; BSR set to: 0
  7313                           ;Helper_functions/helper_fn.c: 86:                         lcd_counter++;
  7314   00161C  2BCA               	incf	get_password@lcd_counter& (0+255),f,b
  7315                           
  7316                           ;Helper_functions/helper_fn.c: 87:             }
  7317   00161E  EF8B  F009         	goto	l11617
  7318   001622                     l11693:
  7319                           
  7320                           ; BSR set to: 0
  7321                           ;Helper_functions/helper_fn.c: 89:                 lcd_4bit_send_string_pos(&lcd1,4,1,"m
      +                          ax 8 digits ");
  7322   001622  0E4C               	movlw	low _lcd1
  7323   001624  6FC0               	movwf	lcd_4bit_send_string_pos@lcd& (0+255),b
  7324   001626  0E04               	movlw	4
  7325   001628  6FC1               	movwf	lcd_4bit_send_string_pos@row& (0+255),b
  7326   00162A  0E01               	movlw	1
  7327   00162C  6FC2               	movwf	lcd_4bit_send_string_pos@column& (0+255),b
  7328   00162E  0EDD               	movlw	low STR_26
  7329   001630  6FC3               	movwf	lcd_4bit_send_string_pos@str& (0+255),b
  7330   001632  0EFF               	movlw	high STR_26
  7331   001634  6FC4               	movwf	(lcd_4bit_send_string_pos@str+1)& (0+255),b
  7332   001636  EC78  F014         	call	_lcd_4bit_send_string_pos	;wreg free
  7333   00163A                     
  7334                           ;Helper_functions/helper_fn.c: 90:                  _delay((unsigned long)((500)*(800000
      +                          0ul/4000.0)));
  7335   00163A  0E06               	movlw	6
  7336   00163C  0100               	movlb	0	; () banked
  7337   00163E  6FC9               	movwf	(??_get_password+1)& (0+255),b
  7338   001640  0E13               	movlw	19
  7339   001642  6FC8               	movwf	??_get_password& (0+255),b
  7340   001644  0EAD               	movlw	173
  7341   001646                     u13797:
  7342   001646  2EE8               	decfsz	wreg,f,c
  7343   001648  D7FE               	bra	u13797
  7344   00164A  2FC8               	decfsz	??_get_password& (0+255),f,b
  7345   00164C  D7FC               	bra	u13797
  7346   00164E  2FC9               	decfsz	(??_get_password+1)& (0+255),f,b
  7347   001650  D7FA               	bra	u13797
  7348   001652  D000               	nop2	
  7349   001654                     
  7350                           ;Helper_functions/helper_fn.c: 91:                 lcd_4bit_send_string_pos(&lcd1,4,1," 
      +                                              ");
  7351   001654  0E4C               	movlw	low _lcd1
  7352   001656  0100               	movlb	0	; () banked
  7353   001658  6FC0               	movwf	lcd_4bit_send_string_pos@lcd& (0+255),b
  7354   00165A  0E04               	movlw	4
  7355   00165C  6FC1               	movwf	lcd_4bit_send_string_pos@row& (0+255),b
  7356   00165E  0E01               	movlw	1
  7357   001660  6FC2               	movwf	lcd_4bit_send_string_pos@column& (0+255),b
  7358   001662  0EFF               	movlw	low STR_12
  7359   001664  6FC3               	movwf	lcd_4bit_send_string_pos@str& (0+255),b
  7360   001666  0EFE               	movlw	high STR_12
  7361   001668  6FC4               	movwf	(lcd_4bit_send_string_pos@str+1)& (0+255),b
  7362   00166A  EC78  F014         	call	_lcd_4bit_send_string_pos	;wreg free
  7363                           
  7364                           ;Helper_functions/helper_fn.c: 92:                  _delay((unsigned long)((500)*(800000
      +                          0ul/4000.0)));
  7365   00166E  0E06               	movlw	6
  7366   001670  0100               	movlb	0	; () banked
  7367   001672  6FC9               	movwf	(??_get_password+1)& (0+255),b
  7368   001674  0E13               	movlw	19
  7369   001676  6FC8               	movwf	??_get_password& (0+255),b
  7370   001678  0EAD               	movlw	173
  7371   00167A                     u13807:
  7372   00167A  2EE8               	decfsz	wreg,f,c
  7373   00167C  D7FE               	bra	u13807
  7374   00167E  2FC8               	decfsz	??_get_password& (0+255),f,b
  7375   001680  D7FC               	bra	u13807
  7376   001682  2FC9               	decfsz	(??_get_password+1)& (0+255),f,b
  7377   001684  D7FA               	bra	u13807
  7378   001686  D000               	nop2	
  7379   001688  EF8B  F009         	goto	l11617
  7380   00168C                     l1011:
  7381   00168C  0012               	return		;funcret
  7382   00168E                     __end_of_get_password:
  7383                           	callstack 0
  7384                           
  7385 ;; *************** function _lcd_4bit_send_string_pos *****************
  7386 ;; Defined at:
  7387 ;;		line 172 in file "ECU_layer/chr_LCD/ecu_chr_LCD.c"
  7388 ;; Parameters:    Size  Location     Type
  7389 ;;  lcd             1   20[BANK0 ] PTR const struct .
  7390 ;;		 -> lcd1(6), 
  7391 ;;  row             1   21[BANK0 ] unsigned char 
  7392 ;;  column          1   22[BANK0 ] unsigned char 
  7393 ;;  str             2   23[BANK0 ] PTR unsigned char 
  7394 ;;		 -> STR_69(22), STR_68(14), STR_67(22), STR_66(21), 
  7395 ;;		 -> STR_65(22), STR_64(16), STR_63(22), STR_62(14), 
  7396 ;;		 -> STR_61(22), STR_60(21), STR_59(2), STR_58(17), 
  7397 ;;		 -> STR_57(22), STR_56(14), STR_55(22), STR_54(21), 
  7398 ;;		 -> STR_53(4), STR_52(22), STR_51(3), entering_password@str(4), 
  7399 ;;		 -> STR_50(16), STR_49(22), STR_48(17), STR_47(22), 
  7400 ;;		 -> STR_46(14), STR_45(22), STR_44(21), STR_43(2), 
  7401 ;;		 -> STR_42(21), STR_41(22), STR_40(14), STR_39(22), 
  7402 ;;		 -> STR_38(21), STR_37(22), STR_36(16), STR_35(22), 
  7403 ;;		 -> STR_34(15), STR_33(22), STR_32(14), STR_31(22), 
  7404 ;;		 -> STR_30(21), STR_29(2), STR_28(22), STR_27(22), 
  7405 ;;		 -> STR_26(14), STR_25(22), STR_24(21), STR_23(22), 
  7406 ;;		 -> STR_22(14), STR_21(22), STR_20(21), STR_19(2), 
  7407 ;;		 -> STR_18(14), STR_17(8), STR_16(22), STR_15(21), 
  7408 ;;		 -> STR_14(19), STR_13(18), STR_12(22), STR_11(21), 
  7409 ;;		 -> STR_10(20), STR_9(2), STR_8(2), STR_7(2), 
  7410 ;;		 -> STR_6(2), STR_5(2), STR_4(22), 
  7411 ;; Auto vars:     Size  Location     Type
  7412 ;;  ret             1    0        unsigned char 
  7413 ;; Return value:  Size  Location     Type
  7414 ;;                  1    wreg      unsigned char 
  7415 ;; Registers used:
  7416 ;;		wreg, fsr0l, fsr0h, fsr2l, fsr2h, status,2, status,0, tblptrl, tblptrh, tblptru, prodl, prodh, cstack
  7417 ;; Tracked objects:
  7418 ;;		On entry : 0/0
  7419 ;;		On exit  : 0/0
  7420 ;;		Unchanged: 0/0
  7421 ;; Data sizes:     COMRAM   BANK0   BANK1   BANK2   BANK3   BANK4   BANK5   BANK6   BANK7   BANK8   BANK9  BANK10  BANK1
      +1  BANK12  BANK13  BANK14  BANK15
  7422 ;;      Params:         0       5       0       0       0       0       0       0       0       0       0       0       
      +0       0       0       0       0
  7423 ;;      Locals:         0       0       0       0       0       0       0       0       0       0       0       0       
      +0       0       0       0       0
  7424 ;;      Temps:          0       0       0       0       0       0       0       0       0       0       0       0       
      +0       0       0       0       0
  7425 ;;      Totals:         0       5       0       0       0       0       0       0       0       0       0       0       
      +0       0       0       0       0
  7426 ;;Total ram usage:        5 bytes
  7427 ;; Hardware stack levels used: 1
  7428 ;; Hardware stack levels required when called: 12
  7429 ;; This function calls:
  7430 ;;		_lcd_4bit_send_char_data
  7431 ;;		_lcd_4bit_set_curser
  7432 ;; This function is called by:
  7433 ;;		_main
  7434 ;;		_welcome_msg
  7435 ;;		_get_password
  7436 ;;		_password_confirmation
  7437 ;;		_entering_password
  7438 ;;		_change_password
  7439 ;; This function uses a non-reentrant model
  7440 ;;
  7441                           
  7442                           	psect	text24
  7443   0028F0                     __ptext24:
  7444                           	callstack 0
  7445   0028F0                     _lcd_4bit_send_string_pos:
  7446                           	callstack 17
  7447   0028F0                     
  7448                           ;ECU_layer/chr_LCD/ecu_chr_LCD.c: 174:     if(((void*)0) == lcd)
  7449   0028F0  0100               	movlb	0	; () banked
  7450   0028F2  51C0               	movf	lcd_4bit_send_string_pos@lcd& (0+255),w,b
  7451   0028F4  A4D8               	btfss	status,2,c
  7452   0028F6  EF7F  F014         	goto	u10891
  7453   0028FA  EF81  F014         	goto	u10890
  7454   0028FE                     u10891:
  7455   0028FE  EF83  F014         	goto	l11329
  7456   002902                     u10890:
  7457   002902                     
  7458                           ; BSR set to: 0
  7459                           ;ECU_layer/chr_LCD/ecu_chr_LCD.c: 177:     }
  7460   002902  EFC0  F014         	goto	l101
  7461   002906                     l11329:
  7462                           
  7463                           ; BSR set to: 0
  7464   002906  C0C0  F0BA         	movff	lcd_4bit_send_string_pos@lcd,lcd_4bit_set_curser@lcd
  7465   00290A  C0C1  F0BB         	movff	lcd_4bit_send_string_pos@row,lcd_4bit_set_curser@row
  7466   00290E  C0C2  F0BC         	movff	lcd_4bit_send_string_pos@column,lcd_4bit_set_curser@column
  7467   002912  EC8A  F013         	call	_lcd_4bit_set_curser	;wreg free
  7468                           
  7469                           ;ECU_layer/chr_LCD/ecu_chr_LCD.c: 181:         while(*str)
  7470   002916  EFA7  F014         	goto	l11335
  7471   00291A                     l11331:
  7472   00291A  C0C0  F0B7         	movff	lcd_4bit_send_string_pos@lcd,lcd_4bit_send_char_data@lcd
  7473   00291E  C0C3  FFF6         	movff	lcd_4bit_send_string_pos@str,tblptrl
  7474   002922  C0C4  FFF7         	movff	lcd_4bit_send_string_pos@str+1,tblptrh
  7475   002926  0E00               	movlw	low (__mediumconst shr (0+16))
  7476   002928  6EF8               	movwf	tblptru,c
  7477   00292A  0E0F               	movlw	(high __ramtop+-1)
  7478   00292C  64F7               	cpfsgt	tblptrh,c
  7479   00292E  D003               	bra	u10907
  7480   002930  0008               	tblrd		*
  7481   002932  50F5               	movf	tablat,w,c
  7482   002934  D005               	bra	u10900
  7483   002936                     u10907:
  7484   002936  CFF6 FFE9          	movff	tblptrl,fsr0l
  7485   00293A  CFF7 FFEA          	movff	tblptrh,fsr0h
  7486   00293E  50EF               	movf	indf0,w,c
  7487   002940                     u10900:
  7488   002940  0100               	movlb	0	; () banked
  7489   002942  6FB8               	movwf	lcd_4bit_send_char_data@data& (0+255),b
  7490   002944  EC1D  F017         	call	_lcd_4bit_send_char_data	;wreg free
  7491   002948  0100               	movlb	0	; () banked
  7492   00294A  4BC3               	infsnz	lcd_4bit_send_string_pos@str& (0+255),f,b
  7493   00294C  2BC4               	incf	(lcd_4bit_send_string_pos@str+1)& (0+255),f,b
  7494   00294E                     l11335:
  7495                           
  7496                           ;ECU_layer/chr_LCD/ecu_chr_LCD.c: 181:         while(*str)
  7497   00294E  C0C3  FFF6         	movff	lcd_4bit_send_string_pos@str,tblptrl
  7498   002952  C0C4  FFF7         	movff	lcd_4bit_send_string_pos@str+1,tblptrh
  7499   002956  0E00               	movlw	low (__mediumconst shr (0+16))
  7500   002958  6EF8               	movwf	tblptru,c
  7501   00295A  0E0F               	movlw	(high __ramtop+-1)
  7502   00295C  64F7               	cpfsgt	tblptrh,c
  7503   00295E  D003               	bra	u10917
  7504   002960  0008               	tblrd		*
  7505   002962  50F5               	movf	tablat,w,c
  7506   002964  D005               	bra	u10910
  7507   002966                     u10917:
  7508   002966  CFF6 FFE9          	movff	tblptrl,fsr0l
  7509   00296A  CFF7 FFEA          	movff	tblptrh,fsr0h
  7510   00296E  50EF               	movf	indf0,w,c
  7511   002970                     u10910:
  7512   002970  0900               	iorlw	0
  7513   002972  A4D8               	btfss	status,2,c
  7514   002974  EFBE  F014         	goto	u10921
  7515   002978  EFC0  F014         	goto	u10920
  7516   00297C                     u10921:
  7517   00297C  EF8D  F014         	goto	l11331
  7518   002980                     u10920:
  7519   002980                     l101:
  7520   002980  0012               	return		;funcret
  7521   002982                     __end_of_lcd_4bit_send_string_pos:
  7522                           	callstack 0
  7523                           
  7524 ;; *************** function _lcd_4bit_send_char_data_pos *****************
  7525 ;; Defined at:
  7526 ;;		line 125 in file "ECU_layer/chr_LCD/ecu_chr_LCD.c"
  7527 ;; Parameters:    Size  Location     Type
  7528 ;;  lcd             1   20[BANK0 ] PTR const struct .
  7529 ;;		 -> lcd1(6), 
  7530 ;;  row             1   21[BANK0 ] unsigned char 
  7531 ;;  column          1   22[BANK0 ] unsigned char 
  7532 ;;  data            1   23[BANK0 ] unsigned char 
  7533 ;; Auto vars:     Size  Location     Type
  7534 ;;  ret             1   24[BANK0 ] unsigned char 
  7535 ;; Return value:  Size  Location     Type
  7536 ;;                  1    wreg      unsigned char 
  7537 ;; Registers used:
  7538 ;;		wreg, fsr2l, fsr2h, status,2, status,0, prodl, prodh, cstack
  7539 ;; Tracked objects:
  7540 ;;		On entry : 0/0
  7541 ;;		On exit  : 0/0
  7542 ;;		Unchanged: 0/0
  7543 ;; Data sizes:     COMRAM   BANK0   BANK1   BANK2   BANK3   BANK4   BANK5   BANK6   BANK7   BANK8   BANK9  BANK10  BANK1
      +1  BANK12  BANK13  BANK14  BANK15
  7544 ;;      Params:         0       4       0       0       0       0       0       0       0       0       0       0       
      +0       0       0       0       0
  7545 ;;      Locals:         0       1       0       0       0       0       0       0       0       0       0       0       
      +0       0       0       0       0
  7546 ;;      Temps:          0       0       0       0       0       0       0       0       0       0       0       0       
      +0       0       0       0       0
  7547 ;;      Totals:         0       5       0       0       0       0       0       0       0       0       0       0       
      +0       0       0       0       0
  7548 ;;Total ram usage:        5 bytes
  7549 ;; Hardware stack levels used: 1
  7550 ;; Hardware stack levels required when called: 12
  7551 ;; This function calls:
  7552 ;;		_lcd_4bit_send_char_data
  7553 ;;		_lcd_4bit_set_curser
  7554 ;; This function is called by:
  7555 ;;		_get_password
  7556 ;;		_password_confirmation
  7557 ;;		_entering_password
  7558 ;;		_change_password
  7559 ;;		_lcd_4bit_send_custome_char
  7560 ;; This function uses a non-reentrant model
  7561 ;;
  7562                           
  7563                           	psect	text25
  7564   0033A6                     __ptext25:
  7565                           	callstack 0
  7566   0033A6                     _lcd_4bit_send_char_data_pos:
  7567                           	callstack 17
  7568   0033A6                     
  7569                           ;ECU_layer/chr_LCD/ecu_chr_LCD.c: 127:     if(((void*)0) == lcd)
  7570   0033A6  0100               	movlb	0	; () banked
  7571   0033A8  51C0               	movf	lcd_4bit_send_char_data_pos@lcd& (0+255),w,b
  7572   0033AA  A4D8               	btfss	status,2,c
  7573   0033AC  EFDA  F019         	goto	u10881
  7574   0033B0  EFDC  F019         	goto	u10880
  7575   0033B4                     u10881:
  7576   0033B4  EFE0  F019         	goto	l11319
  7577   0033B8                     u10880:
  7578   0033B8                     
  7579                           ; BSR set to: 0
  7580                           ;ECU_layer/chr_LCD/ecu_chr_LCD.c: 128:     {;ECU_layer/chr_LCD/ecu_chr_LCD.c: 129:      
      +                             ret = (STD_ReturnType)0x00;
  7581   0033B8  0E00               	movlw	0
  7582   0033BA  6FC4               	movwf	lcd_4bit_send_char_data_pos@ret& (0+255),b
  7583                           
  7584                           ;ECU_layer/chr_LCD/ecu_chr_LCD.c: 130:     }
  7585   0033BC  EFF2  F019         	goto	l11321
  7586   0033C0                     l11319:
  7587                           
  7588                           ; BSR set to: 0
  7589                           ;ECU_layer/chr_LCD/ecu_chr_LCD.c: 132:     {;ECU_layer/chr_LCD/ecu_chr_LCD.c: 133:      
      +                             ret = lcd_4bit_set_curser(lcd,row,column);
  7590   0033C0  C0C0  F0BA         	movff	lcd_4bit_send_char_data_pos@lcd,lcd_4bit_set_curser@lcd
  7591   0033C4  C0C1  F0BB         	movff	lcd_4bit_send_char_data_pos@row,lcd_4bit_set_curser@row
  7592   0033C8  C0C2  F0BC         	movff	lcd_4bit_send_char_data_pos@column,lcd_4bit_set_curser@column
  7593   0033CC  EC8A  F013         	call	_lcd_4bit_set_curser	;wreg free
  7594   0033D0  0100               	movlb	0	; () banked
  7595   0033D2  6FC4               	movwf	lcd_4bit_send_char_data_pos@ret& (0+255),b
  7596                           
  7597                           ;ECU_layer/chr_LCD/ecu_chr_LCD.c: 134:         ret = lcd_4bit_send_char_data(lcd,data);
  7598   0033D4  C0C0  F0B7         	movff	lcd_4bit_send_char_data_pos@lcd,lcd_4bit_send_char_data@lcd
  7599   0033D8  C0C3  F0B8         	movff	lcd_4bit_send_char_data_pos@data,lcd_4bit_send_char_data@data
  7600   0033DC  EC1D  F017         	call	_lcd_4bit_send_char_data	;wreg free
  7601   0033E0  0100               	movlb	0	; () banked
  7602   0033E2  6FC4               	movwf	lcd_4bit_send_char_data_pos@ret& (0+255),b
  7603   0033E4                     l11321:
  7604                           
  7605                           ; BSR set to: 0
  7606                           ;ECU_layer/chr_LCD/ecu_chr_LCD.c: 136:      return ret;
  7607   0033E4  51C4               	movf	lcd_4bit_send_char_data_pos@ret& (0+255),w,b
  7608   0033E6                     
  7609                           ; BSR set to: 0
  7610   0033E6  0012               	return		;funcret
  7611   0033E8                     __end_of_lcd_4bit_send_char_data_pos:
  7612                           	callstack 0
  7613                           
  7614 ;; *************** function _lcd_4bit_set_curser *****************
  7615 ;; Defined at:
  7616 ;;		line 568 in file "ECU_layer/chr_LCD/ecu_chr_LCD.c"
  7617 ;; Parameters:    Size  Location     Type
  7618 ;;  lcd             1   14[BANK0 ] PTR const struct .
  7619 ;;		 -> lcd1(6), 
  7620 ;;  row             1   15[BANK0 ] unsigned char 
  7621 ;;  column          1   16[BANK0 ] unsigned char 
  7622 ;; Auto vars:     Size  Location     Type
  7623 ;;  ret             1   19[BANK0 ] unsigned char 
  7624 ;; Return value:  Size  Location     Type
  7625 ;;                  1    wreg      unsigned char 
  7626 ;; Registers used:
  7627 ;;		wreg, fsr2l, fsr2h, status,2, status,0, prodl, prodh, cstack
  7628 ;; Tracked objects:
  7629 ;;		On entry : 0/0
  7630 ;;		On exit  : 0/0
  7631 ;;		Unchanged: 0/0
  7632 ;; Data sizes:     COMRAM   BANK0   BANK1   BANK2   BANK3   BANK4   BANK5   BANK6   BANK7   BANK8   BANK9  BANK10  BANK1
      +1  BANK12  BANK13  BANK14  BANK15
  7633 ;;      Params:         0       3       0       0       0       0       0       0       0       0       0       0       
      +0       0       0       0       0
  7634 ;;      Locals:         0       1       0       0       0       0       0       0       0       0       0       0       
      +0       0       0       0       0
  7635 ;;      Temps:          0       2       0       0       0       0       0       0       0       0       0       0       
      +0       0       0       0       0
  7636 ;;      Totals:         0       6       0       0       0       0       0       0       0       0       0       0       
      +0       0       0       0       0
  7637 ;;Total ram usage:        6 bytes
  7638 ;; Hardware stack levels used: 1
  7639 ;; Hardware stack levels required when called: 11
  7640 ;; This function calls:
  7641 ;;		_lcd_4bit_send_command
  7642 ;; This function is called by:
  7643 ;;		_lcd_4bit_send_char_data_pos
  7644 ;;		_lcd_4bit_send_string_pos
  7645 ;; This function uses a non-reentrant model
  7646 ;;
  7647                           
  7648                           	psect	text26
  7649   002714                     __ptext26:
  7650                           	callstack 0
  7651   002714                     _lcd_4bit_set_curser:
  7652                           	callstack 17
  7653   002714                     
  7654                           ;ECU_layer/chr_LCD/ecu_chr_LCD.c: 569: STD_ReturnType ret = (STD_ReturnType)0x01;
  7655   002714  0E01               	movlw	1
  7656   002716  0100               	movlb	0	; () banked
  7657   002718  6FBF               	movwf	lcd_4bit_set_curser@ret& (0+255),b
  7658   00271A                     
  7659                           ; BSR set to: 0
  7660                           ;ECU_layer/chr_LCD/ecu_chr_LCD.c: 570: column--;
  7661   00271A  07BC               	decf	lcd_4bit_set_curser@column& (0+255),f,b
  7662                           
  7663                           ;ECU_layer/chr_LCD/ecu_chr_LCD.c: 571: switch(row){
  7664   00271C  EFBC  F013         	goto	l11197
  7665   002720                     l11189:
  7666                           
  7667                           ; BSR set to: 0
  7668   002720  C0BA  F0B7         	movff	lcd_4bit_set_curser@lcd,lcd_4bit_send_command@lcd
  7669   002724  51BC               	movf	lcd_4bit_set_curser@column& (0+255),w,b
  7670   002726  0F80               	addlw	128
  7671   002728  6FB8               	movwf	lcd_4bit_send_command@command& (0+255),b
  7672   00272A  EC51  F017         	call	_lcd_4bit_send_command	;wreg free
  7673   00272E  0100               	movlb	0	; () banked
  7674   002730  6FBF               	movwf	lcd_4bit_set_curser@ret& (0+255),b
  7675   002732  EFD9  F013         	goto	l11199
  7676   002736                     l11191:
  7677                           
  7678                           ; BSR set to: 0
  7679   002736  C0BA  F0B7         	movff	lcd_4bit_set_curser@lcd,lcd_4bit_send_command@lcd
  7680   00273A  51BC               	movf	lcd_4bit_set_curser@column& (0+255),w,b
  7681   00273C  0FC0               	addlw	192
  7682   00273E  6FB8               	movwf	lcd_4bit_send_command@command& (0+255),b
  7683   002740  EC51  F017         	call	_lcd_4bit_send_command	;wreg free
  7684   002744  0100               	movlb	0	; () banked
  7685   002746  6FBF               	movwf	lcd_4bit_set_curser@ret& (0+255),b
  7686   002748  EFD9  F013         	goto	l11199
  7687   00274C                     l11193:
  7688                           
  7689                           ; BSR set to: 0
  7690   00274C  C0BA  F0B7         	movff	lcd_4bit_set_curser@lcd,lcd_4bit_send_command@lcd
  7691   002750  51BC               	movf	lcd_4bit_set_curser@column& (0+255),w,b
  7692   002752  0F94               	addlw	148
  7693   002754  6FB8               	movwf	lcd_4bit_send_command@command& (0+255),b
  7694   002756  EC51  F017         	call	_lcd_4bit_send_command	;wreg free
  7695   00275A  0100               	movlb	0	; () banked
  7696   00275C  6FBF               	movwf	lcd_4bit_set_curser@ret& (0+255),b
  7697   00275E  EFD9  F013         	goto	l11199
  7698   002762                     l11195:
  7699                           
  7700                           ; BSR set to: 0
  7701   002762  C0BA  F0B7         	movff	lcd_4bit_set_curser@lcd,lcd_4bit_send_command@lcd
  7702   002766  51BC               	movf	lcd_4bit_set_curser@column& (0+255),w,b
  7703   002768  0FD4               	addlw	212
  7704   00276A  6FB8               	movwf	lcd_4bit_send_command@command& (0+255),b
  7705   00276C  EC51  F017         	call	_lcd_4bit_send_command	;wreg free
  7706   002770  0100               	movlb	0	; () banked
  7707   002772  6FBF               	movwf	lcd_4bit_set_curser@ret& (0+255),b
  7708   002774  EFD9  F013         	goto	l11199
  7709   002778                     l11197:
  7710                           
  7711                           ; BSR set to: 0
  7712   002778  51BB               	movf	lcd_4bit_set_curser@row& (0+255),w,b
  7713   00277A  6FBD               	movwf	??_lcd_4bit_set_curser& (0+255),b
  7714   00277C  6BBE               	clrf	(??_lcd_4bit_set_curser+1)& (0+255),b
  7715                           
  7716                           ; Switch on 2 bytes has been partitioned into a top level switch of size 1, and 1 sub-sw
      +                          itches
  7717                           ; Switch size 1, requested type "simple"
  7718                           ; Number of cases is 1, Range of values is 0 to 0
  7719                           ; switch strategies available:
  7720                           ; Name         Instructions Cycles
  7721                           ; simple_byte            4     3 (average)
  7722                           ;	Chosen strategy is simple_byte
  7723   00277E  51BE               	movf	(??_lcd_4bit_set_curser+1)& (0+255),w,b
  7724   002780  0A00               	xorlw	0	; case 0
  7725   002782  B4D8               	btfsc	status,2,c
  7726   002784  EFC6  F013         	goto	l13539
  7727   002788  EFD9  F013         	goto	l11199
  7728   00278C                     l13539:
  7729                           
  7730                           ; BSR set to: 0
  7731                           ; Switch size 1, requested type "simple"
  7732                           ; Number of cases is 4, Range of values is 1 to 4
  7733                           ; switch strategies available:
  7734                           ; Name         Instructions Cycles
  7735                           ; simple_byte           13     7 (average)
  7736                           ;	Chosen strategy is simple_byte
  7737   00278C  51BD               	movf	??_lcd_4bit_set_curser& (0+255),w,b
  7738   00278E  0A01               	xorlw	1	; case 1
  7739   002790  B4D8               	btfsc	status,2,c
  7740   002792  EF90  F013         	goto	l11189
  7741   002796  0A03               	xorlw	3	; case 2
  7742   002798  B4D8               	btfsc	status,2,c
  7743   00279A  EF9B  F013         	goto	l11191
  7744   00279E  0A01               	xorlw	1	; case 3
  7745   0027A0  B4D8               	btfsc	status,2,c
  7746   0027A2  EFA6  F013         	goto	l11193
  7747   0027A6  0A07               	xorlw	7	; case 4
  7748   0027A8  B4D8               	btfsc	status,2,c
  7749   0027AA  EFB1  F013         	goto	l11195
  7750   0027AE  EFD9  F013         	goto	l11199
  7751   0027B2                     l11199:
  7752                           
  7753                           ; BSR set to: 0
  7754                           ;ECU_layer/chr_LCD/ecu_chr_LCD.c: 583: return ret;
  7755   0027B2  51BF               	movf	lcd_4bit_set_curser@ret& (0+255),w,b
  7756   0027B4                     
  7757                           ; BSR set to: 0
  7758   0027B4  0012               	return		;funcret
  7759   0027B6                     __end_of_lcd_4bit_set_curser:
  7760                           	callstack 0
  7761                           
  7762 ;; *************** function _lcd_4bit_send_char_data *****************
  7763 ;; Defined at:
  7764 ;;		line 94 in file "ECU_layer/chr_LCD/ecu_chr_LCD.c"
  7765 ;; Parameters:    Size  Location     Type
  7766 ;;  lcd             1   11[BANK0 ] PTR const struct .
  7767 ;;		 -> lcd1(6), 
  7768 ;;  data            1   12[BANK0 ] unsigned char 
  7769 ;; Auto vars:     Size  Location     Type
  7770 ;;  ret             1   13[BANK0 ] unsigned char 
  7771 ;; Return value:  Size  Location     Type
  7772 ;;                  1    wreg      unsigned char 
  7773 ;; Registers used:
  7774 ;;		wreg, fsr2l, fsr2h, status,2, status,0, prodl, prodh, cstack
  7775 ;; Tracked objects:
  7776 ;;		On entry : 0/0
  7777 ;;		On exit  : 0/0
  7778 ;;		Unchanged: 0/0
  7779 ;; Data sizes:     COMRAM   BANK0   BANK1   BANK2   BANK3   BANK4   BANK5   BANK6   BANK7   BANK8   BANK9  BANK10  BANK1
      +1  BANK12  BANK13  BANK14  BANK15
  7780 ;;      Params:         0       2       0       0       0       0       0       0       0       0       0       0       
      +0       0       0       0       0
  7781 ;;      Locals:         0       1       0       0       0       0       0       0       0       0       0       0       
      +0       0       0       0       0
  7782 ;;      Temps:          0       0       0       0       0       0       0       0       0       0       0       0       
      +0       0       0       0       0
  7783 ;;      Totals:         0       3       0       0       0       0       0       0       0       0       0       0       
      +0       0       0       0       0
  7784 ;;Total ram usage:        3 bytes
  7785 ;; Hardware stack levels used: 1
  7786 ;; Hardware stack levels required when called: 10
  7787 ;; This function calls:
  7788 ;;		_gpio_pin_write_logic
  7789 ;;		_lcd_4bit_send_enable_enable
  7790 ;;		_lcd_send_4bit
  7791 ;; This function is called by:
  7792 ;;		_lcd_4bit_send_char_data_pos
  7793 ;;		_lcd_4bit_send_string_pos
  7794 ;;		_lcd_4bit_send_string
  7795 ;;		_lcd_4bit_send_custome_char
  7796 ;; This function uses a non-reentrant model
  7797 ;;
  7798                           
  7799                           	psect	text27
  7800   002E3A                     __ptext27:
  7801                           	callstack 0
  7802   002E3A                     _lcd_4bit_send_char_data:
  7803                           	callstack 18
  7804   002E3A                     
  7805                           ;ECU_layer/chr_LCD/ecu_chr_LCD.c: 97:     if(((void*)0) == lcd)
  7806   002E3A  0100               	movlb	0	; () banked
  7807   002E3C  51B7               	movf	lcd_4bit_send_char_data@lcd& (0+255),w,b
  7808   002E3E  A4D8               	btfss	status,2,c
  7809   002E40  EF24  F017         	goto	u10811
  7810   002E44  EF26  F017         	goto	u10810
  7811   002E48                     u10811:
  7812   002E48  EF2A  F017         	goto	l11179
  7813   002E4C                     u10810:
  7814   002E4C                     
  7815                           ; BSR set to: 0
  7816                           ;ECU_layer/chr_LCD/ecu_chr_LCD.c: 98:     {;ECU_layer/chr_LCD/ecu_chr_LCD.c: 99:        
      +                           ret = (STD_ReturnType)0x00;
  7817   002E4C  0E00               	movlw	0
  7818   002E4E  6FB9               	movwf	lcd_4bit_send_char_data@ret& (0+255),b
  7819                           
  7820                           ;ECU_layer/chr_LCD/ecu_chr_LCD.c: 100:     }
  7821   002E50  EF4F  F017         	goto	l11181
  7822   002E54                     l11179:
  7823                           
  7824                           ; BSR set to: 0
  7825                           ;ECU_layer/chr_LCD/ecu_chr_LCD.c: 102:     {;ECU_layer/chr_LCD/ecu_chr_LCD.c: 104:      
      +                             ret = gpio_pin_write_logic(&(lcd->rs),HIGH);
  7826   002E54  C0B7  F0AC         	movff	lcd_4bit_send_char_data@lcd,gpio_pin_write_logic@_pin_config
  7827   002E58  0E01               	movlw	1
  7828   002E5A  6FAD               	movwf	gpio_pin_write_logic@logic& (0+255),b
  7829   002E5C  EC95  F00F         	call	_gpio_pin_write_logic	;wreg free
  7830   002E60  0100               	movlb	0	; () banked
  7831   002E62  6FB9               	movwf	lcd_4bit_send_char_data@ret& (0+255),b
  7832                           
  7833                           ;ECU_layer/chr_LCD/ecu_chr_LCD.c: 105:         ret = lcd_send_4bit(lcd,data >>4);
  7834   002E64  C0B7  F0B4         	movff	lcd_4bit_send_char_data@lcd,lcd_send_4bit@lcd
  7835   002E68  39B8               	swapf	lcd_4bit_send_char_data@data& (0+255),w,b
  7836   002E6A  0B0F               	andlw	15
  7837   002E6C  6FB5               	movwf	lcd_send_4bit@command_data& (0+255),b
  7838   002E6E  EC72  F018         	call	_lcd_send_4bit	;wreg free
  7839   002E72  0100               	movlb	0	; () banked
  7840   002E74  6FB9               	movwf	lcd_4bit_send_char_data@ret& (0+255),b
  7841                           
  7842                           ;ECU_layer/chr_LCD/ecu_chr_LCD.c: 106:         ret = lcd_4bit_send_enable_enable(lcd);
  7843   002E76  C0B7  F0B4         	movff	lcd_4bit_send_char_data@lcd,lcd_4bit_send_enable_enable@lcd
  7844   002E7A  ECD6  F01A         	call	_lcd_4bit_send_enable_enable	;wreg free
  7845   002E7E  0100               	movlb	0	; () banked
  7846   002E80  6FB9               	movwf	lcd_4bit_send_char_data@ret& (0+255),b
  7847                           
  7848                           ;ECU_layer/chr_LCD/ecu_chr_LCD.c: 107:         ret = lcd_send_4bit(lcd,data);
  7849   002E82  C0B7  F0B4         	movff	lcd_4bit_send_char_data@lcd,lcd_send_4bit@lcd
  7850   002E86  C0B8  F0B5         	movff	lcd_4bit_send_char_data@data,lcd_send_4bit@command_data
  7851   002E8A  EC72  F018         	call	_lcd_send_4bit	;wreg free
  7852   002E8E  0100               	movlb	0	; () banked
  7853   002E90  6FB9               	movwf	lcd_4bit_send_char_data@ret& (0+255),b
  7854                           
  7855                           ;ECU_layer/chr_LCD/ecu_chr_LCD.c: 108:         ret = lcd_4bit_send_enable_enable(lcd);
  7856   002E92  C0B7  F0B4         	movff	lcd_4bit_send_char_data@lcd,lcd_4bit_send_enable_enable@lcd
  7857   002E96  ECD6  F01A         	call	_lcd_4bit_send_enable_enable	;wreg free
  7858   002E9A  0100               	movlb	0	; () banked
  7859   002E9C  6FB9               	movwf	lcd_4bit_send_char_data@ret& (0+255),b
  7860   002E9E                     l11181:
  7861                           
  7862                           ; BSR set to: 0
  7863                           ;ECU_layer/chr_LCD/ecu_chr_LCD.c: 113:      return ret;
  7864   002E9E  51B9               	movf	lcd_4bit_send_char_data@ret& (0+255),w,b
  7865   002EA0                     
  7866                           ; BSR set to: 0
  7867   002EA0  0012               	return		;funcret
  7868   002EA2                     __end_of_lcd_4bit_send_char_data:
  7869                           	callstack 0
  7870                           
  7871 ;; *************** function _ecu_keypad_get_value *****************
  7872 ;; Defined at:
  7873 ;;		line 56 in file "ECU_layer/Keypad/ecu_keypad.c"
  7874 ;; Parameters:    Size  Location     Type
  7875 ;;  keypad          1    8[BANK0 ] PTR const struct .
  7876 ;;		 -> keypad(8), 
  7877 ;;  value           1    9[BANK0 ] PTR unsigned char 
  7878 ;;		 -> keypad_value(1), 
  7879 ;; Auto vars:     Size  Location     Type
  7880 ;;  columns         1   15[BANK0 ] unsigned char 
  7881 ;;  rows            1   14[BANK0 ] unsigned char 
  7882 ;;  clear_rows_c    1   13[BANK0 ] unsigned char 
  7883 ;;  column_val      1   12[BANK0 ] unsigned char 
  7884 ;;  ret             1    0        unsigned char 
  7885 ;; Return value:  Size  Location     Type
  7886 ;;                  1    wreg      unsigned char 
  7887 ;; Registers used:
  7888 ;;		wreg, fsr1l, fsr1h, fsr2l, fsr2h, status,2, status,0, prodl, prodh, cstack
  7889 ;; Tracked objects:
  7890 ;;		On entry : 0/0
  7891 ;;		On exit  : 0/0
  7892 ;;		Unchanged: 0/0
  7893 ;; Data sizes:     COMRAM   BANK0   BANK1   BANK2   BANK3   BANK4   BANK5   BANK6   BANK7   BANK8   BANK9  BANK10  BANK1
      +1  BANK12  BANK13  BANK14  BANK15
  7894 ;;      Params:         0       2       0       0       0       0       0       0       0       0       0       0       
      +0       0       0       0       0
  7895 ;;      Locals:         0       4       0       0       0       0       0       0       0       0       0       0       
      +0       0       0       0       0
  7896 ;;      Temps:          0       2       0       0       0       0       0       0       0       0       0       0       
      +0       0       0       0       0
  7897 ;;      Totals:         0       8       0       0       0       0       0       0       0       0       0       0       
      +0       0       0       0       0
  7898 ;;Total ram usage:        8 bytes
  7899 ;; Hardware stack levels used: 1
  7900 ;; Hardware stack levels required when called: 9
  7901 ;; This function calls:
  7902 ;;		_gpio_pin_read_logic
  7903 ;;		_gpio_pin_write_logic
  7904 ;; This function is called by:
  7905 ;;		_main
  7906 ;;		_get_password
  7907 ;;		_password_confirmation
  7908 ;;		_entering_password
  7909 ;;		_change_password
  7910 ;; This function uses a non-reentrant model
  7911 ;;
  7912                           
  7913                           	psect	text28
  7914   002250                     __ptext28:
  7915                           	callstack 0
  7916   002250                     _ecu_keypad_get_value:
  7917                           	callstack 20
  7918   002250                     
  7919                           ;ECU_layer/Keypad/ecu_keypad.c: 58: uint8 rows = 0,columns = 0,clear_rows_counter = 0;
  7920   002250  0E00               	movlw	0
  7921   002252  0100               	movlb	0	; () banked
  7922   002254  6FBA               	movwf	ecu_keypad_get_value@rows& (0+255),b
  7923   002256  0E00               	movlw	0
  7924   002258  6FBB               	movwf	ecu_keypad_get_value@columns& (0+255),b
  7925   00225A  0E00               	movlw	0
  7926   00225C  6FB9               	movwf	ecu_keypad_get_value@clear_rows_counter& (0+255),b
  7927                           
  7928                           ;ECU_layer/Keypad/ecu_keypad.c: 59: uint8 column_val = 0;
  7929   00225E  0E00               	movlw	0
  7930   002260  6FB8               	movwf	ecu_keypad_get_value@column_val& (0+255),b
  7931   002262                     
  7932                           ; BSR set to: 0
  7933                           ;ECU_layer/Keypad/ecu_keypad.c: 60: *value = 0;
  7934   002262  51B5               	movf	ecu_keypad_get_value@value& (0+255),w,b
  7935   002264  6ED9               	movwf	fsr2l,c
  7936   002266  6ADA               	clrf	fsr2h,c
  7937   002268  6ADF               	clrf	indf2,c
  7938   00226A                     
  7939                           ; BSR set to: 0
  7940                           ;ECU_layer/Keypad/ecu_keypad.c: 61:     if(((void*)0) == keypad || ((void*)0) == value)
  7941   00226A  51B4               	movf	ecu_keypad_get_value@keypad& (0+255),w,b
  7942   00226C  B4D8               	btfsc	status,2,c
  7943   00226E  EF3B  F011         	goto	u10981
  7944   002272  EF3D  F011         	goto	u10980
  7945   002276                     u10981:
  7946   002276  EF45  F011         	goto	l11401
  7947   00227A                     u10980:
  7948   00227A                     
  7949                           ; BSR set to: 0
  7950   00227A  51B5               	movf	ecu_keypad_get_value@value& (0+255),w,b
  7951   00227C  A4D8               	btfss	status,2,c
  7952   00227E  EF43  F011         	goto	u10991
  7953   002282  EF45  F011         	goto	u10990
  7954   002286                     u10991:
  7955   002286  EF47  F011         	goto	l11403
  7956   00228A                     u10990:
  7957   00228A                     l11401:
  7958                           
  7959                           ; BSR set to: 0
  7960                           ;ECU_layer/Keypad/ecu_keypad.c: 64:     }
  7961   00228A  EFA5  F011         	goto	l260
  7962   00228E                     l11403:
  7963                           
  7964                           ; BSR set to: 0
  7965                           ;ECU_layer/Keypad/ecu_keypad.c: 66:     {;ECU_layer/Keypad/ecu_keypad.c: 67:         for
      +                          (rows = 0;rows < 4 ;rows++)
  7966   00228E  0E00               	movlw	0
  7967   002290  6FBA               	movwf	ecu_keypad_get_value@rows& (0+255),b
  7968   002292                     l11409:
  7969                           
  7970                           ; BSR set to: 0
  7971                           ;ECU_layer/Keypad/ecu_keypad.c: 68:         {;ECU_layer/Keypad/ecu_keypad.c: 69:        
      +                               for(clear_rows_counter = 0;clear_rows_counter < 4 ;clear_rows_counter++)
  7972   002292  0E00               	movlw	0
  7973   002294  6FB9               	movwf	ecu_keypad_get_value@clear_rows_counter& (0+255),b
  7974   002296                     l11415:
  7975                           
  7976                           ; BSR set to: 0
  7977                           ;ECU_layer/Keypad/ecu_keypad.c: 70:             {;ECU_layer/Keypad/ecu_keypad.c: 71:    
      +                                       gpio_pin_write_logic(&(keypad->keypad_rows_pins[clear_rows_counter]),LOW);
  7978   002296  51B4               	movf	ecu_keypad_get_value@keypad& (0+255),w,b
  7979   002298  25B9               	addwf	ecu_keypad_get_value@clear_rows_counter& (0+255),w,b
  7980   00229A  6FAC               	movwf	gpio_pin_write_logic@_pin_config& (0+255),b
  7981   00229C  0E00               	movlw	0
  7982   00229E  6FAD               	movwf	gpio_pin_write_logic@logic& (0+255),b
  7983   0022A0  EC95  F00F         	call	_gpio_pin_write_logic	;wreg free
  7984   0022A4                     
  7985                           ;ECU_layer/Keypad/ecu_keypad.c: 72:             }
  7986   0022A4  0100               	movlb	0	; () banked
  7987   0022A6  2BB9               	incf	ecu_keypad_get_value@clear_rows_counter& (0+255),f,b
  7988   0022A8                     
  7989                           ; BSR set to: 0
  7990   0022A8  0E03               	movlw	3
  7991   0022AA  65B9               	cpfsgt	ecu_keypad_get_value@clear_rows_counter& (0+255),b
  7992   0022AC  EF5A  F011         	goto	u11001
  7993   0022B0  EF5C  F011         	goto	u11000
  7994   0022B4                     u11001:
  7995   0022B4  EF4B  F011         	goto	l11415
  7996   0022B8                     u11000:
  7997   0022B8                     
  7998                           ; BSR set to: 0
  7999                           ;ECU_layer/Keypad/ecu_keypad.c: 73:             gpio_pin_write_logic(&(keypad->keypad_ro
      +                          ws_pins[rows]),HIGH);
  8000   0022B8  51B4               	movf	ecu_keypad_get_value@keypad& (0+255),w,b
  8001   0022BA  25BA               	addwf	ecu_keypad_get_value@rows& (0+255),w,b
  8002   0022BC  6FAC               	movwf	gpio_pin_write_logic@_pin_config& (0+255),b
  8003   0022BE  0E01               	movlw	1
  8004   0022C0  6FAD               	movwf	gpio_pin_write_logic@logic& (0+255),b
  8005   0022C2  EC95  F00F         	call	_gpio_pin_write_logic	;wreg free
  8006   0022C6                     
  8007                           ;ECU_layer/Keypad/ecu_keypad.c: 74:             _delay((unsigned long)((10)*(8000000ul/4
      +                          000.0)));
  8008   0022C6  0E1A               	movlw	26
  8009   0022C8  0100               	movlb	0	; () banked
  8010   0022CA  6FB6               	movwf	??_ecu_keypad_get_value& (0+255),b
  8011   0022CC  0EF8               	movlw	248
  8012   0022CE                     u13817:
  8013   0022CE  2EE8               	decfsz	wreg,f,c
  8014   0022D0  D7FE               	bra	u13817
  8015   0022D2  2FB6               	decfsz	??_ecu_keypad_get_value& (0+255),f,b
  8016   0022D4  D7FC               	bra	u13817
  8017   0022D6  0000               	nop	
  8018   0022D8                     
  8019                           ;ECU_layer/Keypad/ecu_keypad.c: 75:             for(columns = 0;columns < 4 ;columns++)
  8020   0022D8  0E00               	movlw	0
  8021   0022DA  0100               	movlb	0	; () banked
  8022   0022DC  6FBB               	movwf	ecu_keypad_get_value@columns& (0+255),b
  8023   0022DE                     l11431:
  8024                           
  8025                           ; BSR set to: 0
  8026                           ;ECU_layer/Keypad/ecu_keypad.c: 76:             {;ECU_layer/Keypad/ecu_keypad.c: 77:    
      +                                       gpio_pin_read_logic(&(keypad->keypad_columns_pins[columns]),&column_val);
  8027   0022DE  51B4               	movf	ecu_keypad_get_value@keypad& (0+255),w,b
  8028   0022E0  25BB               	addwf	ecu_keypad_get_value@columns& (0+255),w,b
  8029   0022E2  0F04               	addlw	4
  8030   0022E4  6FAC               	movwf	gpio_pin_read_logic@_pin_config& (0+255),b
  8031   0022E6  0EB8               	movlw	low ecu_keypad_get_value@column_val
  8032   0022E8  6FAD               	movwf	gpio_pin_read_logic@logic& (0+255),b
  8033   0022EA  EC37  F013         	call	_gpio_pin_read_logic	;wreg free
  8034   0022EE                     
  8035                           ;ECU_layer/Keypad/ecu_keypad.c: 78:                 if(HIGH == column_val)
  8036   0022EE  0100               	movlb	0	; () banked
  8037   0022F0  05B8               	decf	ecu_keypad_get_value@column_val& (0+255),w,b
  8038   0022F2  A4D8               	btfss	status,2,c
  8039   0022F4  EF7E  F011         	goto	u11011
  8040   0022F8  EF80  F011         	goto	u11010
  8041   0022FC                     u11011:
  8042   0022FC  EF93  F011         	goto	l11437
  8043   002300                     u11010:
  8044   002300                     
  8045                           ; BSR set to: 0
  8046                           ;ECU_layer/Keypad/ecu_keypad.c: 79:                 {;ECU_layer/Keypad/ecu_keypad.c: 80:
      +                                           *value = keypad_values[rows][columns];
  8047   002300  51BA               	movf	ecu_keypad_get_value@rows& (0+255),w,b
  8048   002302  0D04               	mullw	4
  8049   002304  0E44               	movlw	low _keypad_values
  8050   002306  24F3               	addwf	243,w,c
  8051   002308  6FB6               	movwf	??_ecu_keypad_get_value& (0+255),b
  8052   00230A  0E01               	movlw	high _keypad_values
  8053   00230C  20F4               	addwfc	prodh,w,c
  8054   00230E  6FB7               	movwf	(??_ecu_keypad_get_value+1)& (0+255),b
  8055   002310  51BB               	movf	ecu_keypad_get_value@columns& (0+255),w,b
  8056   002312  25B6               	addwf	??_ecu_keypad_get_value& (0+255),w,b
  8057   002314  6ED9               	movwf	fsr2l,c
  8058   002316  0E00               	movlw	0
  8059   002318  21B7               	addwfc	(??_ecu_keypad_get_value+1)& (0+255),w,b
  8060   00231A  6EDA               	movwf	fsr2h,c
  8061   00231C  51B5               	movf	ecu_keypad_get_value@value& (0+255),w,b
  8062   00231E  6EE1               	movwf	fsr1l,c
  8063   002320  6AE2               	clrf	fsr1h,c
  8064   002322  CFDF FFE7          	movff	indf2,indf1
  8065   002326                     l11437:
  8066                           
  8067                           ; BSR set to: 0
  8068                           ;ECU_layer/Keypad/ecu_keypad.c: 82:             }
  8069   002326  2BBB               	incf	ecu_keypad_get_value@columns& (0+255),f,b
  8070   002328                     
  8071                           ; BSR set to: 0
  8072   002328  0E03               	movlw	3
  8073   00232A  65BB               	cpfsgt	ecu_keypad_get_value@columns& (0+255),b
  8074   00232C  EF9A  F011         	goto	u11021
  8075   002330  EF9C  F011         	goto	u11020
  8076   002334                     u11021:
  8077   002334  EF6F  F011         	goto	l11431
  8078   002338                     u11020:
  8079   002338                     
  8080                           ; BSR set to: 0
  8081                           ;ECU_layer/Keypad/ecu_keypad.c: 84:         }
  8082   002338  2BBA               	incf	ecu_keypad_get_value@rows& (0+255),f,b
  8083   00233A                     
  8084                           ; BSR set to: 0
  8085   00233A  0E03               	movlw	3
  8086   00233C  65BA               	cpfsgt	ecu_keypad_get_value@rows& (0+255),b
  8087   00233E  EFA3  F011         	goto	u11031
  8088   002342  EFA5  F011         	goto	u11030
  8089   002346                     u11031:
  8090   002346  EF49  F011         	goto	l11409
  8091   00234A                     u11030:
  8092   00234A                     l260:
  8093                           
  8094                           ; BSR set to: 0
  8095   00234A  0012               	return		;funcret
  8096   00234C                     __end_of_ecu_keypad_get_value:
  8097                           	callstack 0
  8098                           
  8099 ;; *************** function _gpio_pin_read_logic *****************
  8100 ;; Defined at:
  8101 ;;		line 117 in file "MCAL_layer/GPIO/hal_gpio.c"
  8102 ;; Parameters:    Size  Location     Type
  8103 ;;  _pin_config     1    0[BANK0 ] PTR const struct .
  8104 ;;		 -> keypad$keypad_columns_pins(4), keypad(8), 
  8105 ;;  logic           1    1[BANK0 ] PTR enum E2979
  8106 ;;		 -> ecu_keypad_get_value@column_val(1), ecu_button_read_state@btn_logic(1), 
  8107 ;; Auto vars:     Size  Location     Type
  8108 ;;  ret             1    0        unsigned char 
  8109 ;; Return value:  Size  Location     Type
  8110 ;;                  1    wreg      unsigned char 
  8111 ;; Registers used:
  8112 ;;		wreg, fsr1l, fsr1h, fsr2l, fsr2h, status,2, status,0, prodl, prodh
  8113 ;; Tracked objects:
  8114 ;;		On entry : 0/0
  8115 ;;		On exit  : 0/0
  8116 ;;		Unchanged: 0/0
  8117 ;; Data sizes:     COMRAM   BANK0   BANK1   BANK2   BANK3   BANK4   BANK5   BANK6   BANK7   BANK8   BANK9  BANK10  BANK1
      +1  BANK12  BANK13  BANK14  BANK15
  8118 ;;      Params:         0       2       0       0       0       0       0       0       0       0       0       0       
      +0       0       0       0       0
  8119 ;;      Locals:         0       0       0       0       0       0       0       0       0       0       0       0       
      +0       0       0       0       0
  8120 ;;      Temps:          0       5       0       0       0       0       0       0       0       0       0       0       
      +0       0       0       0       0
  8121 ;;      Totals:         0       7       0       0       0       0       0       0       0       0       0       0       
      +0       0       0       0       0
  8122 ;;Total ram usage:        7 bytes
  8123 ;; Hardware stack levels used: 1
  8124 ;; Hardware stack levels required when called: 8
  8125 ;; This function calls:
  8126 ;;		Nothing
  8127 ;; This function is called by:
  8128 ;;		_ecu_keypad_get_value
  8129 ;;		_ecu_button_read_state
  8130 ;; This function uses a non-reentrant model
  8131 ;;
  8132                           
  8133                           	psect	text29
  8134   00266E                     __ptext29:
  8135                           	callstack 0
  8136   00266E                     _gpio_pin_read_logic:
  8137                           	callstack 20
  8138   00266E                     
  8139                           ;MCAL_layer/GPIO/hal_gpio.c: 120:     if(((void*)0) == _pin_config || ((void*)0) == logi
      +                          c || _pin_config->pin > 8 -1)
  8140   00266E  0100               	movlb	0	; () banked
  8141   002670  51AC               	movf	gpio_pin_read_logic@_pin_config& (0+255),w,b
  8142   002672  B4D8               	btfsc	status,2,c
  8143   002674  EF3E  F013         	goto	u10771
  8144   002678  EF40  F013         	goto	u10770
  8145   00267C                     u10771:
  8146   00267C  EF58  F013         	goto	l11169
  8147   002680                     u10770:
  8148   002680                     
  8149                           ; BSR set to: 0
  8150   002680  51AD               	movf	gpio_pin_read_logic@logic& (0+255),w,b
  8151   002682  B4D8               	btfsc	status,2,c
  8152   002684  EF46  F013         	goto	u10781
  8153   002688  EF48  F013         	goto	u10780
  8154   00268C                     u10781:
  8155   00268C  EF58  F013         	goto	l11169
  8156   002690                     u10780:
  8157   002690                     
  8158                           ; BSR set to: 0
  8159   002690  51AC               	movf	gpio_pin_read_logic@_pin_config& (0+255),w,b
  8160   002692  6ED9               	movwf	fsr2l,c
  8161   002694  6ADA               	clrf	fsr2h,c
  8162   002696  30DF               	rrcf	223,w,c
  8163   002698  32E8               	rrcf	wreg,f,c
  8164   00269A  32E8               	rrcf	wreg,f,c
  8165   00269C  0B07               	andlw	7
  8166   00269E  6FAE               	movwf	??_gpio_pin_read_logic& (0+255),b
  8167   0026A0  0E07               	movlw	7
  8168   0026A2  65AE               	cpfsgt	??_gpio_pin_read_logic& (0+255),b
  8169   0026A4  EF56  F013         	goto	u10791
  8170   0026A8  EF58  F013         	goto	u10790
  8171   0026AC                     u10791:
  8172   0026AC  EF5A  F013         	goto	l11171
  8173   0026B0                     u10790:
  8174   0026B0                     l11169:
  8175                           
  8176                           ; BSR set to: 0
  8177                           ;MCAL_layer/GPIO/hal_gpio.c: 123:     }
  8178   0026B0  EF89  F013         	goto	l464
  8179   0026B4                     l11171:
  8180                           
  8181                           ; BSR set to: 0
  8182                           ;MCAL_layer/GPIO/hal_gpio.c: 125:     {;MCAL_layer/GPIO/hal_gpio.c: 126:          *logic
      +                           = ((*port_registers[_pin_config->port]>>_pin_config->pin) & (uint8)1);
  8183   0026B4  51AD               	movf	gpio_pin_read_logic@logic& (0+255),w,b
  8184   0026B6  6ED9               	movwf	fsr2l,c
  8185   0026B8  6ADA               	clrf	fsr2h,c
  8186   0026BA  51AC               	movf	gpio_pin_read_logic@_pin_config& (0+255),w,b
  8187   0026BC  6EE1               	movwf	fsr1l,c
  8188   0026BE  6AE2               	clrf	fsr1h,c
  8189   0026C0  30E7               	rrcf	231,w,c
  8190   0026C2  32E8               	rrcf	wreg,f,c
  8191   0026C4  32E8               	rrcf	wreg,f,c
  8192   0026C6  0B07               	andlw	7
  8193   0026C8  6FAE               	movwf	??_gpio_pin_read_logic& (0+255),b
  8194   0026CA  51AC               	movf	gpio_pin_read_logic@_pin_config& (0+255),w,b
  8195   0026CC  6EE1               	movwf	fsr1l,c
  8196   0026CE  6AE2               	clrf	fsr1h,c
  8197   0026D0  50E7               	movf	231,w,c
  8198   0026D2  0B07               	andlw	7
  8199   0026D4  6FAF               	movwf	(??_gpio_pin_read_logic+1)& (0+255),b
  8200   0026D6  51AF               	movf	(??_gpio_pin_read_logic+1)& (0+255),w,b
  8201   0026D8  0D02               	mullw	2
  8202   0026DA  0E54               	movlw	low _port_registers
  8203   0026DC  24F3               	addwf	243,w,c
  8204   0026DE  6EE1               	movwf	fsr1l,c
  8205   0026E0  0E01               	movlw	high _port_registers
  8206   0026E2  20F4               	addwfc	prodh,w,c
  8207   0026E4  6EE2               	movwf	fsr1h,c
  8208   0026E6  CFE6 F0B0          	movff	postinc1,??_gpio_pin_read_logic+2
  8209   0026EA  CFE5 F0B1          	movff	postdec1,??_gpio_pin_read_logic+3
  8210   0026EE  C0B0  FFE1         	movff	??_gpio_pin_read_logic+2,fsr1l
  8211   0026F2  C0B1  FFE2         	movff	??_gpio_pin_read_logic+3,fsr1h
  8212   0026F6  50E7               	movf	indf1,w,c
  8213   0026F8  6FB2               	movwf	(??_gpio_pin_read_logic+4)& (0+255),b
  8214   0026FA  2BAE               	incf	??_gpio_pin_read_logic& (0+255),f,b
  8215   0026FC  EF82  F013         	goto	u10804
  8216   002700                     u10805:
  8217   002700  90D8               	bcf	status,0,c
  8218   002702  33B2               	rrcf	(??_gpio_pin_read_logic+4)& (0+255),f,b
  8219   002704                     u10804:
  8220   002704  2FAE               	decfsz	??_gpio_pin_read_logic& (0+255),f,b
  8221   002706  EF80  F013         	goto	u10805
  8222   00270A  0100               	movlb	0	; () banked
  8223   00270C  51B2               	movf	(??_gpio_pin_read_logic+4)& (0+255),w,b
  8224   00270E  0B01               	andlw	1
  8225   002710  6EDF               	movwf	indf2,c
  8226   002712                     l464:
  8227                           
  8228                           ; BSR set to: 0
  8229   002712  0012               	return		;funcret
  8230   002714                     __end_of_gpio_pin_read_logic:
  8231                           	callstack 0
  8232                           
  8233 ;; *************** function _check_entered_password *****************
  8234 ;; Defined at:
  8235 ;;		line 418 in file "Helper_functions/helper_fn.c"
  8236 ;; Parameters:    Size  Location     Type
  8237 ;;  entered_pass    1    3[BANK0 ] PTR unsigned char 
  8238 ;;		 -> entered_password(8), 
  8239 ;;  entered_pass    2    4[BANK0 ] PTR unsigned char 
  8240 ;;		 -> RAM(4095), enterd_pass_num_digits(1), 
  8241 ;;  stored_pass     1    6[BANK0 ] PTR unsigned char 
  8242 ;;		 -> stored_password(8), 
  8243 ;;  stored_pass_    2    7[BANK0 ] PTR unsigned char 
  8244 ;;		 -> RAM(4095), stored_pass_num_digits(1), 
  8245 ;;  result          2    9[BANK0 ] PTR unsigned char 
  8246 ;;		 -> change_password@comparing_result(1), entering_password@comparing_result(1), 
  8247 ;; Auto vars:     Size  Location     Type
  8248 ;;  helper_count    1   14[BANK0 ] unsigned char 
  8249 ;;  comparing_co    1   13[BANK0 ] unsigned char 
  8250 ;; Return value:  Size  Location     Type
  8251 ;;                  1    wreg      void 
  8252 ;; Registers used:
  8253 ;;		wreg, fsr1l, fsr1h, fsr2l, fsr2h, status,2, status,0, cstack
  8254 ;; Tracked objects:
  8255 ;;		On entry : 0/0
  8256 ;;		On exit  : 0/0
  8257 ;;		Unchanged: 0/0
  8258 ;; Data sizes:     COMRAM   BANK0   BANK1   BANK2   BANK3   BANK4   BANK5   BANK6   BANK7   BANK8   BANK9  BANK10  BANK1
      +1  BANK12  BANK13  BANK14  BANK15
  8259 ;;      Params:         0       8       0       0       0       0       0       0       0       0       0       0       
      +0       0       0       0       0
  8260 ;;      Locals:         0       2       0       0       0       0       0       0       0       0       0       0       
      +0       0       0       0       0
  8261 ;;      Temps:          0       2       0       0       0       0       0       0       0       0       0       0       
      +0       0       0       0       0
  8262 ;;      Totals:         0      12       0       0       0       0       0       0       0       0       0       0       
      +0       0       0       0       0
  8263 ;;Total ram usage:       12 bytes
  8264 ;; Hardware stack levels used: 1
  8265 ;; Hardware stack levels required when called: 9
  8266 ;; This function calls:
  8267 ;;		_Data_EEPROM_ReadByte
  8268 ;; This function is called by:
  8269 ;;		_entering_password
  8270 ;;		_change_password
  8271 ;; This function uses a non-reentrant model
  8272 ;;
  8273                           
  8274                           	psect	text30
  8275   00234C                     __ptext30:
  8276                           	callstack 0
  8277   00234C                     _check_entered_password:
  8278                           	callstack 20
  8279   00234C                     
  8280                           ;Helper_functions/helper_fn.c: 419: uint8 comparing_counter = 0;
  8281   00234C  0E00               	movlw	0
  8282   00234E  0100               	movlb	0	; () banked
  8283   002350  6FB9               	movwf	check_entered_password@comparing_counter& (0+255),b
  8284                           
  8285                           ;Helper_functions/helper_fn.c: 420: uint8 helper_counter = 0;
  8286   002352  0E00               	movlw	0
  8287   002354  6FBA               	movwf	check_entered_password@helper_counter& (0+255),b
  8288   002356                     
  8289                           ; BSR set to: 0
  8290                           ;Helper_functions/helper_fn.c: 422: *result = 1;
  8291   002356  C0B5  FFD9         	movff	check_entered_password@result,fsr2l
  8292   00235A  C0B6  FFDA         	movff	check_entered_password@result+1,fsr2h
  8293   00235E  0E01               	movlw	1
  8294   002360  6EDF               	movwf	indf2,c
  8295   002362                     l12921:
  8296                           
  8297                           ; BSR set to: 0
  8298                           ;Helper_functions/helper_fn.c: 425:     Data_EEPROM_ReadByte((0x03f8 + helper_counter),&
      +                          stored_pass[helper_counter]);
  8299   002362  0EF8               	movlw	248
  8300   002364  25BA               	addwf	check_entered_password@helper_counter& (0+255),w,b
  8301   002366  6FAC               	movwf	Data_EEPROM_ReadByte@badd& (0+255),b
  8302   002368  6BAD               	clrf	(Data_EEPROM_ReadByte@badd+1)& (0+255),b
  8303   00236A  0E03               	movlw	3
  8304   00236C  23AD               	addwfc	(Data_EEPROM_ReadByte@badd+1)& (0+255),f,b
  8305   00236E  51B2               	movf	check_entered_password@stored_pass& (0+255),w,b
  8306   002370  25BA               	addwf	check_entered_password@helper_counter& (0+255),w,b
  8307   002372  6FAE               	movwf	Data_EEPROM_ReadByte@bData& (0+255),b
  8308   002374  EC11  F01A         	call	_Data_EEPROM_ReadByte	;wreg free
  8309   002378                     
  8310                           ;Helper_functions/helper_fn.c: 426:     if(0xFF == stored_pass[helper_counter]){
  8311   002378  0100               	movlb	0	; () banked
  8312   00237A  51B2               	movf	check_entered_password@stored_pass& (0+255),w,b
  8313   00237C  25BA               	addwf	check_entered_password@helper_counter& (0+255),w,b
  8314   00237E  6ED9               	movwf	fsr2l,c
  8315   002380  6ADA               	clrf	fsr2h,c
  8316   002382  28DE               	incf	postinc2,w,c
  8317   002384  A4D8               	btfss	status,2,c
  8318   002386  EFC7  F011         	goto	u12671
  8319   00238A  EFC9  F011         	goto	u12670
  8320   00238E                     u12671:
  8321   00238E  EFD0  F011         	goto	l12929
  8322   002392                     u12670:
  8323   002392                     
  8324                           ; BSR set to: 0
  8325                           ;Helper_functions/helper_fn.c: 427:         stored_pass[helper_counter] = '\0';
  8326   002392  51B2               	movf	check_entered_password@stored_pass& (0+255),w,b
  8327   002394  25BA               	addwf	check_entered_password@helper_counter& (0+255),w,b
  8328   002396  6ED9               	movwf	fsr2l,c
  8329   002398  6ADA               	clrf	fsr2h,c
  8330   00239A  6ADF               	clrf	indf2,c
  8331                           
  8332                           ;Helper_functions/helper_fn.c: 428:         break;
  8333   00239C  EFD3  F011         	goto	l12931
  8334   0023A0                     l12929:
  8335                           
  8336                           ; BSR set to: 0
  8337                           ;Helper_functions/helper_fn.c: 430:     helper_counter++;
  8338   0023A0  2BBA               	incf	check_entered_password@helper_counter& (0+255),f,b
  8339   0023A2  EFB1  F011         	goto	l12921
  8340   0023A6                     l12931:
  8341                           
  8342                           ; BSR set to: 0
  8343                           ;Helper_functions/helper_fn.c: 434: *stored_pass_digits = helper_counter;
  8344   0023A6  C0B3  FFD9         	movff	check_entered_password@stored_pass_digits,fsr2l
  8345   0023AA  C0B4  FFDA         	movff	check_entered_password@stored_pass_digits+1,fsr2h
  8346   0023AE  C0BA  FFDF         	movff	check_entered_password@helper_counter,indf2
  8347   0023B2                     
  8348                           ; BSR set to: 0
  8349                           ;Helper_functions/helper_fn.c: 436:     if(*stored_pass_digits == *entered_pass_digits){
  8350   0023B2  C0B0  FFD9         	movff	check_entered_password@entered_pass_digits,fsr2l
  8351   0023B6  C0B1  FFDA         	movff	check_entered_password@entered_pass_digits+1,fsr2h
  8352   0023BA  C0B3  FFE1         	movff	check_entered_password@stored_pass_digits,fsr1l
  8353   0023BE  C0B4  FFE2         	movff	check_entered_password@stored_pass_digits+1,fsr1h
  8354   0023C2  50DE               	movf	postinc2,w,c
  8355   0023C4  18E6               	xorwf	postinc1,w,c
  8356   0023C6  A4D8               	btfss	status,2,c
  8357   0023C8  EFE8  F011         	goto	u12681
  8358   0023CC  EFEA  F011         	goto	u12680
  8359   0023D0                     u12681:
  8360   0023D0  EF00  F012         	goto	l12941
  8361   0023D4                     u12680:
  8362   0023D4  EF07  F012         	goto	l12943
  8363   0023D8                     l12937:
  8364                           
  8365                           ; BSR set to: 0
  8366                           ;Helper_functions/helper_fn.c: 438:             if(stored_pass[comparing_counter] == ent
      +                          ered_pass[comparing_counter]){
  8367   0023D8  51AF               	movf	check_entered_password@entered_pass& (0+255),w,b
  8368   0023DA  25B9               	addwf	check_entered_password@comparing_counter& (0+255),w,b
  8369   0023DC  6ED9               	movwf	fsr2l,c
  8370   0023DE  6ADA               	clrf	fsr2h,c
  8371   0023E0  51B2               	movf	check_entered_password@stored_pass& (0+255),w,b
  8372   0023E2  25B9               	addwf	check_entered_password@comparing_counter& (0+255),w,b
  8373   0023E4  6EE1               	movwf	fsr1l,c
  8374   0023E6  6AE2               	clrf	fsr1h,c
  8375   0023E8  50DE               	movf	postinc2,w,c
  8376   0023EA  18E6               	xorwf	postinc1,w,c
  8377   0023EC  A4D8               	btfss	status,2,c
  8378   0023EE  EFFB  F011         	goto	u12691
  8379   0023F2  EFFD  F011         	goto	u12690
  8380   0023F6                     u12691:
  8381   0023F6  EF00  F012         	goto	l12941
  8382   0023FA                     u12690:
  8383   0023FA                     
  8384                           ; BSR set to: 0
  8385                           ;Helper_functions/helper_fn.c: 439:                 comparing_counter++;
  8386   0023FA  2BB9               	incf	check_entered_password@comparing_counter& (0+255),f,b
  8387                           
  8388                           ;Helper_functions/helper_fn.c: 440:             }
  8389   0023FC  EF07  F012         	goto	l12943
  8390   002400                     l12941:
  8391                           
  8392                           ; BSR set to: 0
  8393                           ;Helper_functions/helper_fn.c: 442:                 *result = 0;
  8394   002400  C0B5  FFD9         	movff	check_entered_password@result,fsr2l
  8395   002404  C0B6  FFDA         	movff	check_entered_password@result+1,fsr2h
  8396   002408  6ADF               	clrf	indf2,c
  8397                           
  8398                           ;Helper_functions/helper_fn.c: 443:                 break;
  8399   00240A  EF14  F012         	goto	l1128
  8400   00240E                     l12943:
  8401                           
  8402                           ; BSR set to: 0
  8403                           ;Helper_functions/helper_fn.c: 437:         while((*stored_pass_digits)--){
  8404   00240E  C0B3  FFD9         	movff	check_entered_password@stored_pass_digits,fsr2l
  8405   002412  C0B4  FFDA         	movff	check_entered_password@stored_pass_digits+1,fsr2h
  8406   002416  06DF               	decf	indf2,f,c
  8407   002418  28DE               	incf	postinc2,w,c
  8408   00241A  A4D8               	btfss	status,2,c
  8409   00241C  EF12  F012         	goto	u12701
  8410   002420  EF14  F012         	goto	u12700
  8411   002424                     u12701:
  8412   002424  EFEC  F011         	goto	l12937
  8413   002428                     u12700:
  8414   002428                     l1128:
  8415                           
  8416                           ; BSR set to: 0
  8417   002428  0012               	return		;funcret
  8418   00242A                     __end_of_check_entered_password:
  8419                           	callstack 0
  8420                           
  8421 ;; *************** function _Data_EEPROM_ReadByte *****************
  8422 ;; Defined at:
  8423 ;;		line 45 in file "MCAL_layer/EEPROM/hal_eeprom.c"
  8424 ;; Parameters:    Size  Location     Type
  8425 ;;  badd            2    0[BANK0 ] unsigned short 
  8426 ;;  bData           1    2[BANK0 ] PTR unsigned char 
  8427 ;;		 -> stored_password(8), pass_check(1), 
  8428 ;; Auto vars:     Size  Location     Type
  8429 ;;  ret             1    0        unsigned char 
  8430 ;; Return value:  Size  Location     Type
  8431 ;;                  1    wreg      unsigned char 
  8432 ;; Registers used:
  8433 ;;		wreg, fsr2l, fsr2h, status,2, status,0
  8434 ;; Tracked objects:
  8435 ;;		On entry : 0/0
  8436 ;;		On exit  : 0/0
  8437 ;;		Unchanged: 0/0
  8438 ;; Data sizes:     COMRAM   BANK0   BANK1   BANK2   BANK3   BANK4   BANK5   BANK6   BANK7   BANK8   BANK9  BANK10  BANK1
      +1  BANK12  BANK13  BANK14  BANK15
  8439 ;;      Params:         0       3       0       0       0       0       0       0       0       0       0       0       
      +0       0       0       0       0
  8440 ;;      Locals:         0       0       0       0       0       0       0       0       0       0       0       0       
      +0       0       0       0       0
  8441 ;;      Temps:          0       0       0       0       0       0       0       0       0       0       0       0       
      +0       0       0       0       0
  8442 ;;      Totals:         0       3       0       0       0       0       0       0       0       0       0       0       
      +0       0       0       0       0
  8443 ;;Total ram usage:        3 bytes
  8444 ;; Hardware stack levels used: 1
  8445 ;; Hardware stack levels required when called: 8
  8446 ;; This function calls:
  8447 ;;		Nothing
  8448 ;; This function is called by:
  8449 ;;		_main
  8450 ;;		_check_entered_password
  8451 ;; This function uses a non-reentrant model
  8452 ;;
  8453                           
  8454                           	psect	text31
  8455   003422                     __ptext31:
  8456                           	callstack 0
  8457   003422                     _Data_EEPROM_ReadByte:
  8458                           	callstack 20
  8459   003422                     
  8460                           ;MCAL_layer/EEPROM/hal_eeprom.c: 47:     if(((void*)0) == bData)
  8461   003422  0100               	movlb	0	; () banked
  8462   003424  51AE               	movf	Data_EEPROM_ReadByte@bData& (0+255),w,b
  8463   003426  A4D8               	btfss	status,2,c
  8464   003428  EF18  F01A         	goto	u11061
  8465   00342C  EF1A  F01A         	goto	u11060
  8466   003430                     u11061:
  8467   003430  EF1C  F01A         	goto	l11463
  8468   003434                     u11060:
  8469   003434                     
  8470                           ; BSR set to: 0
  8471                           ;MCAL_layer/EEPROM/hal_eeprom.c: 50:     }
  8472   003434  EF2C  F01A         	goto	l390
  8473   003438                     l11463:
  8474                           
  8475                           ; BSR set to: 0
  8476                           ;MCAL_layer/EEPROM/hal_eeprom.c: 52:     {;MCAL_layer/EEPROM/hal_eeprom.c: 54:         E
      +                          EADRH = (uint8)((badd >> 8) & 0x03) ;
  8477   003438  51AD               	movf	(Data_EEPROM_ReadByte@badd+1)& (0+255),w,b
  8478   00343A  0B03               	andlw	3
  8479   00343C  6EAA               	movwf	170,c	;volatile
  8480   00343E                     
  8481                           ; BSR set to: 0
  8482                           ;MCAL_layer/EEPROM/hal_eeprom.c: 55:         EEADR = (uint8)(badd & 0xFF) ;
  8483   00343E  C0AC  FFA9         	movff	Data_EEPROM_ReadByte@badd,4009	;volatile
  8484   003442                     
  8485                           ; BSR set to: 0
  8486                           ;MCAL_layer/EEPROM/hal_eeprom.c: 57:         EECON1bits.EEPGD = 0;
  8487   003442  9EA6               	bcf	166,7,c	;volsfr
  8488   003444                     
  8489                           ; BSR set to: 0
  8490                           ;MCAL_layer/EEPROM/hal_eeprom.c: 58:         EECON1bits.CFGS = 0;
  8491   003444  9CA6               	bcf	166,6,c	;volsfr
  8492   003446                     
  8493                           ; BSR set to: 0
  8494                           ;MCAL_layer/EEPROM/hal_eeprom.c: 60:          EECON1bits.RD = 1;
  8495   003446  80A6               	bsf	166,0,c	;volsfr
  8496   003448                     
  8497                           ; BSR set to: 0
  8498                           ;MCAL_layer/EEPROM/hal_eeprom.c: 61:          __nop();
  8499   003448  0000               	nop	
  8500   00344A                     
  8501                           ;MCAL_layer/EEPROM/hal_eeprom.c: 62:          __nop();
  8502   00344A  0000               	nop	
  8503   00344C                     
  8504                           ;MCAL_layer/EEPROM/hal_eeprom.c: 64:          *bData = EEDATA;
  8505   00344C  0100               	movlb	0	; () banked
  8506   00344E  51AE               	movf	Data_EEPROM_ReadByte@bData& (0+255),w,b
  8507   003450  6ED9               	movwf	fsr2l,c
  8508   003452  6ADA               	clrf	fsr2h,c
  8509   003454  CFA8 FFDF          	movff	4008,indf2	;volatile
  8510   003458                     l390:
  8511                           
  8512                           ; BSR set to: 0
  8513   003458  0012               	return		;funcret
  8514   00345A                     __end_of_Data_EEPROM_ReadByte:
  8515                           	callstack 0
  8516                           
  8517 ;; *************** function _Application_Initialization *****************
  8518 ;; Defined at:
  8519 ;;		line 118 in file "application.c"
  8520 ;; Parameters:    Size  Location     Type
  8521 ;;		None
  8522 ;; Auto vars:     Size  Location     Type
  8523 ;;		None
  8524 ;; Return value:  Size  Location     Type
  8525 ;;                  1    wreg      void 
  8526 ;; Registers used:
  8527 ;;		wreg, fsr2l, fsr2h, status,2, status,0, prodl, prodh, cstack
  8528 ;; Tracked objects:
  8529 ;;		On entry : 0/0
  8530 ;;		On exit  : 0/0
  8531 ;;		Unchanged: 0/0
  8532 ;; Data sizes:     COMRAM   BANK0   BANK1   BANK2   BANK3   BANK4   BANK5   BANK6   BANK7   BANK8   BANK9  BANK10  BANK1
      +1  BANK12  BANK13  BANK14  BANK15
  8533 ;;      Params:         0       0       0       0       0       0       0       0       0       0       0       0       
      +0       0       0       0       0
  8534 ;;      Locals:         0       0       0       0       0       0       0       0       0       0       0       0       
      +0       0       0       0       0
  8535 ;;      Temps:          0       0       0       0       0       0       0       0       0       0       0       0       
      +0       0       0       0       0
  8536 ;;      Totals:         0       0       0       0       0       0       0       0       0       0       0       0       
      +0       0       0       0       0
  8537 ;;Total ram usage:        0 bytes
  8538 ;; Hardware stack levels used: 1
  8539 ;; Hardware stack levels required when called: 13
  8540 ;; This function calls:
  8541 ;;		_ecu_layer_Initialization
  8542 ;; This function is called by:
  8543 ;;		_main
  8544 ;; This function uses a non-reentrant model
  8545 ;;
  8546                           
  8547                           	psect	text32
  8548   00374E                     __ptext32:
  8549                           	callstack 0
  8550   00374E                     _Application_Initialization:
  8551                           	callstack 17
  8552   00374E                     
  8553                           ;application.c: 120: ecu_layer_Initialization();
  8554   00374E  EC8D  F019         	call	_ecu_layer_Initialization	;wreg free
  8555   003752  0012               	return		;funcret
  8556   003754                     __end_of_Application_Initialization:
  8557                           	callstack 0
  8558                           
  8559 ;; *************** function _ecu_layer_Initialization *****************
  8560 ;; Defined at:
  8561 ;;		line 128 in file "ECU_layer/ecu_layer_init.c"
  8562 ;; Parameters:    Size  Location     Type
  8563 ;;		None
  8564 ;; Auto vars:     Size  Location     Type
  8565 ;;		None
  8566 ;; Return value:  Size  Location     Type
  8567 ;;                  1    wreg      void 
  8568 ;; Registers used:
  8569 ;;		wreg, fsr2l, fsr2h, status,2, status,0, prodl, prodh, cstack
  8570 ;; Tracked objects:
  8571 ;;		On entry : 0/0
  8572 ;;		On exit  : 0/0
  8573 ;;		Unchanged: 0/0
  8574 ;; Data sizes:     COMRAM   BANK0   BANK1   BANK2   BANK3   BANK4   BANK5   BANK6   BANK7   BANK8   BANK9  BANK10  BANK1
      +1  BANK12  BANK13  BANK14  BANK15
  8575 ;;      Params:         0       0       0       0       0       0       0       0       0       0       0       0       
      +0       0       0       0       0
  8576 ;;      Locals:         0       0       0       0       0       0       0       0       0       0       0       0       
      +0       0       0       0       0
  8577 ;;      Temps:          0       0       0       0       0       0       0       0       0       0       0       0       
      +0       0       0       0       0
  8578 ;;      Totals:         0       0       0       0       0       0       0       0       0       0       0       0       
      +0       0       0       0       0
  8579 ;;Total ram usage:        0 bytes
  8580 ;; Hardware stack levels used: 1
  8581 ;; Hardware stack levels required when called: 12
  8582 ;; This function calls:
  8583 ;;		_Interrupt_INTx_Init
  8584 ;;		_ecu_dc_motor_initialize
  8585 ;;		_ecu_keypad_initialize
  8586 ;;		_ecu_led_initialize
  8587 ;;		_gpio_pin_initialize
  8588 ;;		_lcd_4bit_initialize
  8589 ;; This function is called by:
  8590 ;;		_Application_Initialization
  8591 ;; This function uses a non-reentrant model
  8592 ;;
  8593                           
  8594                           	psect	text33
  8595   00331A                     __ptext33:
  8596                           	callstack 0
  8597   00331A                     _ecu_layer_Initialization:
  8598                           	callstack 17
  8599   00331A                     
  8600                           ;ECU_layer/ecu_layer_init.c: 130:     lcd_4bit_initialize(&lcd1);
  8601   00331A  0E4C               	movlw	low _lcd1
  8602   00331C  0100               	movlb	0	; () banked
  8603   00331E  6FBA               	movwf	lcd_4bit_initialize@lcd& (0+255),b
  8604   003320  ECA8  F010         	call	_lcd_4bit_initialize	;wreg free
  8605                           
  8606                           ;ECU_layer/ecu_layer_init.c: 131:     ecu_keypad_initialize(&keypad);
  8607   003324  0EED               	movlw	low _keypad
  8608   003326  0100               	movlb	0	; () banked
  8609   003328  6FB7               	movwf	ecu_keypad_initialize@keypad& (0+255),b
  8610   00332A  ECE7  F017         	call	_ecu_keypad_initialize	;wreg free
  8611                           
  8612                           ;ECU_layer/ecu_layer_init.c: 132:     ecu_led_initialize(&red_led);
  8613   00332E  0E56               	movlw	low _red_led
  8614   003330  0100               	movlb	0	; () banked
  8615   003332  6FB7               	movwf	ecu_led_initialize@led& (0+255),b
  8616   003334  ECE8  F016         	call	_ecu_led_initialize	;wreg free
  8617                           
  8618                           ;ECU_layer/ecu_layer_init.c: 133:     ecu_led_initialize(&green_led);
  8619   003338  0E55               	movlw	low _green_led
  8620   00333A  0100               	movlb	0	; () banked
  8621   00333C  6FB7               	movwf	ecu_led_initialize@led& (0+255),b
  8622   00333E  ECE8  F016         	call	_ecu_led_initialize	;wreg free
  8623                           
  8624                           ;ECU_layer/ecu_layer_init.c: 134:     ecu_dc_motor_initialize(&motor1);
  8625   003342  0E52               	movlw	low _motor1
  8626   003344  0100               	movlb	0	; () banked
  8627   003346  6FB7               	movwf	ecu_dc_motor_initialize@dc_motor& (0+255),b
  8628   003348  ECEC  F01A         	call	_ecu_dc_motor_initialize	;wreg free
  8629                           
  8630                           ;ECU_layer/ecu_layer_init.c: 135:     gpio_pin_initialize(&buzzer);
  8631   00334C  0E54               	movlw	low _buzzer
  8632   00334E  0100               	movlb	0	; () banked
  8633   003350  6FB4               	movwf	gpio_pin_initialize@_pin_config& (0+255),b
  8634   003352  EC85  F017         	call	_gpio_pin_initialize	;wreg free
  8635                           
  8636                           ;ECU_layer/ecu_layer_init.c: 136:     Interrupt_INTx_Init(&INT_obj);
  8637   003356  0EF5               	movlw	low _INT_obj
  8638   003358  0100               	movlb	0	; () banked
  8639   00335A  6FB5               	movwf	Interrupt_INTx_Init@int_obj& (0+255),b
  8640   00335C  ECB7  F017         	call	_Interrupt_INTx_Init	;wreg free
  8641   003360  0012               	return		;funcret
  8642   003362                     __end_of_ecu_layer_Initialization:
  8643                           	callstack 0
  8644                           
  8645 ;; *************** function _lcd_4bit_initialize *****************
  8646 ;; Defined at:
  8647 ;;		line 25 in file "ECU_layer/chr_LCD/ecu_chr_LCD.c"
  8648 ;; Parameters:    Size  Location     Type
  8649 ;;  lcd             1   14[BANK0 ] PTR const struct .
  8650 ;;		 -> lcd1(6), 
  8651 ;; Auto vars:     Size  Location     Type
  8652 ;;  ret             1   17[BANK0 ] unsigned char 
  8653 ;;  counter         1   16[BANK0 ] unsigned char 
  8654 ;; Return value:  Size  Location     Type
  8655 ;;                  1    wreg      unsigned char 
  8656 ;; Registers used:
  8657 ;;		wreg, fsr2l, fsr2h, status,2, status,0, prodl, prodh, cstack
  8658 ;; Tracked objects:
  8659 ;;		On entry : 0/0
  8660 ;;		On exit  : 0/0
  8661 ;;		Unchanged: 0/0
  8662 ;; Data sizes:     COMRAM   BANK0   BANK1   BANK2   BANK3   BANK4   BANK5   BANK6   BANK7   BANK8   BANK9  BANK10  BANK1
      +1  BANK12  BANK13  BANK14  BANK15
  8663 ;;      Params:         0       1       0       0       0       0       0       0       0       0       0       0       
      +0       0       0       0       0
  8664 ;;      Locals:         0       2       0       0       0       0       0       0       0       0       0       0       
      +0       0       0       0       0
  8665 ;;      Temps:          0       1       0       0       0       0       0       0       0       0       0       0       
      +0       0       0       0       0
  8666 ;;      Totals:         0       4       0       0       0       0       0       0       0       0       0       0       
      +0       0       0       0       0
  8667 ;;Total ram usage:        4 bytes
  8668 ;; Hardware stack levels used: 1
  8669 ;; Hardware stack levels required when called: 11
  8670 ;; This function calls:
  8671 ;;		_gpio_pin_initialize
  8672 ;;		_lcd_4bit_send_command
  8673 ;; This function is called by:
  8674 ;;		_ecu_layer_Initialization
  8675 ;; This function uses a non-reentrant model
  8676 ;;
  8677                           
  8678                           	psect	text34
  8679   002150                     __ptext34:
  8680                           	callstack 0
  8681   002150                     _lcd_4bit_initialize:
  8682                           	callstack 17
  8683   002150                     
  8684                           ;ECU_layer/chr_LCD/ecu_chr_LCD.c: 27: uint8 counter = 0 ;
  8685   002150  0E00               	movlw	0
  8686   002152  0100               	movlb	0	; () banked
  8687   002154  6FBC               	movwf	lcd_4bit_initialize@counter& (0+255),b
  8688                           
  8689                           ;ECU_layer/chr_LCD/ecu_chr_LCD.c: 28:     if(((void*)0) == lcd)
  8690   002156  51BA               	movf	lcd_4bit_initialize@lcd& (0+255),w,b
  8691   002158  A4D8               	btfss	status,2,c
  8692   00215A  EFB1  F010         	goto	u10861
  8693   00215E  EFB3  F010         	goto	u10860
  8694   002162                     u10861:
  8695   002162  EFB5  F010         	goto	l11277
  8696   002166                     u10860:
  8697   002166                     
  8698                           ; BSR set to: 0
  8699                           ;ECU_layer/chr_LCD/ecu_chr_LCD.c: 31:     }
  8700   002166  EF27  F011         	goto	l70
  8701   00216A                     l11277:
  8702                           
  8703                           ; BSR set to: 0
  8704                           ;ECU_layer/chr_LCD/ecu_chr_LCD.c: 33:     {;ECU_layer/chr_LCD/ecu_chr_LCD.c: 34:        
      +                           ret = gpio_pin_initialize(&(lcd->rs));
  8705   00216A  C0BA  F0B4         	movff	lcd_4bit_initialize@lcd,gpio_pin_initialize@_pin_config
  8706   00216E  EC85  F017         	call	_gpio_pin_initialize	;wreg free
  8707   002172  0100               	movlb	0	; () banked
  8708   002174  6FBD               	movwf	lcd_4bit_initialize@ret& (0+255),b
  8709                           
  8710                           ;ECU_layer/chr_LCD/ecu_chr_LCD.c: 35:         ret = gpio_pin_initialize(&(lcd->en));
  8711   002176  29BA               	incf	lcd_4bit_initialize@lcd& (0+255),w,b
  8712   002178  6FB4               	movwf	gpio_pin_initialize@_pin_config& (0+255),b
  8713   00217A  EC85  F017         	call	_gpio_pin_initialize	;wreg free
  8714   00217E  0100               	movlb	0	; () banked
  8715   002180  6FBD               	movwf	lcd_4bit_initialize@ret& (0+255),b
  8716   002182                     
  8717                           ; BSR set to: 0
  8718                           ;ECU_layer/chr_LCD/ecu_chr_LCD.c: 36:         for(counter=0 ;counter < 4 ;counter++)
  8719   002182  0E00               	movlw	0
  8720   002184  6FBC               	movwf	lcd_4bit_initialize@counter& (0+255),b
  8721   002186                     l11285:
  8722                           
  8723                           ; BSR set to: 0
  8724   002186  51BA               	movf	lcd_4bit_initialize@lcd& (0+255),w,b
  8725   002188  25BC               	addwf	lcd_4bit_initialize@counter& (0+255),w,b
  8726   00218A  0F02               	addlw	2
  8727   00218C  6FB4               	movwf	gpio_pin_initialize@_pin_config& (0+255),b
  8728   00218E  EC85  F017         	call	_gpio_pin_initialize	;wreg free
  8729   002192                     
  8730                           ;ECU_layer/chr_LCD/ecu_chr_LCD.c: 39:         }
  8731   002192  0100               	movlb	0	; () banked
  8732   002194  2BBC               	incf	lcd_4bit_initialize@counter& (0+255),f,b
  8733   002196                     
  8734                           ; BSR set to: 0
  8735   002196  0E03               	movlw	3
  8736   002198  65BC               	cpfsgt	lcd_4bit_initialize@counter& (0+255),b
  8737   00219A  EFD1  F010         	goto	u10871
  8738   00219E  EFD3  F010         	goto	u10870
  8739   0021A2                     u10871:
  8740   0021A2  EFC3  F010         	goto	l11285
  8741   0021A6                     u10870:
  8742   0021A6                     
  8743                           ; BSR set to: 0
  8744                           ;ECU_layer/chr_LCD/ecu_chr_LCD.c: 40:          _delay((unsigned long)((20)*(8000000ul/40
      +                          00.0)));
  8745   0021A6  0E34               	movlw	52
  8746   0021A8  0100               	movlb	0	; () banked
  8747   0021AA  6FBB               	movwf	??_lcd_4bit_initialize& (0+255),b
  8748   0021AC  0EF1               	movlw	241
  8749   0021AE                     u13827:
  8750   0021AE  2EE8               	decfsz	wreg,f,c
  8751   0021B0  D7FE               	bra	u13827
  8752   0021B2  2FBB               	decfsz	??_lcd_4bit_initialize& (0+255),f,b
  8753   0021B4  D7FC               	bra	u13827
  8754   0021B6  D000               	nop2	
  8755   0021B8  C0BA  F0B7         	movff	lcd_4bit_initialize@lcd,lcd_4bit_send_command@lcd
  8756   0021BC  0E38               	movlw	56
  8757   0021BE  0100               	movlb	0	; () banked
  8758   0021C0  6FB8               	movwf	lcd_4bit_send_command@command& (0+255),b
  8759   0021C2  EC51  F017         	call	_lcd_4bit_send_command	;wreg free
  8760   0021C6                     
  8761                           ;ECU_layer/chr_LCD/ecu_chr_LCD.c: 42:         _delay((unsigned long)((5)*(8000000ul/4000
      +                          .0)));
  8762   0021C6  0E0D               	movlw	13
  8763   0021C8  0100               	movlb	0	; () banked
  8764   0021CA  6FBB               	movwf	??_lcd_4bit_initialize& (0+255),b
  8765   0021CC  0EFB               	movlw	251
  8766   0021CE                     u13837:
  8767   0021CE  2EE8               	decfsz	wreg,f,c
  8768   0021D0  D7FE               	bra	u13837
  8769   0021D2  2FBB               	decfsz	??_lcd_4bit_initialize& (0+255),f,b
  8770   0021D4  D7FC               	bra	u13837
  8771   0021D6  D000               	nop2	
  8772   0021D8  C0BA  F0B7         	movff	lcd_4bit_initialize@lcd,lcd_4bit_send_command@lcd
  8773   0021DC  0E38               	movlw	56
  8774   0021DE  0100               	movlb	0	; () banked
  8775   0021E0  6FB8               	movwf	lcd_4bit_send_command@command& (0+255),b
  8776   0021E2  EC51  F017         	call	_lcd_4bit_send_command	;wreg free
  8777   0021E6                     
  8778                           ;ECU_layer/chr_LCD/ecu_chr_LCD.c: 44:         _delay((unsigned long)((150)*(8000000ul/40
      +                          00000.0)));
  8779   0021E6  0E64               	movlw	100
  8780   0021E8                     u13847:
  8781   0021E8  2EE8               	decfsz	wreg,f,c
  8782   0021EA  D7FE               	bra	u13847
  8783   0021EC  C0BA  F0B7         	movff	lcd_4bit_initialize@lcd,lcd_4bit_send_command@lcd
  8784   0021F0  0E38               	movlw	56
  8785   0021F2  0100               	movlb	0	; () banked
  8786   0021F4  6FB8               	movwf	lcd_4bit_send_command@command& (0+255),b
  8787   0021F6  EC51  F017         	call	_lcd_4bit_send_command	;wreg free
  8788   0021FA  C0BA  F0B7         	movff	lcd_4bit_initialize@lcd,lcd_4bit_send_command@lcd
  8789   0021FE  0E01               	movlw	1
  8790   002200  0100               	movlb	0	; () banked
  8791   002202  6FB8               	movwf	lcd_4bit_send_command@command& (0+255),b
  8792   002204  EC51  F017         	call	_lcd_4bit_send_command	;wreg free
  8793   002208  C0BA  F0B7         	movff	lcd_4bit_initialize@lcd,lcd_4bit_send_command@lcd
  8794   00220C  0E02               	movlw	2
  8795   00220E  0100               	movlb	0	; () banked
  8796   002210  6FB8               	movwf	lcd_4bit_send_command@command& (0+255),b
  8797   002212  EC51  F017         	call	_lcd_4bit_send_command	;wreg free
  8798   002216  C0BA  F0B7         	movff	lcd_4bit_initialize@lcd,lcd_4bit_send_command@lcd
  8799   00221A  0E06               	movlw	6
  8800   00221C  0100               	movlb	0	; () banked
  8801   00221E  6FB8               	movwf	lcd_4bit_send_command@command& (0+255),b
  8802   002220  EC51  F017         	call	_lcd_4bit_send_command	;wreg free
  8803   002224  C0BA  F0B7         	movff	lcd_4bit_initialize@lcd,lcd_4bit_send_command@lcd
  8804   002228  0E0C               	movlw	12
  8805   00222A  0100               	movlb	0	; () banked
  8806   00222C  6FB8               	movwf	lcd_4bit_send_command@command& (0+255),b
  8807   00222E  EC51  F017         	call	_lcd_4bit_send_command	;wreg free
  8808   002232  C0BA  F0B7         	movff	lcd_4bit_initialize@lcd,lcd_4bit_send_command@lcd
  8809   002236  0E28               	movlw	40
  8810   002238  0100               	movlb	0	; () banked
  8811   00223A  6FB8               	movwf	lcd_4bit_send_command@command& (0+255),b
  8812   00223C  EC51  F017         	call	_lcd_4bit_send_command	;wreg free
  8813   002240  C0BA  F0B7         	movff	lcd_4bit_initialize@lcd,lcd_4bit_send_command@lcd
  8814   002244  0E80               	movlw	128
  8815   002246  0100               	movlb	0	; () banked
  8816   002248  6FB8               	movwf	lcd_4bit_send_command@command& (0+255),b
  8817   00224A  EC51  F017         	call	_lcd_4bit_send_command	;wreg free
  8818   00224E                     l70:
  8819   00224E  0012               	return		;funcret
  8820   002250                     __end_of_lcd_4bit_initialize:
  8821                           	callstack 0
  8822                           
  8823 ;; *************** function _lcd_4bit_send_command *****************
  8824 ;; Defined at:
  8825 ;;		line 65 in file "ECU_layer/chr_LCD/ecu_chr_LCD.c"
  8826 ;; Parameters:    Size  Location     Type
  8827 ;;  lcd             1   11[BANK0 ] PTR const struct .
  8828 ;;		 -> lcd1(6), 
  8829 ;;  command         1   12[BANK0 ] unsigned char 
  8830 ;; Auto vars:     Size  Location     Type
  8831 ;;  ret             1   13[BANK0 ] unsigned char 
  8832 ;; Return value:  Size  Location     Type
  8833 ;;                  1    wreg      unsigned char 
  8834 ;; Registers used:
  8835 ;;		wreg, fsr2l, fsr2h, status,2, status,0, prodl, prodh, cstack
  8836 ;; Tracked objects:
  8837 ;;		On entry : 0/0
  8838 ;;		On exit  : 0/0
  8839 ;;		Unchanged: 0/0
  8840 ;; Data sizes:     COMRAM   BANK0   BANK1   BANK2   BANK3   BANK4   BANK5   BANK6   BANK7   BANK8   BANK9  BANK10  BANK1
      +1  BANK12  BANK13  BANK14  BANK15
  8841 ;;      Params:         0       2       0       0       0       0       0       0       0       0       0       0       
      +0       0       0       0       0
  8842 ;;      Locals:         0       1       0       0       0       0       0       0       0       0       0       0       
      +0       0       0       0       0
  8843 ;;      Temps:          0       0       0       0       0       0       0       0       0       0       0       0       
      +0       0       0       0       0
  8844 ;;      Totals:         0       3       0       0       0       0       0       0       0       0       0       0       
      +0       0       0       0       0
  8845 ;;Total ram usage:        3 bytes
  8846 ;; Hardware stack levels used: 1
  8847 ;; Hardware stack levels required when called: 10
  8848 ;; This function calls:
  8849 ;;		_gpio_pin_write_logic
  8850 ;;		_lcd_4bit_send_enable_enable
  8851 ;;		_lcd_send_4bit
  8852 ;; This function is called by:
  8853 ;;		_lcd_4bit_initialize
  8854 ;;		_lcd_4bit_set_curser
  8855 ;;		_welcome_msg
  8856 ;;		_get_password
  8857 ;;		_password_confirmation
  8858 ;;		_entering_password
  8859 ;;		_change_password
  8860 ;;		_lcd_4bit_send_custome_char
  8861 ;; This function uses a non-reentrant model
  8862 ;;
  8863                           
  8864                           	psect	text35
  8865   002EA2                     __ptext35:
  8866                           	callstack 0
  8867   002EA2                     _lcd_4bit_send_command:
  8868                           	callstack 17
  8869   002EA2                     
  8870                           ;ECU_layer/chr_LCD/ecu_chr_LCD.c: 68:     if(((void*)0) == lcd)
  8871   002EA2  0100               	movlb	0	; () banked
  8872   002EA4  51B7               	movf	lcd_4bit_send_command@lcd& (0+255),w,b
  8873   002EA6  A4D8               	btfss	status,2,c
  8874   002EA8  EF58  F017         	goto	u10631
  8875   002EAC  EF5A  F017         	goto	u10630
  8876   002EB0                     u10631:
  8877   002EB0  EF5E  F017         	goto	l11083
  8878   002EB4                     u10630:
  8879   002EB4                     
  8880                           ; BSR set to: 0
  8881                           ;ECU_layer/chr_LCD/ecu_chr_LCD.c: 69:     {;ECU_layer/chr_LCD/ecu_chr_LCD.c: 70:        
      +                           ret = (STD_ReturnType)0x00;
  8882   002EB4  0E00               	movlw	0
  8883   002EB6  6FB9               	movwf	lcd_4bit_send_command@ret& (0+255),b
  8884                           
  8885                           ;ECU_layer/chr_LCD/ecu_chr_LCD.c: 71:     }
  8886   002EB8  EF83  F017         	goto	l11085
  8887   002EBC                     l11083:
  8888                           
  8889                           ; BSR set to: 0
  8890                           ;ECU_layer/chr_LCD/ecu_chr_LCD.c: 73:     {;ECU_layer/chr_LCD/ecu_chr_LCD.c: 75:        
      +                           ret = gpio_pin_write_logic(&(lcd->rs),LOW);
  8891   002EBC  C0B7  F0AC         	movff	lcd_4bit_send_command@lcd,gpio_pin_write_logic@_pin_config
  8892   002EC0  0E00               	movlw	0
  8893   002EC2  6FAD               	movwf	gpio_pin_write_logic@logic& (0+255),b
  8894   002EC4  EC95  F00F         	call	_gpio_pin_write_logic	;wreg free
  8895   002EC8  0100               	movlb	0	; () banked
  8896   002ECA  6FB9               	movwf	lcd_4bit_send_command@ret& (0+255),b
  8897                           
  8898                           ;ECU_layer/chr_LCD/ecu_chr_LCD.c: 76:         ret = lcd_send_4bit(lcd,command >>4);
  8899   002ECC  C0B7  F0B4         	movff	lcd_4bit_send_command@lcd,lcd_send_4bit@lcd
  8900   002ED0  39B8               	swapf	lcd_4bit_send_command@command& (0+255),w,b
  8901   002ED2  0B0F               	andlw	15
  8902   002ED4  6FB5               	movwf	lcd_send_4bit@command_data& (0+255),b
  8903   002ED6  EC72  F018         	call	_lcd_send_4bit	;wreg free
  8904   002EDA  0100               	movlb	0	; () banked
  8905   002EDC  6FB9               	movwf	lcd_4bit_send_command@ret& (0+255),b
  8906                           
  8907                           ;ECU_layer/chr_LCD/ecu_chr_LCD.c: 77:         ret = lcd_4bit_send_enable_enable(lcd);
  8908   002EDE  C0B7  F0B4         	movff	lcd_4bit_send_command@lcd,lcd_4bit_send_enable_enable@lcd
  8909   002EE2  ECD6  F01A         	call	_lcd_4bit_send_enable_enable	;wreg free
  8910   002EE6  0100               	movlb	0	; () banked
  8911   002EE8  6FB9               	movwf	lcd_4bit_send_command@ret& (0+255),b
  8912                           
  8913                           ;ECU_layer/chr_LCD/ecu_chr_LCD.c: 78:         ret = lcd_send_4bit(lcd,command);
  8914   002EEA  C0B7  F0B4         	movff	lcd_4bit_send_command@lcd,lcd_send_4bit@lcd
  8915   002EEE  C0B8  F0B5         	movff	lcd_4bit_send_command@command,lcd_send_4bit@command_data
  8916   002EF2  EC72  F018         	call	_lcd_send_4bit	;wreg free
  8917   002EF6  0100               	movlb	0	; () banked
  8918   002EF8  6FB9               	movwf	lcd_4bit_send_command@ret& (0+255),b
  8919                           
  8920                           ;ECU_layer/chr_LCD/ecu_chr_LCD.c: 79:         ret = lcd_4bit_send_enable_enable(lcd);
  8921   002EFA  C0B7  F0B4         	movff	lcd_4bit_send_command@lcd,lcd_4bit_send_enable_enable@lcd
  8922   002EFE  ECD6  F01A         	call	_lcd_4bit_send_enable_enable	;wreg free
  8923   002F02  0100               	movlb	0	; () banked
  8924   002F04  6FB9               	movwf	lcd_4bit_send_command@ret& (0+255),b
  8925   002F06                     l11085:
  8926                           
  8927                           ; BSR set to: 0
  8928                           ;ECU_layer/chr_LCD/ecu_chr_LCD.c: 84:      return ret;
  8929   002F06  51B9               	movf	lcd_4bit_send_command@ret& (0+255),w,b
  8930   002F08                     
  8931                           ; BSR set to: 0
  8932   002F08  0012               	return		;funcret
  8933   002F0A                     __end_of_lcd_4bit_send_command:
  8934                           	callstack 0
  8935                           
  8936 ;; *************** function _lcd_send_4bit *****************
  8937 ;; Defined at:
  8938 ;;		line 493 in file "ECU_layer/chr_LCD/ecu_chr_LCD.c"
  8939 ;; Parameters:    Size  Location     Type
  8940 ;;  lcd             1    8[BANK0 ] PTR const struct .
  8941 ;;		 -> lcd1(6), 
  8942 ;;  command_data    1    9[BANK0 ] unsigned char 
  8943 ;; Auto vars:     Size  Location     Type
  8944 ;;  ret             1   10[BANK0 ] unsigned char 
  8945 ;; Return value:  Size  Location     Type
  8946 ;;                  1    wreg      unsigned char 
  8947 ;; Registers used:
  8948 ;;		wreg, fsr2l, fsr2h, status,2, status,0, prodl, prodh, cstack
  8949 ;; Tracked objects:
  8950 ;;		On entry : 0/0
  8951 ;;		On exit  : 0/0
  8952 ;;		Unchanged: 0/0
  8953 ;; Data sizes:     COMRAM   BANK0   BANK1   BANK2   BANK3   BANK4   BANK5   BANK6   BANK7   BANK8   BANK9  BANK10  BANK1
      +1  BANK12  BANK13  BANK14  BANK15
  8954 ;;      Params:         0       2       0       0       0       0       0       0       0       0       0       0       
      +0       0       0       0       0
  8955 ;;      Locals:         0       1       0       0       0       0       0       0       0       0       0       0       
      +0       0       0       0       0
  8956 ;;      Temps:          0       0       0       0       0       0       0       0       0       0       0       0       
      +0       0       0       0       0
  8957 ;;      Totals:         0       3       0       0       0       0       0       0       0       0       0       0       
      +0       0       0       0       0
  8958 ;;Total ram usage:        3 bytes
  8959 ;; Hardware stack levels used: 1
  8960 ;; Hardware stack levels required when called: 9
  8961 ;; This function calls:
  8962 ;;		_gpio_pin_write_logic
  8963 ;; This function is called by:
  8964 ;;		_lcd_4bit_send_command
  8965 ;;		_lcd_4bit_send_char_data
  8966 ;; This function uses a non-reentrant model
  8967 ;;
  8968                           
  8969                           	psect	text36
  8970   0030E4                     __ptext36:
  8971                           	callstack 0
  8972   0030E4                     _lcd_send_4bit:
  8973                           	callstack 17
  8974   0030E4  0100               	movlb	0	; () banked
  8975   0030E6  51B4               	movf	lcd_send_4bit@lcd& (0+255),w,b
  8976   0030E8  0F02               	addlw	2
  8977   0030EA  6FAC               	movwf	gpio_pin_write_logic@_pin_config& (0+255),b
  8978   0030EC  51B5               	movf	lcd_send_4bit@command_data& (0+255),w,b
  8979   0030EE  0B01               	andlw	1
  8980   0030F0  6FAD               	movwf	gpio_pin_write_logic@logic& (0+255),b
  8981   0030F2  EC95  F00F         	call	_gpio_pin_write_logic	;wreg free
  8982   0030F6  0100               	movlb	0	; () banked
  8983   0030F8  51B4               	movf	lcd_send_4bit@lcd& (0+255),w,b
  8984   0030FA  0F03               	addlw	3
  8985   0030FC  6FAC               	movwf	gpio_pin_write_logic@_pin_config& (0+255),b
  8986   0030FE  90D8               	bcf	status,0,c
  8987   003100  31B5               	rrcf	lcd_send_4bit@command_data& (0+255),w,b
  8988   003102  0B01               	andlw	1
  8989   003104  6FAD               	movwf	gpio_pin_write_logic@logic& (0+255),b
  8990   003106  EC95  F00F         	call	_gpio_pin_write_logic	;wreg free
  8991   00310A  0100               	movlb	0	; () banked
  8992   00310C  51B4               	movf	lcd_send_4bit@lcd& (0+255),w,b
  8993   00310E  0F04               	addlw	4
  8994   003110  6FAC               	movwf	gpio_pin_write_logic@_pin_config& (0+255),b
  8995   003112  41B5               	rrncf	lcd_send_4bit@command_data& (0+255),w,b
  8996   003114  42E8               	rrncf	wreg,f,c
  8997   003116  0B3F               	andlw	63
  8998   003118  0B01               	andlw	1
  8999   00311A  6FAD               	movwf	gpio_pin_write_logic@logic& (0+255),b
  9000   00311C  EC95  F00F         	call	_gpio_pin_write_logic	;wreg free
  9001   003120                     
  9002                           ;ECU_layer/chr_LCD/ecu_chr_LCD.c: 498: ret = gpio_pin_write_logic(&(lcd->data[3]),(comma
      +                          nd_data >> 3) & 0x01);
  9003   003120  0100               	movlb	0	; () banked
  9004   003122  51B4               	movf	lcd_send_4bit@lcd& (0+255),w,b
  9005   003124  0F05               	addlw	5
  9006   003126  6FAC               	movwf	gpio_pin_write_logic@_pin_config& (0+255),b
  9007   003128  39B5               	swapf	lcd_send_4bit@command_data& (0+255),w,b
  9008   00312A  46E8               	rlncf	wreg,f,c
  9009   00312C  0B1F               	andlw	31
  9010   00312E  0B01               	andlw	1
  9011   003130  6FAD               	movwf	gpio_pin_write_logic@logic& (0+255),b
  9012   003132  EC95  F00F         	call	_gpio_pin_write_logic	;wreg free
  9013   003136  0100               	movlb	0	; () banked
  9014   003138  6FB6               	movwf	lcd_send_4bit@ret& (0+255),b
  9015                           
  9016                           ;ECU_layer/chr_LCD/ecu_chr_LCD.c: 500: return ret;
  9017   00313A  51B6               	movf	lcd_send_4bit@ret& (0+255),w,b
  9018   00313C                     
  9019                           ; BSR set to: 0
  9020   00313C  0012               	return		;funcret
  9021   00313E                     __end_of_lcd_send_4bit:
  9022                           	callstack 0
  9023                           
  9024 ;; *************** function _lcd_4bit_send_enable_enable *****************
  9025 ;; Defined at:
  9026 ;;		line 509 in file "ECU_layer/chr_LCD/ecu_chr_LCD.c"
  9027 ;; Parameters:    Size  Location     Type
  9028 ;;  lcd             1    8[BANK0 ] PTR const struct .
  9029 ;;		 -> lcd1(6), 
  9030 ;; Auto vars:     Size  Location     Type
  9031 ;;  ret             1    9[BANK0 ] unsigned char 
  9032 ;; Return value:  Size  Location     Type
  9033 ;;                  1    wreg      unsigned char 
  9034 ;; Registers used:
  9035 ;;		wreg, fsr2l, fsr2h, status,2, status,0, prodl, prodh, cstack
  9036 ;; Tracked objects:
  9037 ;;		On entry : 0/0
  9038 ;;		On exit  : 0/0
  9039 ;;		Unchanged: 0/0
  9040 ;; Data sizes:     COMRAM   BANK0   BANK1   BANK2   BANK3   BANK4   BANK5   BANK6   BANK7   BANK8   BANK9  BANK10  BANK1
      +1  BANK12  BANK13  BANK14  BANK15
  9041 ;;      Params:         0       1       0       0       0       0       0       0       0       0       0       0       
      +0       0       0       0       0
  9042 ;;      Locals:         0       1       0       0       0       0       0       0       0       0       0       0       
      +0       0       0       0       0
  9043 ;;      Temps:          0       0       0       0       0       0       0       0       0       0       0       0       
      +0       0       0       0       0
  9044 ;;      Totals:         0       2       0       0       0       0       0       0       0       0       0       0       
      +0       0       0       0       0
  9045 ;;Total ram usage:        2 bytes
  9046 ;; Hardware stack levels used: 1
  9047 ;; Hardware stack levels required when called: 9
  9048 ;; This function calls:
  9049 ;;		_gpio_pin_write_logic
  9050 ;; This function is called by:
  9051 ;;		_lcd_4bit_send_command
  9052 ;;		_lcd_4bit_send_char_data
  9053 ;; This function uses a non-reentrant model
  9054 ;;
  9055                           
  9056                           	psect	text37
  9057   0035AC                     __ptext37:
  9058                           	callstack 0
  9059   0035AC                     _lcd_4bit_send_enable_enable:
  9060                           	callstack 17
  9061   0035AC  0100               	movlb	0	; () banked
  9062   0035AE  29B4               	incf	lcd_4bit_send_enable_enable@lcd& (0+255),w,b
  9063   0035B0  6FAC               	movwf	gpio_pin_write_logic@_pin_config& (0+255),b
  9064   0035B2  0E01               	movlw	1
  9065   0035B4  6FAD               	movwf	gpio_pin_write_logic@logic& (0+255),b
  9066   0035B6  EC95  F00F         	call	_gpio_pin_write_logic	;wreg free
  9067   0035BA                     
  9068                           ;ECU_layer/chr_LCD/ecu_chr_LCD.c: 512: _delay((unsigned long)((5)*(8000000ul/4000000.0))
      +                          );
  9069   0035BA  0E03               	movlw	3
  9070   0035BC                     u13857:
  9071   0035BC  2EE8               	decfsz	wreg,f,c
  9072   0035BE  D7FE               	bra	u13857
  9073   0035C0  0000               	nop	
  9074   0035C2                     
  9075                           ;ECU_layer/chr_LCD/ecu_chr_LCD.c: 513: ret = gpio_pin_write_logic(&(lcd->en),LOW);
  9076   0035C2  0100               	movlb	0	; () banked
  9077   0035C4  29B4               	incf	lcd_4bit_send_enable_enable@lcd& (0+255),w,b
  9078   0035C6  6FAC               	movwf	gpio_pin_write_logic@_pin_config& (0+255),b
  9079   0035C8  0E00               	movlw	0
  9080   0035CA  6FAD               	movwf	gpio_pin_write_logic@logic& (0+255),b
  9081   0035CC  EC95  F00F         	call	_gpio_pin_write_logic	;wreg free
  9082   0035D0  0100               	movlb	0	; () banked
  9083   0035D2  6FB5               	movwf	lcd_4bit_send_enable_enable@ret& (0+255),b
  9084   0035D4                     
  9085                           ; BSR set to: 0
  9086                           ;ECU_layer/chr_LCD/ecu_chr_LCD.c: 515: return ret;
  9087   0035D4  51B5               	movf	lcd_4bit_send_enable_enable@ret& (0+255),w,b
  9088   0035D6                     
  9089                           ; BSR set to: 0
  9090   0035D6  0012               	return		;funcret
  9091   0035D8                     __end_of_lcd_4bit_send_enable_enable:
  9092                           	callstack 0
  9093                           
  9094 ;; *************** function _ecu_led_initialize *****************
  9095 ;; Defined at:
  9096 ;;		line 16 in file "ECU_layer/LED/ecu_led.c"
  9097 ;; Parameters:    Size  Location     Type
  9098 ;;  led             1   11[BANK0 ] PTR const struct .
  9099 ;;		 -> green_led(1), red_led(1), 
  9100 ;; Auto vars:     Size  Location     Type
  9101 ;;  led_pin         1   13[BANK0 ] struct .
  9102 ;;  ret             1    0        unsigned char 
  9103 ;; Return value:  Size  Location     Type
  9104 ;;                  1    wreg      unsigned char 
  9105 ;; Registers used:
  9106 ;;		wreg, fsr2l, fsr2h, status,2, status,0, prodl, prodh, cstack
  9107 ;; Tracked objects:
  9108 ;;		On entry : 0/0
  9109 ;;		On exit  : 0/0
  9110 ;;		Unchanged: 0/0
  9111 ;; Data sizes:     COMRAM   BANK0   BANK1   BANK2   BANK3   BANK4   BANK5   BANK6   BANK7   BANK8   BANK9  BANK10  BANK1
      +1  BANK12  BANK13  BANK14  BANK15
  9112 ;;      Params:         0       1       0       0       0       0       0       0       0       0       0       0       
      +0       0       0       0       0
  9113 ;;      Locals:         0       1       0       0       0       0       0       0       0       0       0       0       
      +0       0       0       0       0
  9114 ;;      Temps:          0       1       0       0       0       0       0       0       0       0       0       0       
      +0       0       0       0       0
  9115 ;;      Totals:         0       3       0       0       0       0       0       0       0       0       0       0       
      +0       0       0       0       0
  9116 ;;Total ram usage:        3 bytes
  9117 ;; Hardware stack levels used: 1
  9118 ;; Hardware stack levels required when called: 10
  9119 ;; This function calls:
  9120 ;;		_gpio_pin_initialize
  9121 ;; This function is called by:
  9122 ;;		_ecu_layer_Initialization
  9123 ;; This function uses a non-reentrant model
  9124 ;;
  9125                           
  9126                           	psect	text38
  9127   002DD0                     __ptext38:
  9128                           	callstack 0
  9129   002DD0                     _ecu_led_initialize:
  9130                           	callstack 18
  9131   002DD0                     
  9132                           ;ECU_layer/LED/ecu_led.c: 18:     if(((void*)0) == led)
  9133   002DD0  0100               	movlb	0	; () banked
  9134   002DD2  51B7               	movf	ecu_led_initialize@led& (0+255),w,b
  9135   002DD4  A4D8               	btfss	status,2,c
  9136   002DD6  EFEF  F016         	goto	u11041
  9137   002DDA  EFF1  F016         	goto	u11040
  9138   002DDE                     u11041:
  9139   002DDE  EFF3  F016         	goto	l269
  9140   002DE2                     u11040:
  9141   002DE2                     
  9142                           ; BSR set to: 0
  9143                           ;ECU_layer/LED/ecu_led.c: 21:     }
  9144   002DE2  EF1C  F017         	goto	l273
  9145   002DE6                     l269:
  9146                           
  9147                           ; BSR set to: 0
  9148                           ;ECU_layer/LED/ecu_led.c: 23:     {;ECU_layer/LED/ecu_led.c: 24:         pin_config_t le
      +                          d_pin = {.port =led->port_name , .pin = led->pin ,
  9149   002DE6  C047  F0B9         	movff	ecu_led_initialize@F3059,ecu_led_initialize@led_pin
  9150   002DEA                     
  9151                           ; BSR set to: 0
  9152   002DEA  51B7               	movf	ecu_led_initialize@led& (0+255),w,b
  9153   002DEC  6ED9               	movwf	fsr2l,c
  9154   002DEE  6ADA               	clrf	fsr2h,c
  9155   002DF0  50DF               	movf	223,w,c
  9156   002DF2  0B0F               	andlw	15
  9157   002DF4  6FB8               	movwf	??_ecu_led_initialize& (0+255),b
  9158   002DF6  51B9               	movf	ecu_led_initialize@led_pin& (0+255),w,b
  9159   002DF8  19B8               	xorwf	??_ecu_led_initialize& (0+255),w,b
  9160   002DFA  0BF8               	andlw	-8
  9161   002DFC  19B8               	xorwf	??_ecu_led_initialize& (0+255),w,b
  9162   002DFE  6FB9               	movwf	ecu_led_initialize@led_pin& (0+255),b
  9163   002E00  51B7               	movf	ecu_led_initialize@led& (0+255),w,b
  9164   002E02  6ED9               	movwf	fsr2l,c
  9165   002E04  6ADA               	clrf	fsr2h,c
  9166   002E06  38DF               	swapf	223,w,c
  9167   002E08  0B07               	andlw	7
  9168   002E0A  6FB8               	movwf	??_ecu_led_initialize& (0+255),b
  9169   002E0C  47B8               	rlncf	??_ecu_led_initialize& (0+255),f,b
  9170   002E0E  47B8               	rlncf	??_ecu_led_initialize& (0+255),f,b
  9171   002E10  47B8               	rlncf	??_ecu_led_initialize& (0+255),f,b
  9172   002E12  51B9               	movf	ecu_led_initialize@led_pin& (0+255),w,b
  9173   002E14  19B8               	xorwf	??_ecu_led_initialize& (0+255),w,b
  9174   002E16  0BC7               	andlw	-57
  9175   002E18  19B8               	xorwf	??_ecu_led_initialize& (0+255),w,b
  9176   002E1A  6FB9               	movwf	ecu_led_initialize@led_pin& (0+255),b
  9177   002E1C                     
  9178                           ; BSR set to: 0
  9179   002E1C  9DB9               	bcf	ecu_led_initialize@led_pin& (0+255),6,b
  9180   002E1E                     
  9181                           ; BSR set to: 0
  9182   002E1E  51B7               	movf	ecu_led_initialize@led& (0+255),w,b
  9183   002E20  6ED9               	movwf	fsr2l,c
  9184   002E22  6ADA               	clrf	fsr2h,c
  9185   002E24  AEDF               	btfss	indf2,7,c
  9186   002E26  D002               	bra	u11055
  9187   002E28  8FB9               	bsf	ecu_led_initialize@led_pin& (0+255),7,b
  9188   002E2A  D002               	bra	u11057
  9189   002E2C                     u11055:
  9190   002E2C  0100               	movlb	0	; () banked
  9191   002E2E  9FB9               	bcf	ecu_led_initialize@led_pin& (0+255),7,b
  9192   002E30                     u11057:
  9193   002E30                     
  9194                           ; BSR set to: 0
  9195                           ;ECU_layer/LED/ecu_led.c: 26:         gpio_pin_initialize(&led_pin);
  9196   002E30  0EB9               	movlw	low ecu_led_initialize@led_pin
  9197   002E32  6FB4               	movwf	gpio_pin_initialize@_pin_config& (0+255),b
  9198   002E34  EC85  F017         	call	_gpio_pin_initialize	;wreg free
  9199   002E38                     l273:
  9200   002E38  0012               	return		;funcret
  9201   002E3A                     __end_of_ecu_led_initialize:
  9202                           	callstack 0
  9203                           
  9204 ;; *************** function _ecu_keypad_initialize *****************
  9205 ;; Defined at:
  9206 ;;		line 25 in file "ECU_layer/Keypad/ecu_keypad.c"
  9207 ;; Parameters:    Size  Location     Type
  9208 ;;  keypad          1   11[BANK0 ] PTR const struct .
  9209 ;;		 -> keypad(8), 
  9210 ;; Auto vars:     Size  Location     Type
  9211 ;;  columns         1   13[BANK0 ] unsigned char 
  9212 ;;  rows            1   12[BANK0 ] unsigned char 
  9213 ;;  ret             1    0        unsigned char 
  9214 ;; Return value:  Size  Location     Type
  9215 ;;                  1    wreg      unsigned char 
  9216 ;; Registers used:
  9217 ;;		wreg, fsr2l, fsr2h, status,2, status,0, prodl, prodh, cstack
  9218 ;; Tracked objects:
  9219 ;;		On entry : 0/0
  9220 ;;		On exit  : 0/0
  9221 ;;		Unchanged: 0/0
  9222 ;; Data sizes:     COMRAM   BANK0   BANK1   BANK2   BANK3   BANK4   BANK5   BANK6   BANK7   BANK8   BANK9  BANK10  BANK1
      +1  BANK12  BANK13  BANK14  BANK15
  9223 ;;      Params:         0       1       0       0       0       0       0       0       0       0       0       0       
      +0       0       0       0       0
  9224 ;;      Locals:         0       2       0       0       0       0       0       0       0       0       0       0       
      +0       0       0       0       0
  9225 ;;      Temps:          0       0       0       0       0       0       0       0       0       0       0       0       
      +0       0       0       0       0
  9226 ;;      Totals:         0       3       0       0       0       0       0       0       0       0       0       0       
      +0       0       0       0       0
  9227 ;;Total ram usage:        3 bytes
  9228 ;; Hardware stack levels used: 1
  9229 ;; Hardware stack levels required when called: 10
  9230 ;; This function calls:
  9231 ;;		_gpio_pin_direction_initialize
  9232 ;;		_gpio_pin_initialize
  9233 ;; This function is called by:
  9234 ;;		_ecu_layer_Initialization
  9235 ;; This function uses a non-reentrant model
  9236 ;;
  9237                           
  9238                           	psect	text39
  9239   002FCE                     __ptext39:
  9240                           	callstack 0
  9241   002FCE                     _ecu_keypad_initialize:
  9242                           	callstack 18
  9243   002FCE                     
  9244                           ;ECU_layer/Keypad/ecu_keypad.c: 27: uint8 rows,columns;;ECU_layer/Keypad/ecu_keypad.c: 2
      +                          8:     if(((void*)0) == keypad)
  9245   002FCE  0100               	movlb	0	; () banked
  9246   002FD0  51B7               	movf	ecu_keypad_initialize@keypad& (0+255),w,b
  9247   002FD2  A4D8               	btfss	status,2,c
  9248   002FD4  EFEE  F017         	goto	u10951
  9249   002FD8  EFF0  F017         	goto	u10950
  9250   002FDC                     u10951:
  9251   002FDC  EFF2  F017         	goto	l11369
  9252   002FE0                     u10950:
  9253   002FE0                     
  9254                           ; BSR set to: 0
  9255                           ;ECU_layer/Keypad/ecu_keypad.c: 31:     }
  9256   002FE0  EF15  F018         	goto	l246
  9257   002FE4                     l11369:
  9258                           
  9259                           ; BSR set to: 0
  9260                           ;ECU_layer/Keypad/ecu_keypad.c: 33:     {;ECU_layer/Keypad/ecu_keypad.c: 34:         for
      +                          (rows = 0;rows < 4 ;rows++)
  9261   002FE4  0E00               	movlw	0
  9262   002FE6  6FB8               	movwf	ecu_keypad_initialize@rows& (0+255),b
  9263   002FE8                     l11375:
  9264                           
  9265                           ; BSR set to: 0
  9266                           ;ECU_layer/Keypad/ecu_keypad.c: 35:         {;ECU_layer/Keypad/ecu_keypad.c: 36:        
      +                               gpio_pin_initialize(&(keypad->keypad_rows_pins[rows]));
  9267   002FE8  51B7               	movf	ecu_keypad_initialize@keypad& (0+255),w,b
  9268   002FEA  25B8               	addwf	ecu_keypad_initialize@rows& (0+255),w,b
  9269   002FEC  6FB4               	movwf	gpio_pin_initialize@_pin_config& (0+255),b
  9270   002FEE  EC85  F017         	call	_gpio_pin_initialize	;wreg free
  9271   002FF2                     
  9272                           ;ECU_layer/Keypad/ecu_keypad.c: 38:         }
  9273   002FF2  0100               	movlb	0	; () banked
  9274   002FF4  2BB8               	incf	ecu_keypad_initialize@rows& (0+255),f,b
  9275   002FF6                     
  9276                           ; BSR set to: 0
  9277   002FF6  0E03               	movlw	3
  9278   002FF8  65B8               	cpfsgt	ecu_keypad_initialize@rows& (0+255),b
  9279   002FFA  EF01  F018         	goto	u10961
  9280   002FFE  EF03  F018         	goto	u10960
  9281   003002                     u10961:
  9282   003002  EFF4  F017         	goto	l11375
  9283   003006                     u10960:
  9284   003006                     
  9285                           ; BSR set to: 0
  9286                           ;ECU_layer/Keypad/ecu_keypad.c: 39:         for(columns = 0;columns < 4 ;columns++){
  9287   003006  0E00               	movlw	0
  9288   003008  6FB9               	movwf	ecu_keypad_initialize@columns& (0+255),b
  9289   00300A                     l11387:
  9290                           
  9291                           ; BSR set to: 0
  9292                           ;ECU_layer/Keypad/ecu_keypad.c: 40:                 gpio_pin_direction_initialize(&(keyp
      +                          ad->keypad_columns_pins[columns]));
  9293   00300A  51B7               	movf	ecu_keypad_initialize@keypad& (0+255),w,b
  9294   00300C  25B9               	addwf	ecu_keypad_initialize@columns& (0+255),w,b
  9295   00300E  0F04               	addlw	4
  9296   003010  6FAC               	movwf	gpio_pin_direction_initialize@_pin_config& (0+255),b
  9297   003012  EC70  F00E         	call	_gpio_pin_direction_initialize	;wreg free
  9298   003016                     
  9299                           ;ECU_layer/Keypad/ecu_keypad.c: 41:             }
  9300   003016  0100               	movlb	0	; () banked
  9301   003018  2BB9               	incf	ecu_keypad_initialize@columns& (0+255),f,b
  9302   00301A                     
  9303                           ; BSR set to: 0
  9304   00301A  0E03               	movlw	3
  9305   00301C  65B9               	cpfsgt	ecu_keypad_initialize@columns& (0+255),b
  9306   00301E  EF13  F018         	goto	u10971
  9307   003022  EF15  F018         	goto	u10970
  9308   003026                     u10971:
  9309   003026  EF05  F018         	goto	l11387
  9310   00302A                     u10970:
  9311   00302A                     l246:
  9312                           
  9313                           ; BSR set to: 0
  9314   00302A  0012               	return		;funcret
  9315   00302C                     __end_of_ecu_keypad_initialize:
  9316                           	callstack 0
  9317                           
  9318 ;; *************** function _ecu_dc_motor_initialize *****************
  9319 ;; Defined at:
  9320 ;;		line 19 in file "ECU_layer/DC_motor/ecu_DC_motor.c"
  9321 ;; Parameters:    Size  Location     Type
  9322 ;;  dc_motor        1   11[BANK0 ] PTR const struct .
  9323 ;;		 -> motor1(2), 
  9324 ;; Auto vars:     Size  Location     Type
  9325 ;;  ret             1    0        unsigned char 
  9326 ;; Return value:  Size  Location     Type
  9327 ;;                  1    wreg      unsigned char 
  9328 ;; Registers used:
  9329 ;;		wreg, fsr2l, fsr2h, status,2, status,0, prodl, prodh, cstack
  9330 ;; Tracked objects:
  9331 ;;		On entry : 0/0
  9332 ;;		On exit  : 0/0
  9333 ;;		Unchanged: 0/0
  9334 ;; Data sizes:     COMRAM   BANK0   BANK1   BANK2   BANK3   BANK4   BANK5   BANK6   BANK7   BANK8   BANK9  BANK10  BANK1
      +1  BANK12  BANK13  BANK14  BANK15
  9335 ;;      Params:         0       1       0       0       0       0       0       0       0       0       0       0       
      +0       0       0       0       0
  9336 ;;      Locals:         0       0       0       0       0       0       0       0       0       0       0       0       
      +0       0       0       0       0
  9337 ;;      Temps:          0       0       0       0       0       0       0       0       0       0       0       0       
      +0       0       0       0       0
  9338 ;;      Totals:         0       1       0       0       0       0       0       0       0       0       0       0       
      +0       0       0       0       0
  9339 ;;Total ram usage:        1 bytes
  9340 ;; Hardware stack levels used: 1
  9341 ;; Hardware stack levels required when called: 10
  9342 ;; This function calls:
  9343 ;;		_gpio_pin_initialize
  9344 ;; This function is called by:
  9345 ;;		_ecu_layer_Initialization
  9346 ;; This function uses a non-reentrant model
  9347 ;;
  9348                           
  9349                           	psect	text40
  9350   0035D8                     __ptext40:
  9351                           	callstack 0
  9352   0035D8                     _ecu_dc_motor_initialize:
  9353                           	callstack 18
  9354   0035D8                     
  9355                           ;ECU_layer/DC_motor/ecu_DC_motor.c: 21:     if(((void*)0) == dc_motor)
  9356   0035D8  0100               	movlb	0	; () banked
  9357   0035DA  51B7               	movf	ecu_dc_motor_initialize@dc_motor& (0+255),w,b
  9358   0035DC  A4D8               	btfss	status,2,c
  9359   0035DE  EFF3  F01A         	goto	u10941
  9360   0035E2  EFF5  F01A         	goto	u10940
  9361   0035E6                     u10941:
  9362   0035E6  EFF7  F01A         	goto	l11361
  9363   0035EA                     u10940:
  9364   0035EA                     
  9365                           ; BSR set to: 0
  9366                           ;ECU_layer/DC_motor/ecu_DC_motor.c: 24:     }
  9367   0035EA  EF00  F01B         	goto	l210
  9368   0035EE                     l11361:
  9369                           
  9370                           ; BSR set to: 0
  9371                           ;ECU_layer/DC_motor/ecu_DC_motor.c: 26:     {;ECU_layer/DC_motor/ecu_DC_motor.c: 28:    
      +                               gpio_pin_initialize(&(dc_motor->dc_motor_pin[0]));
  9372   0035EE  C0B7  F0B4         	movff	ecu_dc_motor_initialize@dc_motor,gpio_pin_initialize@_pin_config
  9373   0035F2  EC85  F017         	call	_gpio_pin_initialize	;wreg free
  9374                           
  9375                           ;ECU_layer/DC_motor/ecu_DC_motor.c: 29:         gpio_pin_initialize(&(dc_motor->dc_motor
      +                          _pin[1]));
  9376   0035F6  0100               	movlb	0	; () banked
  9377   0035F8  29B7               	incf	ecu_dc_motor_initialize@dc_motor& (0+255),w,b
  9378   0035FA  6FB4               	movwf	gpio_pin_initialize@_pin_config& (0+255),b
  9379   0035FC  EC85  F017         	call	_gpio_pin_initialize	;wreg free
  9380   003600                     l210:
  9381   003600  0012               	return		;funcret
  9382   003602                     __end_of_ecu_dc_motor_initialize:
  9383                           	callstack 0
  9384                           
  9385 ;; *************** function _gpio_pin_initialize *****************
  9386 ;; Defined at:
  9387 ;;		line 164 in file "MCAL_layer/GPIO/hal_gpio.c"
  9388 ;; Parameters:    Size  Location     Type
  9389 ;;  _pin_config     1    8[BANK0 ] PTR const struct .
  9390 ;;		 -> buzzer(1), keypad$keypad_rows_pins(4), keypad(8), lcd1$data(4), 
  9391 ;;		 -> motor1$dc_motor_pin(2), motor1(2), lcd1(6), ecu_relay_initialize@relay_pin(1), 
  9392 ;;		 -> ecu_led_initialize@led_pin(1), 
  9393 ;; Auto vars:     Size  Location     Type
  9394 ;;  ret             1   10[BANK0 ] unsigned char 
  9395 ;; Return value:  Size  Location     Type
  9396 ;;                  1    wreg      unsigned char 
  9397 ;; Registers used:
  9398 ;;		wreg, fsr2l, fsr2h, status,2, status,0, prodl, prodh, cstack
  9399 ;; Tracked objects:
  9400 ;;		On entry : 0/0
  9401 ;;		On exit  : 0/0
  9402 ;;		Unchanged: 0/0
  9403 ;; Data sizes:     COMRAM   BANK0   BANK1   BANK2   BANK3   BANK4   BANK5   BANK6   BANK7   BANK8   BANK9  BANK10  BANK1
      +1  BANK12  BANK13  BANK14  BANK15
  9404 ;;      Params:         0       1       0       0       0       0       0       0       0       0       0       0       
      +0       0       0       0       0
  9405 ;;      Locals:         0       1       0       0       0       0       0       0       0       0       0       0       
      +0       0       0       0       0
  9406 ;;      Temps:          0       1       0       0       0       0       0       0       0       0       0       0       
      +0       0       0       0       0
  9407 ;;      Totals:         0       3       0       0       0       0       0       0       0       0       0       0       
      +0       0       0       0       0
  9408 ;;Total ram usage:        3 bytes
  9409 ;; Hardware stack levels used: 1
  9410 ;; Hardware stack levels required when called: 9
  9411 ;; This function calls:
  9412 ;;		_gpio_pin_direction_initialize
  9413 ;;		_gpio_pin_write_logic
  9414 ;; This function is called by:
  9415 ;;		_lcd_4bit_initialize
  9416 ;;		_ecu_dc_motor_initialize
  9417 ;;		_ecu_keypad_initialize
  9418 ;;		_ecu_led_initialize
  9419 ;;		_ecu_layer_Initialization
  9420 ;;		_ecu_seven_segment_initialize
  9421 ;;		_lcd_8bit_initialize
  9422 ;;		_ecu_relay_initialize
  9423 ;; This function uses a non-reentrant model
  9424 ;;
  9425                           
  9426                           	psect	text41
  9427   002F0A                     __ptext41:
  9428                           	callstack 0
  9429   002F0A                     _gpio_pin_initialize:
  9430                           	callstack 18
  9431   002F0A                     
  9432                           ;MCAL_layer/GPIO/hal_gpio.c: 167:     if(((void*)0) == _pin_config || _pin_config->pin >
      +                           8 -1)
  9433   002F0A  0100               	movlb	0	; () banked
  9434   002F0C  51B4               	movf	gpio_pin_initialize@_pin_config& (0+255),w,b
  9435   002F0E  B4D8               	btfsc	status,2,c
  9436   002F10  EF8C  F017         	goto	u10751
  9437   002F14  EF8E  F017         	goto	u10750
  9438   002F18                     u10751:
  9439   002F18  EF9E  F017         	goto	l11155
  9440   002F1C                     u10750:
  9441   002F1C                     
  9442                           ; BSR set to: 0
  9443   002F1C  51B4               	movf	gpio_pin_initialize@_pin_config& (0+255),w,b
  9444   002F1E  6ED9               	movwf	fsr2l,c
  9445   002F20  6ADA               	clrf	fsr2h,c
  9446   002F22  30DF               	rrcf	223,w,c
  9447   002F24  32E8               	rrcf	wreg,f,c
  9448   002F26  32E8               	rrcf	wreg,f,c
  9449   002F28  0B07               	andlw	7
  9450   002F2A  6FB5               	movwf	??_gpio_pin_initialize& (0+255),b
  9451   002F2C  0E07               	movlw	7
  9452   002F2E  65B5               	cpfsgt	??_gpio_pin_initialize& (0+255),b
  9453   002F30  EF9C  F017         	goto	u10761
  9454   002F34  EF9E  F017         	goto	u10760
  9455   002F38                     u10761:
  9456   002F38  EFA2  F017         	goto	l11157
  9457   002F3C                     u10760:
  9458   002F3C                     l11155:
  9459                           
  9460                           ; BSR set to: 0
  9461                           ;MCAL_layer/GPIO/hal_gpio.c: 168:     {;MCAL_layer/GPIO/hal_gpio.c: 169:         ret = (
      +                          STD_ReturnType)0x00;
  9462   002F3C  0E00               	movlw	0
  9463   002F3E  6FB6               	movwf	gpio_pin_initialize@ret& (0+255),b
  9464                           
  9465                           ;MCAL_layer/GPIO/hal_gpio.c: 170:     }
  9466   002F40  EFB5  F017         	goto	l11159
  9467   002F44                     l11157:
  9468                           
  9469                           ; BSR set to: 0
  9470                           ;MCAL_layer/GPIO/hal_gpio.c: 172:     {;MCAL_layer/GPIO/hal_gpio.c: 173:         ret = g
      +                          pio_pin_direction_initialize(_pin_config);
  9471   002F44  C0B4  F0AC         	movff	gpio_pin_initialize@_pin_config,gpio_pin_direction_initialize@_pin_config
  9472   002F48  EC70  F00E         	call	_gpio_pin_direction_initialize	;wreg free
  9473   002F4C  0100               	movlb	0	; () banked
  9474   002F4E  6FB6               	movwf	gpio_pin_initialize@ret& (0+255),b
  9475                           
  9476                           ;MCAL_layer/GPIO/hal_gpio.c: 174:         ret = gpio_pin_write_logic(_pin_config, _pin_c
      +                          onfig->logic);
  9477   002F50  C0B4  F0AC         	movff	gpio_pin_initialize@_pin_config,gpio_pin_write_logic@_pin_config
  9478   002F54  51B4               	movf	gpio_pin_initialize@_pin_config& (0+255),w,b
  9479   002F56  6ED9               	movwf	fsr2l,c
  9480   002F58  6ADA               	clrf	fsr2h,c
  9481   002F5A  0E00               	movlw	0
  9482   002F5C  BEDF               	btfsc	indf2,7,c
  9483   002F5E  0E01               	movlw	1
  9484   002F60  6FAD               	movwf	gpio_pin_write_logic@logic& (0+255),b
  9485   002F62  EC95  F00F         	call	_gpio_pin_write_logic	;wreg free
  9486   002F66  0100               	movlb	0	; () banked
  9487   002F68  6FB6               	movwf	gpio_pin_initialize@ret& (0+255),b
  9488   002F6A                     l11159:
  9489                           
  9490                           ; BSR set to: 0
  9491                           ;MCAL_layer/GPIO/hal_gpio.c: 177:      return ret;
  9492   002F6A  51B6               	movf	gpio_pin_initialize@ret& (0+255),w,b
  9493   002F6C                     
  9494                           ; BSR set to: 0
  9495   002F6C  0012               	return		;funcret
  9496   002F6E                     __end_of_gpio_pin_initialize:
  9497                           	callstack 0
  9498                           
  9499 ;; *************** function _gpio_pin_write_logic *****************
  9500 ;; Defined at:
  9501 ;;		line 83 in file "MCAL_layer/GPIO/hal_gpio.c"
  9502 ;; Parameters:    Size  Location     Type
  9503 ;;  _pin_config     1    0[BANK0 ] PTR const struct .
  9504 ;;		 -> buzzer(1), keypad$keypad_rows_pins(4), keypad(8), lcd1$data(4), 
  9505 ;;		 -> motor1$dc_motor_pin(2), motor1(2), lcd1(6), ecu_relay_off@relay_pin(1), 
  9506 ;;		 -> ecu_relay_on@relay_pin(1), ecu_relay_initialize@relay_pin(1), ecu_led_turn_off@led_pin(1), ecu_led_turn_on@led_p
      +in(1), 
  9507 ;;		 -> ecu_led_initialize@led_pin(1), 
  9508 ;;  logic           1    1[BANK0 ] enum E2979
  9509 ;; Auto vars:     Size  Location     Type
  9510 ;;  ret             1    7[BANK0 ] unsigned char 
  9511 ;; Return value:  Size  Location     Type
  9512 ;;                  1    wreg      unsigned char 
  9513 ;; Registers used:
  9514 ;;		wreg, fsr2l, fsr2h, status,2, status,0, prodl, prodh
  9515 ;; Tracked objects:
  9516 ;;		On entry : 0/0
  9517 ;;		On exit  : 0/0
  9518 ;;		Unchanged: 0/0
  9519 ;; Data sizes:     COMRAM   BANK0   BANK1   BANK2   BANK3   BANK4   BANK5   BANK6   BANK7   BANK8   BANK9  BANK10  BANK1
      +1  BANK12  BANK13  BANK14  BANK15
  9520 ;;      Params:         0       2       0       0       0       0       0       0       0       0       0       0       
      +0       0       0       0       0
  9521 ;;      Locals:         0       1       0       0       0       0       0       0       0       0       0       0       
      +0       0       0       0       0
  9522 ;;      Temps:          0       5       0       0       0       0       0       0       0       0       0       0       
      +0       0       0       0       0
  9523 ;;      Totals:         0       8       0       0       0       0       0       0       0       0       0       0       
      +0       0       0       0       0
  9524 ;;Total ram usage:        8 bytes
  9525 ;; Hardware stack levels used: 1
  9526 ;; Hardware stack levels required when called: 8
  9527 ;; This function calls:
  9528 ;;		Nothing
  9529 ;; This function is called by:
  9530 ;;		_lcd_4bit_send_command
  9531 ;;		_lcd_4bit_send_char_data
  9532 ;;		_lcd_send_4bit
  9533 ;;		_lcd_4bit_send_enable_enable
  9534 ;;		_ecu_dc_motor_move_left
  9535 ;;		_ecu_dc_motor_stop
  9536 ;;		_ecu_keypad_get_value
  9537 ;;		_ecu_led_turn_on
  9538 ;;		_ecu_led_turn_off
  9539 ;;		_gpio_pin_initialize
  9540 ;;		_main
  9541 ;;		_ecu_seven_segment_write_number
  9542 ;;		_lcd_8bit_send_command
  9543 ;;		_lcd_8bit_send_char_data
  9544 ;;		_lcd_8bit_send_enable_enable
  9545 ;;		_ecu_dc_motor_move_right
  9546 ;;		_ecu_relay_on
  9547 ;;		_ecu_relay_off
  9548 ;; This function uses a non-reentrant model
  9549 ;;
  9550                           
  9551                           	psect	text42
  9552   001F2A                     __ptext42:
  9553                           	callstack 0
  9554   001F2A                     _gpio_pin_write_logic:
  9555                           	callstack 17
  9556   001F2A                     
  9557                           ;MCAL_layer/GPIO/hal_gpio.c: 83: STD_ReturnType gpio_pin_write_logic(const pin_config_t*
      +                           _pin_config, logic_t logic);MCAL_layer/GPIO/hal_gpio.c: 84: {;MCAL_layer/GPIO/hal_gpio.
      +                          c: 85:     STD_ReturnType ret = (STD_ReturnType)0x01;
  9558   001F2A  0E01               	movlw	1
  9559   001F2C  0100               	movlb	0	; () banked
  9560   001F2E  6FB3               	movwf	gpio_pin_write_logic@ret& (0+255),b
  9561                           
  9562                           ;MCAL_layer/GPIO/hal_gpio.c: 86:     if(((void*)0) == _pin_config || _pin_config->pin > 
      +                          8 -1)
  9563   001F30  51AC               	movf	gpio_pin_write_logic@_pin_config& (0+255),w,b
  9564   001F32  B4D8               	btfsc	status,2,c
  9565   001F34  EF9E  F00F         	goto	u10381
  9566   001F38  EFA0  F00F         	goto	u10380
  9567   001F3C                     u10381:
  9568   001F3C  EFB0  F00F         	goto	l10893
  9569   001F40                     u10380:
  9570   001F40                     
  9571                           ; BSR set to: 0
  9572   001F40  51AC               	movf	gpio_pin_write_logic@_pin_config& (0+255),w,b
  9573   001F42  6ED9               	movwf	fsr2l,c
  9574   001F44  6ADA               	clrf	fsr2h,c
  9575   001F46  30DF               	rrcf	223,w,c
  9576   001F48  32E8               	rrcf	wreg,f,c
  9577   001F4A  32E8               	rrcf	wreg,f,c
  9578   001F4C  0B07               	andlw	7
  9579   001F4E  6FAE               	movwf	??_gpio_pin_write_logic& (0+255),b
  9580   001F50  0E07               	movlw	7
  9581   001F52  65AE               	cpfsgt	??_gpio_pin_write_logic& (0+255),b
  9582   001F54  EFAE  F00F         	goto	u10391
  9583   001F58  EFB0  F00F         	goto	u10390
  9584   001F5C                     u10391:
  9585   001F5C  EF09  F010         	goto	l10901
  9586   001F60                     u10390:
  9587   001F60                     l10893:
  9588                           
  9589                           ; BSR set to: 0
  9590                           ;MCAL_layer/GPIO/hal_gpio.c: 87:     {;MCAL_layer/GPIO/hal_gpio.c: 88:         ret = (ST
      +                          D_ReturnType)0x00;
  9591   001F60  0E00               	movlw	0
  9592   001F62  6FB3               	movwf	gpio_pin_write_logic@ret& (0+255),b
  9593                           
  9594                           ;MCAL_layer/GPIO/hal_gpio.c: 89:     }
  9595   001F64  EF1E  F010         	goto	l10903
  9596   001F68                     l10895:
  9597                           
  9598                           ; BSR set to: 0
  9599                           ;MCAL_layer/GPIO/hal_gpio.c: 95:             (*lat_registers[_pin_config->port] &= ~((ui
      +                          nt8)1 << _pin_config->pin));
  9600   001F68  51AC               	movf	gpio_pin_write_logic@_pin_config& (0+255),w,b
  9601   001F6A  6ED9               	movwf	fsr2l,c
  9602   001F6C  6ADA               	clrf	fsr2h,c
  9603   001F6E  30DF               	rrcf	223,w,c
  9604   001F70  32E8               	rrcf	wreg,f,c
  9605   001F72  32E8               	rrcf	wreg,f,c
  9606   001F74  0B07               	andlw	7
  9607   001F76  6FAE               	movwf	??_gpio_pin_write_logic& (0+255),b
  9608   001F78  0E01               	movlw	1
  9609   001F7A  6FAF               	movwf	(??_gpio_pin_write_logic+1)& (0+255),b
  9610   001F7C  2BAE               	incf	??_gpio_pin_write_logic& (0+255),f,b
  9611   001F7E  EFC3  F00F         	goto	u10404
  9612   001F82                     u10405:
  9613   001F82  90D8               	bcf	status,0,c
  9614   001F84  37AF               	rlcf	(??_gpio_pin_write_logic+1)& (0+255),f,b
  9615   001F86                     u10404:
  9616   001F86  2FAE               	decfsz	??_gpio_pin_write_logic& (0+255),f,b
  9617   001F88  EFC1  F00F         	goto	u10405
  9618   001F8C  0100               	movlb	0	; () banked
  9619   001F8E  51AF               	movf	(??_gpio_pin_write_logic+1)& (0+255),w,b
  9620   001F90  0AFF               	xorlw	255
  9621   001F92  6FB0               	movwf	(??_gpio_pin_write_logic+2)& (0+255),b
  9622   001F94  51AC               	movf	gpio_pin_write_logic@_pin_config& (0+255),w,b
  9623   001F96  6ED9               	movwf	fsr2l,c
  9624   001F98  6ADA               	clrf	fsr2h,c
  9625   001F9A  50DF               	movf	223,w,c
  9626   001F9C  0B07               	andlw	7
  9627   001F9E  0D02               	mullw	2
  9628   001FA0  50F3               	movf	243,w,c
  9629   001FA2  0FD6               	addlw	low _lat_registers
  9630   001FA4  6ED9               	movwf	fsr2l,c
  9631   001FA6  6ADA               	clrf	fsr2h,c
  9632   001FA8  CFDE F0B1          	movff	postinc2,??_gpio_pin_write_logic+3
  9633   001FAC  CFDD F0B2          	movff	postdec2,??_gpio_pin_write_logic+4
  9634   001FB0  C0B1  FFD9         	movff	??_gpio_pin_write_logic+3,fsr2l
  9635   001FB4  C0B2  FFDA         	movff	??_gpio_pin_write_logic+4,fsr2h
  9636   001FB8  51B0               	movf	(??_gpio_pin_write_logic+2)& (0+255),w,b
  9637   001FBA  16DF               	andwf	indf2,f,c
  9638                           
  9639                           ;MCAL_layer/GPIO/hal_gpio.c: 96:             break;
  9640   001FBC  EF1E  F010         	goto	l10903
  9641   001FC0                     l10897:
  9642                           
  9643                           ; BSR set to: 0
  9644                           ;MCAL_layer/GPIO/hal_gpio.c: 98:             (*lat_registers[_pin_config->port] |= ((uin
      +                          t8)1 << _pin_config->pin));
  9645   001FC0  51AC               	movf	gpio_pin_write_logic@_pin_config& (0+255),w,b
  9646   001FC2  6ED9               	movwf	fsr2l,c
  9647   001FC4  6ADA               	clrf	fsr2h,c
  9648   001FC6  30DF               	rrcf	223,w,c
  9649   001FC8  32E8               	rrcf	wreg,f,c
  9650   001FCA  32E8               	rrcf	wreg,f,c
  9651   001FCC  0B07               	andlw	7
  9652   001FCE  6FAE               	movwf	??_gpio_pin_write_logic& (0+255),b
  9653   001FD0  0E01               	movlw	1
  9654   001FD2  6FAF               	movwf	(??_gpio_pin_write_logic+1)& (0+255),b
  9655   001FD4  2BAE               	incf	??_gpio_pin_write_logic& (0+255),f,b
  9656   001FD6  EFEF  F00F         	goto	u10414
  9657   001FDA                     u10415:
  9658   001FDA  90D8               	bcf	status,0,c
  9659   001FDC  37AF               	rlcf	(??_gpio_pin_write_logic+1)& (0+255),f,b
  9660   001FDE                     u10414:
  9661   001FDE  2FAE               	decfsz	??_gpio_pin_write_logic& (0+255),f,b
  9662   001FE0  EFED  F00F         	goto	u10415
  9663   001FE4  0100               	movlb	0	; () banked
  9664   001FE6  51AC               	movf	gpio_pin_write_logic@_pin_config& (0+255),w,b
  9665   001FE8  6ED9               	movwf	fsr2l,c
  9666   001FEA  6ADA               	clrf	fsr2h,c
  9667   001FEC  50DF               	movf	223,w,c
  9668   001FEE  0B07               	andlw	7
  9669   001FF0  0D02               	mullw	2
  9670   001FF2  50F3               	movf	243,w,c
  9671   001FF4  0FD6               	addlw	low _lat_registers
  9672   001FF6  6ED9               	movwf	fsr2l,c
  9673   001FF8  6ADA               	clrf	fsr2h,c
  9674   001FFA  CFDE F0B0          	movff	postinc2,??_gpio_pin_write_logic+2
  9675   001FFE  CFDD F0B1          	movff	postdec2,??_gpio_pin_write_logic+3
  9676   002002  C0B0  FFD9         	movff	??_gpio_pin_write_logic+2,fsr2l
  9677   002006  C0B1  FFDA         	movff	??_gpio_pin_write_logic+3,fsr2h
  9678   00200A  51AF               	movf	(??_gpio_pin_write_logic+1)& (0+255),w,b
  9679   00200C  12DF               	iorwf	indf2,f,c
  9680                           
  9681                           ;MCAL_layer/GPIO/hal_gpio.c: 99:             break;
  9682   00200E  EF1E  F010         	goto	l10903
  9683   002012                     l10901:
  9684                           
  9685                           ; BSR set to: 0
  9686   002012  51AD               	movf	gpio_pin_write_logic@logic& (0+255),w,b
  9687   002014  6FAE               	movwf	??_gpio_pin_write_logic& (0+255),b
  9688   002016  6BAF               	clrf	(??_gpio_pin_write_logic+1)& (0+255),b
  9689                           
  9690                           ; Switch on 2 bytes has been partitioned into a top level switch of size 1, and 1 sub-sw
      +                          itches
  9691                           ; Switch size 1, requested type "simple"
  9692                           ; Number of cases is 1, Range of values is 0 to 0
  9693                           ; switch strategies available:
  9694                           ; Name         Instructions Cycles
  9695                           ; simple_byte            4     3 (average)
  9696                           ;	Chosen strategy is simple_byte
  9697   002018  51AF               	movf	(??_gpio_pin_write_logic+1)& (0+255),w,b
  9698   00201A  0A00               	xorlw	0	; case 0
  9699   00201C  B4D8               	btfsc	status,2,c
  9700   00201E  EF13  F010         	goto	l13541
  9701   002022  EFB0  F00F         	goto	l10893
  9702   002026                     l13541:
  9703                           
  9704                           ; BSR set to: 0
  9705                           ; Switch size 1, requested type "simple"
  9706                           ; Number of cases is 2, Range of values is 0 to 1
  9707                           ; switch strategies available:
  9708                           ; Name         Instructions Cycles
  9709                           ; simple_byte            7     4 (average)
  9710                           ;	Chosen strategy is simple_byte
  9711   002026  51AE               	movf	??_gpio_pin_write_logic& (0+255),w,b
  9712   002028  0A00               	xorlw	0	; case 0
  9713   00202A  B4D8               	btfsc	status,2,c
  9714   00202C  EFB4  F00F         	goto	l10895
  9715   002030  0A01               	xorlw	1	; case 1
  9716   002032  B4D8               	btfsc	status,2,c
  9717   002034  EFE0  F00F         	goto	l10897
  9718   002038  EFB0  F00F         	goto	l10893
  9719   00203C                     l10903:
  9720                           
  9721                           ; BSR set to: 0
  9722                           ;MCAL_layer/GPIO/hal_gpio.c: 104:      return ret;
  9723   00203C  51B3               	movf	gpio_pin_write_logic@ret& (0+255),w,b
  9724   00203E                     
  9725                           ; BSR set to: 0
  9726   00203E  0012               	return		;funcret
  9727   002040                     __end_of_gpio_pin_write_logic:
  9728                           	callstack 0
  9729                           
  9730 ;; *************** function _Interrupt_INTx_Init *****************
  9731 ;; Defined at:
  9732 ;;		line 48 in file "MCAL_layer/Interrupt/mcal_external_interrupt.c"
  9733 ;; Parameters:    Size  Location     Type
  9734 ;;  int_obj         1    9[BANK0 ] PTR const struct .
  9735 ;;		 -> INT_obj(6), 
  9736 ;; Auto vars:     Size  Location     Type
  9737 ;;  ret             1   10[BANK0 ] unsigned char 
  9738 ;; Return value:  Size  Location     Type
  9739 ;;                  1    wreg      unsigned char 
  9740 ;; Registers used:
  9741 ;;		wreg, fsr2l, fsr2h, status,2, status,0, prodl, prodh, cstack
  9742 ;; Tracked objects:
  9743 ;;		On entry : 0/0
  9744 ;;		On exit  : 0/0
  9745 ;;		Unchanged: 0/0
  9746 ;; Data sizes:     COMRAM   BANK0   BANK1   BANK2   BANK3   BANK4   BANK5   BANK6   BANK7   BANK8   BANK9  BANK10  BANK1
      +1  BANK12  BANK13  BANK14  BANK15
  9747 ;;      Params:         0       1       0       0       0       0       0       0       0       0       0       0       
      +0       0       0       0       0
  9748 ;;      Locals:         0       1       0       0       0       0       0       0       0       0       0       0       
      +0       0       0       0       0
  9749 ;;      Temps:          0       0       0       0       0       0       0       0       0       0       0       0       
      +0       0       0       0       0
  9750 ;;      Totals:         0       2       0       0       0       0       0       0       0       0       0       0       
      +0       0       0       0       0
  9751 ;;Total ram usage:        2 bytes
  9752 ;; Hardware stack levels used: 1
  9753 ;; Hardware stack levels required when called: 10
  9754 ;; This function calls:
  9755 ;;		_INTERRUPT_INTx_clear_flag
  9756 ;;		_INTERRUPT_INTx_disable
  9757 ;;		_INTERRUPT_INTx_edge_int
  9758 ;;		_INTERRUPT_INTx_enable
  9759 ;;		_INTERRUPT_INTx_pin_int
  9760 ;;		_INTERRUPT_SET_INTERRUPT_HANDLER
  9761 ;; This function is called by:
  9762 ;;		_ecu_layer_Initialization
  9763 ;; This function uses a non-reentrant model
  9764 ;;
  9765                           
  9766                           	psect	text43
  9767   002F6E                     __ptext43:
  9768                           	callstack 0
  9769   002F6E                     _Interrupt_INTx_Init:
  9770                           	callstack 18
  9771   002F6E                     
  9772                           ;MCAL_layer/Interrupt/mcal_external_interrupt.c: 50:     if(((void*)0) == int_obj)
  9773   002F6E  0100               	movlb	0	; () banked
  9774   002F70  51B5               	movf	Interrupt_INTx_Init@int_obj& (0+255),w,b
  9775   002F72  A4D8               	btfss	status,2,c
  9776   002F74  EFBE  F017         	goto	u6471
  9777   002F78  EFC0  F017         	goto	u6470
  9778   002F7C                     u6471:
  9779   002F7C  EFC2  F017         	goto	l7355
  9780   002F80                     u6470:
  9781   002F80                     
  9782                           ; BSR set to: 0
  9783                           ;MCAL_layer/Interrupt/mcal_external_interrupt.c: 53:     }
  9784   002F80  EFE6  F017         	goto	l578
  9785   002F84                     l7355:
  9786                           
  9787                           ; BSR set to: 0
  9788                           ;MCAL_layer/Interrupt/mcal_external_interrupt.c: 55:     {;MCAL_layer/Interrupt/mcal_ext
      +                          ernal_interrupt.c: 57:         ret = INTERRUPT_INTx_disable(int_obj);
  9789   002F84  C0B5  F0AC         	movff	Interrupt_INTx_Init@int_obj,INTERRUPT_INTx_disable@int_obj
  9790   002F88  EC0A  F016         	call	_INTERRUPT_INTx_disable	;wreg free
  9791   002F8C  0100               	movlb	0	; () banked
  9792   002F8E  6FB6               	movwf	Interrupt_INTx_Init@ret& (0+255),b
  9793                           
  9794                           ;MCAL_layer/Interrupt/mcal_external_interrupt.c: 59:         ret |= INTERRUPT_INTx_clear
      +                          _flag(int_obj);
  9795   002F90  C0B5  F0AC         	movff	Interrupt_INTx_Init@int_obj,INTERRUPT_INTx_clear_flag@int_obj
  9796   002F94  EC42  F016         	call	_INTERRUPT_INTx_clear_flag	;wreg free
  9797   002F98  0100               	movlb	0	; () banked
  9798   002F9A  13B6               	iorwf	Interrupt_INTx_Init@ret& (0+255),f,b
  9799                           
  9800                           ;MCAL_layer/Interrupt/mcal_external_interrupt.c: 61:         ret |= INTERRUPT_INTx_edge_
      +                          int(int_obj);
  9801   002F9C  C0B5  F0AC         	movff	Interrupt_INTx_Init@int_obj,INTERRUPT_INTx_edge_int@int_obj
  9802   002FA0  EC06  F00F         	call	_INTERRUPT_INTx_edge_int	;wreg free
  9803   002FA4  0100               	movlb	0	; () banked
  9804   002FA6  13B6               	iorwf	Interrupt_INTx_Init@ret& (0+255),f,b
  9805   002FA8                     
  9806                           ; BSR set to: 0
  9807                           ;MCAL_layer/Interrupt/mcal_external_interrupt.c: 67:         ret |= INTERRUPT_INTx_pin_i
      +                          nt(int_obj);
  9808   002FA8  C0B5  F0B3         	movff	Interrupt_INTx_Init@int_obj,INTERRUPT_INTx_pin_int@int_obj
  9809   002FAC  EC7A  F01A         	call	_INTERRUPT_INTx_pin_int	;wreg free
  9810   002FB0  0100               	movlb	0	; () banked
  9811   002FB2  13B6               	iorwf	Interrupt_INTx_Init@ret& (0+255),f,b
  9812   002FB4                     
  9813                           ; BSR set to: 0
  9814                           ;MCAL_layer/Interrupt/mcal_external_interrupt.c: 69:         ret |= INTERRUPT_SET_INTERR
      +                          UPT_HANDLER(int_obj);
  9815   002FB4  C0B5  F0AE         	movff	Interrupt_INTx_Init@int_obj,INTERRUPT_SET_INTERRUPT_HANDLER@int_obj
  9816   002FB8  ECDB  F013         	call	_INTERRUPT_SET_INTERRUPT_HANDLER	;wreg free
  9817   002FBC  0100               	movlb	0	; () banked
  9818   002FBE  13B6               	iorwf	Interrupt_INTx_Init@ret& (0+255),f,b
  9819   002FC0                     
  9820                           ; BSR set to: 0
  9821                           ;MCAL_layer/Interrupt/mcal_external_interrupt.c: 71:         ret |= INTERRUPT_INTx_enabl
      +                          e(int_obj);
  9822   002FC0  C0B5  F0AC         	movff	Interrupt_INTx_Init@int_obj,INTERRUPT_INTx_enable@int_obj
  9823   002FC4  EC91  F015         	call	_INTERRUPT_INTx_enable	;wreg free
  9824   002FC8  0100               	movlb	0	; () banked
  9825   002FCA  13B6               	iorwf	Interrupt_INTx_Init@ret& (0+255),f,b
  9826   002FCC                     l578:
  9827                           
  9828                           ; BSR set to: 0
  9829   002FCC  0012               	return		;funcret
  9830   002FCE                     __end_of_Interrupt_INTx_Init:
  9831                           	callstack 0
  9832                           
  9833 ;; *************** function _INTERRUPT_SET_INTERRUPT_HANDLER *****************
  9834 ;; Defined at:
  9835 ;;		line 616 in file "MCAL_layer/Interrupt/mcal_external_interrupt.c"
  9836 ;; Parameters:    Size  Location     Type
  9837 ;;  int_obj         1    2[BANK0 ] PTR const struct .
  9838 ;;		 -> INT_obj(6), 
  9839 ;; Auto vars:     Size  Location     Type
  9840 ;;  ret             1    5[BANK0 ] unsigned char 
  9841 ;; Return value:  Size  Location     Type
  9842 ;;                  1    wreg      unsigned char 
  9843 ;; Registers used:
  9844 ;;		wreg, fsr2l, fsr2h, status,2, status,0, cstack
  9845 ;; Tracked objects:
  9846 ;;		On entry : 0/0
  9847 ;;		On exit  : 0/0
  9848 ;;		Unchanged: 0/0
  9849 ;; Data sizes:     COMRAM   BANK0   BANK1   BANK2   BANK3   BANK4   BANK5   BANK6   BANK7   BANK8   BANK9  BANK10  BANK1
      +1  BANK12  BANK13  BANK14  BANK15
  9850 ;;      Params:         0       1       0       0       0       0       0       0       0       0       0       0       
      +0       0       0       0       0
  9851 ;;      Locals:         0       1       0       0       0       0       0       0       0       0       0       0       
      +0       0       0       0       0
  9852 ;;      Temps:          0       2       0       0       0       0       0       0       0       0       0       0       
      +0       0       0       0       0
  9853 ;;      Totals:         0       4       0       0       0       0       0       0       0       0       0       0       
      +0       0       0       0       0
  9854 ;;Total ram usage:        4 bytes
  9855 ;; Hardware stack levels used: 1
  9856 ;; Hardware stack levels required when called: 9
  9857 ;; This function calls:
  9858 ;;		_INT0_SET_INTERRUPT_HANDLER
  9859 ;;		_INT1_SET_INTERRUPT_HANDLER
  9860 ;;		_INT2_SET_INTERRUPT_HANDLER
  9861 ;; This function is called by:
  9862 ;;		_Interrupt_INTx_Init
  9863 ;; This function uses a non-reentrant model
  9864 ;;
  9865                           
  9866                           	psect	text44
  9867   0027B6                     __ptext44:
  9868                           	callstack 0
  9869   0027B6                     _INTERRUPT_SET_INTERRUPT_HANDLER:
  9870                           	callstack 18
  9871   0027B6                     
  9872                           ;MCAL_layer/Interrupt/mcal_external_interrupt.c: 617:     STD_ReturnType ret = (STD_Retu
      +                          rnType)0x01;
  9873   0027B6  0E01               	movlw	1
  9874   0027B8  0100               	movlb	0	; () banked
  9875   0027BA  6FB1               	movwf	INTERRUPT_SET_INTERRUPT_HANDLER@ret& (0+255),b
  9876                           
  9877                           ;MCAL_layer/Interrupt/mcal_external_interrupt.c: 618:     if(((void*)0) == int_obj)
  9878   0027BC  51AE               	movf	INTERRUPT_SET_INTERRUPT_HANDLER@int_obj& (0+255),w,b
  9879   0027BE  A4D8               	btfss	status,2,c
  9880   0027C0  EFE4  F013         	goto	u6231
  9881   0027C4  EFE6  F013         	goto	u6230
  9882   0027C8                     u6231:
  9883   0027C8  EF0B  F014         	goto	l7095
  9884   0027CC                     u6230:
  9885   0027CC                     l7085:
  9886                           
  9887                           ; BSR set to: 0
  9888                           ;MCAL_layer/Interrupt/mcal_external_interrupt.c: 619:     {;MCAL_layer/Interrupt/mcal_ex
      +                          ternal_interrupt.c: 620:         ret = (STD_ReturnType)0x00;
  9889   0027CC  0E00               	movlw	0
  9890   0027CE  6FB1               	movwf	INTERRUPT_SET_INTERRUPT_HANDLER@ret& (0+255),b
  9891                           
  9892                           ;MCAL_layer/Interrupt/mcal_external_interrupt.c: 621:     }
  9893   0027D0  EF29  F014         	goto	l7097
  9894   0027D4                     l7087:
  9895                           
  9896                           ; BSR set to: 0
  9897   0027D4  51AE               	movf	INTERRUPT_SET_INTERRUPT_HANDLER@int_obj& (0+255),w,b
  9898   0027D6  6ED9               	movwf	fsr2l,c
  9899   0027D8  6ADA               	clrf	fsr2h,c
  9900   0027DA  CFDE F0AC          	movff	postinc2,INT0_SET_INTERRUPT_HANDLER@INTERRUPT_HANDLER
  9901   0027DE  CFDD F0AD          	movff	postdec2,INT0_SET_INTERRUPT_HANDLER@INTERRUPT_HANDLER+1
  9902   0027E2  EC49  F01B         	call	_INT0_SET_INTERRUPT_HANDLER	;wreg free
  9903   0027E6  EF29  F014         	goto	l7097
  9904   0027EA                     l7089:
  9905                           
  9906                           ; BSR set to: 0
  9907   0027EA  51AE               	movf	INTERRUPT_SET_INTERRUPT_HANDLER@int_obj& (0+255),w,b
  9908   0027EC  6ED9               	movwf	fsr2l,c
  9909   0027EE  6ADA               	clrf	fsr2h,c
  9910   0027F0  CFDE F0AC          	movff	postinc2,INT1_SET_INTERRUPT_HANDLER@INTERRUPT_HANDLER
  9911   0027F4  CFDD F0AD          	movff	postdec2,INT1_SET_INTERRUPT_HANDLER@INTERRUPT_HANDLER+1
  9912   0027F8  EC38  F01B         	call	_INT1_SET_INTERRUPT_HANDLER	;wreg free
  9913   0027FC  EF29  F014         	goto	l7097
  9914   002800                     l7091:
  9915                           
  9916                           ; BSR set to: 0
  9917   002800  51AE               	movf	INTERRUPT_SET_INTERRUPT_HANDLER@int_obj& (0+255),w,b
  9918   002802  6ED9               	movwf	fsr2l,c
  9919   002804  6ADA               	clrf	fsr2h,c
  9920   002806  CFDE F0AC          	movff	postinc2,INT2_SET_INTERRUPT_HANDLER@INTERRUPT_HANDLER
  9921   00280A  CFDD F0AD          	movff	postdec2,INT2_SET_INTERRUPT_HANDLER@INTERRUPT_HANDLER+1
  9922   00280E  EC27  F01B         	call	_INT2_SET_INTERRUPT_HANDLER	;wreg free
  9923   002812  EF29  F014         	goto	l7097
  9924   002816                     l7095:
  9925                           
  9926                           ; BSR set to: 0
  9927   002816  51AE               	movf	INTERRUPT_SET_INTERRUPT_HANDLER@int_obj& (0+255),w,b
  9928   002818  6ED9               	movwf	fsr2l,c
  9929   00281A  6ADA               	clrf	fsr2h,c
  9930   00281C  0E04               	movlw	4
  9931   00281E  26D9               	addwf	fsr2l,f,c
  9932   002820  50DF               	movf	indf2,w,c
  9933   002822  6FAF               	movwf	??_INTERRUPT_SET_INTERRUPT_HANDLER& (0+255),b
  9934   002824  6BB0               	clrf	(??_INTERRUPT_SET_INTERRUPT_HANDLER+1)& (0+255),b
  9935                           
  9936                           ; Switch on 2 bytes has been partitioned into a top level switch of size 1, and 1 sub-sw
      +                          itches
  9937                           ; Switch size 1, requested type "simple"
  9938                           ; Number of cases is 1, Range of values is 0 to 0
  9939                           ; switch strategies available:
  9940                           ; Name         Instructions Cycles
  9941                           ; simple_byte            4     3 (average)
  9942                           ;	Chosen strategy is simple_byte
  9943   002826  51B0               	movf	(??_INTERRUPT_SET_INTERRUPT_HANDLER+1)& (0+255),w,b
  9944   002828  0A00               	xorlw	0	; case 0
  9945   00282A  B4D8               	btfsc	status,2,c
  9946   00282C  EF1A  F014         	goto	l13543
  9947   002830  EFE6  F013         	goto	l7085
  9948   002834                     l13543:
  9949                           
  9950                           ; BSR set to: 0
  9951                           ; Switch size 1, requested type "simple"
  9952                           ; Number of cases is 3, Range of values is 0 to 2
  9953                           ; switch strategies available:
  9954                           ; Name         Instructions Cycles
  9955                           ; simple_byte           10     6 (average)
  9956                           ;	Chosen strategy is simple_byte
  9957   002834  51AF               	movf	??_INTERRUPT_SET_INTERRUPT_HANDLER& (0+255),w,b
  9958   002836  0A00               	xorlw	0	; case 0
  9959   002838  B4D8               	btfsc	status,2,c
  9960   00283A  EFEA  F013         	goto	l7087
  9961   00283E  0A01               	xorlw	1	; case 1
  9962   002840  B4D8               	btfsc	status,2,c
  9963   002842  EFF5  F013         	goto	l7089
  9964   002846  0A03               	xorlw	3	; case 2
  9965   002848  B4D8               	btfsc	status,2,c
  9966   00284A  EF00  F014         	goto	l7091
  9967   00284E  EFE6  F013         	goto	l7085
  9968   002852                     l7097:
  9969                           
  9970                           ;MCAL_layer/Interrupt/mcal_external_interrupt.c: 632:      return ret;
  9971   002852  0100               	movlb	0	; () banked
  9972   002854  51B1               	movf	INTERRUPT_SET_INTERRUPT_HANDLER@ret& (0+255),w,b
  9973   002856                     
  9974                           ; BSR set to: 0
  9975   002856  0012               	return		;funcret
  9976   002858                     __end_of_INTERRUPT_SET_INTERRUPT_HANDLER:
  9977                           	callstack 0
  9978                           
  9979 ;; *************** function _INT2_SET_INTERRUPT_HANDLER *****************
  9980 ;; Defined at:
  9981 ;;		line 596 in file "MCAL_layer/Interrupt/mcal_external_interrupt.c"
  9982 ;; Parameters:    Size  Location     Type
  9983 ;;  INTERRUPT_HA    2    0[BANK0 ] PTR FTN()void 
  9984 ;;		 -> INT0_app_ISR(1), 
  9985 ;; Auto vars:     Size  Location     Type
  9986 ;;  ret             1    0        unsigned char 
  9987 ;; Return value:  Size  Location     Type
  9988 ;;                  1    wreg      unsigned char 
  9989 ;; Registers used:
  9990 ;;		wreg, status,2, status,0
  9991 ;; Tracked objects:
  9992 ;;		On entry : 0/0
  9993 ;;		On exit  : 0/0
  9994 ;;		Unchanged: 0/0
  9995 ;; Data sizes:     COMRAM   BANK0   BANK1   BANK2   BANK3   BANK4   BANK5   BANK6   BANK7   BANK8   BANK9  BANK10  BANK1
      +1  BANK12  BANK13  BANK14  BANK15
  9996 ;;      Params:         0       2       0       0       0       0       0       0       0       0       0       0       
      +0       0       0       0       0
  9997 ;;      Locals:         0       0       0       0       0       0       0       0       0       0       0       0       
      +0       0       0       0       0
  9998 ;;      Temps:          0       0       0       0       0       0       0       0       0       0       0       0       
      +0       0       0       0       0
  9999 ;;      Totals:         0       2       0       0       0       0       0       0       0       0       0       0       
      +0       0       0       0       0
 10000 ;;Total ram usage:        2 bytes
 10001 ;; Hardware stack levels used: 1
 10002 ;; Hardware stack levels required when called: 8
 10003 ;; This function calls:
 10004 ;;		Nothing
 10005 ;; This function is called by:
 10006 ;;		_INTERRUPT_SET_INTERRUPT_HANDLER
 10007 ;; This function uses a non-reentrant model
 10008 ;;
 10009                           
 10010                           	psect	text45
 10011   00364E                     __ptext45:
 10012                           	callstack 0
 10013   00364E                     _INT2_SET_INTERRUPT_HANDLER:
 10014                           	callstack 18
 10015   00364E                     
 10016                           ;MCAL_layer/Interrupt/mcal_external_interrupt.c: 598:     if(((void*)0) == INTERRUPT_HAN
      +                          DLER)
 10017   00364E  0100               	movlb	0	; () banked
 10018   003650  51AC               	movf	INT2_SET_INTERRUPT_HANDLER@INTERRUPT_HANDLER& (0+255),w,b
 10019   003652  11AD               	iorwf	(INT2_SET_INTERRUPT_HANDLER@INTERRUPT_HANDLER+1)& (0+255),w,b
 10020   003654  A4D8               	btfss	status,2,c
 10021   003656  EF2F  F01B         	goto	u5921
 10022   00365A  EF31  F01B         	goto	u5920
 10023   00365E                     u5921:
 10024   00365E  EF33  F01B         	goto	l6853
 10025   003662                     u5920:
 10026   003662                     
 10027                           ; BSR set to: 0
 10028                           ;MCAL_layer/Interrupt/mcal_external_interrupt.c: 601:     }
 10029   003662  EF37  F01B         	goto	l749
 10030   003666                     l6853:
 10031                           
 10032                           ; BSR set to: 0
 10033                           ;MCAL_layer/Interrupt/mcal_external_interrupt.c: 603:     {;MCAL_layer/Interrupt/mcal_ex
      +                          ternal_interrupt.c: 604:        INT2_INTERRUPT_HANDLER = INTERRUPT_HANDLER;
 10034   003666  C0AC  F03A         	movff	INT2_SET_INTERRUPT_HANDLER@INTERRUPT_HANDLER,_INT2_INTERRUPT_HANDLER
 10035   00366A  C0AD  F03B         	movff	INT2_SET_INTERRUPT_HANDLER@INTERRUPT_HANDLER+1,_INT2_INTERRUPT_HANDLER+1
 10036   00366E                     l749:
 10037                           
 10038                           ; BSR set to: 0
 10039   00366E  0012               	return		;funcret
 10040   003670                     __end_of_INT2_SET_INTERRUPT_HANDLER:
 10041                           	callstack 0
 10042                           
 10043 ;; *************** function _INT1_SET_INTERRUPT_HANDLER *****************
 10044 ;; Defined at:
 10045 ;;		line 576 in file "MCAL_layer/Interrupt/mcal_external_interrupt.c"
 10046 ;; Parameters:    Size  Location     Type
 10047 ;;  INTERRUPT_HA    2    0[BANK0 ] PTR FTN()void 
 10048 ;;		 -> INT0_app_ISR(1), 
 10049 ;; Auto vars:     Size  Location     Type
 10050 ;;  ret             1    0        unsigned char 
 10051 ;; Return value:  Size  Location     Type
 10052 ;;                  1    wreg      unsigned char 
 10053 ;; Registers used:
 10054 ;;		wreg, status,2, status,0
 10055 ;; Tracked objects:
 10056 ;;		On entry : 0/0
 10057 ;;		On exit  : 0/0
 10058 ;;		Unchanged: 0/0
 10059 ;; Data sizes:     COMRAM   BANK0   BANK1   BANK2   BANK3   BANK4   BANK5   BANK6   BANK7   BANK8   BANK9  BANK10  BANK1
      +1  BANK12  BANK13  BANK14  BANK15
 10060 ;;      Params:         0       2       0       0       0       0       0       0       0       0       0       0       
      +0       0       0       0       0
 10061 ;;      Locals:         0       0       0       0       0       0       0       0       0       0       0       0       
      +0       0       0       0       0
 10062 ;;      Temps:          0       0       0       0       0       0       0       0       0       0       0       0       
      +0       0       0       0       0
 10063 ;;      Totals:         0       2       0       0       0       0       0       0       0       0       0       0       
      +0       0       0       0       0
 10064 ;;Total ram usage:        2 bytes
 10065 ;; Hardware stack levels used: 1
 10066 ;; Hardware stack levels required when called: 8
 10067 ;; This function calls:
 10068 ;;		Nothing
 10069 ;; This function is called by:
 10070 ;;		_INTERRUPT_SET_INTERRUPT_HANDLER
 10071 ;; This function uses a non-reentrant model
 10072 ;;
 10073                           
 10074                           	psect	text46
 10075   003670                     __ptext46:
 10076                           	callstack 0
 10077   003670                     _INT1_SET_INTERRUPT_HANDLER:
 10078                           	callstack 18
 10079   003670                     
 10080                           ;MCAL_layer/Interrupt/mcal_external_interrupt.c: 578:     if(((void*)0) == INTERRUPT_HAN
      +                          DLER)
 10081   003670  0100               	movlb	0	; () banked
 10082   003672  51AC               	movf	INT1_SET_INTERRUPT_HANDLER@INTERRUPT_HANDLER& (0+255),w,b
 10083   003674  11AD               	iorwf	(INT1_SET_INTERRUPT_HANDLER@INTERRUPT_HANDLER+1)& (0+255),w,b
 10084   003676  A4D8               	btfss	status,2,c
 10085   003678  EF40  F01B         	goto	u5911
 10086   00367C  EF42  F01B         	goto	u5910
 10087   003680                     u5911:
 10088   003680  EF44  F01B         	goto	l6843
 10089   003684                     u5910:
 10090   003684                     
 10091                           ; BSR set to: 0
 10092                           ;MCAL_layer/Interrupt/mcal_external_interrupt.c: 581:     }
 10093   003684  EF48  F01B         	goto	l744
 10094   003688                     l6843:
 10095                           
 10096                           ; BSR set to: 0
 10097                           ;MCAL_layer/Interrupt/mcal_external_interrupt.c: 583:     {;MCAL_layer/Interrupt/mcal_ex
      +                          ternal_interrupt.c: 584:        INT1_INTERRUPT_HANDLER = INTERRUPT_HANDLER;
 10098   003688  C0AC  F03C         	movff	INT1_SET_INTERRUPT_HANDLER@INTERRUPT_HANDLER,_INT1_INTERRUPT_HANDLER
 10099   00368C  C0AD  F03D         	movff	INT1_SET_INTERRUPT_HANDLER@INTERRUPT_HANDLER+1,_INT1_INTERRUPT_HANDLER+1
 10100   003690                     l744:
 10101                           
 10102                           ; BSR set to: 0
 10103   003690  0012               	return		;funcret
 10104   003692                     __end_of_INT1_SET_INTERRUPT_HANDLER:
 10105                           	callstack 0
 10106                           
 10107 ;; *************** function _INT0_SET_INTERRUPT_HANDLER *****************
 10108 ;; Defined at:
 10109 ;;		line 556 in file "MCAL_layer/Interrupt/mcal_external_interrupt.c"
 10110 ;; Parameters:    Size  Location     Type
 10111 ;;  INTERRUPT_HA    2    0[BANK0 ] PTR FTN()void 
 10112 ;;		 -> INT0_app_ISR(1), 
 10113 ;; Auto vars:     Size  Location     Type
 10114 ;;  ret             1    0        unsigned char 
 10115 ;; Return value:  Size  Location     Type
 10116 ;;                  1    wreg      unsigned char 
 10117 ;; Registers used:
 10118 ;;		wreg, status,2, status,0
 10119 ;; Tracked objects:
 10120 ;;		On entry : 0/0
 10121 ;;		On exit  : 0/0
 10122 ;;		Unchanged: 0/0
 10123 ;; Data sizes:     COMRAM   BANK0   BANK1   BANK2   BANK3   BANK4   BANK5   BANK6   BANK7   BANK8   BANK9  BANK10  BANK1
      +1  BANK12  BANK13  BANK14  BANK15
 10124 ;;      Params:         0       2       0       0       0       0       0       0       0       0       0       0       
      +0       0       0       0       0
 10125 ;;      Locals:         0       0       0       0       0       0       0       0       0       0       0       0       
      +0       0       0       0       0
 10126 ;;      Temps:          0       0       0       0       0       0       0       0       0       0       0       0       
      +0       0       0       0       0
 10127 ;;      Totals:         0       2       0       0       0       0       0       0       0       0       0       0       
      +0       0       0       0       0
 10128 ;;Total ram usage:        2 bytes
 10129 ;; Hardware stack levels used: 1
 10130 ;; Hardware stack levels required when called: 8
 10131 ;; This function calls:
 10132 ;;		Nothing
 10133 ;; This function is called by:
 10134 ;;		_INTERRUPT_SET_INTERRUPT_HANDLER
 10135 ;; This function uses a non-reentrant model
 10136 ;;
 10137                           
 10138                           	psect	text47
 10139   003692                     __ptext47:
 10140                           	callstack 0
 10141   003692                     _INT0_SET_INTERRUPT_HANDLER:
 10142                           	callstack 18
 10143   003692                     
 10144                           ;MCAL_layer/Interrupt/mcal_external_interrupt.c: 558:     if(((void*)0) == INTERRUPT_HAN
      +                          DLER)
 10145   003692  0100               	movlb	0	; () banked
 10146   003694  51AC               	movf	INT0_SET_INTERRUPT_HANDLER@INTERRUPT_HANDLER& (0+255),w,b
 10147   003696  11AD               	iorwf	(INT0_SET_INTERRUPT_HANDLER@INTERRUPT_HANDLER+1)& (0+255),w,b
 10148   003698  A4D8               	btfss	status,2,c
 10149   00369A  EF51  F01B         	goto	u5901
 10150   00369E  EF53  F01B         	goto	u5900
 10151   0036A2                     u5901:
 10152   0036A2  EF55  F01B         	goto	l6833
 10153   0036A6                     u5900:
 10154   0036A6                     
 10155                           ; BSR set to: 0
 10156                           ;MCAL_layer/Interrupt/mcal_external_interrupt.c: 561:     }
 10157   0036A6  EF59  F01B         	goto	l739
 10158   0036AA                     l6833:
 10159                           
 10160                           ; BSR set to: 0
 10161                           ;MCAL_layer/Interrupt/mcal_external_interrupt.c: 563:     {;MCAL_layer/Interrupt/mcal_ex
      +                          ternal_interrupt.c: 564:        INT0_INTERRUPT_HANDLER = INTERRUPT_HANDLER;
 10162   0036AA  C0AC  F03E         	movff	INT0_SET_INTERRUPT_HANDLER@INTERRUPT_HANDLER,_INT0_INTERRUPT_HANDLER
 10163   0036AE  C0AD  F03F         	movff	INT0_SET_INTERRUPT_HANDLER@INTERRUPT_HANDLER+1,_INT0_INTERRUPT_HANDLER+1
 10164   0036B2                     l739:
 10165                           
 10166                           ; BSR set to: 0
 10167   0036B2  0012               	return		;funcret
 10168   0036B4                     __end_of_INT0_SET_INTERRUPT_HANDLER:
 10169                           	callstack 0
 10170                           
 10171 ;; *************** function _INTERRUPT_INTx_pin_int *****************
 10172 ;; Defined at:
 10173 ;;		line 510 in file "MCAL_layer/Interrupt/mcal_external_interrupt.c"
 10174 ;; Parameters:    Size  Location     Type
 10175 ;;  int_obj         1    7[BANK0 ] PTR const struct .
 10176 ;;		 -> INT_obj(6), 
 10177 ;; Auto vars:     Size  Location     Type
 10178 ;;  ret             1    8[BANK0 ] unsigned char 
 10179 ;; Return value:  Size  Location     Type
 10180 ;;                  1    wreg      unsigned char 
 10181 ;; Registers used:
 10182 ;;		wreg, fsr2l, fsr2h, status,2, status,0, prodl, prodh, cstack
 10183 ;; Tracked objects:
 10184 ;;		On entry : 0/0
 10185 ;;		On exit  : 0/0
 10186 ;;		Unchanged: 0/0
 10187 ;; Data sizes:     COMRAM   BANK0   BANK1   BANK2   BANK3   BANK4   BANK5   BANK6   BANK7   BANK8   BANK9  BANK10  BANK1
      +1  BANK12  BANK13  BANK14  BANK15
 10188 ;;      Params:         0       1       0       0       0       0       0       0       0       0       0       0       
      +0       0       0       0       0
 10189 ;;      Locals:         0       1       0       0       0       0       0       0       0       0       0       0       
      +0       0       0       0       0
 10190 ;;      Temps:          0       0       0       0       0       0       0       0       0       0       0       0       
      +0       0       0       0       0
 10191 ;;      Totals:         0       2       0       0       0       0       0       0       0       0       0       0       
      +0       0       0       0       0
 10192 ;;Total ram usage:        2 bytes
 10193 ;; Hardware stack levels used: 1
 10194 ;; Hardware stack levels required when called: 9
 10195 ;; This function calls:
 10196 ;;		_gpio_pin_direction_initialize
 10197 ;; This function is called by:
 10198 ;;		_Interrupt_INTx_Init
 10199 ;; This function uses a non-reentrant model
 10200 ;;
 10201                           
 10202                           	psect	text48
 10203   0034F4                     __ptext48:
 10204                           	callstack 0
 10205   0034F4                     _INTERRUPT_INTx_pin_int:
 10206                           	callstack 18
 10207   0034F4                     
 10208                           ;MCAL_layer/Interrupt/mcal_external_interrupt.c: 511:     STD_ReturnType ret = (STD_Retu
      +                          rnType)0x01;
 10209   0034F4  0E01               	movlw	1
 10210   0034F6  0100               	movlb	0	; () banked
 10211   0034F8  6FB4               	movwf	INTERRUPT_INTx_pin_int@ret& (0+255),b
 10212                           
 10213                           ;MCAL_layer/Interrupt/mcal_external_interrupt.c: 512:     if(((void*)0) == int_obj)
 10214   0034FA  51B3               	movf	INTERRUPT_INTx_pin_int@int_obj& (0+255),w,b
 10215   0034FC  A4D8               	btfss	status,2,c
 10216   0034FE  EF83  F01A         	goto	u6221
 10217   003502  EF85  F01A         	goto	u6220
 10218   003506                     u6221:
 10219   003506  EF89  F01A         	goto	l7077
 10220   00350A                     u6220:
 10221   00350A                     
 10222                           ; BSR set to: 0
 10223                           ;MCAL_layer/Interrupt/mcal_external_interrupt.c: 513:     {;MCAL_layer/Interrupt/mcal_ex
      +                          ternal_interrupt.c: 514:         ret = (STD_ReturnType)0x00;
 10224   00350A  0E00               	movlw	0
 10225   00350C  6FB4               	movwf	INTERRUPT_INTx_pin_int@ret& (0+255),b
 10226                           
 10227                           ;MCAL_layer/Interrupt/mcal_external_interrupt.c: 515:     }
 10228   00350E  EF8E  F01A         	goto	l7079
 10229   003512                     l7077:
 10230                           
 10231                           ; BSR set to: 0
 10232                           ;MCAL_layer/Interrupt/mcal_external_interrupt.c: 517:     {;MCAL_layer/Interrupt/mcal_ex
      +                          ternal_interrupt.c: 518:         gpio_pin_direction_initialize(&(int_obj->mcu_pin));
 10233   003512  51B3               	movf	INTERRUPT_INTx_pin_int@int_obj& (0+255),w,b
 10234   003514  0F02               	addlw	2
 10235   003516  6FAC               	movwf	gpio_pin_direction_initialize@_pin_config& (0+255),b
 10236   003518  EC70  F00E         	call	_gpio_pin_direction_initialize	;wreg free
 10237   00351C                     l7079:
 10238                           
 10239                           ;MCAL_layer/Interrupt/mcal_external_interrupt.c: 521:      return ret;
 10240   00351C  0100               	movlb	0	; () banked
 10241   00351E  51B4               	movf	INTERRUPT_INTx_pin_int@ret& (0+255),w,b
 10242   003520                     
 10243                           ; BSR set to: 0
 10244   003520  0012               	return		;funcret
 10245   003522                     __end_of_INTERRUPT_INTx_pin_int:
 10246                           	callstack 0
 10247                           
 10248 ;; *************** function _gpio_pin_direction_initialize *****************
 10249 ;; Defined at:
 10250 ;;		line 24 in file "MCAL_layer/GPIO/hal_gpio.c"
 10251 ;; Parameters:    Size  Location     Type
 10252 ;;  _pin_config     1    0[BANK0 ] PTR const struct .
 10253 ;;		 -> buzzer(1), keypad$keypad_columns_pins(4), keypad$keypad_rows_pins(4), keypad(8), 
 10254 ;;		 -> lcd1$data(4), motor1$dc_motor_pin(2), motor1(2), INT_obj(6), 
 10255 ;;		 -> lcd1(6), ecu_relay_initialize@relay_pin(1), ecu_led_initialize@led_pin(1), 
 10256 ;; Auto vars:     Size  Location     Type
 10257 ;;  ret             1    6[BANK0 ] unsigned char 
 10258 ;; Return value:  Size  Location     Type
 10259 ;;                  1    wreg      unsigned char 
 10260 ;; Registers used:
 10261 ;;		wreg, fsr2l, fsr2h, status,2, status,0, prodl, prodh
 10262 ;; Tracked objects:
 10263 ;;		On entry : 0/0
 10264 ;;		On exit  : 0/0
 10265 ;;		Unchanged: 0/0
 10266 ;; Data sizes:     COMRAM   BANK0   BANK1   BANK2   BANK3   BANK4   BANK5   BANK6   BANK7   BANK8   BANK9  BANK10  BANK1
      +1  BANK12  BANK13  BANK14  BANK15
 10267 ;;      Params:         0       1       0       0       0       0       0       0       0       0       0       0       
      +0       0       0       0       0
 10268 ;;      Locals:         0       1       0       0       0       0       0       0       0       0       0       0       
      +0       0       0       0       0
 10269 ;;      Temps:          0       5       0       0       0       0       0       0       0       0       0       0       
      +0       0       0       0       0
 10270 ;;      Totals:         0       7       0       0       0       0       0       0       0       0       0       0       
      +0       0       0       0       0
 10271 ;;Total ram usage:        7 bytes
 10272 ;; Hardware stack levels used: 1
 10273 ;; Hardware stack levels required when called: 8
 10274 ;; This function calls:
 10275 ;;		Nothing
 10276 ;; This function is called by:
 10277 ;;		_ecu_keypad_initialize
 10278 ;;		_gpio_pin_initialize
 10279 ;;		_INTERRUPT_INTx_pin_int
 10280 ;;		_ecu_button_initialize
 10281 ;;		_INTERRUPT_RBx_pin_int
 10282 ;; This function uses a non-reentrant model
 10283 ;;
 10284                           
 10285                           	psect	text49
 10286   001CE0                     __ptext49:
 10287                           	callstack 0
 10288   001CE0                     _gpio_pin_direction_initialize:
 10289                           	callstack 18
 10290   001CE0                     
 10291                           ;MCAL_layer/GPIO/hal_gpio.c: 24: STD_ReturnType gpio_pin_direction_initialize(const pin_
      +                          config_t* _pin_config);MCAL_layer/GPIO/hal_gpio.c: 25: {;MCAL_layer/GPIO/hal_gpio.c: 26:
      +                               STD_ReturnType ret = (STD_ReturnType)0x01;
 10292   001CE0  0E01               	movlw	1
 10293   001CE2  0100               	movlb	0	; () banked
 10294   001CE4  6FB2               	movwf	gpio_pin_direction_initialize@ret& (0+255),b
 10295                           
 10296                           ;MCAL_layer/GPIO/hal_gpio.c: 27:     if(((void*)0) == _pin_config || _pin_config->pin > 
      +                          8 -1)
 10297   001CE6  51AC               	movf	gpio_pin_direction_initialize@_pin_config& (0+255),w,b
 10298   001CE8  B4D8               	btfsc	status,2,c
 10299   001CEA  EF79  F00E         	goto	u5831
 10300   001CEE  EF7B  F00E         	goto	u5830
 10301   001CF2                     u5831:
 10302   001CF2  EF8B  F00E         	goto	l6799
 10303   001CF6                     u5830:
 10304   001CF6                     
 10305                           ; BSR set to: 0
 10306   001CF6  51AC               	movf	gpio_pin_direction_initialize@_pin_config& (0+255),w,b
 10307   001CF8  6ED9               	movwf	fsr2l,c
 10308   001CFA  6ADA               	clrf	fsr2h,c
 10309   001CFC  30DF               	rrcf	223,w,c
 10310   001CFE  32E8               	rrcf	wreg,f,c
 10311   001D00  32E8               	rrcf	wreg,f,c
 10312   001D02  0B07               	andlw	7
 10313   001D04  6FAD               	movwf	??_gpio_pin_direction_initialize& (0+255),b
 10314   001D06  0E07               	movlw	7
 10315   001D08  65AD               	cpfsgt	??_gpio_pin_direction_initialize& (0+255),b
 10316   001D0A  EF89  F00E         	goto	u5841
 10317   001D0E  EF8B  F00E         	goto	u5840
 10318   001D12                     u5841:
 10319   001D12  EFE4  F00E         	goto	l6807
 10320   001D16                     u5840:
 10321   001D16                     l6799:
 10322                           
 10323                           ; BSR set to: 0
 10324                           ;MCAL_layer/GPIO/hal_gpio.c: 28:     {;MCAL_layer/GPIO/hal_gpio.c: 29:         ret = (ST
      +                          D_ReturnType)0x00;
 10325   001D16  0E00               	movlw	0
 10326   001D18  6FB2               	movwf	gpio_pin_direction_initialize@ret& (0+255),b
 10327                           
 10328                           ;MCAL_layer/GPIO/hal_gpio.c: 30:     }
 10329   001D1A  EF04  F00F         	goto	l6809
 10330   001D1E                     l6801:
 10331                           
 10332                           ; BSR set to: 0
 10333                           ;MCAL_layer/GPIO/hal_gpio.c: 36:             (*tris_registers[_pin_config->port] &= ~((u
      +                          int8)1 << _pin_config->pin));
 10334   001D1E  51AC               	movf	gpio_pin_direction_initialize@_pin_config& (0+255),w,b
 10335   001D20  6ED9               	movwf	fsr2l,c
 10336   001D22  6ADA               	clrf	fsr2h,c
 10337   001D24  30DF               	rrcf	223,w,c
 10338   001D26  32E8               	rrcf	wreg,f,c
 10339   001D28  32E8               	rrcf	wreg,f,c
 10340   001D2A  0B07               	andlw	7
 10341   001D2C  6FAD               	movwf	??_gpio_pin_direction_initialize& (0+255),b
 10342   001D2E  0E01               	movlw	1
 10343   001D30  6FAE               	movwf	(??_gpio_pin_direction_initialize+1)& (0+255),b
 10344   001D32  2BAD               	incf	??_gpio_pin_direction_initialize& (0+255),f,b
 10345   001D34  EF9E  F00E         	goto	u5854
 10346   001D38                     u5855:
 10347   001D38  90D8               	bcf	status,0,c
 10348   001D3A  37AE               	rlcf	(??_gpio_pin_direction_initialize+1)& (0+255),f,b
 10349   001D3C                     u5854:
 10350   001D3C  2FAD               	decfsz	??_gpio_pin_direction_initialize& (0+255),f,b
 10351   001D3E  EF9C  F00E         	goto	u5855
 10352   001D42  0100               	movlb	0	; () banked
 10353   001D44  51AE               	movf	(??_gpio_pin_direction_initialize+1)& (0+255),w,b
 10354   001D46  0AFF               	xorlw	255
 10355   001D48  6FAF               	movwf	(??_gpio_pin_direction_initialize+2)& (0+255),b
 10356   001D4A  51AC               	movf	gpio_pin_direction_initialize@_pin_config& (0+255),w,b
 10357   001D4C  6ED9               	movwf	fsr2l,c
 10358   001D4E  6ADA               	clrf	fsr2h,c
 10359   001D50  50DF               	movf	223,w,c
 10360   001D52  0B07               	andlw	7
 10361   001D54  0D02               	mullw	2
 10362   001D56  50F3               	movf	243,w,c
 10363   001D58  0FE0               	addlw	low _tris_registers
 10364   001D5A  6ED9               	movwf	fsr2l,c
 10365   001D5C  6ADA               	clrf	fsr2h,c
 10366   001D5E  CFDE F0B0          	movff	postinc2,??_gpio_pin_direction_initialize+3
 10367   001D62  CFDD F0B1          	movff	postdec2,??_gpio_pin_direction_initialize+4
 10368   001D66  C0B0  FFD9         	movff	??_gpio_pin_direction_initialize+3,fsr2l
 10369   001D6A  C0B1  FFDA         	movff	??_gpio_pin_direction_initialize+4,fsr2h
 10370   001D6E  51AF               	movf	(??_gpio_pin_direction_initialize+2)& (0+255),w,b
 10371   001D70  16DF               	andwf	indf2,f,c
 10372                           
 10373                           ;MCAL_layer/GPIO/hal_gpio.c: 37:             break;
 10374   001D72  EF04  F00F         	goto	l6809
 10375   001D76                     l6803:
 10376                           
 10377                           ; BSR set to: 0
 10378                           ;MCAL_layer/GPIO/hal_gpio.c: 39:             (*tris_registers[_pin_config->port] |= ((ui
      +                          nt8)1 << _pin_config->pin));
 10379   001D76  51AC               	movf	gpio_pin_direction_initialize@_pin_config& (0+255),w,b
 10380   001D78  6ED9               	movwf	fsr2l,c
 10381   001D7A  6ADA               	clrf	fsr2h,c
 10382   001D7C  30DF               	rrcf	223,w,c
 10383   001D7E  32E8               	rrcf	wreg,f,c
 10384   001D80  32E8               	rrcf	wreg,f,c
 10385   001D82  0B07               	andlw	7
 10386   001D84  6FAD               	movwf	??_gpio_pin_direction_initialize& (0+255),b
 10387   001D86  0E01               	movlw	1
 10388   001D88  6FAE               	movwf	(??_gpio_pin_direction_initialize+1)& (0+255),b
 10389   001D8A  2BAD               	incf	??_gpio_pin_direction_initialize& (0+255),f,b
 10390   001D8C  EFCA  F00E         	goto	u5864
 10391   001D90                     u5865:
 10392   001D90  90D8               	bcf	status,0,c
 10393   001D92  37AE               	rlcf	(??_gpio_pin_direction_initialize+1)& (0+255),f,b
 10394   001D94                     u5864:
 10395   001D94  2FAD               	decfsz	??_gpio_pin_direction_initialize& (0+255),f,b
 10396   001D96  EFC8  F00E         	goto	u5865
 10397   001D9A  0100               	movlb	0	; () banked
 10398   001D9C  51AC               	movf	gpio_pin_direction_initialize@_pin_config& (0+255),w,b
 10399   001D9E  6ED9               	movwf	fsr2l,c
 10400   001DA0  6ADA               	clrf	fsr2h,c
 10401   001DA2  50DF               	movf	223,w,c
 10402   001DA4  0B07               	andlw	7
 10403   001DA6  0D02               	mullw	2
 10404   001DA8  50F3               	movf	243,w,c
 10405   001DAA  0FE0               	addlw	low _tris_registers
 10406   001DAC  6ED9               	movwf	fsr2l,c
 10407   001DAE  6ADA               	clrf	fsr2h,c
 10408   001DB0  CFDE F0AF          	movff	postinc2,??_gpio_pin_direction_initialize+2
 10409   001DB4  CFDD F0B0          	movff	postdec2,??_gpio_pin_direction_initialize+3
 10410   001DB8  C0AF  FFD9         	movff	??_gpio_pin_direction_initialize+2,fsr2l
 10411   001DBC  C0B0  FFDA         	movff	??_gpio_pin_direction_initialize+3,fsr2h
 10412   001DC0  51AE               	movf	(??_gpio_pin_direction_initialize+1)& (0+255),w,b
 10413   001DC2  12DF               	iorwf	indf2,f,c
 10414                           
 10415                           ;MCAL_layer/GPIO/hal_gpio.c: 40:             break;
 10416   001DC4  EF04  F00F         	goto	l6809
 10417   001DC8                     l6807:
 10418                           
 10419                           ; BSR set to: 0
 10420   001DC8  51AC               	movf	gpio_pin_direction_initialize@_pin_config& (0+255),w,b
 10421   001DCA  6ED9               	movwf	fsr2l,c
 10422   001DCC  6ADA               	clrf	fsr2h,c
 10423   001DCE  BCDF               	btfsc	indf2,6,c
 10424   001DD0  EFEC  F00E         	goto	u5871
 10425   001DD4  EFEF  F00E         	goto	u5870
 10426   001DD8                     u5871:
 10427   001DD8  0E01               	movlw	1
 10428   001DDA  EFF0  F00E         	goto	u5880
 10429   001DDE                     u5870:
 10430   001DDE  0E00               	movlw	0
 10431   001DE0                     u5880:
 10432   001DE0  6FAD               	movwf	??_gpio_pin_direction_initialize& (0+255),b
 10433   001DE2  6BAE               	clrf	(??_gpio_pin_direction_initialize+1)& (0+255),b
 10434                           
 10435                           ; Switch on 2 bytes has been partitioned into a top level switch of size 1, and 1 sub-sw
      +                          itches
 10436                           ; Switch size 1, requested type "simple"
 10437                           ; Number of cases is 1, Range of values is 0 to 0
 10438                           ; switch strategies available:
 10439                           ; Name         Instructions Cycles
 10440                           ; simple_byte            4     3 (average)
 10441                           ;	Chosen strategy is simple_byte
 10442   001DE4  51AE               	movf	(??_gpio_pin_direction_initialize+1)& (0+255),w,b
 10443   001DE6  0A00               	xorlw	0	; case 0
 10444   001DE8  B4D8               	btfsc	status,2,c
 10445   001DEA  EFF9  F00E         	goto	l13545
 10446   001DEE  EF8B  F00E         	goto	l6799
 10447   001DF2                     l13545:
 10448                           
 10449                           ; BSR set to: 0
 10450                           ; Switch size 1, requested type "simple"
 10451                           ; Number of cases is 2, Range of values is 0 to 1
 10452                           ; switch strategies available:
 10453                           ; Name         Instructions Cycles
 10454                           ; simple_byte            7     4 (average)
 10455                           ;	Chosen strategy is simple_byte
 10456   001DF2  51AD               	movf	??_gpio_pin_direction_initialize& (0+255),w,b
 10457   001DF4  0A00               	xorlw	0	; case 0
 10458   001DF6  B4D8               	btfsc	status,2,c
 10459   001DF8  EF8F  F00E         	goto	l6801
 10460   001DFC  0A01               	xorlw	1	; case 1
 10461   001DFE  B4D8               	btfsc	status,2,c
 10462   001E00  EFBB  F00E         	goto	l6803
 10463   001E04  EF8B  F00E         	goto	l6799
 10464   001E08                     l6809:
 10465                           
 10466                           ; BSR set to: 0
 10467                           ;MCAL_layer/GPIO/hal_gpio.c: 45:      return ret;
 10468   001E08  51B2               	movf	gpio_pin_direction_initialize@ret& (0+255),w,b
 10469   001E0A                     
 10470                           ; BSR set to: 0
 10471   001E0A  0012               	return		;funcret
 10472   001E0C                     __end_of_gpio_pin_direction_initialize:
 10473                           	callstack 0
 10474                           
 10475 ;; *************** function _INTERRUPT_INTx_enable *****************
 10476 ;; Defined at:
 10477 ;;		line 309 in file "MCAL_layer/Interrupt/mcal_external_interrupt.c"
 10478 ;; Parameters:    Size  Location     Type
 10479 ;;  int_obj         1    0[BANK0 ] PTR const struct .
 10480 ;;		 -> INT_obj(6), 
 10481 ;; Auto vars:     Size  Location     Type
 10482 ;;  ret             1    3[BANK0 ] unsigned char 
 10483 ;; Return value:  Size  Location     Type
 10484 ;;                  1    wreg      unsigned char 
 10485 ;; Registers used:
 10486 ;;		wreg, fsr2l, fsr2h, status,2, status,0
 10487 ;; Tracked objects:
 10488 ;;		On entry : 0/0
 10489 ;;		On exit  : 0/0
 10490 ;;		Unchanged: 0/0
 10491 ;; Data sizes:     COMRAM   BANK0   BANK1   BANK2   BANK3   BANK4   BANK5   BANK6   BANK7   BANK8   BANK9  BANK10  BANK1
      +1  BANK12  BANK13  BANK14  BANK15
 10492 ;;      Params:         0       1       0       0       0       0       0       0       0       0       0       0       
      +0       0       0       0       0
 10493 ;;      Locals:         0       1       0       0       0       0       0       0       0       0       0       0       
      +0       0       0       0       0
 10494 ;;      Temps:          0       2       0       0       0       0       0       0       0       0       0       0       
      +0       0       0       0       0
 10495 ;;      Totals:         0       4       0       0       0       0       0       0       0       0       0       0       
      +0       0       0       0       0
 10496 ;;Total ram usage:        4 bytes
 10497 ;; Hardware stack levels used: 1
 10498 ;; Hardware stack levels required when called: 8
 10499 ;; This function calls:
 10500 ;;		Nothing
 10501 ;; This function is called by:
 10502 ;;		_Interrupt_INTx_Init
 10503 ;; This function uses a non-reentrant model
 10504 ;;
 10505                           
 10506                           	psect	text50
 10507   002B22                     __ptext50:
 10508                           	callstack 0
 10509   002B22                     _INTERRUPT_INTx_enable:
 10510                           	callstack 19
 10511   002B22                     
 10512                           ;MCAL_layer/Interrupt/mcal_external_interrupt.c: 310:     STD_ReturnType ret = (STD_Retu
      +                          rnType)0x01;
 10513   002B22  0E01               	movlw	1
 10514   002B24  0100               	movlb	0	; () banked
 10515   002B26  6FAF               	movwf	INTERRUPT_INTx_enable@ret& (0+255),b
 10516                           
 10517                           ;MCAL_layer/Interrupt/mcal_external_interrupt.c: 311:     if(((void*)0) == int_obj)
 10518   002B28  51AC               	movf	INTERRUPT_INTx_enable@int_obj& (0+255),w,b
 10519   002B2A  A4D8               	btfss	status,2,c
 10520   002B2C  EF9A  F015         	goto	u6241
 10521   002B30  EF9C  F015         	goto	u6240
 10522   002B34                     u6241:
 10523   002B34  EFAF  F015         	goto	l7111
 10524   002B38                     u6240:
 10525   002B38                     l7107:
 10526                           
 10527                           ; BSR set to: 0
 10528                           ;MCAL_layer/Interrupt/mcal_external_interrupt.c: 312:     {;MCAL_layer/Interrupt/mcal_ex
      +                          ternal_interrupt.c: 313:         ret = (STD_ReturnType)0x00;
 10529   002B38  0E00               	movlw	0
 10530   002B3A  6FAF               	movwf	INTERRUPT_INTx_enable@ret& (0+255),b
 10531                           
 10532                           ;MCAL_layer/Interrupt/mcal_external_interrupt.c: 314:     }
 10533   002B3C  EFCD  F015         	goto	l7113
 10534   002B40                     l661:
 10535                           
 10536                           ; BSR set to: 0
 10537                           ;MCAL_layer/Interrupt/mcal_external_interrupt.c: 322:                 (INTCONbits.GIE = 
      +                          1);
 10538   002B40  8EF2               	bsf	242,7,c	;volatile
 10539                           
 10540                           ;MCAL_layer/Interrupt/mcal_external_interrupt.c: 323:                 (INTCONbits.PEIE =
      +                           1);
 10541   002B42  8CF2               	bsf	242,6,c	;volatile
 10542                           
 10543                           ;MCAL_layer/Interrupt/mcal_external_interrupt.c: 326:                 (INTCONbits.INT0IE
      +                           = 1);
 10544   002B44  88F2               	bsf	242,4,c	;volatile
 10545                           
 10546                           ;MCAL_layer/Interrupt/mcal_external_interrupt.c: 327:                 break;
 10547   002B46  EFCD  F015         	goto	l7113
 10548   002B4A                     l663:
 10549                           
 10550                           ; BSR set to: 0
 10551                           ;MCAL_layer/Interrupt/mcal_external_interrupt.c: 342:                 (INTCONbits.GIE = 
      +                          1);
 10552   002B4A  8EF2               	bsf	242,7,c	;volatile
 10553                           
 10554                           ;MCAL_layer/Interrupt/mcal_external_interrupt.c: 343:                 (INTCONbits.PEIE =
      +                           1);
 10555   002B4C  8CF2               	bsf	242,6,c	;volatile
 10556                           
 10557                           ;MCAL_layer/Interrupt/mcal_external_interrupt.c: 346:                 (INTCON3bits.INT1I
      +                          E = 1);
 10558   002B4E  86F0               	bsf	240,3,c	;volatile
 10559                           
 10560                           ;MCAL_layer/Interrupt/mcal_external_interrupt.c: 347:                 break;
 10561   002B50  EFCD  F015         	goto	l7113
 10562   002B54                     l664:
 10563                           
 10564                           ; BSR set to: 0
 10565                           ;MCAL_layer/Interrupt/mcal_external_interrupt.c: 362:                 (INTCONbits.GIE = 
      +                          1);
 10566   002B54  8EF2               	bsf	242,7,c	;volatile
 10567                           
 10568                           ;MCAL_layer/Interrupt/mcal_external_interrupt.c: 363:                 (INTCONbits.PEIE =
      +                           1);
 10569   002B56  8CF2               	bsf	242,6,c	;volatile
 10570                           
 10571                           ;MCAL_layer/Interrupt/mcal_external_interrupt.c: 366:                 (INTCON3bits.INT2I
      +                          E = 1);
 10572   002B58  88F0               	bsf	240,4,c	;volatile
 10573                           
 10574                           ;MCAL_layer/Interrupt/mcal_external_interrupt.c: 367:                 break;
 10575   002B5A  EFCD  F015         	goto	l7113
 10576   002B5E                     l7111:
 10577                           
 10578                           ; BSR set to: 0
 10579   002B5E  51AC               	movf	INTERRUPT_INTx_enable@int_obj& (0+255),w,b
 10580   002B60  6ED9               	movwf	fsr2l,c
 10581   002B62  6ADA               	clrf	fsr2h,c
 10582   002B64  0E04               	movlw	4
 10583   002B66  26D9               	addwf	fsr2l,f,c
 10584   002B68  50DF               	movf	indf2,w,c
 10585   002B6A  6FAD               	movwf	??_INTERRUPT_INTx_enable& (0+255),b
 10586   002B6C  6BAE               	clrf	(??_INTERRUPT_INTx_enable+1)& (0+255),b
 10587                           
 10588                           ; Switch on 2 bytes has been partitioned into a top level switch of size 1, and 1 sub-sw
      +                          itches
 10589                           ; Switch size 1, requested type "simple"
 10590                           ; Number of cases is 1, Range of values is 0 to 0
 10591                           ; switch strategies available:
 10592                           ; Name         Instructions Cycles
 10593                           ; simple_byte            4     3 (average)
 10594                           ;	Chosen strategy is simple_byte
 10595   002B6E  51AE               	movf	(??_INTERRUPT_INTx_enable+1)& (0+255),w,b
 10596   002B70  0A00               	xorlw	0	; case 0
 10597   002B72  B4D8               	btfsc	status,2,c
 10598   002B74  EFBE  F015         	goto	l13547
 10599   002B78  EF9C  F015         	goto	l7107
 10600   002B7C                     l13547:
 10601                           
 10602                           ; BSR set to: 0
 10603                           ; Switch size 1, requested type "simple"
 10604                           ; Number of cases is 3, Range of values is 0 to 2
 10605                           ; switch strategies available:
 10606                           ; Name         Instructions Cycles
 10607                           ; simple_byte           10     6 (average)
 10608                           ;	Chosen strategy is simple_byte
 10609   002B7C  51AD               	movf	??_INTERRUPT_INTx_enable& (0+255),w,b
 10610   002B7E  0A00               	xorlw	0	; case 0
 10611   002B80  B4D8               	btfsc	status,2,c
 10612   002B82  EFA0  F015         	goto	l661
 10613   002B86  0A01               	xorlw	1	; case 1
 10614   002B88  B4D8               	btfsc	status,2,c
 10615   002B8A  EFA5  F015         	goto	l663
 10616   002B8E  0A03               	xorlw	3	; case 2
 10617   002B90  B4D8               	btfsc	status,2,c
 10618   002B92  EFAA  F015         	goto	l664
 10619   002B96  EF9C  F015         	goto	l7107
 10620   002B9A                     l7113:
 10621                           
 10622                           ; BSR set to: 0
 10623                           ;MCAL_layer/Interrupt/mcal_external_interrupt.c: 372:      return ret;
 10624   002B9A  51AF               	movf	INTERRUPT_INTx_enable@ret& (0+255),w,b
 10625   002B9C                     
 10626                           ; BSR set to: 0
 10627   002B9C  0012               	return		;funcret
 10628   002B9E                     __end_of_INTERRUPT_INTx_enable:
 10629                           	callstack 0
 10630                           
 10631 ;; *************** function _INTERRUPT_INTx_edge_int *****************
 10632 ;; Defined at:
 10633 ;;		line 455 in file "MCAL_layer/Interrupt/mcal_external_interrupt.c"
 10634 ;; Parameters:    Size  Location     Type
 10635 ;;  int_obj         1    0[BANK0 ] PTR const struct .
 10636 ;;		 -> INT_obj(6), 
 10637 ;; Auto vars:     Size  Location     Type
 10638 ;;  ret             1    3[BANK0 ] unsigned char 
 10639 ;; Return value:  Size  Location     Type
 10640 ;;                  1    wreg      unsigned char 
 10641 ;; Registers used:
 10642 ;;		wreg, fsr2l, fsr2h, status,2, status,0
 10643 ;; Tracked objects:
 10644 ;;		On entry : 0/0
 10645 ;;		On exit  : 0/0
 10646 ;;		Unchanged: 0/0
 10647 ;; Data sizes:     COMRAM   BANK0   BANK1   BANK2   BANK3   BANK4   BANK5   BANK6   BANK7   BANK8   BANK9  BANK10  BANK1
      +1  BANK12  BANK13  BANK14  BANK15
 10648 ;;      Params:         0       1       0       0       0       0       0       0       0       0       0       0       
      +0       0       0       0       0
 10649 ;;      Locals:         0       1       0       0       0       0       0       0       0       0       0       0       
      +0       0       0       0       0
 10650 ;;      Temps:          0       2       0       0       0       0       0       0       0       0       0       0       
      +0       0       0       0       0
 10651 ;;      Totals:         0       4       0       0       0       0       0       0       0       0       0       0       
      +0       0       0       0       0
 10652 ;;Total ram usage:        4 bytes
 10653 ;; Hardware stack levels used: 1
 10654 ;; Hardware stack levels required when called: 8
 10655 ;; This function calls:
 10656 ;;		Nothing
 10657 ;; This function is called by:
 10658 ;;		_Interrupt_INTx_Init
 10659 ;; This function uses a non-reentrant model
 10660 ;;
 10661                           
 10662                           	psect	text51
 10663   001E0C                     __ptext51:
 10664                           	callstack 0
 10665   001E0C                     _INTERRUPT_INTx_edge_int:
 10666                           	callstack 19
 10667   001E0C                     
 10668                           ;MCAL_layer/Interrupt/mcal_external_interrupt.c: 456:     STD_ReturnType ret = (STD_Retu
      +                          rnType)0x01;
 10669   001E0C  0E01               	movlw	1
 10670   001E0E  0100               	movlb	0	; () banked
 10671   001E10  6FAF               	movwf	INTERRUPT_INTx_edge_int@ret& (0+255),b
 10672                           
 10673                           ;MCAL_layer/Interrupt/mcal_external_interrupt.c: 457:     if(((void*)0) == int_obj)
 10674   001E12  51AC               	movf	INTERRUPT_INTx_edge_int@int_obj& (0+255),w,b
 10675   001E14  A4D8               	btfss	status,2,c
 10676   001E16  EF0F  F00F         	goto	u6151
 10677   001E1A  EF11  F00F         	goto	u6150
 10678   001E1E                     u6151:
 10679   001E1E  EF75  F00F         	goto	l7063
 10680   001E22                     u6150:
 10681   001E22                     l7035:
 10682                           
 10683                           ; BSR set to: 0
 10684                           ;MCAL_layer/Interrupt/mcal_external_interrupt.c: 458:     {;MCAL_layer/Interrupt/mcal_ex
      +                          ternal_interrupt.c: 459:         ret = (STD_ReturnType)0x00;
 10685   001E22  0E00               	movlw	0
 10686   001E24  6FAF               	movwf	INTERRUPT_INTx_edge_int@ret& (0+255),b
 10687                           
 10688                           ;MCAL_layer/Interrupt/mcal_external_interrupt.c: 460:     }
 10689   001E26  EF93  F00F         	goto	l7065
 10690   001E2A                     l7037:
 10691                           
 10692                           ; BSR set to: 0
 10693                           ;MCAL_layer/Interrupt/mcal_external_interrupt.c: 465:                if(int_obj->edge ==
      +                           INTERRUPT_FALLING_EDGE){
 10694   001E2A  51AC               	movf	INTERRUPT_INTx_edge_int@int_obj& (0+255),w,b
 10695   001E2C  6ED9               	movwf	fsr2l,c
 10696   001E2E  6ADA               	clrf	fsr2h,c
 10697   001E30  0E03               	movlw	3
 10698   001E32  26D9               	addwf	fsr2l,f,c
 10699   001E34  50DF               	movf	indf2,w,c
 10700   001E36  A4D8               	btfss	status,2,c
 10701   001E38  EF20  F00F         	goto	u6161
 10702   001E3C  EF22  F00F         	goto	u6160
 10703   001E40                     u6161:
 10704   001E40  EF25  F00F         	goto	l7041
 10705   001E44                     u6160:
 10706   001E44                     
 10707                           ; BSR set to: 0
 10708                           ;MCAL_layer/Interrupt/mcal_external_interrupt.c: 466:                  (INTCON2bits.INTE
      +                          DG0 = 0);
 10709   001E44  9CF1               	bcf	241,6,c	;volatile
 10710                           
 10711                           ;MCAL_layer/Interrupt/mcal_external_interrupt.c: 467:                 }
 10712   001E46  EF93  F00F         	goto	l7065
 10713   001E4A                     l7041:
 10714                           
 10715                           ; BSR set to: 0
 10716   001E4A  51AC               	movf	INTERRUPT_INTx_edge_int@int_obj& (0+255),w,b
 10717   001E4C  6ED9               	movwf	fsr2l,c
 10718   001E4E  6ADA               	clrf	fsr2h,c
 10719   001E50  0E03               	movlw	3
 10720   001E52  26D9               	addwf	fsr2l,f,c
 10721   001E54  04DE               	decf	postinc2,w,c
 10722   001E56  A4D8               	btfss	status,2,c
 10723   001E58  EF30  F00F         	goto	u6171
 10724   001E5C  EF32  F00F         	goto	u6170
 10725   001E60                     u6171:
 10726   001E60  EF93  F00F         	goto	l706
 10727   001E64                     u6170:
 10728   001E64                     
 10729                           ; BSR set to: 0
 10730                           ;MCAL_layer/Interrupt/mcal_external_interrupt.c: 469:                  (INTCON2bits.INTE
      +                          DG0 = 1);
 10731   001E64  8CF1               	bsf	241,6,c	;volatile
 10732                           
 10733                           ;MCAL_layer/Interrupt/mcal_external_interrupt.c: 470:                 }
 10734   001E66  EF93  F00F         	goto	l7065
 10735   001E6A                     l7045:
 10736                           
 10737                           ; BSR set to: 0
 10738                           ;MCAL_layer/Interrupt/mcal_external_interrupt.c: 476:                 if(int_obj->edge =
      +                          = INTERRUPT_FALLING_EDGE){
 10739   001E6A  51AC               	movf	INTERRUPT_INTx_edge_int@int_obj& (0+255),w,b
 10740   001E6C  6ED9               	movwf	fsr2l,c
 10741   001E6E  6ADA               	clrf	fsr2h,c
 10742   001E70  0E03               	movlw	3
 10743   001E72  26D9               	addwf	fsr2l,f,c
 10744   001E74  50DF               	movf	indf2,w,c
 10745   001E76  A4D8               	btfss	status,2,c
 10746   001E78  EF40  F00F         	goto	u6181
 10747   001E7C  EF42  F00F         	goto	u6180
 10748   001E80                     u6181:
 10749   001E80  EF45  F00F         	goto	l7049
 10750   001E84                     u6180:
 10751   001E84                     
 10752                           ; BSR set to: 0
 10753                           ;MCAL_layer/Interrupt/mcal_external_interrupt.c: 477:                 (INTCON2bits.INTED
      +                          G1 = 0);
 10754   001E84  9AF1               	bcf	241,5,c	;volatile
 10755                           
 10756                           ;MCAL_layer/Interrupt/mcal_external_interrupt.c: 478:                 }
 10757   001E86  EF93  F00F         	goto	l7065
 10758   001E8A                     l7049:
 10759                           
 10760                           ; BSR set to: 0
 10761   001E8A  51AC               	movf	INTERRUPT_INTx_edge_int@int_obj& (0+255),w,b
 10762   001E8C  6ED9               	movwf	fsr2l,c
 10763   001E8E  6ADA               	clrf	fsr2h,c
 10764   001E90  0E03               	movlw	3
 10765   001E92  26D9               	addwf	fsr2l,f,c
 10766   001E94  04DE               	decf	postinc2,w,c
 10767   001E96  A4D8               	btfss	status,2,c
 10768   001E98  EF50  F00F         	goto	u6191
 10769   001E9C  EF52  F00F         	goto	u6190
 10770   001EA0                     u6191:
 10771   001EA0  EF93  F00F         	goto	l7065
 10772   001EA4                     u6190:
 10773   001EA4                     
 10774                           ; BSR set to: 0
 10775                           ;MCAL_layer/Interrupt/mcal_external_interrupt.c: 480:                  (INTCON2bits.INTE
      +                          DG1 = 1);
 10776   001EA4  8AF1               	bsf	241,5,c	;volatile
 10777                           
 10778                           ;MCAL_layer/Interrupt/mcal_external_interrupt.c: 481:                 }
 10779   001EA6  EF93  F00F         	goto	l7065
 10780   001EAA                     l7053:
 10781                           
 10782                           ; BSR set to: 0
 10783                           ;MCAL_layer/Interrupt/mcal_external_interrupt.c: 487:                 if(int_obj->edge =
      +                          = INTERRUPT_FALLING_EDGE){
 10784   001EAA  51AC               	movf	INTERRUPT_INTx_edge_int@int_obj& (0+255),w,b
 10785   001EAC  6ED9               	movwf	fsr2l,c
 10786   001EAE  6ADA               	clrf	fsr2h,c
 10787   001EB0  0E03               	movlw	3
 10788   001EB2  26D9               	addwf	fsr2l,f,c
 10789   001EB4  50DF               	movf	indf2,w,c
 10790   001EB6  A4D8               	btfss	status,2,c
 10791   001EB8  EF60  F00F         	goto	u6201
 10792   001EBC  EF62  F00F         	goto	u6200
 10793   001EC0                     u6201:
 10794   001EC0  EF65  F00F         	goto	l7057
 10795   001EC4                     u6200:
 10796   001EC4                     
 10797                           ; BSR set to: 0
 10798                           ;MCAL_layer/Interrupt/mcal_external_interrupt.c: 488:                  (INTCON2bits.INTE
      +                          DG2 = 0);
 10799   001EC4  98F1               	bcf	241,4,c	;volatile
 10800                           
 10801                           ;MCAL_layer/Interrupt/mcal_external_interrupt.c: 489:                 }
 10802   001EC6  EF93  F00F         	goto	l7065
 10803   001ECA                     l7057:
 10804                           
 10805                           ; BSR set to: 0
 10806   001ECA  51AC               	movf	INTERRUPT_INTx_edge_int@int_obj& (0+255),w,b
 10807   001ECC  6ED9               	movwf	fsr2l,c
 10808   001ECE  6ADA               	clrf	fsr2h,c
 10809   001ED0  0E03               	movlw	3
 10810   001ED2  26D9               	addwf	fsr2l,f,c
 10811   001ED4  04DE               	decf	postinc2,w,c
 10812   001ED6  A4D8               	btfss	status,2,c
 10813   001ED8  EF70  F00F         	goto	u6211
 10814   001EDC  EF72  F00F         	goto	u6210
 10815   001EE0                     u6211:
 10816   001EE0  EF93  F00F         	goto	l7065
 10817   001EE4                     u6210:
 10818   001EE4                     
 10819                           ; BSR set to: 0
 10820                           ;MCAL_layer/Interrupt/mcal_external_interrupt.c: 491:                  (INTCON2bits.INTE
      +                          DG2 = 1);
 10821   001EE4  88F1               	bsf	241,4,c	;volatile
 10822                           
 10823                           ;MCAL_layer/Interrupt/mcal_external_interrupt.c: 492:                 }
 10824   001EE6  EF93  F00F         	goto	l7065
 10825   001EEA                     l7063:
 10826                           
 10827                           ; BSR set to: 0
 10828   001EEA  51AC               	movf	INTERRUPT_INTx_edge_int@int_obj& (0+255),w,b
 10829   001EEC  6ED9               	movwf	fsr2l,c
 10830   001EEE  6ADA               	clrf	fsr2h,c
 10831   001EF0  0E04               	movlw	4
 10832   001EF2  26D9               	addwf	fsr2l,f,c
 10833   001EF4  50DF               	movf	indf2,w,c
 10834   001EF6  6FAD               	movwf	??_INTERRUPT_INTx_edge_int& (0+255),b
 10835   001EF8  6BAE               	clrf	(??_INTERRUPT_INTx_edge_int+1)& (0+255),b
 10836                           
 10837                           ; Switch on 2 bytes has been partitioned into a top level switch of size 1, and 1 sub-sw
      +                          itches
 10838                           ; Switch size 1, requested type "simple"
 10839                           ; Number of cases is 1, Range of values is 0 to 0
 10840                           ; switch strategies available:
 10841                           ; Name         Instructions Cycles
 10842                           ; simple_byte            4     3 (average)
 10843                           ;	Chosen strategy is simple_byte
 10844   001EFA  51AE               	movf	(??_INTERRUPT_INTx_edge_int+1)& (0+255),w,b
 10845   001EFC  0A00               	xorlw	0	; case 0
 10846   001EFE  B4D8               	btfsc	status,2,c
 10847   001F00  EF84  F00F         	goto	l13549
 10848   001F04  EF11  F00F         	goto	l7035
 10849   001F08                     l13549:
 10850                           
 10851                           ; BSR set to: 0
 10852                           ; Switch size 1, requested type "simple"
 10853                           ; Number of cases is 3, Range of values is 0 to 2
 10854                           ; switch strategies available:
 10855                           ; Name         Instructions Cycles
 10856                           ; simple_byte           10     6 (average)
 10857                           ;	Chosen strategy is simple_byte
 10858   001F08  51AD               	movf	??_INTERRUPT_INTx_edge_int& (0+255),w,b
 10859   001F0A  0A00               	xorlw	0	; case 0
 10860   001F0C  B4D8               	btfsc	status,2,c
 10861   001F0E  EF15  F00F         	goto	l7037
 10862   001F12  0A01               	xorlw	1	; case 1
 10863   001F14  B4D8               	btfsc	status,2,c
 10864   001F16  EF35  F00F         	goto	l7045
 10865   001F1A  0A03               	xorlw	3	; case 2
 10866   001F1C  B4D8               	btfsc	status,2,c
 10867   001F1E  EF55  F00F         	goto	l7053
 10868   001F22  EF11  F00F         	goto	l7035
 10869   001F26                     l706:
 10870   001F26                     l7065:
 10871                           
 10872                           ; BSR set to: 0
 10873                           ;MCAL_layer/Interrupt/mcal_external_interrupt.c: 500:      return ret;
 10874   001F26  51AF               	movf	INTERRUPT_INTx_edge_int@ret& (0+255),w,b
 10875   001F28                     
 10876                           ; BSR set to: 0
 10877   001F28  0012               	return		;funcret
 10878   001F2A                     __end_of_INTERRUPT_INTx_edge_int:
 10879                           	callstack 0
 10880                           
 10881 ;; *************** function _INTERRUPT_INTx_disable *****************
 10882 ;; Defined at:
 10883 ;;		line 381 in file "MCAL_layer/Interrupt/mcal_external_interrupt.c"
 10884 ;; Parameters:    Size  Location     Type
 10885 ;;  int_obj         1    0[BANK0 ] PTR const struct .
 10886 ;;		 -> INT_obj(6), 
 10887 ;; Auto vars:     Size  Location     Type
 10888 ;;  ret             1    3[BANK0 ] unsigned char 
 10889 ;; Return value:  Size  Location     Type
 10890 ;;                  1    wreg      unsigned char 
 10891 ;; Registers used:
 10892 ;;		wreg, fsr2l, fsr2h, status,2, status,0
 10893 ;; Tracked objects:
 10894 ;;		On entry : 0/0
 10895 ;;		On exit  : 0/0
 10896 ;;		Unchanged: 0/0
 10897 ;; Data sizes:     COMRAM   BANK0   BANK1   BANK2   BANK3   BANK4   BANK5   BANK6   BANK7   BANK8   BANK9  BANK10  BANK1
      +1  BANK12  BANK13  BANK14  BANK15
 10898 ;;      Params:         0       1       0       0       0       0       0       0       0       0       0       0       
      +0       0       0       0       0
 10899 ;;      Locals:         0       1       0       0       0       0       0       0       0       0       0       0       
      +0       0       0       0       0
 10900 ;;      Temps:          0       2       0       0       0       0       0       0       0       0       0       0       
      +0       0       0       0       0
 10901 ;;      Totals:         0       4       0       0       0       0       0       0       0       0       0       0       
      +0       0       0       0       0
 10902 ;;Total ram usage:        4 bytes
 10903 ;; Hardware stack levels used: 1
 10904 ;; Hardware stack levels required when called: 8
 10905 ;; This function calls:
 10906 ;;		Nothing
 10907 ;; This function is called by:
 10908 ;;		_Interrupt_INTx_Init
 10909 ;;		_Interrupt_INTx_DeInit
 10910 ;; This function uses a non-reentrant model
 10911 ;;
 10912                           
 10913                           	psect	text52
 10914   002C14                     __ptext52:
 10915                           	callstack 0
 10916   002C14                     _INTERRUPT_INTx_disable:
 10917                           	callstack 19
 10918   002C14                     
 10919                           ;MCAL_layer/Interrupt/mcal_external_interrupt.c: 382:     STD_ReturnType ret = (STD_Retu
      +                          rnType)0x01;
 10920   002C14  0E01               	movlw	1
 10921   002C16  0100               	movlb	0	; () banked
 10922   002C18  6FAF               	movwf	INTERRUPT_INTx_disable@ret& (0+255),b
 10923                           
 10924                           ;MCAL_layer/Interrupt/mcal_external_interrupt.c: 383:     if(((void*)0) == int_obj)
 10925   002C1A  51AC               	movf	INTERRUPT_INTx_disable@int_obj& (0+255),w,b
 10926   002C1C  A4D8               	btfss	status,2,c
 10927   002C1E  EF13  F016         	goto	u6131
 10928   002C22  EF15  F016         	goto	u6130
 10929   002C26                     u6131:
 10930   002C26  EF22  F016         	goto	l7003
 10931   002C2A                     u6130:
 10932   002C2A                     l6999:
 10933                           
 10934                           ; BSR set to: 0
 10935                           ;MCAL_layer/Interrupt/mcal_external_interrupt.c: 384:     {;MCAL_layer/Interrupt/mcal_ex
      +                          ternal_interrupt.c: 385:         ret = (STD_ReturnType)0x00;
 10936   002C2A  0E00               	movlw	0
 10937   002C2C  6FAF               	movwf	INTERRUPT_INTx_disable@ret& (0+255),b
 10938                           
 10939                           ;MCAL_layer/Interrupt/mcal_external_interrupt.c: 386:     }
 10940   002C2E  EF40  F016         	goto	l7005
 10941   002C32                     l672:
 10942                           
 10943                           ; BSR set to: 0
 10944   002C32  98F2               	bcf	242,4,c	;volatile
 10945   002C34  EF40  F016         	goto	l7005
 10946   002C38                     l674:
 10947                           
 10948                           ; BSR set to: 0
 10949   002C38  96F0               	bcf	240,3,c	;volatile
 10950   002C3A  EF40  F016         	goto	l7005
 10951   002C3E                     l675:
 10952                           
 10953                           ; BSR set to: 0
 10954   002C3E  98F0               	bcf	240,4,c	;volatile
 10955   002C40  EF40  F016         	goto	l7005
 10956   002C44                     l7003:
 10957                           
 10958                           ; BSR set to: 0
 10959   002C44  51AC               	movf	INTERRUPT_INTx_disable@int_obj& (0+255),w,b
 10960   002C46  6ED9               	movwf	fsr2l,c
 10961   002C48  6ADA               	clrf	fsr2h,c
 10962   002C4A  0E04               	movlw	4
 10963   002C4C  26D9               	addwf	fsr2l,f,c
 10964   002C4E  50DF               	movf	indf2,w,c
 10965   002C50  6FAD               	movwf	??_INTERRUPT_INTx_disable& (0+255),b
 10966   002C52  6BAE               	clrf	(??_INTERRUPT_INTx_disable+1)& (0+255),b
 10967                           
 10968                           ; Switch on 2 bytes has been partitioned into a top level switch of size 1, and 1 sub-sw
      +                          itches
 10969                           ; Switch size 1, requested type "simple"
 10970                           ; Number of cases is 1, Range of values is 0 to 0
 10971                           ; switch strategies available:
 10972                           ; Name         Instructions Cycles
 10973                           ; simple_byte            4     3 (average)
 10974                           ;	Chosen strategy is simple_byte
 10975   002C54  51AE               	movf	(??_INTERRUPT_INTx_disable+1)& (0+255),w,b
 10976   002C56  0A00               	xorlw	0	; case 0
 10977   002C58  B4D8               	btfsc	status,2,c
 10978   002C5A  EF31  F016         	goto	l13551
 10979   002C5E  EF15  F016         	goto	l6999
 10980   002C62                     l13551:
 10981                           
 10982                           ; BSR set to: 0
 10983                           ; Switch size 1, requested type "simple"
 10984                           ; Number of cases is 3, Range of values is 0 to 2
 10985                           ; switch strategies available:
 10986                           ; Name         Instructions Cycles
 10987                           ; simple_byte           10     6 (average)
 10988                           ;	Chosen strategy is simple_byte
 10989   002C62  51AD               	movf	??_INTERRUPT_INTx_disable& (0+255),w,b
 10990   002C64  0A00               	xorlw	0	; case 0
 10991   002C66  B4D8               	btfsc	status,2,c
 10992   002C68  EF19  F016         	goto	l672
 10993   002C6C  0A01               	xorlw	1	; case 1
 10994   002C6E  B4D8               	btfsc	status,2,c
 10995   002C70  EF1C  F016         	goto	l674
 10996   002C74  0A03               	xorlw	3	; case 2
 10997   002C76  B4D8               	btfsc	status,2,c
 10998   002C78  EF1F  F016         	goto	l675
 10999   002C7C  EF15  F016         	goto	l6999
 11000   002C80                     l7005:
 11001                           
 11002                           ; BSR set to: 0
 11003                           ;MCAL_layer/Interrupt/mcal_external_interrupt.c: 397:      return ret;
 11004   002C80  51AF               	movf	INTERRUPT_INTx_disable@ret& (0+255),w,b
 11005   002C82                     
 11006                           ; BSR set to: 0
 11007   002C82  0012               	return		;funcret
 11008   002C84                     __end_of_INTERRUPT_INTx_disable:
 11009                           	callstack 0
 11010                           
 11011 ;; *************** function _INTERRUPT_INTx_clear_flag *****************
 11012 ;; Defined at:
 11013 ;;		line 530 in file "MCAL_layer/Interrupt/mcal_external_interrupt.c"
 11014 ;; Parameters:    Size  Location     Type
 11015 ;;  int_obj         1    0[BANK0 ] PTR const struct .
 11016 ;;		 -> INT_obj(6), 
 11017 ;; Auto vars:     Size  Location     Type
 11018 ;;  ret             1    3[BANK0 ] unsigned char 
 11019 ;; Return value:  Size  Location     Type
 11020 ;;                  1    wreg      unsigned char 
 11021 ;; Registers used:
 11022 ;;		wreg, fsr2l, fsr2h, status,2, status,0
 11023 ;; Tracked objects:
 11024 ;;		On entry : 0/0
 11025 ;;		On exit  : 0/0
 11026 ;;		Unchanged: 0/0
 11027 ;; Data sizes:     COMRAM   BANK0   BANK1   BANK2   BANK3   BANK4   BANK5   BANK6   BANK7   BANK8   BANK9  BANK10  BANK1
      +1  BANK12  BANK13  BANK14  BANK15
 11028 ;;      Params:         0       1       0       0       0       0       0       0       0       0       0       0       
      +0       0       0       0       0
 11029 ;;      Locals:         0       1       0       0       0       0       0       0       0       0       0       0       
      +0       0       0       0       0
 11030 ;;      Temps:          0       2       0       0       0       0       0       0       0       0       0       0       
      +0       0       0       0       0
 11031 ;;      Totals:         0       4       0       0       0       0       0       0       0       0       0       0       
      +0       0       0       0       0
 11032 ;;Total ram usage:        4 bytes
 11033 ;; Hardware stack levels used: 1
 11034 ;; Hardware stack levels required when called: 8
 11035 ;; This function calls:
 11036 ;;		Nothing
 11037 ;; This function is called by:
 11038 ;;		_Interrupt_INTx_Init
 11039 ;; This function uses a non-reentrant model
 11040 ;;
 11041                           
 11042                           	psect	text53
 11043   002C84                     __ptext53:
 11044                           	callstack 0
 11045   002C84                     _INTERRUPT_INTx_clear_flag:
 11046                           	callstack 19
 11047   002C84                     
 11048                           ;MCAL_layer/Interrupt/mcal_external_interrupt.c: 531:     STD_ReturnType ret = (STD_Retu
      +                          rnType)0x01;
 11049   002C84  0E01               	movlw	1
 11050   002C86  0100               	movlb	0	; () banked
 11051   002C88  6FAF               	movwf	INTERRUPT_INTx_clear_flag@ret& (0+255),b
 11052                           
 11053                           ;MCAL_layer/Interrupt/mcal_external_interrupt.c: 532:     if(((void*)0) == int_obj)
 11054   002C8A  51AC               	movf	INTERRUPT_INTx_clear_flag@int_obj& (0+255),w,b
 11055   002C8C  A4D8               	btfss	status,2,c
 11056   002C8E  EF4B  F016         	goto	u6141
 11057   002C92  EF4D  F016         	goto	u6140
 11058   002C96                     u6141:
 11059   002C96  EF5A  F016         	goto	l7021
 11060   002C9A                     u6140:
 11061   002C9A                     l7017:
 11062                           
 11063                           ; BSR set to: 0
 11064                           ;MCAL_layer/Interrupt/mcal_external_interrupt.c: 533:     {;MCAL_layer/Interrupt/mcal_ex
      +                          ternal_interrupt.c: 534:         ret = (STD_ReturnType)0x00;
 11065   002C9A  0E00               	movlw	0
 11066   002C9C  6FAF               	movwf	INTERRUPT_INTx_clear_flag@ret& (0+255),b
 11067                           
 11068                           ;MCAL_layer/Interrupt/mcal_external_interrupt.c: 535:     }
 11069   002C9E  EF78  F016         	goto	l7023
 11070   002CA2                     l729:
 11071                           
 11072                           ; BSR set to: 0
 11073   002CA2  92F2               	bcf	242,1,c	;volatile
 11074   002CA4  EF78  F016         	goto	l7023
 11075   002CA8                     l731:
 11076                           
 11077                           ; BSR set to: 0
 11078   002CA8  90F0               	bcf	240,0,c	;volatile
 11079   002CAA  EF78  F016         	goto	l7023
 11080   002CAE                     l732:
 11081                           
 11082                           ; BSR set to: 0
 11083   002CAE  92F0               	bcf	240,1,c	;volatile
 11084   002CB0  EF78  F016         	goto	l7023
 11085   002CB4                     l7021:
 11086                           
 11087                           ; BSR set to: 0
 11088   002CB4  51AC               	movf	INTERRUPT_INTx_clear_flag@int_obj& (0+255),w,b
 11089   002CB6  6ED9               	movwf	fsr2l,c
 11090   002CB8  6ADA               	clrf	fsr2h,c
 11091   002CBA  0E04               	movlw	4
 11092   002CBC  26D9               	addwf	fsr2l,f,c
 11093   002CBE  50DF               	movf	indf2,w,c
 11094   002CC0  6FAD               	movwf	??_INTERRUPT_INTx_clear_flag& (0+255),b
 11095   002CC2  6BAE               	clrf	(??_INTERRUPT_INTx_clear_flag+1)& (0+255),b
 11096                           
 11097                           ; Switch on 2 bytes has been partitioned into a top level switch of size 1, and 1 sub-sw
      +                          itches
 11098                           ; Switch size 1, requested type "simple"
 11099                           ; Number of cases is 1, Range of values is 0 to 0
 11100                           ; switch strategies available:
 11101                           ; Name         Instructions Cycles
 11102                           ; simple_byte            4     3 (average)
 11103                           ;	Chosen strategy is simple_byte
 11104   002CC4  51AE               	movf	(??_INTERRUPT_INTx_clear_flag+1)& (0+255),w,b
 11105   002CC6  0A00               	xorlw	0	; case 0
 11106   002CC8  B4D8               	btfsc	status,2,c
 11107   002CCA  EF69  F016         	goto	l13553
 11108   002CCE  EF4D  F016         	goto	l7017
 11109   002CD2                     l13553:
 11110                           
 11111                           ; BSR set to: 0
 11112                           ; Switch size 1, requested type "simple"
 11113                           ; Number of cases is 3, Range of values is 0 to 2
 11114                           ; switch strategies available:
 11115                           ; Name         Instructions Cycles
 11116                           ; simple_byte           10     6 (average)
 11117                           ;	Chosen strategy is simple_byte
 11118   002CD2  51AD               	movf	??_INTERRUPT_INTx_clear_flag& (0+255),w,b
 11119   002CD4  0A00               	xorlw	0	; case 0
 11120   002CD6  B4D8               	btfsc	status,2,c
 11121   002CD8  EF51  F016         	goto	l729
 11122   002CDC  0A01               	xorlw	1	; case 1
 11123   002CDE  B4D8               	btfsc	status,2,c
 11124   002CE0  EF54  F016         	goto	l731
 11125   002CE4  0A03               	xorlw	3	; case 2
 11126   002CE6  B4D8               	btfsc	status,2,c
 11127   002CE8  EF57  F016         	goto	l732
 11128   002CEC  EF4D  F016         	goto	l7017
 11129   002CF0                     l7023:
 11130                           
 11131                           ; BSR set to: 0
 11132                           ;MCAL_layer/Interrupt/mcal_external_interrupt.c: 546:      return ret;
 11133   002CF0  51AF               	movf	INTERRUPT_INTx_clear_flag@ret& (0+255),w,b
 11134   002CF2                     
 11135                           ; BSR set to: 0
 11136   002CF2  0012               	return		;funcret
 11137   002CF4                     __end_of_INTERRUPT_INTx_clear_flag:
 11138                           	callstack 0
 11139                           
 11140 ;; *************** function _INTERRUPT_MANAGER_HIGH *****************
 11141 ;; Defined at:
 11142 ;;		line 40 in file "MCAL_layer/Interrupt/mcal_interrupt_manager.c"
 11143 ;; Parameters:    Size  Location     Type
 11144 ;;		None
 11145 ;; Auto vars:     Size  Location     Type
 11146 ;;		None
 11147 ;; Return value:  Size  Location     Type
 11148 ;;                  1    wreg      void 
 11149 ;; Registers used:
 11150 ;;		wreg, fsr0l, fsr0h, fsr2l, fsr2h, status,2, status,0, pcl, pclath, pclatu, tosl, tblptrl, tblptrh, tblptru, prodl, p
      +rodh, cstack
 11151 ;; Tracked objects:
 11152 ;;		On entry : 0/0
 11153 ;;		On exit  : 0/0
 11154 ;;		Unchanged: 0/0
 11155 ;; Data sizes:     COMRAM   BANK0   BANK1   BANK2   BANK3   BANK4   BANK5   BANK6   BANK7   BANK8   BANK9  BANK10  BANK1
      +1  BANK12  BANK13  BANK14  BANK15
 11156 ;;      Params:         0       0       0       0       0       0       0       0       0       0       0       0       
      +0       0       0       0       0
 11157 ;;      Locals:         0       0       0       0       0       0       0       0       0       0       0       0       
      +0       0       0       0       0
 11158 ;;      Temps:         12       0       0       0       0       0       0       0       0       0       0       0       
      +0       0       0       0       0
 11159 ;;      Totals:        12       0       0       0       0       0       0       0       0       0       0       0       
      +0       0       0       0       0
 11160 ;;Total ram usage:       12 bytes
 11161 ;; Hardware stack levels used: 1
 11162 ;; Hardware stack levels required when called: 7
 11163 ;; This function calls:
 11164 ;;		_INT0_ISR
 11165 ;;		_INT1_ISR
 11166 ;;		_INT2_ISR
 11167 ;;		_RB4_ISR
 11168 ;;		_RB5_ISR
 11169 ;;		_RB6_ISR
 11170 ;;		_RB7_ISR
 11171 ;; This function is called by:
 11172 ;;		Interrupt level 2
 11173 ;; This function uses a non-reentrant model
 11174 ;;
 11175                           
 11176                           	psect	intcode
 11177   000008                     __pintcode:
 11178                           	callstack 0
 11179   000008                     _INTERRUPT_MANAGER_HIGH:
 11180                           	callstack 16
 11181                           
 11182                           ; BSR set to: 0
 11183                           ;incstack = 0
 11184   000008  8257               	bsf	int$flags,1,c	;set compiler interrupt flag (level 2)
 11185   00000A  ED47  F00B         	call	int_func,f	;refresh shadow registers
 11186                           
 11187                           	psect	intcode_body
 11188   00168E                     __pintcode_body:
 11189                           	callstack 16
 11190   00168E                     int_func:
 11191                           	callstack 16
 11192   00168E  0006               	pop		; remove dummy address from shadow register refresh
 11193   001690  CFFA F01E          	movff	pclath,??_INTERRUPT_MANAGER_HIGH
 11194   001694  CFFB F01F          	movff	pclatu,??_INTERRUPT_MANAGER_HIGH+1
 11195   001698  CFE9 F020          	movff	fsr0l,??_INTERRUPT_MANAGER_HIGH+2
 11196   00169C  CFEA F021          	movff	fsr0h,??_INTERRUPT_MANAGER_HIGH+3
 11197   0016A0  CFD9 F022          	movff	fsr2l,??_INTERRUPT_MANAGER_HIGH+4
 11198   0016A4  CFDA F023          	movff	fsr2h,??_INTERRUPT_MANAGER_HIGH+5
 11199   0016A8  CFF3 F024          	movff	prodl,??_INTERRUPT_MANAGER_HIGH+6
 11200   0016AC  CFF4 F025          	movff	prodh,??_INTERRUPT_MANAGER_HIGH+7
 11201   0016B0  CFF6 F026          	movff	tblptrl,??_INTERRUPT_MANAGER_HIGH+8
 11202   0016B4  CFF7 F027          	movff	tblptrh,??_INTERRUPT_MANAGER_HIGH+9
 11203   0016B8  CFF8 F028          	movff	tblptru,??_INTERRUPT_MANAGER_HIGH+10
 11204   0016BC  CFF5 F029          	movff	tablat,??_INTERRUPT_MANAGER_HIGH+11
 11205   0016C0                     
 11206                           ;MCAL_layer/Interrupt/mcal_interrupt_manager.c: 41: if((1 == INTCONbits.INT0IE) && (1 ==
      +                           INTCONbits.INT0IF)){
 11207   0016C0  A8F2               	btfss	242,4,c	;volatile
 11208   0016C2  EF65  F00B         	goto	i2u1219_41
 11209   0016C6  EF67  F00B         	goto	i2u1219_40
 11210   0016CA                     i2u1219_41:
 11211   0016CA  EF70  F00B         	goto	i2l818
 11212   0016CE                     i2u1219_40:
 11213   0016CE  A2F2               	btfss	242,1,c	;volatile
 11214   0016D0  EF6C  F00B         	goto	i2u1220_41
 11215   0016D4  EF6E  F00B         	goto	i2u1220_40
 11216   0016D8                     i2u1220_41:
 11217   0016D8  EF70  F00B         	goto	i2l818
 11218   0016DC                     i2u1220_40:
 11219   0016DC                     
 11220                           ;MCAL_layer/Interrupt/mcal_interrupt_manager.c: 42:     INT0_ISR();
 11221   0016DC  ECBF  F01A         	call	_INT0_ISR	;wreg free
 11222   0016E0                     i2l818:
 11223                           
 11224                           ;MCAL_layer/Interrupt/mcal_interrupt_manager.c: 45: if((1 == INTCON3bits.INT1IE) && (1 =
      +                          = INTCON3bits.INT1IF)){
 11225   0016E0  A6F0               	btfss	240,3,c	;volatile
 11226   0016E2  EF75  F00B         	goto	i2u1221_41
 11227   0016E6  EF77  F00B         	goto	i2u1221_40
 11228   0016EA                     i2u1221_41:
 11229   0016EA  EF80  F00B         	goto	i2l820
 11230   0016EE                     i2u1221_40:
 11231   0016EE  A0F0               	btfss	240,0,c	;volatile
 11232   0016F0  EF7C  F00B         	goto	i2u1222_41
 11233   0016F4  EF7E  F00B         	goto	i2u1222_40
 11234   0016F8                     i2u1222_41:
 11235   0016F8  EF80  F00B         	goto	i2l820
 11236   0016FC                     i2u1222_40:
 11237   0016FC                     
 11238                           ;MCAL_layer/Interrupt/mcal_interrupt_manager.c: 46:     INT1_ISR();
 11239   0016FC  ECA8  F01A         	call	_INT1_ISR	;wreg free
 11240   001700                     i2l820:
 11241                           
 11242                           ;MCAL_layer/Interrupt/mcal_interrupt_manager.c: 49: if((1 == INTCON3bits.INT2IE) && (1 =
      +                          = INTCON3bits.INT2IF)){
 11243   001700  A8F0               	btfss	240,4,c	;volatile
 11244   001702  EF85  F00B         	goto	i2u1223_41
 11245   001706  EF87  F00B         	goto	i2u1223_40
 11246   00170A                     i2u1223_41:
 11247   00170A  EF90  F00B         	goto	i2l822
 11248   00170E                     i2u1223_40:
 11249   00170E  A2F0               	btfss	240,1,c	;volatile
 11250   001710  EF8C  F00B         	goto	i2u1224_41
 11251   001714  EF8E  F00B         	goto	i2u1224_40
 11252   001718                     i2u1224_41:
 11253   001718  EF90  F00B         	goto	i2l822
 11254   00171C                     i2u1224_40:
 11255   00171C                     
 11256                           ;MCAL_layer/Interrupt/mcal_interrupt_manager.c: 50:     INT2_ISR();
 11257   00171C  EC91  F01A         	call	_INT2_ISR	;wreg free
 11258   001720                     i2l822:
 11259                           
 11260                           ;MCAL_layer/Interrupt/mcal_interrupt_manager.c: 54: if((1 == INTCONbits.RBIE) && (1 == I
      +                          NTCONbits.RBIF) &&
 11261   001720  A6F2               	btfss	242,3,c	;volatile
 11262   001722  EF95  F00B         	goto	i2u1225_41
 11263   001726  EF97  F00B         	goto	i2u1225_40
 11264   00172A                     i2u1225_41:
 11265   00172A  EFB2  F00B         	goto	i2l824
 11266   00172E                     i2u1225_40:
 11267   00172E  A0F2               	btfss	242,0,c	;volatile
 11268   001730  EF9C  F00B         	goto	i2u1226_41
 11269   001734  EF9E  F00B         	goto	i2u1226_40
 11270   001738                     i2u1226_41:
 11271   001738  EFB2  F00B         	goto	i2l824
 11272   00173C                     i2u1226_40:
 11273   00173C  A881               	btfss	129,4,c	;volatile
 11274   00173E  EFA3  F00B         	goto	i2u1227_41
 11275   001742  EFA5  F00B         	goto	i2u1227_40
 11276   001746                     i2u1227_41:
 11277   001746  EFB2  F00B         	goto	i2l824
 11278   00174A                     i2u1227_40:
 11279   00174A  044B               	decf	_RB4_flag^0,w,c	;volatile
 11280   00174C  A4D8               	btfss	status,2,c
 11281   00174E  EFAB  F00B         	goto	i2u1228_41
 11282   001752  EFAD  F00B         	goto	i2u1228_40
 11283   001756                     i2u1228_41:
 11284   001756  EFB2  F00B         	goto	i2l824
 11285   00175A                     i2u1228_40:
 11286   00175A                     
 11287                           ;MCAL_layer/Interrupt/mcal_interrupt_manager.c: 55:     (PORTBbits.RB4 == 1)&& (1 == RB4
      +                          _flag)){;MCAL_layer/Interrupt/mcal_interrupt_manager.c: 56:     RB4_flag = 0;
 11288   00175A  0E00               	movlw	0
 11289   00175C  6E4B               	movwf	_RB4_flag^0,c	;volatile
 11290   00175E                     
 11291                           ;MCAL_layer/Interrupt/mcal_interrupt_manager.c: 57:     RB4_ISR(1);
 11292   00175E  0E01               	movlw	1
 11293   001760  EC8E  F01B         	call	_RB4_ISR
 11294   001764                     i2l824:
 11295                           
 11296                           ;MCAL_layer/Interrupt/mcal_interrupt_manager.c: 60: if((1 == INTCONbits.RBIE) && (1 == I
      +                          NTCONbits.RBIF)
 11297   001764  A6F2               	btfss	242,3,c	;volatile
 11298   001766  EFB7  F00B         	goto	i2u1229_41
 11299   00176A  EFB9  F00B         	goto	i2u1229_40
 11300   00176E                     i2u1229_41:
 11301   00176E  EFD4  F00B         	goto	i2l826
 11302   001772                     i2u1229_40:
 11303   001772  A0F2               	btfss	242,0,c	;volatile
 11304   001774  EFBE  F00B         	goto	i2u1230_41
 11305   001778  EFC0  F00B         	goto	i2u1230_40
 11306   00177C                     i2u1230_41:
 11307   00177C  EFD4  F00B         	goto	i2l826
 11308   001780                     i2u1230_40:
 11309   001780  B881               	btfsc	129,4,c	;volatile
 11310   001782  EFC5  F00B         	goto	i2u1231_41
 11311   001786  EFC7  F00B         	goto	i2u1231_40
 11312   00178A                     i2u1231_41:
 11313   00178A  EFD4  F00B         	goto	i2l826
 11314   00178E                     i2u1231_40:
 11315   00178E  504B               	movf	_RB4_flag^0,w,c	;volatile
 11316   001790  A4D8               	btfss	status,2,c
 11317   001792  EFCD  F00B         	goto	i2u1232_41
 11318   001796  EFCF  F00B         	goto	i2u1232_40
 11319   00179A                     i2u1232_41:
 11320   00179A  EFD4  F00B         	goto	i2l826
 11321   00179E                     i2u1232_40:
 11322   00179E                     
 11323                           ;MCAL_layer/Interrupt/mcal_interrupt_manager.c: 61:     && (PORTBbits.RB4 == 0) && (0 ==
      +                           RB4_flag)){;MCAL_layer/Interrupt/mcal_interrupt_manager.c: 62:     RB4_flag = 1;
 11324   00179E  0E01               	movlw	1
 11325   0017A0  6E4B               	movwf	_RB4_flag^0,c	;volatile
 11326   0017A2                     
 11327                           ;MCAL_layer/Interrupt/mcal_interrupt_manager.c: 63:     RB4_ISR(0);
 11328   0017A2  0E00               	movlw	0
 11329   0017A4  EC8E  F01B         	call	_RB4_ISR
 11330   0017A8                     i2l826:
 11331                           
 11332                           ;MCAL_layer/Interrupt/mcal_interrupt_manager.c: 69: if((1 == INTCONbits.RBIE) && (1 == I
      +                          NTCONbits.RBIF)
 11333   0017A8  A6F2               	btfss	242,3,c	;volatile
 11334   0017AA  EFD9  F00B         	goto	i2u1233_41
 11335   0017AE  EFDB  F00B         	goto	i2u1233_40
 11336   0017B2                     i2u1233_41:
 11337   0017B2  EFF6  F00B         	goto	i2l828
 11338   0017B6                     i2u1233_40:
 11339   0017B6  A0F2               	btfss	242,0,c	;volatile
 11340   0017B8  EFE0  F00B         	goto	i2u1234_41
 11341   0017BC  EFE2  F00B         	goto	i2u1234_40
 11342   0017C0                     i2u1234_41:
 11343   0017C0  EFF6  F00B         	goto	i2l828
 11344   0017C4                     i2u1234_40:
 11345   0017C4  AA81               	btfss	129,5,c	;volatile
 11346   0017C6  EFE7  F00B         	goto	i2u1235_41
 11347   0017CA  EFE9  F00B         	goto	i2u1235_40
 11348   0017CE                     i2u1235_41:
 11349   0017CE  EFF6  F00B         	goto	i2l828
 11350   0017D2                     i2u1235_40:
 11351   0017D2  044A               	decf	_RB5_flag^0,w,c	;volatile
 11352   0017D4  A4D8               	btfss	status,2,c
 11353   0017D6  EFEF  F00B         	goto	i2u1236_41
 11354   0017DA  EFF1  F00B         	goto	i2u1236_40
 11355   0017DE                     i2u1236_41:
 11356   0017DE  EFF6  F00B         	goto	i2l828
 11357   0017E2                     i2u1236_40:
 11358   0017E2                     
 11359                           ;MCAL_layer/Interrupt/mcal_interrupt_manager.c: 70:    && (PORTBbits.RB5 == 1)&& (1 == R
      +                          B5_flag)){;MCAL_layer/Interrupt/mcal_interrupt_manager.c: 71:     RB5_flag = 0;
 11360   0017E2  0E00               	movlw	0
 11361   0017E4  6E4A               	movwf	_RB5_flag^0,c	;volatile
 11362   0017E6                     
 11363                           ;MCAL_layer/Interrupt/mcal_interrupt_manager.c: 72:     RB5_ISR(1);
 11364   0017E6  0E01               	movlw	1
 11365   0017E8  EC81  F01B         	call	_RB5_ISR
 11366   0017EC                     i2l828:
 11367                           
 11368                           ;MCAL_layer/Interrupt/mcal_interrupt_manager.c: 75: if((1 == INTCONbits.RBIE) && (1 == I
      +                          NTCONbits.RBIF)
 11369   0017EC  A6F2               	btfss	242,3,c	;volatile
 11370   0017EE  EFFB  F00B         	goto	i2u1237_41
 11371   0017F2  EFFD  F00B         	goto	i2u1237_40
 11372   0017F6                     i2u1237_41:
 11373   0017F6  EF18  F00C         	goto	i2l830
 11374   0017FA                     i2u1237_40:
 11375   0017FA  A0F2               	btfss	242,0,c	;volatile
 11376   0017FC  EF02  F00C         	goto	i2u1238_41
 11377   001800  EF04  F00C         	goto	i2u1238_40
 11378   001804                     i2u1238_41:
 11379   001804  EF18  F00C         	goto	i2l830
 11380   001808                     i2u1238_40:
 11381   001808  BA81               	btfsc	129,5,c	;volatile
 11382   00180A  EF09  F00C         	goto	i2u1239_41
 11383   00180E  EF0B  F00C         	goto	i2u1239_40
 11384   001812                     i2u1239_41:
 11385   001812  EF18  F00C         	goto	i2l830
 11386   001816                     i2u1239_40:
 11387   001816  504A               	movf	_RB5_flag^0,w,c	;volatile
 11388   001818  A4D8               	btfss	status,2,c
 11389   00181A  EF11  F00C         	goto	i2u1240_41
 11390   00181E  EF13  F00C         	goto	i2u1240_40
 11391   001822                     i2u1240_41:
 11392   001822  EF18  F00C         	goto	i2l830
 11393   001826                     i2u1240_40:
 11394   001826                     
 11395                           ;MCAL_layer/Interrupt/mcal_interrupt_manager.c: 76:    && (PORTBbits.RB5 == 0)&& (0 == R
      +                          B5_flag)){;MCAL_layer/Interrupt/mcal_interrupt_manager.c: 77:     RB5_flag = 1;
 11396   001826  0E01               	movlw	1
 11397   001828  6E4A               	movwf	_RB5_flag^0,c	;volatile
 11398   00182A                     
 11399                           ;MCAL_layer/Interrupt/mcal_interrupt_manager.c: 78:     RB5_ISR(0);
 11400   00182A  0E00               	movlw	0
 11401   00182C  EC81  F01B         	call	_RB5_ISR
 11402   001830                     i2l830:
 11403                           
 11404                           ;MCAL_layer/Interrupt/mcal_interrupt_manager.c: 84: if((1 == INTCONbits.RBIE) && (1 == I
      +                          NTCONbits.RBIF)
 11405   001830  A6F2               	btfss	242,3,c	;volatile
 11406   001832  EF1D  F00C         	goto	i2u1241_41
 11407   001836  EF1F  F00C         	goto	i2u1241_40
 11408   00183A                     i2u1241_41:
 11409   00183A  EF3A  F00C         	goto	i2l832
 11410   00183E                     i2u1241_40:
 11411   00183E  A0F2               	btfss	242,0,c	;volatile
 11412   001840  EF24  F00C         	goto	i2u1242_41
 11413   001844  EF26  F00C         	goto	i2u1242_40
 11414   001848                     i2u1242_41:
 11415   001848  EF3A  F00C         	goto	i2l832
 11416   00184C                     i2u1242_40:
 11417   00184C  AC81               	btfss	129,6,c	;volatile
 11418   00184E  EF2B  F00C         	goto	i2u1243_41
 11419   001852  EF2D  F00C         	goto	i2u1243_40
 11420   001856                     i2u1243_41:
 11421   001856  EF3A  F00C         	goto	i2l832
 11422   00185A                     i2u1243_40:
 11423   00185A  0449               	decf	_RB6_flag^0,w,c	;volatile
 11424   00185C  A4D8               	btfss	status,2,c
 11425   00185E  EF33  F00C         	goto	i2u1244_41
 11426   001862  EF35  F00C         	goto	i2u1244_40
 11427   001866                     i2u1244_41:
 11428   001866  EF3A  F00C         	goto	i2l832
 11429   00186A                     i2u1244_40:
 11430   00186A                     
 11431                           ;MCAL_layer/Interrupt/mcal_interrupt_manager.c: 85:    && (PORTBbits.RB6 == 1)&& (1 == R
      +                          B6_flag)){;MCAL_layer/Interrupt/mcal_interrupt_manager.c: 86:     RB6_flag = 0;
 11432   00186A  0E00               	movlw	0
 11433   00186C  6E49               	movwf	_RB6_flag^0,c	;volatile
 11434   00186E                     
 11435                           ;MCAL_layer/Interrupt/mcal_interrupt_manager.c: 87:     RB6_ISR(1);
 11436   00186E  0E01               	movlw	1
 11437   001870  EC74  F01B         	call	_RB6_ISR
 11438   001874                     i2l832:
 11439                           
 11440                           ;MCAL_layer/Interrupt/mcal_interrupt_manager.c: 90: if((1 == INTCONbits.RBIE) && (1 == I
      +                          NTCONbits.RBIF)
 11441   001874  A6F2               	btfss	242,3,c	;volatile
 11442   001876  EF3F  F00C         	goto	i2u1245_41
 11443   00187A  EF41  F00C         	goto	i2u1245_40
 11444   00187E                     i2u1245_41:
 11445   00187E  EF5C  F00C         	goto	i2l834
 11446   001882                     i2u1245_40:
 11447   001882  A0F2               	btfss	242,0,c	;volatile
 11448   001884  EF46  F00C         	goto	i2u1246_41
 11449   001888  EF48  F00C         	goto	i2u1246_40
 11450   00188C                     i2u1246_41:
 11451   00188C  EF5C  F00C         	goto	i2l834
 11452   001890                     i2u1246_40:
 11453   001890  BC81               	btfsc	129,6,c	;volatile
 11454   001892  EF4D  F00C         	goto	i2u1247_41
 11455   001896  EF4F  F00C         	goto	i2u1247_40
 11456   00189A                     i2u1247_41:
 11457   00189A  EF5C  F00C         	goto	i2l834
 11458   00189E                     i2u1247_40:
 11459   00189E  5049               	movf	_RB6_flag^0,w,c	;volatile
 11460   0018A0  A4D8               	btfss	status,2,c
 11461   0018A2  EF55  F00C         	goto	i2u1248_41
 11462   0018A6  EF57  F00C         	goto	i2u1248_40
 11463   0018AA                     i2u1248_41:
 11464   0018AA  EF5C  F00C         	goto	i2l834
 11465   0018AE                     i2u1248_40:
 11466   0018AE                     
 11467                           ;MCAL_layer/Interrupt/mcal_interrupt_manager.c: 91:    && (PORTBbits.RB6 == 0)&& (0 == R
      +                          B6_flag)){;MCAL_layer/Interrupt/mcal_interrupt_manager.c: 92:     RB6_flag = 1;
 11468   0018AE  0E01               	movlw	1
 11469   0018B0  6E49               	movwf	_RB6_flag^0,c	;volatile
 11470   0018B2                     
 11471                           ;MCAL_layer/Interrupt/mcal_interrupt_manager.c: 93:     RB6_ISR(0);
 11472   0018B2  0E00               	movlw	0
 11473   0018B4  EC74  F01B         	call	_RB6_ISR
 11474   0018B8                     i2l834:
 11475                           
 11476                           ;MCAL_layer/Interrupt/mcal_interrupt_manager.c: 99: if((1 == INTCONbits.RBIE) && (1 == I
      +                          NTCONbits.RBIF)
 11477   0018B8  A6F2               	btfss	242,3,c	;volatile
 11478   0018BA  EF61  F00C         	goto	i2u1249_41
 11479   0018BE  EF63  F00C         	goto	i2u1249_40
 11480   0018C2                     i2u1249_41:
 11481   0018C2  EF7E  F00C         	goto	i2l836
 11482   0018C6                     i2u1249_40:
 11483   0018C6  A0F2               	btfss	242,0,c	;volatile
 11484   0018C8  EF68  F00C         	goto	i2u1250_41
 11485   0018CC  EF6A  F00C         	goto	i2u1250_40
 11486   0018D0                     i2u1250_41:
 11487   0018D0  EF7E  F00C         	goto	i2l836
 11488   0018D4                     i2u1250_40:
 11489   0018D4  AE81               	btfss	129,7,c	;volatile
 11490   0018D6  EF6F  F00C         	goto	i2u1251_41
 11491   0018DA  EF71  F00C         	goto	i2u1251_40
 11492   0018DE                     i2u1251_41:
 11493   0018DE  EF7E  F00C         	goto	i2l836
 11494   0018E2                     i2u1251_40:
 11495   0018E2  0448               	decf	_RB7_flag^0,w,c	;volatile
 11496   0018E4  A4D8               	btfss	status,2,c
 11497   0018E6  EF77  F00C         	goto	i2u1252_41
 11498   0018EA  EF79  F00C         	goto	i2u1252_40
 11499   0018EE                     i2u1252_41:
 11500   0018EE  EF7E  F00C         	goto	i2l836
 11501   0018F2                     i2u1252_40:
 11502   0018F2                     
 11503                           ;MCAL_layer/Interrupt/mcal_interrupt_manager.c: 100:    && (PORTBbits.RB7 == 1)&& (1 == 
      +                          RB7_flag)){;MCAL_layer/Interrupt/mcal_interrupt_manager.c: 101:     RB7_flag = 0;
 11504   0018F2  0E00               	movlw	0
 11505   0018F4  6E48               	movwf	_RB7_flag^0,c	;volatile
 11506   0018F6                     
 11507                           ;MCAL_layer/Interrupt/mcal_interrupt_manager.c: 102:     RB7_ISR(1);
 11508   0018F6  0E01               	movlw	1
 11509   0018F8  EC67  F01B         	call	_RB7_ISR
 11510   0018FC                     i2l836:
 11511                           
 11512                           ;MCAL_layer/Interrupt/mcal_interrupt_manager.c: 105: if((1 == INTCONbits.RBIE) && (1 == 
      +                          INTCONbits.RBIF)
 11513   0018FC  A6F2               	btfss	242,3,c	;volatile
 11514   0018FE  EF83  F00C         	goto	i2u1253_41
 11515   001902  EF85  F00C         	goto	i2u1253_40
 11516   001906                     i2u1253_41:
 11517   001906  EFA0  F00C         	goto	i2l839
 11518   00190A                     i2u1253_40:
 11519   00190A  A0F2               	btfss	242,0,c	;volatile
 11520   00190C  EF8A  F00C         	goto	i2u1254_41
 11521   001910  EF8C  F00C         	goto	i2u1254_40
 11522   001914                     i2u1254_41:
 11523   001914  EFA0  F00C         	goto	i2l839
 11524   001918                     i2u1254_40:
 11525   001918  BE81               	btfsc	129,7,c	;volatile
 11526   00191A  EF91  F00C         	goto	i2u1255_41
 11527   00191E  EF93  F00C         	goto	i2u1255_40
 11528   001922                     i2u1255_41:
 11529   001922  EFA0  F00C         	goto	i2l839
 11530   001926                     i2u1255_40:
 11531   001926  5048               	movf	_RB7_flag^0,w,c	;volatile
 11532   001928  A4D8               	btfss	status,2,c
 11533   00192A  EF99  F00C         	goto	i2u1256_41
 11534   00192E  EF9B  F00C         	goto	i2u1256_40
 11535   001932                     i2u1256_41:
 11536   001932  EFA0  F00C         	goto	i2l839
 11537   001936                     i2u1256_40:
 11538   001936                     
 11539                           ;MCAL_layer/Interrupt/mcal_interrupt_manager.c: 106:    && (PORTBbits.RB7 == 0)&& (0 == 
      +                          RB7_flag)){;MCAL_layer/Interrupt/mcal_interrupt_manager.c: 107:     RB7_flag = 1;
 11540   001936  0E01               	movlw	1
 11541   001938  6E48               	movwf	_RB7_flag^0,c	;volatile
 11542   00193A                     
 11543                           ;MCAL_layer/Interrupt/mcal_interrupt_manager.c: 108:     RB7_ISR(0);
 11544   00193A  0E00               	movlw	0
 11545   00193C  EC67  F01B         	call	_RB7_ISR
 11546   001940                     i2l839:
 11547   001940  C029  FFF5         	movff	??_INTERRUPT_MANAGER_HIGH+11,tablat
 11548   001944  C028  FFF8         	movff	??_INTERRUPT_MANAGER_HIGH+10,tblptru
 11549   001948  C027  FFF7         	movff	??_INTERRUPT_MANAGER_HIGH+9,tblptrh
 11550   00194C  C026  FFF6         	movff	??_INTERRUPT_MANAGER_HIGH+8,tblptrl
 11551   001950  C025  FFF4         	movff	??_INTERRUPT_MANAGER_HIGH+7,prodh
 11552   001954  C024  FFF3         	movff	??_INTERRUPT_MANAGER_HIGH+6,prodl
 11553   001958  C023  FFDA         	movff	??_INTERRUPT_MANAGER_HIGH+5,fsr2h
 11554   00195C  C022  FFD9         	movff	??_INTERRUPT_MANAGER_HIGH+4,fsr2l
 11555   001960  C021  FFEA         	movff	??_INTERRUPT_MANAGER_HIGH+3,fsr0h
 11556   001964  C020  FFE9         	movff	??_INTERRUPT_MANAGER_HIGH+2,fsr0l
 11557   001968  C01F  FFFB         	movff	??_INTERRUPT_MANAGER_HIGH+1,pclatu
 11558   00196C  C01E  FFFA         	movff	??_INTERRUPT_MANAGER_HIGH,pclath
 11559   001970  9257               	bcf	int$flags,1,c	;clear compiler interrupt flag (level 2)
 11560   001972  0011               	retfie		f
 11561   001974                     __end_of_INTERRUPT_MANAGER_HIGH:
 11562                           	callstack 0
 11563                           
 11564 ;; *************** function _RB7_ISR *****************
 11565 ;; Defined at:
 11566 ;;		line 186 in file "MCAL_layer/Interrupt/mcal_external_interrupt.c"
 11567 ;; Parameters:    Size  Location     Type
 11568 ;;  RB7_source      1    wreg     unsigned char 
 11569 ;; Auto vars:     Size  Location     Type
 11570 ;;  RB7_source      1    0[COMRAM] unsigned char 
 11571 ;; Return value:  Size  Location     Type
 11572 ;;                  1    wreg      void 
 11573 ;; Registers used:
 11574 ;;		wreg, status,2, status,0
 11575 ;; Tracked objects:
 11576 ;;		On entry : 0/0
 11577 ;;		On exit  : 0/0
 11578 ;;		Unchanged: 0/0
 11579 ;; Data sizes:     COMRAM   BANK0   BANK1   BANK2   BANK3   BANK4   BANK5   BANK6   BANK7   BANK8   BANK9  BANK10  BANK1
      +1  BANK12  BANK13  BANK14  BANK15
 11580 ;;      Params:         0       0       0       0       0       0       0       0       0       0       0       0       
      +0       0       0       0       0
 11581 ;;      Locals:         1       0       0       0       0       0       0       0       0       0       0       0       
      +0       0       0       0       0
 11582 ;;      Temps:          0       0       0       0       0       0       0       0       0       0       0       0       
      +0       0       0       0       0
 11583 ;;      Totals:         1       0       0       0       0       0       0       0       0       0       0       0       
      +0       0       0       0       0
 11584 ;;Total ram usage:        1 bytes
 11585 ;; Hardware stack levels used: 1
 11586 ;; This function calls:
 11587 ;;		Nothing
 11588 ;; This function is called by:
 11589 ;;		_INTERRUPT_MANAGER_HIGH
 11590 ;; This function uses a non-reentrant model
 11591 ;;
 11592                           
 11593                           	psect	text55
 11594   0036CE                     __ptext55:
 11595                           	callstack 0
 11596   0036CE                     _RB7_ISR:
 11597                           	callstack 22
 11598                           
 11599                           ;incstack = 0
 11600                           ;RB7_ISR@RB7_source stored from wreg
 11601   0036CE  6E01               	movwf	RB7_ISR@RB7_source^0,c
 11602   0036D0                     
 11603                           ;MCAL_layer/Interrupt/mcal_external_interrupt.c: 188:     (INTCONbits.RBIF = 0);
 11604   0036D0  90F2               	bcf	242,0,c	;volatile
 11605   0036D2                     
 11606                           ;MCAL_layer/Interrupt/mcal_external_interrupt.c: 192:     if(1 == RB7_source){
 11607   0036D2  0401               	decf	RB7_ISR@RB7_source^0,w,c
 11608   0036D4  A4D8               	btfss	status,2,c
 11609   0036D6  EF6F  F01B         	goto	i2u153_41
 11610   0036DA  EF71  F01B         	goto	i2u153_40
 11611   0036DE                     i2u153_41:
 11612   0036DE  EF73  F01B         	goto	i2l3223
 11613   0036E2                     i2u153_40:
 11614   0036E2  EF73  F01B         	goto	i2l634
 11615   0036E6                     i2l3223:
 11616   0036E6                     i2l634:
 11617   0036E6  0012               	return		;funcret
 11618   0036E8                     __end_of_RB7_ISR:
 11619                           	callstack 0
 11620                           
 11621 ;; *************** function _RB6_ISR *****************
 11622 ;; Defined at:
 11623 ;;		line 163 in file "MCAL_layer/Interrupt/mcal_external_interrupt.c"
 11624 ;; Parameters:    Size  Location     Type
 11625 ;;  RB6_source      1    wreg     unsigned char 
 11626 ;; Auto vars:     Size  Location     Type
 11627 ;;  RB6_source      1    0[COMRAM] unsigned char 
 11628 ;; Return value:  Size  Location     Type
 11629 ;;                  1    wreg      void 
 11630 ;; Registers used:
 11631 ;;		wreg, status,2, status,0
 11632 ;; Tracked objects:
 11633 ;;		On entry : 0/0
 11634 ;;		On exit  : 0/0
 11635 ;;		Unchanged: 0/0
 11636 ;; Data sizes:     COMRAM   BANK0   BANK1   BANK2   BANK3   BANK4   BANK5   BANK6   BANK7   BANK8   BANK9  BANK10  BANK1
      +1  BANK12  BANK13  BANK14  BANK15
 11637 ;;      Params:         0       0       0       0       0       0       0       0       0       0       0       0       
      +0       0       0       0       0
 11638 ;;      Locals:         1       0       0       0       0       0       0       0       0       0       0       0       
      +0       0       0       0       0
 11639 ;;      Temps:          0       0       0       0       0       0       0       0       0       0       0       0       
      +0       0       0       0       0
 11640 ;;      Totals:         1       0       0       0       0       0       0       0       0       0       0       0       
      +0       0       0       0       0
 11641 ;;Total ram usage:        1 bytes
 11642 ;; Hardware stack levels used: 1
 11643 ;; This function calls:
 11644 ;;		Nothing
 11645 ;; This function is called by:
 11646 ;;		_INTERRUPT_MANAGER_HIGH
 11647 ;; This function uses a non-reentrant model
 11648 ;;
 11649                           
 11650                           	psect	text56
 11651   0036E8                     __ptext56:
 11652                           	callstack 0
 11653   0036E8                     _RB6_ISR:
 11654                           	callstack 22
 11655                           
 11656                           ;incstack = 0
 11657                           ;RB6_ISR@RB6_source stored from wreg
 11658   0036E8  6E01               	movwf	RB6_ISR@RB6_source^0,c
 11659   0036EA                     
 11660                           ;MCAL_layer/Interrupt/mcal_external_interrupt.c: 165:     (INTCONbits.RBIF = 0);
 11661   0036EA  90F2               	bcf	242,0,c	;volatile
 11662   0036EC                     
 11663                           ;MCAL_layer/Interrupt/mcal_external_interrupt.c: 169:     if(1 == RB6_source){
 11664   0036EC  0401               	decf	RB6_ISR@RB6_source^0,w,c
 11665   0036EE  A4D8               	btfss	status,2,c
 11666   0036F0  EF7C  F01B         	goto	i2u152_41
 11667   0036F4  EF7E  F01B         	goto	i2u152_40
 11668   0036F8                     i2u152_41:
 11669   0036F8  EF80  F01B         	goto	i2l3209
 11670   0036FC                     i2u152_40:
 11671   0036FC  EF80  F01B         	goto	i2l623
 11672   003700                     i2l3209:
 11673   003700                     i2l623:
 11674   003700  0012               	return		;funcret
 11675   003702                     __end_of_RB6_ISR:
 11676                           	callstack 0
 11677                           
 11678 ;; *************** function _RB5_ISR *****************
 11679 ;; Defined at:
 11680 ;;		line 140 in file "MCAL_layer/Interrupt/mcal_external_interrupt.c"
 11681 ;; Parameters:    Size  Location     Type
 11682 ;;  RB5_source      1    wreg     unsigned char 
 11683 ;; Auto vars:     Size  Location     Type
 11684 ;;  RB5_source      1    0[COMRAM] unsigned char 
 11685 ;; Return value:  Size  Location     Type
 11686 ;;                  1    wreg      void 
 11687 ;; Registers used:
 11688 ;;		wreg, status,2, status,0
 11689 ;; Tracked objects:
 11690 ;;		On entry : 0/0
 11691 ;;		On exit  : 0/0
 11692 ;;		Unchanged: 0/0
 11693 ;; Data sizes:     COMRAM   BANK0   BANK1   BANK2   BANK3   BANK4   BANK5   BANK6   BANK7   BANK8   BANK9  BANK10  BANK1
      +1  BANK12  BANK13  BANK14  BANK15
 11694 ;;      Params:         0       0       0       0       0       0       0       0       0       0       0       0       
      +0       0       0       0       0
 11695 ;;      Locals:         1       0       0       0       0       0       0       0       0       0       0       0       
      +0       0       0       0       0
 11696 ;;      Temps:          0       0       0       0       0       0       0       0       0       0       0       0       
      +0       0       0       0       0
 11697 ;;      Totals:         1       0       0       0       0       0       0       0       0       0       0       0       
      +0       0       0       0       0
 11698 ;;Total ram usage:        1 bytes
 11699 ;; Hardware stack levels used: 1
 11700 ;; This function calls:
 11701 ;;		Nothing
 11702 ;; This function is called by:
 11703 ;;		_INTERRUPT_MANAGER_HIGH
 11704 ;; This function uses a non-reentrant model
 11705 ;;
 11706                           
 11707                           	psect	text57
 11708   003702                     __ptext57:
 11709                           	callstack 0
 11710   003702                     _RB5_ISR:
 11711                           	callstack 22
 11712                           
 11713                           ;incstack = 0
 11714                           ;RB5_ISR@RB5_source stored from wreg
 11715   003702  6E01               	movwf	RB5_ISR@RB5_source^0,c
 11716   003704                     
 11717                           ;MCAL_layer/Interrupt/mcal_external_interrupt.c: 142:     (INTCONbits.RBIF = 0);
 11718   003704  90F2               	bcf	242,0,c	;volatile
 11719   003706                     
 11720                           ;MCAL_layer/Interrupt/mcal_external_interrupt.c: 146:     if(1 == RB5_source){
 11721   003706  0401               	decf	RB5_ISR@RB5_source^0,w,c
 11722   003708  A4D8               	btfss	status,2,c
 11723   00370A  EF89  F01B         	goto	i2u151_41
 11724   00370E  EF8B  F01B         	goto	i2u151_40
 11725   003712                     i2u151_41:
 11726   003712  EF8D  F01B         	goto	i2l3195
 11727   003716                     i2u151_40:
 11728   003716  EF8D  F01B         	goto	i2l612
 11729   00371A                     i2l3195:
 11730   00371A                     i2l612:
 11731   00371A  0012               	return		;funcret
 11732   00371C                     __end_of_RB5_ISR:
 11733                           	callstack 0
 11734                           
 11735 ;; *************** function _RB4_ISR *****************
 11736 ;; Defined at:
 11737 ;;		line 117 in file "MCAL_layer/Interrupt/mcal_external_interrupt.c"
 11738 ;; Parameters:    Size  Location     Type
 11739 ;;  RB4_source      1    wreg     unsigned char 
 11740 ;; Auto vars:     Size  Location     Type
 11741 ;;  RB4_source      1    0[COMRAM] unsigned char 
 11742 ;; Return value:  Size  Location     Type
 11743 ;;                  1    wreg      void 
 11744 ;; Registers used:
 11745 ;;		wreg, status,2, status,0
 11746 ;; Tracked objects:
 11747 ;;		On entry : 0/0
 11748 ;;		On exit  : 0/0
 11749 ;;		Unchanged: 0/0
 11750 ;; Data sizes:     COMRAM   BANK0   BANK1   BANK2   BANK3   BANK4   BANK5   BANK6   BANK7   BANK8   BANK9  BANK10  BANK1
      +1  BANK12  BANK13  BANK14  BANK15
 11751 ;;      Params:         0       0       0       0       0       0       0       0       0       0       0       0       
      +0       0       0       0       0
 11752 ;;      Locals:         1       0       0       0       0       0       0       0       0       0       0       0       
      +0       0       0       0       0
 11753 ;;      Temps:          0       0       0       0       0       0       0       0       0       0       0       0       
      +0       0       0       0       0
 11754 ;;      Totals:         1       0       0       0       0       0       0       0       0       0       0       0       
      +0       0       0       0       0
 11755 ;;Total ram usage:        1 bytes
 11756 ;; Hardware stack levels used: 1
 11757 ;; This function calls:
 11758 ;;		Nothing
 11759 ;; This function is called by:
 11760 ;;		_INTERRUPT_MANAGER_HIGH
 11761 ;; This function uses a non-reentrant model
 11762 ;;
 11763                           
 11764                           	psect	text58
 11765   00371C                     __ptext58:
 11766                           	callstack 0
 11767   00371C                     _RB4_ISR:
 11768                           	callstack 22
 11769                           
 11770                           ;incstack = 0
 11771                           ;RB4_ISR@RB4_source stored from wreg
 11772   00371C  6E01               	movwf	RB4_ISR@RB4_source^0,c
 11773   00371E                     
 11774                           ;MCAL_layer/Interrupt/mcal_external_interrupt.c: 119:     (INTCONbits.RBIF = 0);
 11775   00371E  90F2               	bcf	242,0,c	;volatile
 11776   003720                     
 11777                           ;MCAL_layer/Interrupt/mcal_external_interrupt.c: 123:     if(1 == RB4_source){
 11778   003720  0401               	decf	RB4_ISR@RB4_source^0,w,c
 11779   003722  A4D8               	btfss	status,2,c
 11780   003724  EF96  F01B         	goto	i2u150_41
 11781   003728  EF98  F01B         	goto	i2u150_40
 11782   00372C                     i2u150_41:
 11783   00372C  EF9A  F01B         	goto	i2l3181
 11784   003730                     i2u150_40:
 11785   003730  EF9A  F01B         	goto	i2l601
 11786   003734                     i2l3181:
 11787   003734                     i2l601:
 11788   003734  0012               	return		;funcret
 11789   003736                     __end_of_RB4_ISR:
 11790                           	callstack 0
 11791                           
 11792 ;; *************** function _INT2_ISR *****************
 11793 ;; Defined at:
 11794 ;;		line 104 in file "MCAL_layer/Interrupt/mcal_external_interrupt.c"
 11795 ;; Parameters:    Size  Location     Type
 11796 ;;		None
 11797 ;; Auto vars:     Size  Location     Type
 11798 ;;		None
 11799 ;; Return value:  Size  Location     Type
 11800 ;;                  1    wreg      void 
 11801 ;; Registers used:
 11802 ;;		wreg, fsr0l, fsr0h, fsr2l, fsr2h, status,2, status,0, pcl, pclath, pclatu, tosl, tblptrl, tblptrh, tblptru, prodl, p
      +rodh, cstack
 11803 ;; Tracked objects:
 11804 ;;		On entry : 0/0
 11805 ;;		On exit  : 0/0
 11806 ;;		Unchanged: 0/0
 11807 ;; Data sizes:     COMRAM   BANK0   BANK1   BANK2   BANK3   BANK4   BANK5   BANK6   BANK7   BANK8   BANK9  BANK10  BANK1
      +1  BANK12  BANK13  BANK14  BANK15
 11808 ;;      Params:         0       0       0       0       0       0       0       0       0       0       0       0       
      +0       0       0       0       0
 11809 ;;      Locals:         0       0       0       0       0       0       0       0       0       0       0       0       
      +0       0       0       0       0
 11810 ;;      Temps:          0       0       0       0       0       0       0       0       0       0       0       0       
      +0       0       0       0       0
 11811 ;;      Totals:         0       0       0       0       0       0       0       0       0       0       0       0       
      +0       0       0       0       0
 11812 ;;Total ram usage:        0 bytes
 11813 ;; Hardware stack levels used: 1
 11814 ;; Hardware stack levels required when called: 6
 11815 ;; This function calls:
 11816 ;;		NULL
 11817 ;;		_INT0_app_ISR
 11818 ;; This function is called by:
 11819 ;;		_INTERRUPT_MANAGER_HIGH
 11820 ;; This function uses a non-reentrant model
 11821 ;;
 11822                           
 11823                           	psect	text59
 11824   003522                     __ptext59:
 11825                           	callstack 0
 11826   003522                     _INT2_ISR:
 11827                           	callstack 16
 11828   003522                     
 11829                           ;MCAL_layer/Interrupt/mcal_external_interrupt.c: 106:     (INTCON3bits.INT2IF = 0);
 11830   003522  92F0               	bcf	240,1,c	;volatile
 11831   003524                     
 11832                           ;MCAL_layer/Interrupt/mcal_external_interrupt.c: 110:     if(INT2_INTERRUPT_HANDLER){INT
      +                          2_INTERRUPT_HANDLER();}
 11833   003524  503A               	movf	_INT2_INTERRUPT_HANDLER^0,w,c
 11834   003526  103B               	iorwf	(_INT2_INTERRUPT_HANDLER+1)^0,w,c
 11835   003528  B4D8               	btfsc	status,2,c
 11836   00352A  EF99  F01A         	goto	i2u1161_41
 11837   00352E  EF9B  F01A         	goto	i2u1161_40
 11838   003532                     i2u1161_41:
 11839   003532  EFA7  F01A         	goto	i2l590
 11840   003536                     i2u1161_40:
 11841   003536  D802               	call	i2u1162_48
 11842   003538  EFA7  F01A         	goto	i2u1162_49
 11843   00353C                     i2u1162_48:
 11844   00353C  0005               	push	
 11845   00353E  6EFA               	movwf	pclath,c
 11846   003540  503A               	movf	_INT2_INTERRUPT_HANDLER^0,w,c
 11847   003542  6EFD               	movwf	tosl,c
 11848   003544  503B               	movf	(_INT2_INTERRUPT_HANDLER+1)^0,w,c
 11849   003546  6EFE               	movwf	tosh,c
 11850   003548  6AFF               	clrf	tosu,c
 11851   00354A  50FA               	movf	pclath,w,c
 11852   00354C  0012               	return		;indir
 11853   00354E                     i2u1162_49:
 11854   00354E                     i2l590:
 11855   00354E  0012               	return		;funcret
 11856   003550                     __end_of_INT2_ISR:
 11857                           	callstack 0
 11858                           
 11859 ;; *************** function _INT1_ISR *****************
 11860 ;; Defined at:
 11861 ;;		line 92 in file "MCAL_layer/Interrupt/mcal_external_interrupt.c"
 11862 ;; Parameters:    Size  Location     Type
 11863 ;;		None
 11864 ;; Auto vars:     Size  Location     Type
 11865 ;;		None
 11866 ;; Return value:  Size  Location     Type
 11867 ;;                  1    wreg      void 
 11868 ;; Registers used:
 11869 ;;		wreg, fsr0l, fsr0h, fsr2l, fsr2h, status,2, status,0, pcl, pclath, pclatu, tosl, tblptrl, tblptrh, tblptru, prodl, p
      +rodh, cstack
 11870 ;; Tracked objects:
 11871 ;;		On entry : 0/0
 11872 ;;		On exit  : 0/0
 11873 ;;		Unchanged: 0/0
 11874 ;; Data sizes:     COMRAM   BANK0   BANK1   BANK2   BANK3   BANK4   BANK5   BANK6   BANK7   BANK8   BANK9  BANK10  BANK1
      +1  BANK12  BANK13  BANK14  BANK15
 11875 ;;      Params:         0       0       0       0       0       0       0       0       0       0       0       0       
      +0       0       0       0       0
 11876 ;;      Locals:         0       0       0       0       0       0       0       0       0       0       0       0       
      +0       0       0       0       0
 11877 ;;      Temps:          0       0       0       0       0       0       0       0       0       0       0       0       
      +0       0       0       0       0
 11878 ;;      Totals:         0       0       0       0       0       0       0       0       0       0       0       0       
      +0       0       0       0       0
 11879 ;;Total ram usage:        0 bytes
 11880 ;; Hardware stack levels used: 1
 11881 ;; Hardware stack levels required when called: 6
 11882 ;; This function calls:
 11883 ;;		NULL
 11884 ;;		_INT0_app_ISR
 11885 ;; This function is called by:
 11886 ;;		_INTERRUPT_MANAGER_HIGH
 11887 ;; This function uses a non-reentrant model
 11888 ;;
 11889                           
 11890                           	psect	text60
 11891   003550                     __ptext60:
 11892                           	callstack 0
 11893   003550                     _INT1_ISR:
 11894                           	callstack 16
 11895   003550                     
 11896                           ;MCAL_layer/Interrupt/mcal_external_interrupt.c: 94:     (INTCON3bits.INT1IF = 0);
 11897   003550  90F0               	bcf	240,0,c	;volatile
 11898   003552                     
 11899                           ;MCAL_layer/Interrupt/mcal_external_interrupt.c: 98:     if(INT1_INTERRUPT_HANDLER){INT1
      +                          _INTERRUPT_HANDLER();}
 11900   003552  503C               	movf	_INT1_INTERRUPT_HANDLER^0,w,c
 11901   003554  103D               	iorwf	(_INT1_INTERRUPT_HANDLER+1)^0,w,c
 11902   003556  B4D8               	btfsc	status,2,c
 11903   003558  EFB0  F01A         	goto	i2u1159_41
 11904   00355C  EFB2  F01A         	goto	i2u1159_40
 11905   003560                     i2u1159_41:
 11906   003560  EFBE  F01A         	goto	i2l586
 11907   003564                     i2u1159_40:
 11908   003564  D802               	call	i2u1160_48
 11909   003566  EFBE  F01A         	goto	i2u1160_49
 11910   00356A                     i2u1160_48:
 11911   00356A  0005               	push	
 11912   00356C  6EFA               	movwf	pclath,c
 11913   00356E  503C               	movf	_INT1_INTERRUPT_HANDLER^0,w,c
 11914   003570  6EFD               	movwf	tosl,c
 11915   003572  503D               	movf	(_INT1_INTERRUPT_HANDLER+1)^0,w,c
 11916   003574  6EFE               	movwf	tosh,c
 11917   003576  6AFF               	clrf	tosu,c
 11918   003578  50FA               	movf	pclath,w,c
 11919   00357A  0012               	return		;indir
 11920   00357C                     i2u1160_49:
 11921   00357C                     i2l586:
 11922   00357C  0012               	return		;funcret
 11923   00357E                     __end_of_INT1_ISR:
 11924                           	callstack 0
 11925                           
 11926 ;; *************** function _INT0_ISR *****************
 11927 ;; Defined at:
 11928 ;;		line 80 in file "MCAL_layer/Interrupt/mcal_external_interrupt.c"
 11929 ;; Parameters:    Size  Location     Type
 11930 ;;		None
 11931 ;; Auto vars:     Size  Location     Type
 11932 ;;		None
 11933 ;; Return value:  Size  Location     Type
 11934 ;;                  1    wreg      void 
 11935 ;; Registers used:
 11936 ;;		wreg, fsr0l, fsr0h, fsr2l, fsr2h, status,2, status,0, pcl, pclath, pclatu, tosl, tblptrl, tblptrh, tblptru, prodl, p
      +rodh, cstack
 11937 ;; Tracked objects:
 11938 ;;		On entry : 0/0
 11939 ;;		On exit  : 0/0
 11940 ;;		Unchanged: 0/0
 11941 ;; Data sizes:     COMRAM   BANK0   BANK1   BANK2   BANK3   BANK4   BANK5   BANK6   BANK7   BANK8   BANK9  BANK10  BANK1
      +1  BANK12  BANK13  BANK14  BANK15
 11942 ;;      Params:         0       0       0       0       0       0       0       0       0       0       0       0       
      +0       0       0       0       0
 11943 ;;      Locals:         0       0       0       0       0       0       0       0       0       0       0       0       
      +0       0       0       0       0
 11944 ;;      Temps:          0       0       0       0       0       0       0       0       0       0       0       0       
      +0       0       0       0       0
 11945 ;;      Totals:         0       0       0       0       0       0       0       0       0       0       0       0       
      +0       0       0       0       0
 11946 ;;Total ram usage:        0 bytes
 11947 ;; Hardware stack levels used: 1
 11948 ;; Hardware stack levels required when called: 6
 11949 ;; This function calls:
 11950 ;;		NULL
 11951 ;;		_INT0_app_ISR
 11952 ;; This function is called by:
 11953 ;;		_INTERRUPT_MANAGER_HIGH
 11954 ;; This function uses a non-reentrant model
 11955 ;;
 11956                           
 11957                           	psect	text61
 11958   00357E                     __ptext61:
 11959                           	callstack 0
 11960   00357E                     _INT0_ISR:
 11961                           	callstack 16
 11962   00357E                     
 11963                           ;MCAL_layer/Interrupt/mcal_external_interrupt.c: 82:     (INTCONbits.INT0IF = 0);
 11964   00357E  92F2               	bcf	242,1,c	;volatile
 11965   003580                     
 11966                           ;MCAL_layer/Interrupt/mcal_external_interrupt.c: 86:     if(INT0_INTERRUPT_HANDLER){INT0
      +                          _INTERRUPT_HANDLER();}
 11967   003580  503E               	movf	_INT0_INTERRUPT_HANDLER^0,w,c
 11968   003582  103F               	iorwf	(_INT0_INTERRUPT_HANDLER+1)^0,w,c
 11969   003584  B4D8               	btfsc	status,2,c
 11970   003586  EFC7  F01A         	goto	i2u1157_41
 11971   00358A  EFC9  F01A         	goto	i2u1157_40
 11972   00358E                     i2u1157_41:
 11973   00358E  EFD5  F01A         	goto	i2l582
 11974   003592                     i2u1157_40:
 11975   003592  D802               	call	i2u1158_48
 11976   003594  EFD5  F01A         	goto	i2u1158_49
 11977   003598                     i2u1158_48:
 11978   003598  0005               	push	
 11979   00359A  6EFA               	movwf	pclath,c
 11980   00359C  503E               	movf	_INT0_INTERRUPT_HANDLER^0,w,c
 11981   00359E  6EFD               	movwf	tosl,c
 11982   0035A0  503F               	movf	(_INT0_INTERRUPT_HANDLER+1)^0,w,c
 11983   0035A2  6EFE               	movwf	tosh,c
 11984   0035A4  6AFF               	clrf	tosu,c
 11985   0035A6  50FA               	movf	pclath,w,c
 11986   0035A8  0012               	return		;indir
 11987   0035AA                     i2u1158_49:
 11988   0035AA                     i2l582:
 11989   0035AA  0012               	return		;funcret
 11990   0035AC                     __end_of_INT0_ISR:
 11991                           	callstack 0
 11992                           
 11993 ;; *************** function _INT0_app_ISR *****************
 11994 ;; Defined at:
 11995 ;;		line 14 in file "ECU_layer/ecu_layer_init.c"
 11996 ;; Parameters:    Size  Location     Type
 11997 ;;		None
 11998 ;; Auto vars:     Size  Location     Type
 11999 ;;  i               2   27[COMRAM] int 
 12000 ;; Return value:  Size  Location     Type
 12001 ;;                  1    wreg      void 
 12002 ;; Registers used:
 12003 ;;		wreg, fsr0l, fsr0h, fsr2l, fsr2h, status,2, status,0, tblptrl, tblptrh, tblptru, prodl, prodh, cstack
 12004 ;; Tracked objects:
 12005 ;;		On entry : 0/0
 12006 ;;		On exit  : 0/0
 12007 ;;		Unchanged: 0/0
 12008 ;; Data sizes:     COMRAM   BANK0   BANK1   BANK2   BANK3   BANK4   BANK5   BANK6   BANK7   BANK8   BANK9  BANK10  BANK1
      +1  BANK12  BANK13  BANK14  BANK15
 12009 ;;      Params:         0       0       0       0       0       0       0       0       0       0       0       0       
      +0       0       0       0       0
 12010 ;;      Locals:         2       0       0       0       0       0       0       0       0       0       0       0       
      +0       0       0       0       0
 12011 ;;      Temps:          2       0       0       0       0       0       0       0       0       0       0       0       
      +0       0       0       0       0
 12012 ;;      Totals:         4       0       0       0       0       0       0       0       0       0       0       0       
      +0       0       0       0       0
 12013 ;;Total ram usage:        4 bytes
 12014 ;; Hardware stack levels used: 1
 12015 ;; Hardware stack levels required when called: 5
 12016 ;; This function calls:
 12017 ;;		i2_Data_EEPROM_WriteByte
 12018 ;;		i2_lcd_4bit_send_command
 12019 ;;		i2_lcd_4bit_send_string_pos
 12020 ;; This function is called by:
 12021 ;;		_INT0_ISR
 12022 ;;		_INT1_ISR
 12023 ;;		_INT2_ISR
 12024 ;; This function uses a non-reentrant model
 12025 ;;
 12026                           
 12027                           	psect	text62
 12028   001B70                     __ptext62:
 12029                           	callstack 0
 12030   001B70                     _INT0_app_ISR:
 12031                           	callstack 16
 12032   001B70                     
 12033                           ;ECU_layer/ecu_layer_init.c: 15:     for(int i = 0;i <= 7;i++){
 12034   001B70  0E00               	movlw	0
 12035   001B72  6E1D               	movwf	(INT0_app_ISR@i+1)^0,c
 12036   001B74  0E00               	movlw	0
 12037   001B76  6E1C               	movwf	INT0_app_ISR@i^0,c
 12038   001B78                     i2l11575:
 12039                           
 12040                           ;ECU_layer/ecu_layer_init.c: 16:         Data_EEPROM_WriteByte(0x03f8 + i,0xFF);
 12041   001B78  0EF8               	movlw	248
 12042   001B7A  241C               	addwf	INT0_app_ISR@i^0,w,c
 12043   001B7C  6E01               	movwf	i2Data_EEPROM_WriteByte@badd^0,c
 12044   001B7E  0E03               	movlw	3
 12045   001B80  201D               	addwfc	(INT0_app_ISR@i+1)^0,w,c
 12046   001B82  6E02               	movwf	(i2Data_EEPROM_WriteByte@badd+1)^0,c
 12047   001B84  0EFF               	movlw	255
 12048   001B86  6E03               	movwf	i2Data_EEPROM_WriteByte@bData^0,c
 12049   001B88  ECB1  F019         	call	i2_Data_EEPROM_WriteByte	;wreg free
 12050   001B8C                     
 12051                           ;ECU_layer/ecu_layer_init.c: 17:     }
 12052   001B8C  4A1C               	infsnz	INT0_app_ISR@i^0,f,c
 12053   001B8E  2A1D               	incf	(INT0_app_ISR@i+1)^0,f,c
 12054   001B90  BE1D               	btfsc	(INT0_app_ISR@i+1)^0,7,c
 12055   001B92  EFD4  F00D         	goto	i2u1119_41
 12056   001B96  501D               	movf	(INT0_app_ISR@i+1)^0,w,c
 12057   001B98  E109               	bnz	i2u1119_40
 12058   001B9A  0E08               	movlw	8
 12059   001B9C  5C1C               	subwf	INT0_app_ISR@i^0,w,c
 12060   001B9E  A0D8               	btfss	status,0,c
 12061   001BA0  EFD4  F00D         	goto	i2u1119_41
 12062   001BA4  EFD6  F00D         	goto	i2u1119_40
 12063   001BA8                     i2u1119_41:
 12064   001BA8  EFBC  F00D         	goto	i2l11575
 12065   001BAC                     i2u1119_40:
 12066   001BAC                     
 12067                           ;ECU_layer/ecu_layer_init.c: 18:     lcd_4bit_send_command(&lcd1,0x01);
 12068   001BAC  0E4C               	movlw	low _lcd1
 12069   001BAE  6E0C               	movwf	i2lcd_4bit_send_command@lcd^0,c
 12070   001BB0  0E01               	movlw	1
 12071   001BB2  6E0D               	movwf	i2lcd_4bit_send_command@command^0,c
 12072   001BB4  EC16  F018         	call	i2_lcd_4bit_send_command	;wreg free
 12073   001BB8                     
 12074                           ;ECU_layer/ecu_layer_init.c: 19:     _delay((unsigned long)((20)*(8000000ul/4000.0)));
 12075   001BB8  0E34               	movlw	52
 12076   001BBA  6E1A               	movwf	??_INT0_app_ISR^0,c
 12077   001BBC  0EF2               	movlw	242
 12078   001BBE                     i2u1386_47:
 12079   001BBE  2EE8               	decfsz	wreg,f,c
 12080   001BC0  D7FE               	bra	i2u1386_47
 12081   001BC2  2E1A               	decfsz	??_INT0_app_ISR^0,f,c
 12082   001BC4  D7FC               	bra	i2u1386_47
 12083   001BC6                     
 12084                           ;ECU_layer/ecu_layer_init.c: 20:     lcd_4bit_send_string_pos(&lcd1,2,1,"system will clo
      +                          se in ");
 12085   001BC6  0E4C               	movlw	low _lcd1
 12086   001BC8  6E15               	movwf	i2lcd_4bit_send_string_pos@lcd^0,c
 12087   001BCA  0E02               	movlw	2
 12088   001BCC  6E16               	movwf	i2lcd_4bit_send_string_pos@row^0,c
 12089   001BCE  0E01               	movlw	1
 12090   001BD0  6E17               	movwf	i2lcd_4bit_send_string_pos@column^0,c
 12091   001BD2  0E15               	movlw	low STR_4
 12092   001BD4  6E18               	movwf	i2lcd_4bit_send_string_pos@str^0,c
 12093   001BD6  0EFF               	movlw	high STR_4
 12094   001BD8  6E19               	movwf	(i2lcd_4bit_send_string_pos@str+1)^0,c
 12095   001BDA  EC08  F015         	call	i2_lcd_4bit_send_string_pos	;wreg free
 12096   001BDE                     
 12097                           ;ECU_layer/ecu_layer_init.c: 21:     lcd_4bit_send_string_pos(&lcd1,3,1,"3");
 12098   001BDE  0E4C               	movlw	low _lcd1
 12099   001BE0  6E15               	movwf	i2lcd_4bit_send_string_pos@lcd^0,c
 12100   001BE2  0E03               	movlw	3
 12101   001BE4  6E16               	movwf	i2lcd_4bit_send_string_pos@row^0,c
 12102   001BE6  0E01               	movlw	1
 12103   001BE8  6E17               	movwf	i2lcd_4bit_send_string_pos@column^0,c
 12104   001BEA  0EF4               	movlw	low (STR_51+1)
 12105   001BEC  6E18               	movwf	i2lcd_4bit_send_string_pos@str^0,c
 12106   001BEE  0EFF               	movlw	high (STR_51+1)
 12107   001BF0  6E19               	movwf	(i2lcd_4bit_send_string_pos@str+1)^0,c
 12108   001BF2  EC08  F015         	call	i2_lcd_4bit_send_string_pos	;wreg free
 12109   001BF6                     
 12110                           ;ECU_layer/ecu_layer_init.c: 22:     _delay((unsigned long)((500)*(8000000ul/4000.0)));
 12111   001BF6  0E06               	movlw	6
 12112   001BF8  6E1B               	movwf	(??_INT0_app_ISR+1)^0,c
 12113   001BFA  0E13               	movlw	19
 12114   001BFC  6E1A               	movwf	??_INT0_app_ISR^0,c
 12115   001BFE  0EAE               	movlw	174
 12116   001C00                     i2u1387_47:
 12117   001C00  2EE8               	decfsz	wreg,f,c
 12118   001C02  D7FE               	bra	i2u1387_47
 12119   001C04  2E1A               	decfsz	??_INT0_app_ISR^0,f,c
 12120   001C06  D7FC               	bra	i2u1387_47
 12121   001C08  2E1B               	decfsz	(??_INT0_app_ISR+1)^0,f,c
 12122   001C0A  D7FA               	bra	i2u1387_47
 12123   001C0C                     
 12124                           ;ECU_layer/ecu_layer_init.c: 23:     lcd_4bit_send_string_pos(&lcd1,3,1," ");
 12125   001C0C  0E4C               	movlw	low _lcd1
 12126   001C0E  6E15               	movwf	i2lcd_4bit_send_string_pos@lcd^0,c
 12127   001C10  0E03               	movlw	3
 12128   001C12  6E16               	movwf	i2lcd_4bit_send_string_pos@row^0,c
 12129   001C14  0E01               	movlw	1
 12130   001C16  6E17               	movwf	i2lcd_4bit_send_string_pos@column^0,c
 12131   001C18  0E13               	movlw	low (STR_12+20)
 12132   001C1A  6E18               	movwf	i2lcd_4bit_send_string_pos@str^0,c
 12133   001C1C  0EFF               	movlw	high (STR_12+20)
 12134   001C1E  6E19               	movwf	(i2lcd_4bit_send_string_pos@str+1)^0,c
 12135   001C20  EC08  F015         	call	i2_lcd_4bit_send_string_pos	;wreg free
 12136   001C24                     
 12137                           ;ECU_layer/ecu_layer_init.c: 24:     _delay((unsigned long)((500)*(8000000ul/4000.0)));
 12138   001C24  0E06               	movlw	6
 12139   001C26  6E1B               	movwf	(??_INT0_app_ISR+1)^0,c
 12140   001C28  0E13               	movlw	19
 12141   001C2A  6E1A               	movwf	??_INT0_app_ISR^0,c
 12142   001C2C  0EAE               	movlw	174
 12143   001C2E                     i2u1388_47:
 12144   001C2E  2EE8               	decfsz	wreg,f,c
 12145   001C30  D7FE               	bra	i2u1388_47
 12146   001C32  2E1A               	decfsz	??_INT0_app_ISR^0,f,c
 12147   001C34  D7FC               	bra	i2u1388_47
 12148   001C36  2E1B               	decfsz	(??_INT0_app_ISR+1)^0,f,c
 12149   001C38  D7FA               	bra	i2u1388_47
 12150   001C3A                     
 12151                           ;ECU_layer/ecu_layer_init.c: 25:     lcd_4bit_send_string_pos(&lcd1,3,1,"2");
 12152   001C3A  0E4C               	movlw	low _lcd1
 12153   001C3C  6E15               	movwf	i2lcd_4bit_send_string_pos@lcd^0,c
 12154   001C3E  0E03               	movlw	3
 12155   001C40  6E16               	movwf	i2lcd_4bit_send_string_pos@row^0,c
 12156   001C42  0E01               	movlw	1
 12157   001C44  6E17               	movwf	i2lcd_4bit_send_string_pos@column^0,c
 12158   001C46  0EFD               	movlw	low STR_7
 12159   001C48  6E18               	movwf	i2lcd_4bit_send_string_pos@str^0,c
 12160   001C4A  0EFF               	movlw	high STR_7
 12161   001C4C  6E19               	movwf	(i2lcd_4bit_send_string_pos@str+1)^0,c
 12162   001C4E  EC08  F015         	call	i2_lcd_4bit_send_string_pos	;wreg free
 12163   001C52                     
 12164                           ;ECU_layer/ecu_layer_init.c: 26:     _delay((unsigned long)((500)*(8000000ul/4000.0)));
 12165   001C52  0E06               	movlw	6
 12166   001C54  6E1B               	movwf	(??_INT0_app_ISR+1)^0,c
 12167   001C56  0E13               	movlw	19
 12168   001C58  6E1A               	movwf	??_INT0_app_ISR^0,c
 12169   001C5A  0EAE               	movlw	174
 12170   001C5C                     i2u1389_47:
 12171   001C5C  2EE8               	decfsz	wreg,f,c
 12172   001C5E  D7FE               	bra	i2u1389_47
 12173   001C60  2E1A               	decfsz	??_INT0_app_ISR^0,f,c
 12174   001C62  D7FC               	bra	i2u1389_47
 12175   001C64  2E1B               	decfsz	(??_INT0_app_ISR+1)^0,f,c
 12176   001C66  D7FA               	bra	i2u1389_47
 12177   001C68                     
 12178                           ;ECU_layer/ecu_layer_init.c: 27:     lcd_4bit_send_string_pos(&lcd1,3,1," ");
 12179   001C68  0E4C               	movlw	low _lcd1
 12180   001C6A  6E15               	movwf	i2lcd_4bit_send_string_pos@lcd^0,c
 12181   001C6C  0E03               	movlw	3
 12182   001C6E  6E16               	movwf	i2lcd_4bit_send_string_pos@row^0,c
 12183   001C70  0E01               	movlw	1
 12184   001C72  6E17               	movwf	i2lcd_4bit_send_string_pos@column^0,c
 12185   001C74  0E13               	movlw	low (STR_12+20)
 12186   001C76  6E18               	movwf	i2lcd_4bit_send_string_pos@str^0,c
 12187   001C78  0EFF               	movlw	high (STR_12+20)
 12188   001C7A  6E19               	movwf	(i2lcd_4bit_send_string_pos@str+1)^0,c
 12189   001C7C  EC08  F015         	call	i2_lcd_4bit_send_string_pos	;wreg free
 12190   001C80                     
 12191                           ;ECU_layer/ecu_layer_init.c: 28:     _delay((unsigned long)((500)*(8000000ul/4000.0)));
 12192   001C80  0E06               	movlw	6
 12193   001C82  6E1B               	movwf	(??_INT0_app_ISR+1)^0,c
 12194   001C84  0E13               	movlw	19
 12195   001C86  6E1A               	movwf	??_INT0_app_ISR^0,c
 12196   001C88  0EAE               	movlw	174
 12197   001C8A                     i2u1390_47:
 12198   001C8A  2EE8               	decfsz	wreg,f,c
 12199   001C8C  D7FE               	bra	i2u1390_47
 12200   001C8E  2E1A               	decfsz	??_INT0_app_ISR^0,f,c
 12201   001C90  D7FC               	bra	i2u1390_47
 12202   001C92  2E1B               	decfsz	(??_INT0_app_ISR+1)^0,f,c
 12203   001C94  D7FA               	bra	i2u1390_47
 12204   001C96                     
 12205                           ;ECU_layer/ecu_layer_init.c: 29:     lcd_4bit_send_string_pos(&lcd1,3,1,"1");
 12206   001C96  0E4C               	movlw	low _lcd1
 12207   001C98  6E15               	movwf	i2lcd_4bit_send_string_pos@lcd^0,c
 12208   001C9A  0E03               	movlw	3
 12209   001C9C  6E16               	movwf	i2lcd_4bit_send_string_pos@row^0,c
 12210   001C9E  0E01               	movlw	1
 12211   001CA0  6E17               	movwf	i2lcd_4bit_send_string_pos@column^0,c
 12212   001CA2  0EFB               	movlw	low STR_9
 12213   001CA4  6E18               	movwf	i2lcd_4bit_send_string_pos@str^0,c
 12214   001CA6  0EFF               	movlw	high STR_9
 12215   001CA8  6E19               	movwf	(i2lcd_4bit_send_string_pos@str+1)^0,c
 12216   001CAA  EC08  F015         	call	i2_lcd_4bit_send_string_pos	;wreg free
 12217   001CAE                     
 12218                           ;ECU_layer/ecu_layer_init.c: 30:     _delay((unsigned long)((500)*(8000000ul/4000.0)));
 12219   001CAE  0E06               	movlw	6
 12220   001CB0  6E1B               	movwf	(??_INT0_app_ISR+1)^0,c
 12221   001CB2  0E13               	movlw	19
 12222   001CB4  6E1A               	movwf	??_INT0_app_ISR^0,c
 12223   001CB6  0EAE               	movlw	174
 12224   001CB8                     i2u1391_47:
 12225   001CB8  2EE8               	decfsz	wreg,f,c
 12226   001CBA  D7FE               	bra	i2u1391_47
 12227   001CBC  2E1A               	decfsz	??_INT0_app_ISR^0,f,c
 12228   001CBE  D7FC               	bra	i2u1391_47
 12229   001CC0  2E1B               	decfsz	(??_INT0_app_ISR+1)^0,f,c
 12230   001CC2  D7FA               	bra	i2u1391_47
 12231                           
 12232                           ;ECU_layer/ecu_layer_init.c: 31:     lcd_4bit_send_command(&lcd1,0x01);
 12233   001CC4  0E4C               	movlw	low _lcd1
 12234   001CC6  6E0C               	movwf	i2lcd_4bit_send_command@lcd^0,c
 12235   001CC8  0E01               	movlw	1
 12236   001CCA  6E0D               	movwf	i2lcd_4bit_send_command@command^0,c
 12237   001CCC  EC16  F018         	call	i2_lcd_4bit_send_command	;wreg free
 12238   001CD0                     
 12239                           ;ECU_layer/ecu_layer_init.c: 32:     _delay((unsigned long)((20)*(8000000ul/4000.0)));
 12240   001CD0  0E34               	movlw	52
 12241   001CD2  6E1A               	movwf	??_INT0_app_ISR^0,c
 12242   001CD4  0EF2               	movlw	242
 12243   001CD6                     i2u1392_47:
 12244   001CD6  2EE8               	decfsz	wreg,f,c
 12245   001CD8  D7FE               	bra	i2u1392_47
 12246   001CDA  2E1A               	decfsz	??_INT0_app_ISR^0,f,c
 12247   001CDC  D7FC               	bra	i2u1392_47
 12248   001CDE  0012               	return		;funcret
 12249   001CE0                     __end_of_INT0_app_ISR:
 12250                           	callstack 0
 12251                           
 12252 ;; *************** function i2_lcd_4bit_send_string_pos *****************
 12253 ;; Defined at:
 12254 ;;		line 172 in file "ECU_layer/chr_LCD/ecu_chr_LCD.c"
 12255 ;; Parameters:    Size  Location     Type
 12256 ;;  lcd             1   20[COMRAM] PTR const struct .
 12257 ;;		 -> lcd1(6), 
 12258 ;;  row             1   21[COMRAM] unsigned char 
 12259 ;;  column          1   22[COMRAM] unsigned char 
 12260 ;;  str             2   23[COMRAM] PTR unsigned char 
 12261 ;;		 -> STR_69(22), STR_68(14), STR_67(22), STR_66(21), 
 12262 ;;		 -> STR_65(22), STR_64(16), STR_63(22), STR_62(14), 
 12263 ;;		 -> STR_61(22), STR_60(21), STR_59(2), STR_58(17), 
 12264 ;;		 -> STR_57(22), STR_56(14), STR_55(22), STR_54(21), 
 12265 ;;		 -> STR_53(4), STR_52(22), STR_51(3), entering_password@str(4), 
 12266 ;;		 -> STR_50(16), STR_49(22), STR_48(17), STR_47(22), 
 12267 ;;		 -> STR_46(14), STR_45(22), STR_44(21), STR_43(2), 
 12268 ;;		 -> STR_42(21), STR_41(22), STR_40(14), STR_39(22), 
 12269 ;;		 -> STR_38(21), STR_37(22), STR_36(16), STR_35(22), 
 12270 ;;		 -> STR_34(15), STR_33(22), STR_32(14), STR_31(22), 
 12271 ;;		 -> STR_30(21), STR_29(2), STR_28(22), STR_27(22), 
 12272 ;;		 -> STR_26(14), STR_25(22), STR_24(21), STR_23(22), 
 12273 ;;		 -> STR_22(14), STR_21(22), STR_20(21), STR_19(2), 
 12274 ;;		 -> STR_18(14), STR_17(8), STR_16(22), STR_15(21), 
 12275 ;;		 -> STR_14(19), STR_13(18), STR_12(22), STR_11(21), 
 12276 ;;		 -> STR_10(20), STR_9(2), STR_8(2), STR_7(2), 
 12277 ;;		 -> STR_6(2), STR_5(2), STR_4(22), 
 12278 ;; Auto vars:     Size  Location     Type
 12279 ;;  ret             1    0        unsigned char 
 12280 ;; Return value:  Size  Location     Type
 12281 ;;                  1    wreg      unsigned char 
 12282 ;; Registers used:
 12283 ;;		wreg, fsr0l, fsr0h, fsr2l, fsr2h, status,2, status,0, tblptrl, tblptrh, tblptru, prodl, prodh, cstack
 12284 ;; Tracked objects:
 12285 ;;		On entry : 0/0
 12286 ;;		On exit  : 0/0
 12287 ;;		Unchanged: 0/0
 12288 ;; Data sizes:     COMRAM   BANK0   BANK1   BANK2   BANK3   BANK4   BANK5   BANK6   BANK7   BANK8   BANK9  BANK10  BANK1
      +1  BANK12  BANK13  BANK14  BANK15
 12289 ;;      Params:         5       0       0       0       0       0       0       0       0       0       0       0       
      +0       0       0       0       0
 12290 ;;      Locals:         0       0       0       0       0       0       0       0       0       0       0       0       
      +0       0       0       0       0
 12291 ;;      Temps:          0       0       0       0       0       0       0       0       0       0       0       0       
      +0       0       0       0       0
 12292 ;;      Totals:         5       0       0       0       0       0       0       0       0       0       0       0       
      +0       0       0       0       0
 12293 ;;Total ram usage:        5 bytes
 12294 ;; Hardware stack levels used: 1
 12295 ;; Hardware stack levels required when called: 4
 12296 ;; This function calls:
 12297 ;;		i2_lcd_4bit_send_char_data
 12298 ;;		i2_lcd_4bit_set_curser
 12299 ;; This function is called by:
 12300 ;;		_INT0_app_ISR
 12301 ;; This function uses a non-reentrant model
 12302 ;;
 12303                           
 12304                           	psect	text63
 12305   002A10                     __ptext63:
 12306                           	callstack 0
 12307   002A10                     i2_lcd_4bit_send_string_pos:
 12308                           	callstack 16
 12309   002A10                     
 12310                           ;ECU_layer/chr_LCD/ecu_chr_LCD.c: 174:     if(((void*)0) == lcd)
 12311   002A10  5015               	movf	i2lcd_4bit_send_string_pos@lcd^0,w,c
 12312   002A12  A4D8               	btfss	status,2,c
 12313   002A14  EF0E  F015         	goto	i2u1111_41
 12314   002A18  EF10  F015         	goto	i2u1111_40
 12315   002A1C                     i2u1111_41:
 12316   002A1C  EF12  F015         	goto	i2l11511
 12317   002A20                     i2u1111_40:
 12318   002A20                     
 12319                           ;ECU_layer/chr_LCD/ecu_chr_LCD.c: 177:     }
 12320   002A20  EF4D  F015         	goto	i2l101
 12321   002A24                     i2l11511:
 12322   002A24  C015  F00F         	movff	i2lcd_4bit_send_string_pos@lcd,i2lcd_4bit_set_curser@lcd
 12323   002A28  C016  F010         	movff	i2lcd_4bit_send_string_pos@row,i2lcd_4bit_set_curser@row
 12324   002A2C  C017  F011         	movff	i2lcd_4bit_send_string_pos@column,i2lcd_4bit_set_curser@column
 12325   002A30  EC2C  F014         	call	i2_lcd_4bit_set_curser	;wreg free
 12326                           
 12327                           ;ECU_layer/chr_LCD/ecu_chr_LCD.c: 181:         while(*str)
 12328   002A34  EF34  F015         	goto	i2l11517
 12329   002A38                     i2l11513:
 12330   002A38  C015  F00C         	movff	i2lcd_4bit_send_string_pos@lcd,i2lcd_4bit_send_char_data@lcd
 12331   002A3C  C018  FFF6         	movff	i2lcd_4bit_send_string_pos@str,tblptrl
 12332   002A40  C019  FFF7         	movff	i2lcd_4bit_send_string_pos@str+1,tblptrh
 12333   002A44  0E00               	movlw	low (__mediumconst shr (0+16))
 12334   002A46  6EF8               	movwf	tblptru,c
 12335   002A48  0E0F               	movlw	(high __ramtop+-1)
 12336   002A4A  64F7               	cpfsgt	tblptrh,c
 12337   002A4C  D003               	bra	i2u1112_47
 12338   002A4E  0008               	tblrd		*
 12339   002A50  50F5               	movf	tablat,w,c
 12340   002A52  D005               	bra	i2u1112_40
 12341   002A54                     i2u1112_47:
 12342   002A54  CFF6 FFE9          	movff	tblptrl,fsr0l
 12343   002A58  CFF7 FFEA          	movff	tblptrh,fsr0h
 12344   002A5C  50EF               	movf	indf0,w,c
 12345   002A5E                     i2u1112_40:
 12346   002A5E  6E0D               	movwf	i2lcd_4bit_send_char_data@data^0,c
 12347   002A60  EC44  F018         	call	i2_lcd_4bit_send_char_data	;wreg free
 12348   002A64  4A18               	infsnz	i2lcd_4bit_send_string_pos@str^0,f,c
 12349   002A66  2A19               	incf	(i2lcd_4bit_send_string_pos@str+1)^0,f,c
 12350   002A68                     i2l11517:
 12351                           
 12352                           ;ECU_layer/chr_LCD/ecu_chr_LCD.c: 181:         while(*str)
 12353   002A68  C018  FFF6         	movff	i2lcd_4bit_send_string_pos@str,tblptrl
 12354   002A6C  C019  FFF7         	movff	i2lcd_4bit_send_string_pos@str+1,tblptrh
 12355   002A70  0E00               	movlw	low (__mediumconst shr (0+16))
 12356   002A72  6EF8               	movwf	tblptru,c
 12357   002A74  0E0F               	movlw	(high __ramtop+-1)
 12358   002A76  64F7               	cpfsgt	tblptrh,c
 12359   002A78  D003               	bra	i2u1113_47
 12360   002A7A  0008               	tblrd		*
 12361   002A7C  50F5               	movf	tablat,w,c
 12362   002A7E  D005               	bra	i2u1113_40
 12363   002A80                     i2u1113_47:
 12364   002A80  CFF6 FFE9          	movff	tblptrl,fsr0l
 12365   002A84  CFF7 FFEA          	movff	tblptrh,fsr0h
 12366   002A88  50EF               	movf	indf0,w,c
 12367   002A8A                     i2u1113_40:
 12368   002A8A  0900               	iorlw	0
 12369   002A8C  A4D8               	btfss	status,2,c
 12370   002A8E  EF4B  F015         	goto	i2u1114_41
 12371   002A92  EF4D  F015         	goto	i2u1114_40
 12372   002A96                     i2u1114_41:
 12373   002A96  EF1C  F015         	goto	i2l11513
 12374   002A9A                     i2u1114_40:
 12375   002A9A                     i2l101:
 12376   002A9A  0012               	return		;funcret
 12377   002A9C                     __end_ofi2_lcd_4bit_send_string_pos:
 12378                           	callstack 0
 12379                           
 12380 ;; *************** function i2_lcd_4bit_set_curser *****************
 12381 ;; Defined at:
 12382 ;;		line 568 in file "ECU_layer/chr_LCD/ecu_chr_LCD.c"
 12383 ;; Parameters:    Size  Location     Type
 12384 ;;  lcd             1   14[COMRAM] PTR const struct .
 12385 ;;		 -> lcd1(6), 
 12386 ;;  row             1   15[COMRAM] unsigned char 
 12387 ;;  column          1   16[COMRAM] unsigned char 
 12388 ;; Auto vars:     Size  Location     Type
 12389 ;;  ret             1   19[COMRAM] unsigned char 
 12390 ;; Return value:  Size  Location     Type
 12391 ;;                  1    wreg      unsigned char 
 12392 ;; Registers used:
 12393 ;;		wreg, fsr2l, fsr2h, status,2, status,0, prodl, prodh, cstack
 12394 ;; Tracked objects:
 12395 ;;		On entry : 0/0
 12396 ;;		On exit  : 0/0
 12397 ;;		Unchanged: 0/0
 12398 ;; Data sizes:     COMRAM   BANK0   BANK1   BANK2   BANK3   BANK4   BANK5   BANK6   BANK7   BANK8   BANK9  BANK10  BANK1
      +1  BANK12  BANK13  BANK14  BANK15
 12399 ;;      Params:         3       0       0       0       0       0       0       0       0       0       0       0       
      +0       0       0       0       0
 12400 ;;      Locals:         1       0       0       0       0       0       0       0       0       0       0       0       
      +0       0       0       0       0
 12401 ;;      Temps:          2       0       0       0       0       0       0       0       0       0       0       0       
      +0       0       0       0       0
 12402 ;;      Totals:         6       0       0       0       0       0       0       0       0       0       0       0       
      +0       0       0       0       0
 12403 ;;Total ram usage:        6 bytes
 12404 ;; Hardware stack levels used: 1
 12405 ;; Hardware stack levels required when called: 3
 12406 ;; This function calls:
 12407 ;;		i2_lcd_4bit_send_command
 12408 ;; This function is called by:
 12409 ;;		i2_lcd_4bit_send_string_pos
 12410 ;; This function uses a non-reentrant model
 12411 ;;
 12412                           
 12413                           	psect	text64
 12414   002858                     __ptext64:
 12415                           	callstack 0
 12416   002858                     i2_lcd_4bit_set_curser:
 12417                           	callstack 16
 12418   002858                     
 12419                           ;ECU_layer/chr_LCD/ecu_chr_LCD.c: 569: STD_ReturnType ret = (STD_ReturnType)0x01;
 12420   002858  0E01               	movlw	1
 12421   00285A  6E14               	movwf	i2lcd_4bit_set_curser@ret^0,c
 12422   00285C                     
 12423                           ;ECU_layer/chr_LCD/ecu_chr_LCD.c: 570: column--;
 12424   00285C  0611               	decf	i2lcd_4bit_set_curser@column^0,f,c
 12425                           
 12426                           ;ECU_layer/chr_LCD/ecu_chr_LCD.c: 571: switch(row){
 12427   00285E  EF59  F014         	goto	i2l11263
 12428   002862                     i2l11255:
 12429   002862  C00F  F00C         	movff	i2lcd_4bit_set_curser@lcd,i2lcd_4bit_send_command@lcd
 12430   002866  5011               	movf	i2lcd_4bit_set_curser@column^0,w,c
 12431   002868  0F80               	addlw	128
 12432   00286A  6E0D               	movwf	i2lcd_4bit_send_command@command^0,c
 12433   00286C  EC16  F018         	call	i2_lcd_4bit_send_command	;wreg free
 12434   002870  6E14               	movwf	i2lcd_4bit_set_curser@ret^0,c
 12435   002872  EF76  F014         	goto	i2l11265
 12436   002876                     i2l11257:
 12437   002876  C00F  F00C         	movff	i2lcd_4bit_set_curser@lcd,i2lcd_4bit_send_command@lcd
 12438   00287A  5011               	movf	i2lcd_4bit_set_curser@column^0,w,c
 12439   00287C  0FC0               	addlw	192
 12440   00287E  6E0D               	movwf	i2lcd_4bit_send_command@command^0,c
 12441   002880  EC16  F018         	call	i2_lcd_4bit_send_command	;wreg free
 12442   002884  6E14               	movwf	i2lcd_4bit_set_curser@ret^0,c
 12443   002886  EF76  F014         	goto	i2l11265
 12444   00288A                     i2l11259:
 12445   00288A  C00F  F00C         	movff	i2lcd_4bit_set_curser@lcd,i2lcd_4bit_send_command@lcd
 12446   00288E  5011               	movf	i2lcd_4bit_set_curser@column^0,w,c
 12447   002890  0F94               	addlw	148
 12448   002892  6E0D               	movwf	i2lcd_4bit_send_command@command^0,c
 12449   002894  EC16  F018         	call	i2_lcd_4bit_send_command	;wreg free
 12450   002898  6E14               	movwf	i2lcd_4bit_set_curser@ret^0,c
 12451   00289A  EF76  F014         	goto	i2l11265
 12452   00289E                     i2l11261:
 12453   00289E  C00F  F00C         	movff	i2lcd_4bit_set_curser@lcd,i2lcd_4bit_send_command@lcd
 12454   0028A2  5011               	movf	i2lcd_4bit_set_curser@column^0,w,c
 12455   0028A4  0FD4               	addlw	212
 12456   0028A6  6E0D               	movwf	i2lcd_4bit_send_command@command^0,c
 12457   0028A8  EC16  F018         	call	i2_lcd_4bit_send_command	;wreg free
 12458   0028AC  6E14               	movwf	i2lcd_4bit_set_curser@ret^0,c
 12459   0028AE  EF76  F014         	goto	i2l11265
 12460   0028B2                     i2l11263:
 12461   0028B2  5010               	movf	i2lcd_4bit_set_curser@row^0,w,c
 12462   0028B4  6E12               	movwf	??i2_lcd_4bit_set_curser^0,c
 12463   0028B6  6A13               	clrf	(??i2_lcd_4bit_set_curser+1)^0,c
 12464                           
 12465                           ; Switch on 2 bytes has been partitioned into a top level switch of size 1, and 1 sub-sw
      +                          itches
 12466                           ; Switch size 1, requested type "simple"
 12467                           ; Number of cases is 1, Range of values is 0 to 0
 12468                           ; switch strategies available:
 12469                           ; Name         Instructions Cycles
 12470                           ; simple_byte            4     3 (average)
 12471                           ;	Chosen strategy is simple_byte
 12472   0028B8  5013               	movf	(??i2_lcd_4bit_set_curser+1)^0,w,c
 12473   0028BA  0A00               	xorlw	0	; case 0
 12474   0028BC  B4D8               	btfsc	status,2,c
 12475   0028BE  EF63  F014         	goto	i2l13555
 12476   0028C2  EF76  F014         	goto	i2l11265
 12477   0028C6                     i2l13555:
 12478                           
 12479                           ; Switch size 1, requested type "simple"
 12480                           ; Number of cases is 4, Range of values is 1 to 4
 12481                           ; switch strategies available:
 12482                           ; Name         Instructions Cycles
 12483                           ; simple_byte           13     7 (average)
 12484                           ;	Chosen strategy is simple_byte
 12485   0028C6  5012               	movf	??i2_lcd_4bit_set_curser^0,w,c
 12486   0028C8  0A01               	xorlw	1	; case 1
 12487   0028CA  B4D8               	btfsc	status,2,c
 12488   0028CC  EF31  F014         	goto	i2l11255
 12489   0028D0  0A03               	xorlw	3	; case 2
 12490   0028D2  B4D8               	btfsc	status,2,c
 12491   0028D4  EF3B  F014         	goto	i2l11257
 12492   0028D8  0A01               	xorlw	1	; case 3
 12493   0028DA  B4D8               	btfsc	status,2,c
 12494   0028DC  EF45  F014         	goto	i2l11259
 12495   0028E0  0A07               	xorlw	7	; case 4
 12496   0028E2  B4D8               	btfsc	status,2,c
 12497   0028E4  EF4F  F014         	goto	i2l11261
 12498   0028E8  EF76  F014         	goto	i2l11265
 12499   0028EC                     i2l11265:
 12500                           
 12501                           ;ECU_layer/chr_LCD/ecu_chr_LCD.c: 583: return ret;
 12502   0028EC  5014               	movf	i2lcd_4bit_set_curser@ret^0,w,c
 12503   0028EE  0012               	return		;funcret
 12504   0028F0                     __end_ofi2_lcd_4bit_set_curser:
 12505                           	callstack 0
 12506                           
 12507 ;; *************** function i2_lcd_4bit_send_command *****************
 12508 ;; Defined at:
 12509 ;;		line 65 in file "ECU_layer/chr_LCD/ecu_chr_LCD.c"
 12510 ;; Parameters:    Size  Location     Type
 12511 ;;  lcd             1   11[COMRAM] PTR const struct .
 12512 ;;		 -> lcd1(6), 
 12513 ;;  command         1   12[COMRAM] unsigned char 
 12514 ;; Auto vars:     Size  Location     Type
 12515 ;;  ret             1   13[COMRAM] unsigned char 
 12516 ;; Return value:  Size  Location     Type
 12517 ;;                  1    wreg      unsigned char 
 12518 ;; Registers used:
 12519 ;;		wreg, fsr2l, fsr2h, status,2, status,0, prodl, prodh, cstack
 12520 ;; Tracked objects:
 12521 ;;		On entry : 0/0
 12522 ;;		On exit  : 0/0
 12523 ;;		Unchanged: 0/0
 12524 ;; Data sizes:     COMRAM   BANK0   BANK1   BANK2   BANK3   BANK4   BANK5   BANK6   BANK7   BANK8   BANK9  BANK10  BANK1
      +1  BANK12  BANK13  BANK14  BANK15
 12525 ;;      Params:         2       0       0       0       0       0       0       0       0       0       0       0       
      +0       0       0       0       0
 12526 ;;      Locals:         1       0       0       0       0       0       0       0       0       0       0       0       
      +0       0       0       0       0
 12527 ;;      Temps:          0       0       0       0       0       0       0       0       0       0       0       0       
      +0       0       0       0       0
 12528 ;;      Totals:         3       0       0       0       0       0       0       0       0       0       0       0       
      +0       0       0       0       0
 12529 ;;Total ram usage:        3 bytes
 12530 ;; Hardware stack levels used: 1
 12531 ;; Hardware stack levels required when called: 2
 12532 ;; This function calls:
 12533 ;;		i2_gpio_pin_write_logic
 12534 ;;		i2_lcd_4bit_send_enable_enable
 12535 ;;		i2_lcd_send_4bit
 12536 ;; This function is called by:
 12537 ;;		_INT0_app_ISR
 12538 ;;		i2_lcd_4bit_set_curser
 12539 ;; This function uses a non-reentrant model
 12540 ;;
 12541                           
 12542                           	psect	text65
 12543   00302C                     __ptext65:
 12544                           	callstack 0
 12545   00302C                     i2_lcd_4bit_send_command:
 12546                           	callstack 16
 12547   00302C                     
 12548                           ;ECU_layer/chr_LCD/ecu_chr_LCD.c: 68:     if(((void*)0) == lcd)
 12549   00302C  500C               	movf	i2lcd_4bit_send_command@lcd^0,w,c
 12550   00302E  A4D8               	btfss	status,2,c
 12551   003030  EF1C  F018         	goto	i2u1074_41
 12552   003034  EF1E  F018         	goto	i2u1074_40
 12553   003038                     i2u1074_41:
 12554   003038  EF22  F018         	goto	i2l11145
 12555   00303C                     i2u1074_40:
 12556   00303C                     
 12557                           ;ECU_layer/chr_LCD/ecu_chr_LCD.c: 69:     {;ECU_layer/chr_LCD/ecu_chr_LCD.c: 70:        
      +                           ret = (STD_ReturnType)0x00;
 12558   00303C  0E00               	movlw	0
 12559   00303E  6E0E               	movwf	i2lcd_4bit_send_command@ret^0,c
 12560                           
 12561                           ;ECU_layer/chr_LCD/ecu_chr_LCD.c: 71:     }
 12562   003040  EF42  F018         	goto	i2l11147
 12563   003044                     i2l11145:
 12564                           
 12565                           ;ECU_layer/chr_LCD/ecu_chr_LCD.c: 73:     {;ECU_layer/chr_LCD/ecu_chr_LCD.c: 75:        
      +                           ret = gpio_pin_write_logic(&(lcd->rs),LOW);
 12566   003044  C00C  F001         	movff	i2lcd_4bit_send_command@lcd,i2gpio_pin_write_logic@_pin_config
 12567   003048  0E00               	movlw	0
 12568   00304A  6E02               	movwf	i2gpio_pin_write_logic@logic^0,c
 12569   00304C  EC20  F010         	call	i2_gpio_pin_write_logic	;wreg free
 12570   003050  6E0E               	movwf	i2lcd_4bit_send_command@ret^0,c
 12571                           
 12572                           ;ECU_layer/chr_LCD/ecu_chr_LCD.c: 76:         ret = lcd_send_4bit(lcd,command >>4);
 12573   003052  C00C  F009         	movff	i2lcd_4bit_send_command@lcd,i2lcd_send_4bit@lcd
 12574   003056  380D               	swapf	i2lcd_4bit_send_command@command^0,w,c
 12575   003058  0B0F               	andlw	15
 12576   00305A  6E0A               	movwf	i2lcd_send_4bit@command_data^0,c
 12577   00305C  EC1D  F019         	call	i2_lcd_send_4bit	;wreg free
 12578   003060  6E0E               	movwf	i2lcd_4bit_send_command@ret^0,c
 12579                           
 12580                           ;ECU_layer/chr_LCD/ecu_chr_LCD.c: 77:         ret = lcd_4bit_send_enable_enable(lcd);
 12581   003062  C00C  F009         	movff	i2lcd_4bit_send_command@lcd,i2lcd_4bit_send_enable_enable@lcd
 12582   003066  EC01  F01B         	call	i2_lcd_4bit_send_enable_enable	;wreg free
 12583   00306A  6E0E               	movwf	i2lcd_4bit_send_command@ret^0,c
 12584                           
 12585                           ;ECU_layer/chr_LCD/ecu_chr_LCD.c: 78:         ret = lcd_send_4bit(lcd,command);
 12586   00306C  C00C  F009         	movff	i2lcd_4bit_send_command@lcd,i2lcd_send_4bit@lcd
 12587   003070  C00D  F00A         	movff	i2lcd_4bit_send_command@command,i2lcd_send_4bit@command_data
 12588   003074  EC1D  F019         	call	i2_lcd_send_4bit	;wreg free
 12589   003078  6E0E               	movwf	i2lcd_4bit_send_command@ret^0,c
 12590                           
 12591                           ;ECU_layer/chr_LCD/ecu_chr_LCD.c: 79:         ret = lcd_4bit_send_enable_enable(lcd);
 12592   00307A  C00C  F009         	movff	i2lcd_4bit_send_command@lcd,i2lcd_4bit_send_enable_enable@lcd
 12593   00307E  EC01  F01B         	call	i2_lcd_4bit_send_enable_enable	;wreg free
 12594   003082  6E0E               	movwf	i2lcd_4bit_send_command@ret^0,c
 12595   003084                     i2l11147:
 12596                           
 12597                           ;ECU_layer/chr_LCD/ecu_chr_LCD.c: 84:      return ret;
 12598   003084  500E               	movf	i2lcd_4bit_send_command@ret^0,w,c
 12599   003086  0012               	return		;funcret
 12600   003088                     __end_ofi2_lcd_4bit_send_command:
 12601                           	callstack 0
 12602                           
 12603 ;; *************** function i2_lcd_4bit_send_char_data *****************
 12604 ;; Defined at:
 12605 ;;		line 94 in file "ECU_layer/chr_LCD/ecu_chr_LCD.c"
 12606 ;; Parameters:    Size  Location     Type
 12607 ;;  lcd             1   11[COMRAM] PTR const struct .
 12608 ;;		 -> lcd1(6), 
 12609 ;;  data            1   12[COMRAM] unsigned char 
 12610 ;; Auto vars:     Size  Location     Type
 12611 ;;  ret             1   13[COMRAM] unsigned char 
 12612 ;; Return value:  Size  Location     Type
 12613 ;;                  1    wreg      unsigned char 
 12614 ;; Registers used:
 12615 ;;		wreg, fsr2l, fsr2h, status,2, status,0, prodl, prodh, cstack
 12616 ;; Tracked objects:
 12617 ;;		On entry : 0/0
 12618 ;;		On exit  : 0/0
 12619 ;;		Unchanged: 0/0
 12620 ;; Data sizes:     COMRAM   BANK0   BANK1   BANK2   BANK3   BANK4   BANK5   BANK6   BANK7   BANK8   BANK9  BANK10  BANK1
      +1  BANK12  BANK13  BANK14  BANK15
 12621 ;;      Params:         2       0       0       0       0       0       0       0       0       0       0       0       
      +0       0       0       0       0
 12622 ;;      Locals:         1       0       0       0       0       0       0       0       0       0       0       0       
      +0       0       0       0       0
 12623 ;;      Temps:          0       0       0       0       0       0       0       0       0       0       0       0       
      +0       0       0       0       0
 12624 ;;      Totals:         3       0       0       0       0       0       0       0       0       0       0       0       
      +0       0       0       0       0
 12625 ;;Total ram usage:        3 bytes
 12626 ;; Hardware stack levels used: 1
 12627 ;; Hardware stack levels required when called: 2
 12628 ;; This function calls:
 12629 ;;		i2_gpio_pin_write_logic
 12630 ;;		i2_lcd_4bit_send_enable_enable
 12631 ;;		i2_lcd_send_4bit
 12632 ;; This function is called by:
 12633 ;;		i2_lcd_4bit_send_string_pos
 12634 ;; This function uses a non-reentrant model
 12635 ;;
 12636                           
 12637                           	psect	text66
 12638   003088                     __ptext66:
 12639                           	callstack 0
 12640   003088                     i2_lcd_4bit_send_char_data:
 12641                           	callstack 17
 12642   003088                     
 12643                           ;ECU_layer/chr_LCD/ecu_chr_LCD.c: 97:     if(((void*)0) == lcd)
 12644   003088  500C               	movf	i2lcd_4bit_send_char_data@lcd^0,w,c
 12645   00308A  A4D8               	btfss	status,2,c
 12646   00308C  EF4A  F018         	goto	i2u1085_41
 12647   003090  EF4C  F018         	goto	i2u1085_40
 12648   003094                     i2u1085_41:
 12649   003094  EF50  F018         	goto	i2l11245
 12650   003098                     i2u1085_40:
 12651   003098                     
 12652                           ;ECU_layer/chr_LCD/ecu_chr_LCD.c: 98:     {;ECU_layer/chr_LCD/ecu_chr_LCD.c: 99:        
      +                           ret = (STD_ReturnType)0x00;
 12653   003098  0E00               	movlw	0
 12654   00309A  6E0E               	movwf	i2lcd_4bit_send_char_data@ret^0,c
 12655                           
 12656                           ;ECU_layer/chr_LCD/ecu_chr_LCD.c: 100:     }
 12657   00309C  EF70  F018         	goto	i2l11247
 12658   0030A0                     i2l11245:
 12659                           
 12660                           ;ECU_layer/chr_LCD/ecu_chr_LCD.c: 102:     {;ECU_layer/chr_LCD/ecu_chr_LCD.c: 104:      
      +                             ret = gpio_pin_write_logic(&(lcd->rs),HIGH);
 12661   0030A0  C00C  F001         	movff	i2lcd_4bit_send_char_data@lcd,i2gpio_pin_write_logic@_pin_config
 12662   0030A4  0E01               	movlw	1
 12663   0030A6  6E02               	movwf	i2gpio_pin_write_logic@logic^0,c
 12664   0030A8  EC20  F010         	call	i2_gpio_pin_write_logic	;wreg free
 12665   0030AC  6E0E               	movwf	i2lcd_4bit_send_char_data@ret^0,c
 12666                           
 12667                           ;ECU_layer/chr_LCD/ecu_chr_LCD.c: 105:         ret = lcd_send_4bit(lcd,data >>4);
 12668   0030AE  C00C  F009         	movff	i2lcd_4bit_send_char_data@lcd,i2lcd_send_4bit@lcd
 12669   0030B2  380D               	swapf	i2lcd_4bit_send_char_data@data^0,w,c
 12670   0030B4  0B0F               	andlw	15
 12671   0030B6  6E0A               	movwf	i2lcd_send_4bit@command_data^0,c
 12672   0030B8  EC1D  F019         	call	i2_lcd_send_4bit	;wreg free
 12673   0030BC  6E0E               	movwf	i2lcd_4bit_send_char_data@ret^0,c
 12674                           
 12675                           ;ECU_layer/chr_LCD/ecu_chr_LCD.c: 106:         ret = lcd_4bit_send_enable_enable(lcd);
 12676   0030BE  C00C  F009         	movff	i2lcd_4bit_send_char_data@lcd,i2lcd_4bit_send_enable_enable@lcd
 12677   0030C2  EC01  F01B         	call	i2_lcd_4bit_send_enable_enable	;wreg free
 12678   0030C6  6E0E               	movwf	i2lcd_4bit_send_char_data@ret^0,c
 12679                           
 12680                           ;ECU_layer/chr_LCD/ecu_chr_LCD.c: 107:         ret = lcd_send_4bit(lcd,data);
 12681   0030C8  C00C  F009         	movff	i2lcd_4bit_send_char_data@lcd,i2lcd_send_4bit@lcd
 12682   0030CC  C00D  F00A         	movff	i2lcd_4bit_send_char_data@data,i2lcd_send_4bit@command_data
 12683   0030D0  EC1D  F019         	call	i2_lcd_send_4bit	;wreg free
 12684   0030D4  6E0E               	movwf	i2lcd_4bit_send_char_data@ret^0,c
 12685                           
 12686                           ;ECU_layer/chr_LCD/ecu_chr_LCD.c: 108:         ret = lcd_4bit_send_enable_enable(lcd);
 12687   0030D6  C00C  F009         	movff	i2lcd_4bit_send_char_data@lcd,i2lcd_4bit_send_enable_enable@lcd
 12688   0030DA  EC01  F01B         	call	i2_lcd_4bit_send_enable_enable	;wreg free
 12689   0030DE  6E0E               	movwf	i2lcd_4bit_send_char_data@ret^0,c
 12690   0030E0                     i2l11247:
 12691                           
 12692                           ;ECU_layer/chr_LCD/ecu_chr_LCD.c: 113:      return ret;
 12693   0030E0  500E               	movf	i2lcd_4bit_send_char_data@ret^0,w,c
 12694   0030E2  0012               	return		;funcret
 12695   0030E4                     __end_ofi2_lcd_4bit_send_char_data:
 12696                           	callstack 0
 12697                           
 12698 ;; *************** function i2_lcd_send_4bit *****************
 12699 ;; Defined at:
 12700 ;;		line 493 in file "ECU_layer/chr_LCD/ecu_chr_LCD.c"
 12701 ;; Parameters:    Size  Location     Type
 12702 ;;  lcd             1    8[COMRAM] PTR const struct .
 12703 ;;		 -> lcd1(6), 
 12704 ;;  command_data    1    9[COMRAM] unsigned char 
 12705 ;; Auto vars:     Size  Location     Type
 12706 ;;  ret             1   10[COMRAM] unsigned char 
 12707 ;; Return value:  Size  Location     Type
 12708 ;;                  1    wreg      unsigned char 
 12709 ;; Registers used:
 12710 ;;		wreg, fsr2l, fsr2h, status,2, status,0, prodl, prodh, cstack
 12711 ;; Tracked objects:
 12712 ;;		On entry : 0/0
 12713 ;;		On exit  : 0/0
 12714 ;;		Unchanged: 0/0
 12715 ;; Data sizes:     COMRAM   BANK0   BANK1   BANK2   BANK3   BANK4   BANK5   BANK6   BANK7   BANK8   BANK9  BANK10  BANK1
      +1  BANK12  BANK13  BANK14  BANK15
 12716 ;;      Params:         2       0       0       0       0       0       0       0       0       0       0       0       
      +0       0       0       0       0
 12717 ;;      Locals:         1       0       0       0       0       0       0       0       0       0       0       0       
      +0       0       0       0       0
 12718 ;;      Temps:          0       0       0       0       0       0       0       0       0       0       0       0       
      +0       0       0       0       0
 12719 ;;      Totals:         3       0       0       0       0       0       0       0       0       0       0       0       
      +0       0       0       0       0
 12720 ;;Total ram usage:        3 bytes
 12721 ;; Hardware stack levels used: 1
 12722 ;; Hardware stack levels required when called: 1
 12723 ;; This function calls:
 12724 ;;		i2_gpio_pin_write_logic
 12725 ;; This function is called by:
 12726 ;;		i2_lcd_4bit_send_command
 12727 ;;		i2_lcd_4bit_send_char_data
 12728 ;; This function uses a non-reentrant model
 12729 ;;
 12730                           
 12731                           	psect	text67
 12732   00323A                     __ptext67:
 12733                           	callstack 0
 12734   00323A                     i2_lcd_send_4bit:
 12735                           	callstack 16
 12736   00323A  5009               	movf	i2lcd_send_4bit@lcd^0,w,c
 12737   00323C  0F02               	addlw	2
 12738   00323E  6E01               	movwf	i2gpio_pin_write_logic@_pin_config^0,c
 12739   003240  500A               	movf	i2lcd_send_4bit@command_data^0,w,c
 12740   003242  0B01               	andlw	1
 12741   003244  6E02               	movwf	i2gpio_pin_write_logic@logic^0,c
 12742   003246  EC20  F010         	call	i2_gpio_pin_write_logic	;wreg free
 12743   00324A  5009               	movf	i2lcd_send_4bit@lcd^0,w,c
 12744   00324C  0F03               	addlw	3
 12745   00324E  6E01               	movwf	i2gpio_pin_write_logic@_pin_config^0,c
 12746   003250  90D8               	bcf	status,0,c
 12747   003252  300A               	rrcf	i2lcd_send_4bit@command_data^0,w,c
 12748   003254  0B01               	andlw	1
 12749   003256  6E02               	movwf	i2gpio_pin_write_logic@logic^0,c
 12750   003258  EC20  F010         	call	i2_gpio_pin_write_logic	;wreg free
 12751   00325C  5009               	movf	i2lcd_send_4bit@lcd^0,w,c
 12752   00325E  0F04               	addlw	4
 12753   003260  6E01               	movwf	i2gpio_pin_write_logic@_pin_config^0,c
 12754   003262  400A               	rrncf	i2lcd_send_4bit@command_data^0,w,c
 12755   003264  42E8               	rrncf	wreg,f,c
 12756   003266  0B3F               	andlw	63
 12757   003268  0B01               	andlw	1
 12758   00326A  6E02               	movwf	i2gpio_pin_write_logic@logic^0,c
 12759   00326C  EC20  F010         	call	i2_gpio_pin_write_logic	;wreg free
 12760   003270                     
 12761                           ;ECU_layer/chr_LCD/ecu_chr_LCD.c: 498: ret = gpio_pin_write_logic(&(lcd->data[3]),(comma
      +                          nd_data >> 3) & 0x01);
 12762   003270  5009               	movf	i2lcd_send_4bit@lcd^0,w,c
 12763   003272  0F05               	addlw	5
 12764   003274  6E01               	movwf	i2gpio_pin_write_logic@_pin_config^0,c
 12765   003276  380A               	swapf	i2lcd_send_4bit@command_data^0,w,c
 12766   003278  46E8               	rlncf	wreg,f,c
 12767   00327A  0B1F               	andlw	31
 12768   00327C  0B01               	andlw	1
 12769   00327E  6E02               	movwf	i2gpio_pin_write_logic@logic^0,c
 12770   003280  EC20  F010         	call	i2_gpio_pin_write_logic	;wreg free
 12771   003284  6E0B               	movwf	i2lcd_send_4bit@ret^0,c
 12772                           
 12773                           ;ECU_layer/chr_LCD/ecu_chr_LCD.c: 500: return ret;
 12774   003286  500B               	movf	i2lcd_send_4bit@ret^0,w,c
 12775   003288  0012               	return		;funcret
 12776   00328A                     __end_ofi2_lcd_send_4bit:
 12777                           	callstack 0
 12778                           
 12779 ;; *************** function i2_lcd_4bit_send_enable_enable *****************
 12780 ;; Defined at:
 12781 ;;		line 509 in file "ECU_layer/chr_LCD/ecu_chr_LCD.c"
 12782 ;; Parameters:    Size  Location     Type
 12783 ;;  lcd             1    8[COMRAM] PTR const struct .
 12784 ;;		 -> lcd1(6), 
 12785 ;; Auto vars:     Size  Location     Type
 12786 ;;  ret             1    9[COMRAM] unsigned char 
 12787 ;; Return value:  Size  Location     Type
 12788 ;;                  1    wreg      unsigned char 
 12789 ;; Registers used:
 12790 ;;		wreg, fsr2l, fsr2h, status,2, status,0, prodl, prodh, cstack
 12791 ;; Tracked objects:
 12792 ;;		On entry : 0/0
 12793 ;;		On exit  : 0/0
 12794 ;;		Unchanged: 0/0
 12795 ;; Data sizes:     COMRAM   BANK0   BANK1   BANK2   BANK3   BANK4   BANK5   BANK6   BANK7   BANK8   BANK9  BANK10  BANK1
      +1  BANK12  BANK13  BANK14  BANK15
 12796 ;;      Params:         1       0       0       0       0       0       0       0       0       0       0       0       
      +0       0       0       0       0
 12797 ;;      Locals:         1       0       0       0       0       0       0       0       0       0       0       0       
      +0       0       0       0       0
 12798 ;;      Temps:          0       0       0       0       0       0       0       0       0       0       0       0       
      +0       0       0       0       0
 12799 ;;      Totals:         2       0       0       0       0       0       0       0       0       0       0       0       
      +0       0       0       0       0
 12800 ;;Total ram usage:        2 bytes
 12801 ;; Hardware stack levels used: 1
 12802 ;; Hardware stack levels required when called: 1
 12803 ;; This function calls:
 12804 ;;		i2_gpio_pin_write_logic
 12805 ;; This function is called by:
 12806 ;;		i2_lcd_4bit_send_command
 12807 ;;		i2_lcd_4bit_send_char_data
 12808 ;; This function uses a non-reentrant model
 12809 ;;
 12810                           
 12811                           	psect	text68
 12812   003602                     __ptext68:
 12813                           	callstack 0
 12814   003602                     i2_lcd_4bit_send_enable_enable:
 12815                           	callstack 16
 12816   003602  2809               	incf	i2lcd_4bit_send_enable_enable@lcd^0,w,c
 12817   003604  6E01               	movwf	i2gpio_pin_write_logic@_pin_config^0,c
 12818   003606  0E01               	movlw	1
 12819   003608  6E02               	movwf	i2gpio_pin_write_logic@logic^0,c
 12820   00360A  EC20  F010         	call	i2_gpio_pin_write_logic	;wreg free
 12821   00360E                     
 12822                           ;ECU_layer/chr_LCD/ecu_chr_LCD.c: 512: _delay((unsigned long)((5)*(8000000ul/4000000.0))
      +                          );
 12823   00360E  0E03               	movlw	3
 12824   003610                     i2u1393_47:
 12825   003610  2EE8               	decfsz	wreg,f,c
 12826   003612  D7FE               	bra	i2u1393_47
 12827   003614  0000               	nop	
 12828   003616                     
 12829                           ;ECU_layer/chr_LCD/ecu_chr_LCD.c: 513: ret = gpio_pin_write_logic(&(lcd->en),LOW);
 12830   003616  2809               	incf	i2lcd_4bit_send_enable_enable@lcd^0,w,c
 12831   003618  6E01               	movwf	i2gpio_pin_write_logic@_pin_config^0,c
 12832   00361A  0E00               	movlw	0
 12833   00361C  6E02               	movwf	i2gpio_pin_write_logic@logic^0,c
 12834   00361E  EC20  F010         	call	i2_gpio_pin_write_logic	;wreg free
 12835   003622  6E0A               	movwf	i2lcd_4bit_send_enable_enable@ret^0,c
 12836   003624                     
 12837                           ;ECU_layer/chr_LCD/ecu_chr_LCD.c: 515: return ret;
 12838   003624  500A               	movf	i2lcd_4bit_send_enable_enable@ret^0,w,c
 12839   003626  0012               	return		;funcret
 12840   003628                     __end_ofi2_lcd_4bit_send_enable_enable:
 12841                           	callstack 0
 12842                           
 12843 ;; *************** function i2_gpio_pin_write_logic *****************
 12844 ;; Defined at:
 12845 ;;		line 83 in file "MCAL_layer/GPIO/hal_gpio.c"
 12846 ;; Parameters:    Size  Location     Type
 12847 ;;  _pin_config     1    0[COMRAM] PTR const struct .
 12848 ;;		 -> buzzer(1), keypad(8), lcd1$data(4), motor1(2), 
 12849 ;;		 -> lcd1(6), ecu_relay_off@relay_pin(1), ecu_relay_on@relay_pin(1), ecu_relay_initialize@relay_pin(1), 
 12850 ;;		 -> ecu_led_turn_off@led_pin(1), ecu_led_turn_on@led_pin(1), ecu_led_initialize@led_pin(1), 
 12851 ;;  logic           1    1[COMRAM] enum E2979
 12852 ;; Auto vars:     Size  Location     Type
 12853 ;;  ret             1    7[COMRAM] unsigned char 
 12854 ;; Return value:  Size  Location     Type
 12855 ;;                  1    wreg      unsigned char 
 12856 ;; Registers used:
 12857 ;;		wreg, fsr2l, fsr2h, status,2, status,0, prodl, prodh
 12858 ;; Tracked objects:
 12859 ;;		On entry : 0/0
 12860 ;;		On exit  : 0/0
 12861 ;;		Unchanged: 0/0
 12862 ;; Data sizes:     COMRAM   BANK0   BANK1   BANK2   BANK3   BANK4   BANK5   BANK6   BANK7   BANK8   BANK9  BANK10  BANK1
      +1  BANK12  BANK13  BANK14  BANK15
 12863 ;;      Params:         2       0       0       0       0       0       0       0       0       0       0       0       
      +0       0       0       0       0
 12864 ;;      Locals:         1       0       0       0       0       0       0       0       0       0       0       0       
      +0       0       0       0       0
 12865 ;;      Temps:          5       0       0       0       0       0       0       0       0       0       0       0       
      +0       0       0       0       0
 12866 ;;      Totals:         8       0       0       0       0       0       0       0       0       0       0       0       
      +0       0       0       0       0
 12867 ;;Total ram usage:        8 bytes
 12868 ;; Hardware stack levels used: 1
 12869 ;; This function calls:
 12870 ;;		Nothing
 12871 ;; This function is called by:
 12872 ;;		i2_lcd_4bit_send_command
 12873 ;;		i2_lcd_4bit_send_char_data
 12874 ;;		i2_lcd_send_4bit
 12875 ;;		i2_lcd_4bit_send_enable_enable
 12876 ;; This function uses a non-reentrant model
 12877 ;;
 12878                           
 12879                           	psect	text69
 12880   002040                     __ptext69:
 12881                           	callstack 0
 12882   002040                     i2_gpio_pin_write_logic:
 12883                           	callstack 16
 12884   002040                     
 12885                           ;MCAL_layer/GPIO/hal_gpio.c: 83: STD_ReturnType gpio_pin_write_logic(const pin_config_t*
      +                           _pin_config, logic_t logic);MCAL_layer/GPIO/hal_gpio.c: 84: {;MCAL_layer/GPIO/hal_gpio.
      +                          c: 85:     STD_ReturnType ret = (STD_ReturnType)0x01;
 12886   002040  0E01               	movlw	1
 12887   002042  6E08               	movwf	i2gpio_pin_write_logic@ret^0,c
 12888                           
 12889                           ;MCAL_layer/GPIO/hal_gpio.c: 86:     if(((void*)0) == _pin_config || _pin_config->pin > 
      +                          8 -1)
 12890   002044  5001               	movf	i2gpio_pin_write_logic@_pin_config^0,w,c
 12891   002046  B4D8               	btfsc	status,2,c
 12892   002048  EF28  F010         	goto	i2u1042_41
 12893   00204C  EF2A  F010         	goto	i2u1042_40
 12894   002050                     i2u1042_41:
 12895   002050  EF3A  F010         	goto	i2l10915
 12896   002054                     i2u1042_40:
 12897   002054  5001               	movf	i2gpio_pin_write_logic@_pin_config^0,w,c
 12898   002056  6ED9               	movwf	fsr2l,c
 12899   002058  6ADA               	clrf	fsr2h,c
 12900   00205A  30DF               	rrcf	223,w,c
 12901   00205C  32E8               	rrcf	wreg,f,c
 12902   00205E  32E8               	rrcf	wreg,f,c
 12903   002060  0B07               	andlw	7
 12904   002062  6E03               	movwf	??i2_gpio_pin_write_logic^0,c
 12905   002064  0E07               	movlw	7
 12906   002066  6403               	cpfsgt	??i2_gpio_pin_write_logic^0,c
 12907   002068  EF38  F010         	goto	i2u1043_41
 12908   00206C  EF3A  F010         	goto	i2u1043_40
 12909   002070                     i2u1043_41:
 12910   002070  EF91  F010         	goto	i2l10923
 12911   002074                     i2u1043_40:
 12912   002074                     i2l10915:
 12913                           
 12914                           ;MCAL_layer/GPIO/hal_gpio.c: 87:     {;MCAL_layer/GPIO/hal_gpio.c: 88:         ret = (ST
      +                          D_ReturnType)0x00;
 12915   002074  0E00               	movlw	0
 12916   002076  6E08               	movwf	i2gpio_pin_write_logic@ret^0,c
 12917                           
 12918                           ;MCAL_layer/GPIO/hal_gpio.c: 89:     }
 12919   002078  EFA6  F010         	goto	i2l10925
 12920   00207C                     i2l10917:
 12921                           
 12922                           ;MCAL_layer/GPIO/hal_gpio.c: 95:             (*lat_registers[_pin_config->port] &= ~((ui
      +                          nt8)1 << _pin_config->pin));
 12923   00207C  5001               	movf	i2gpio_pin_write_logic@_pin_config^0,w,c
 12924   00207E  6ED9               	movwf	fsr2l,c
 12925   002080  6ADA               	clrf	fsr2h,c
 12926   002082  30DF               	rrcf	223,w,c
 12927   002084  32E8               	rrcf	wreg,f,c
 12928   002086  32E8               	rrcf	wreg,f,c
 12929   002088  0B07               	andlw	7
 12930   00208A  6E03               	movwf	??i2_gpio_pin_write_logic^0,c
 12931   00208C  0E01               	movlw	1
 12932   00208E  6E04               	movwf	(??i2_gpio_pin_write_logic+1)^0,c
 12933   002090  2A03               	incf	??i2_gpio_pin_write_logic^0,f,c
 12934   002092  EF4D  F010         	goto	i2u1044_44
 12935   002096                     i2u1044_45:
 12936   002096  90D8               	bcf	status,0,c
 12937   002098  3604               	rlcf	(??i2_gpio_pin_write_logic+1)^0,f,c
 12938   00209A                     i2u1044_44:
 12939   00209A  2E03               	decfsz	??i2_gpio_pin_write_logic^0,f,c
 12940   00209C  EF4B  F010         	goto	i2u1044_45
 12941   0020A0  5004               	movf	(??i2_gpio_pin_write_logic+1)^0,w,c
 12942   0020A2  0AFF               	xorlw	255
 12943   0020A4  6E05               	movwf	(??i2_gpio_pin_write_logic+2)^0,c
 12944   0020A6  5001               	movf	i2gpio_pin_write_logic@_pin_config^0,w,c
 12945   0020A8  6ED9               	movwf	fsr2l,c
 12946   0020AA  6ADA               	clrf	fsr2h,c
 12947   0020AC  50DF               	movf	223,w,c
 12948   0020AE  0B07               	andlw	7
 12949   0020B0  0D02               	mullw	2
 12950   0020B2  50F3               	movf	243,w,c
 12951   0020B4  0FD6               	addlw	low _lat_registers
 12952   0020B6  6ED9               	movwf	fsr2l,c
 12953   0020B8  6ADA               	clrf	fsr2h,c
 12954   0020BA  CFDE F006          	movff	postinc2,??i2_gpio_pin_write_logic+3
 12955   0020BE  CFDD F007          	movff	postdec2,??i2_gpio_pin_write_logic+4
 12956   0020C2  C006  FFD9         	movff	??i2_gpio_pin_write_logic+3,fsr2l
 12957   0020C6  C007  FFDA         	movff	??i2_gpio_pin_write_logic+4,fsr2h
 12958   0020CA  5005               	movf	(??i2_gpio_pin_write_logic+2)^0,w,c
 12959   0020CC  16DF               	andwf	indf2,f,c
 12960                           
 12961                           ;MCAL_layer/GPIO/hal_gpio.c: 96:             break;
 12962   0020CE  EFA6  F010         	goto	i2l10925
 12963   0020D2                     i2l10919:
 12964                           
 12965                           ;MCAL_layer/GPIO/hal_gpio.c: 98:             (*lat_registers[_pin_config->port] |= ((uin
      +                          t8)1 << _pin_config->pin));
 12966   0020D2  5001               	movf	i2gpio_pin_write_logic@_pin_config^0,w,c
 12967   0020D4  6ED9               	movwf	fsr2l,c
 12968   0020D6  6ADA               	clrf	fsr2h,c
 12969   0020D8  30DF               	rrcf	223,w,c
 12970   0020DA  32E8               	rrcf	wreg,f,c
 12971   0020DC  32E8               	rrcf	wreg,f,c
 12972   0020DE  0B07               	andlw	7
 12973   0020E0  6E03               	movwf	??i2_gpio_pin_write_logic^0,c
 12974   0020E2  0E01               	movlw	1
 12975   0020E4  6E04               	movwf	(??i2_gpio_pin_write_logic+1)^0,c
 12976   0020E6  2A03               	incf	??i2_gpio_pin_write_logic^0,f,c
 12977   0020E8  EF78  F010         	goto	i2u1045_44
 12978   0020EC                     i2u1045_45:
 12979   0020EC  90D8               	bcf	status,0,c
 12980   0020EE  3604               	rlcf	(??i2_gpio_pin_write_logic+1)^0,f,c
 12981   0020F0                     i2u1045_44:
 12982   0020F0  2E03               	decfsz	??i2_gpio_pin_write_logic^0,f,c
 12983   0020F2  EF76  F010         	goto	i2u1045_45
 12984   0020F6  5001               	movf	i2gpio_pin_write_logic@_pin_config^0,w,c
 12985   0020F8  6ED9               	movwf	fsr2l,c
 12986   0020FA  6ADA               	clrf	fsr2h,c
 12987   0020FC  50DF               	movf	223,w,c
 12988   0020FE  0B07               	andlw	7
 12989   002100  0D02               	mullw	2
 12990   002102  50F3               	movf	243,w,c
 12991   002104  0FD6               	addlw	low _lat_registers
 12992   002106  6ED9               	movwf	fsr2l,c
 12993   002108  6ADA               	clrf	fsr2h,c
 12994   00210A  CFDE F005          	movff	postinc2,??i2_gpio_pin_write_logic+2
 12995   00210E  CFDD F006          	movff	postdec2,??i2_gpio_pin_write_logic+3
 12996   002112  C005  FFD9         	movff	??i2_gpio_pin_write_logic+2,fsr2l
 12997   002116  C006  FFDA         	movff	??i2_gpio_pin_write_logic+3,fsr2h
 12998   00211A  5004               	movf	(??i2_gpio_pin_write_logic+1)^0,w,c
 12999   00211C  12DF               	iorwf	indf2,f,c
 13000                           
 13001                           ;MCAL_layer/GPIO/hal_gpio.c: 99:             break;
 13002   00211E  EFA6  F010         	goto	i2l10925
 13003   002122                     i2l10923:
 13004   002122  5002               	movf	i2gpio_pin_write_logic@logic^0,w,c
 13005   002124  6E03               	movwf	??i2_gpio_pin_write_logic^0,c
 13006   002126  6A04               	clrf	(??i2_gpio_pin_write_logic+1)^0,c
 13007                           
 13008                           ; Switch on 2 bytes has been partitioned into a top level switch of size 1, and 1 sub-sw
      +                          itches
 13009                           ; Switch size 1, requested type "simple"
 13010                           ; Number of cases is 1, Range of values is 0 to 0
 13011                           ; switch strategies available:
 13012                           ; Name         Instructions Cycles
 13013                           ; simple_byte            4     3 (average)
 13014                           ;	Chosen strategy is simple_byte
 13015   002128  5004               	movf	(??i2_gpio_pin_write_logic+1)^0,w,c
 13016   00212A  0A00               	xorlw	0	; case 0
 13017   00212C  B4D8               	btfsc	status,2,c
 13018   00212E  EF9B  F010         	goto	i2l13557
 13019   002132  EF3A  F010         	goto	i2l10915
 13020   002136                     i2l13557:
 13021                           
 13022                           ; Switch size 1, requested type "simple"
 13023                           ; Number of cases is 2, Range of values is 0 to 1
 13024                           ; switch strategies available:
 13025                           ; Name         Instructions Cycles
 13026                           ; simple_byte            7     4 (average)
 13027                           ;	Chosen strategy is simple_byte
 13028   002136  5003               	movf	??i2_gpio_pin_write_logic^0,w,c
 13029   002138  0A00               	xorlw	0	; case 0
 13030   00213A  B4D8               	btfsc	status,2,c
 13031   00213C  EF3E  F010         	goto	i2l10917
 13032   002140  0A01               	xorlw	1	; case 1
 13033   002142  B4D8               	btfsc	status,2,c
 13034   002144  EF69  F010         	goto	i2l10919
 13035   002148  EF3A  F010         	goto	i2l10915
 13036   00214C                     i2l10925:
 13037                           
 13038                           ;MCAL_layer/GPIO/hal_gpio.c: 104:      return ret;
 13039   00214C  5008               	movf	i2gpio_pin_write_logic@ret^0,w,c
 13040   00214E  0012               	return		;funcret
 13041   002150                     __end_ofi2_gpio_pin_write_logic:
 13042                           	callstack 0
 13043                           
 13044 ;; *************** function i2_Data_EEPROM_WriteByte *****************
 13045 ;; Defined at:
 13046 ;;		line 10 in file "MCAL_layer/EEPROM/hal_eeprom.c"
 13047 ;; Parameters:    Size  Location     Type
 13048 ;;  badd            2    0[COMRAM] unsigned short 
 13049 ;;  bData           1    2[COMRAM] unsigned char 
 13050 ;; Auto vars:     Size  Location     Type
 13051 ;;  GLOBAL_INTER    1    3[COMRAM] unsigned char 
 13052 ;;  ret             1    0        unsigned char 
 13053 ;; Return value:  Size  Location     Type
 13054 ;;                  1    wreg      unsigned char 
 13055 ;; Registers used:
 13056 ;;		wreg, status,2, status,0
 13057 ;; Tracked objects:
 13058 ;;		On entry : 0/0
 13059 ;;		On exit  : 0/0
 13060 ;;		Unchanged: 0/0
 13061 ;; Data sizes:     COMRAM   BANK0   BANK1   BANK2   BANK3   BANK4   BANK5   BANK6   BANK7   BANK8   BANK9  BANK10  BANK1
      +1  BANK12  BANK13  BANK14  BANK15
 13062 ;;      Params:         3       0       0       0       0       0       0       0       0       0       0       0       
      +0       0       0       0       0
 13063 ;;      Locals:         1       0       0       0       0       0       0       0       0       0       0       0       
      +0       0       0       0       0
 13064 ;;      Temps:          0       0       0       0       0       0       0       0       0       0       0       0       
      +0       0       0       0       0
 13065 ;;      Totals:         4       0       0       0       0       0       0       0       0       0       0       0       
      +0       0       0       0       0
 13066 ;;Total ram usage:        4 bytes
 13067 ;; Hardware stack levels used: 1
 13068 ;; This function calls:
 13069 ;;		Nothing
 13070 ;; This function is called by:
 13071 ;;		_INT0_app_ISR
 13072 ;; This function uses a non-reentrant model
 13073 ;;
 13074                           
 13075                           	psect	text70
 13076   003362                     __ptext70:
 13077                           	callstack 0
 13078   003362                     i2_Data_EEPROM_WriteByte:
 13079                           	callstack 20
 13080   003362                     
 13081                           ;MCAL_layer/EEPROM/hal_eeprom.c: 14:     uint8 GLOBAL_INTERRUPT_STATUS = INTCONbits.GIE;
 13082   003362  0E00               	movlw	0
 13083   003364  BEF2               	btfsc	242,7,c	;volatile
 13084   003366  0E01               	movlw	1
 13085   003368  6E04               	movwf	i2Data_EEPROM_WriteByte@GLOBAL_INTERRUPT_STATUS^0,c
 13086   00336A                     
 13087                           ;MCAL_layer/EEPROM/hal_eeprom.c: 16:     EEADRH = (uint8)((badd >> 8) & 0x03) ;
 13088   00336A  5002               	movf	(i2Data_EEPROM_WriteByte@badd+1)^0,w,c
 13089   00336C  0B03               	andlw	3
 13090   00336E  6EAA               	movwf	170,c	;volatile
 13091   003370                     
 13092                           ;MCAL_layer/EEPROM/hal_eeprom.c: 17:     EEADR = (uint8)(badd & 0xFF) ;
 13093   003370  C001  FFA9         	movff	i2Data_EEPROM_WriteByte@badd,4009	;volatile
 13094   003374                     
 13095                           ;MCAL_layer/EEPROM/hal_eeprom.c: 19:     EEDATA = bData;
 13096   003374  C003  FFA8         	movff	i2Data_EEPROM_WriteByte@bData,4008	;volatile
 13097   003378                     
 13098                           ;MCAL_layer/EEPROM/hal_eeprom.c: 21:     EECON1bits.EEPGD = 0;
 13099   003378  9EA6               	bcf	166,7,c	;volsfr
 13100   00337A                     
 13101                           ;MCAL_layer/EEPROM/hal_eeprom.c: 22:     EECON1bits.CFGS = 0;
 13102   00337A  9CA6               	bcf	166,6,c	;volsfr
 13103   00337C                     
 13104                           ;MCAL_layer/EEPROM/hal_eeprom.c: 24:     EECON1bits.WREN = 1;
 13105   00337C  84A6               	bsf	166,2,c	;volsfr
 13106   00337E                     
 13107                           ;MCAL_layer/EEPROM/hal_eeprom.c: 26:     (INTCONbits.GIE = 0);
 13108   00337E  9EF2               	bcf	242,7,c	;volatile
 13109   003380                     
 13110                           ;MCAL_layer/EEPROM/hal_eeprom.c: 28:     EECON2 = 0x55;
 13111   003380  0E55               	movlw	85
 13112   003382  6EA7               	movwf	167,c	;volsfr
 13113   003384                     
 13114                           ;MCAL_layer/EEPROM/hal_eeprom.c: 29:     EECON2 = 0xAA;
 13115   003384  0EAA               	movlw	170
 13116   003386  6EA7               	movwf	167,c	;volsfr
 13117   003388                     
 13118                           ;MCAL_layer/EEPROM/hal_eeprom.c: 31:     EECON1bits.WR = 1;
 13119   003388  82A6               	bsf	166,1,c	;volsfr
 13120   00338A                     i2l382:
 13121                           
 13122                           ;MCAL_layer/EEPROM/hal_eeprom.c: 33:     while(EECON1bits.WR){
 13123   00338A  B2A6               	btfsc	166,1,c	;volsfr
 13124   00338C  EFCA  F019         	goto	i2u386_41
 13125   003390  EFCC  F019         	goto	i2u386_40
 13126   003394                     i2u386_41:
 13127   003394  EFC5  F019         	goto	i2l382
 13128   003398                     i2u386_40:
 13129   003398                     
 13130                           ;MCAL_layer/EEPROM/hal_eeprom.c: 37:     EECON1bits.WREN = 0;
 13131   003398  94A6               	bcf	166,2,c	;volsfr
 13132                           
 13133                           ;MCAL_layer/EEPROM/hal_eeprom.c: 39:     INTCONbits.GIE = GLOBAL_INTERRUPT_STATUS;
 13134   00339A  B004               	btfsc	i2Data_EEPROM_WriteByte@GLOBAL_INTERRUPT_STATUS^0,0,c
 13135   00339C  D002               	bra	i2u387_45
 13136   00339E  9EF2               	bcf	242,7,c	;volatile
 13137   0033A0  D001               	bra	i2u387_46
 13138   0033A2                     i2u387_45:
 13139   0033A2  8EF2               	bsf	242,7,c	;volatile
 13140   0033A4                     i2u387_46:
 13141   0033A4  0012               	return		;funcret
 13142   0033A6                     __end_ofi2_Data_EEPROM_WriteByte:
 13143                           	callstack 0
 13144                           
 13145                           	psect	text71
 13146   000000                     __ptext71:
 13147                           	callstack 0
 13148   000000                     
 13149                           	psect	rparam
 13150   000000                     
 13151                           	psect	temp
 13152   000057                     btemp:
 13153                           	callstack 0
 13154   000057                     	ds	1
 13155   000000                     int$flags	set	btemp
 13156   000000                     wtemp8	set	btemp+1
 13157   000000                     ttemp5	set	btemp+1
 13158   000000                     ttemp6	set	btemp+4
 13159   000000                     ttemp7	set	btemp+8
 13160                           
 13161                           	psect	config
 13162                           
 13163                           ; Padding undefined space
 13164   300000                     	org	3145728
 13165   300000  FF                 	db	255
 13166                           
 13167                           ;Config register CONFIG1H @ 0x300001
 13168                           ;	Oscillator Selection bits
 13169                           ;	OSC = EC, EC oscillator, CLKOUT function on RA6
 13170                           ;	Fail-Safe Clock Monitor Enable bit
 13171                           ;	FCMEN = OFF, Fail-Safe Clock Monitor disabled
 13172                           ;	Internal/External Oscillator Switchover bit
 13173                           ;	IESO = OFF, Oscillator Switchover mode disabled
 13174   300001                     	org	3145729
 13175   300001  04                 	db	4
 13176                           
 13177                           ;Config register CONFIG2L @ 0x300002
 13178                           ;	Power-up Timer Enable bit
 13179                           ;	PWRT = OFF, PWRT disabled
 13180                           ;	Brown-out Reset Enable bits
 13181                           ;	BOREN = OFF, Brown-out Reset disabled in hardware and software
 13182                           ;	Brown Out Reset Voltage bits
 13183                           ;	BORV = 1, 
 13184   300002                     	org	3145730
 13185   300002  09                 	db	9
 13186                           
 13187                           ;Config register CONFIG2H @ 0x300003
 13188                           ;	Watchdog Timer Enable bit
 13189                           ;	WDT = OFF, WDT disabled (control is placed on the SWDTEN bit)
 13190                           ;	Watchdog Timer Postscale Select bits
 13191                           ;	WDTPS = 32768, 1:32768
 13192   300003                     	org	3145731
 13193   300003  1E                 	db	30
 13194                           
 13195                           ; Padding undefined space
 13196   300004                     	org	3145732
 13197   300004  FF                 	db	255
 13198                           
 13199                           ;Config register CONFIG3H @ 0x300005
 13200                           ;	CCP2 MUX bit
 13201                           ;	CCP2MX = PORTC, CCP2 input/output is multiplexed with RC1
 13202                           ;	PORTB A/D Enable bit
 13203                           ;	PBADEN = OFF, PORTB<4:0> pins are configured as digital I/O on Reset
 13204                           ;	Low-Power Timer1 Oscillator Enable bit
 13205                           ;	LPT1OSC = OFF, Timer1 configured for higher power operation
 13206                           ;	MCLR Pin Enable bit
 13207                           ;	MCLRE = ON, MCLR pin enabled; RE3 input pin disabled
 13208   300005                     	org	3145733
 13209   300005  81                 	db	129
 13210                           
 13211                           ;Config register CONFIG4L @ 0x300006
 13212                           ;	Stack Full/Underflow Reset Enable bit
 13213                           ;	STVREN = ON, Stack full/underflow will cause Reset
 13214                           ;	Single-Supply ICSP Enable bit
 13215                           ;	LVP = OFF, Single-Supply ICSP disabled
 13216                           ;	Extended Instruction Set Enable bit
 13217                           ;	XINST = OFF, Instruction set extension and Indexed Addressing mode disabled (Legacy mo
      +                          de)
 13218                           ;	Background Debugger Enable bit
 13219                           ;	DEBUG = 0x1, unprogrammed default
 13220   300006                     	org	3145734
 13221   300006  81                 	db	129
 13222                           
 13223                           ; Padding undefined space
 13224   300007                     	org	3145735
 13225   300007  FF                 	db	255
 13226                           
 13227                           ;Config register CONFIG5L @ 0x300008
 13228                           ;	Code Protection bit
 13229                           ;	CP0 = OFF, Block 0 (000800-003FFFh) not code-protected
 13230                           ;	Code Protection bit
 13231                           ;	CP1 = OFF, Block 1 (004000-007FFFh) not code-protected
 13232                           ;	Code Protection bit
 13233                           ;	CP2 = OFF, Block 2 (008000-00BFFFh) not code-protected
 13234                           ;	Code Protection bit
 13235                           ;	CP3 = OFF, Block 3 (00C000-00FFFFh) not code-protected
 13236   300008                     	org	3145736
 13237   300008  0F                 	db	15
 13238                           
 13239                           ;Config register CONFIG5H @ 0x300009
 13240                           ;	Boot Block Code Protection bit
 13241                           ;	CPB = OFF, Boot block (000000-0007FFh) not code-protected
 13242                           ;	Data EEPROM Code Protection bit
 13243                           ;	CPD = OFF, Data EEPROM not code-protected
 13244   300009                     	org	3145737
 13245   300009  C0                 	db	192
 13246                           
 13247                           ;Config register CONFIG6L @ 0x30000A
 13248                           ;	Write Protection bit
 13249                           ;	WRT0 = OFF, Block 0 (000800-003FFFh) not write-protected
 13250                           ;	Write Protection bit
 13251                           ;	WRT1 = OFF, Block 1 (004000-007FFFh) not write-protected
 13252                           ;	Write Protection bit
 13253                           ;	WRT2 = OFF, Block 2 (008000-00BFFFh) not write-protected
 13254                           ;	Write Protection bit
 13255                           ;	WRT3 = OFF, Block 3 (00C000-00FFFFh) not write-protected
 13256   30000A                     	org	3145738
 13257   30000A  0F                 	db	15
 13258                           
 13259                           ;Config register CONFIG6H @ 0x30000B
 13260                           ;	Configuration Register Write Protection bit
 13261                           ;	WRTC = OFF, Configuration registers (300000-3000FFh) not write-protected
 13262                           ;	Boot Block Write Protection bit
 13263                           ;	WRTB = OFF, Boot Block (000000-0007FFh) not write-protected
 13264                           ;	Data EEPROM Write Protection bit
 13265                           ;	WRTD = OFF, Data EEPROM not write-protected
 13266   30000B                     	org	3145739
 13267   30000B  E0                 	db	224
 13268                           
 13269                           ;Config register CONFIG7L @ 0x30000C
 13270                           ;	Table Read Protection bit
 13271                           ;	EBTR0 = OFF, Block 0 (000800-003FFFh) not protected from table reads executed in other
      +                           blocks
 13272                           ;	Table Read Protection bit
 13273                           ;	EBTR1 = OFF, Block 1 (004000-007FFFh) not protected from table reads executed in other
      +                           blocks
 13274                           ;	Table Read Protection bit
 13275                           ;	EBTR2 = OFF, Block 2 (008000-00BFFFh) not protected from table reads executed in other
      +                           blocks
 13276                           ;	Table Read Protection bit
 13277                           ;	EBTR3 = OFF, Block 3 (00C000-00FFFFh) not protected from table reads executed in other
      +                           blocks
 13278   30000C                     	org	3145740
 13279   30000C  0F                 	db	15
 13280                           
 13281                           ;Config register CONFIG7H @ 0x30000D
 13282                           ;	Boot Block Table Read Protection bit
 13283                           ;	EBTRB = OFF, Boot Block (000000-0007FFh) not protected from table reads executed in ot
      +                          her blocks
 13284   30000D                     	org	3145741
 13285   30000D  40                 	db	64
 13286                           tosu	equ	0xFFF
 13287                           tosh	equ	0xFFE
 13288                           tosl	equ	0xFFD
 13289                           stkptr	equ	0xFFC
 13290                           pclatu	equ	0xFFB
 13291                           pclath	equ	0xFFA
 13292                           pcl	equ	0xFF9
 13293                           tblptru	equ	0xFF8
 13294                           tblptrh	equ	0xFF7
 13295                           tblptrl	equ	0xFF6
 13296                           tablat	equ	0xFF5
 13297                           prodh	equ	0xFF4
 13298                           prodl	equ	0xFF3
 13299                           indf0	equ	0xFEF
 13300                           postinc0	equ	0xFEE
 13301                           postdec0	equ	0xFED
 13302                           preinc0	equ	0xFEC
 13303                           plusw0	equ	0xFEB
 13304                           fsr0h	equ	0xFEA
 13305                           fsr0l	equ	0xFE9
 13306                           wreg	equ	0xFE8
 13307                           indf1	equ	0xFE7
 13308                           postinc1	equ	0xFE6
 13309                           postdec1	equ	0xFE5
 13310                           preinc1	equ	0xFE4
 13311                           plusw1	equ	0xFE3
 13312                           fsr1h	equ	0xFE2
 13313                           fsr1l	equ	0xFE1
 13314                           bsr	equ	0xFE0
 13315                           indf2	equ	0xFDF
 13316                           postinc2	equ	0xFDE
 13317                           postdec2	equ	0xFDD
 13318                           preinc2	equ	0xFDC
 13319                           plusw2	equ	0xFDB
 13320                           fsr2h	equ	0xFDA
 13321                           fsr2l	equ	0xFD9
 13322                           status	equ	0xFD8

Data Sizes:
    Strings     278
    Constant    0
    Data        78
    BSS         106
    Persistent  0
    Stack       0

Auto Spaces:
    Space          Size  Autos    Used
    COMRAM          126     41      86
    BANK0           128     42     123
    BANK1           256     36      94
    BANK2           256      0       0
    BANK3           256      0       0
    BANK4           256      0       0
    BANK5           256      0       0
    BANK6           256      0       0
    BANK7           256      0       0
    BANK8           256      0       0
    BANK9           256      0       0
    BANK10          256      0       0
    BANK11          256      0       0
    BANK12          256      0       0
    BANK13          256      0       0
    BANK14          256      0       0
    BANK15          128      0       0

Pointer List with Targets:

    change_password@new_pass	PTR unsigned char  size(1) Largest target is 8
		 -> password(BANK0[8]), 

    change_password@new_pass_confirm	PTR unsigned char  size(1) Largest target is 8
		 -> password_confirm(BANK0[8]), 

    change_password@new_pass_confirm_Digits	PTR unsigned char  size(2) Largest target is 4095
		 -> RAM(DATA[4095]), 

    change_password@new_pass_Digits	PTR unsigned char  size(2) Largest target is 4095
		 -> RAM(DATA[4095]), 

    change_password@old_pass	PTR unsigned char  size(1) Largest target is 8
		 -> entered_password(BANK0[8]), 

    change_password@old_pass_didits	PTR unsigned char  size(2) Largest target is 4095
		 -> RAM(DATA[4095]), 

    change_password@stored_password	PTR unsigned char  size(1) Largest target is 8
		 -> stored_password(BANK0[8]), 

    change_password@stored_password_digits	PTR unsigned char  size(2) Largest target is 4095
		 -> RAM(DATA[4095]), 

    check_entered_password@entered_pass	PTR unsigned char  size(1) Largest target is 8
		 -> entered_password(BANK0[8]), 

    check_entered_password@entered_pass_digits	PTR unsigned char  size(2) Largest target is 4095
		 -> enterd_pass_num_digits(BANK0[1]), RAM(DATA[4095]), 

    check_entered_password@result	PTR unsigned char  size(2) Largest target is 1
		 -> change_password@comparing_result(BANK0[1]), entering_password@comparing_result(BANK1[1]), 

    check_entered_password@stored_pass	PTR unsigned char  size(1) Largest target is 8
		 -> stored_password(BANK0[8]), 

    check_entered_password@stored_pass_digits	PTR unsigned char  size(2) Largest target is 4095
		 -> RAM(DATA[4095]), stored_pass_num_digits(BANK0[1]), 

    comparing_password@pass	PTR unsigned char  size(1) Largest target is 8
		 -> password(BANK0[8]), 

    comparing_password@pass_confirm	PTR unsigned char  size(1) Largest target is 8
		 -> password_confirm(BANK0[8]), 

    comparing_password@pass_confirm_digits	PTR unsigned char  size(2) Largest target is 4095
		 -> pass_confirm_num_digits(BANK0[1]), RAM(DATA[4095]), 

    comparing_password@pass_digits	PTR unsigned char  size(2) Largest target is 4095
		 -> pass_num_digits(BANK0[1]), RAM(DATA[4095]), 

    comparing_password@result	PTR unsigned char  size(1) Largest target is 1
		 -> password_confirmation@comparing_result(BANK0[1]), 

    convert_byte_to_string@str	PTR unsigned char  size(2) Largest target is 4
		 -> entering_password@str(BANK1[4]), 

    Data_EEPROM_ReadByte@bData	PTR unsigned char  size(1) Largest target is 8
		 -> pass_check(BANK0[1]), stored_password(BANK0[8]), 

    ecu_dc_motor_initialize@dc_motor	PTR const struct . size(1) Largest target is 2
		 -> motor1(COMRAM[2]), 

    ecu_dc_motor_move_left@dc_motor	PTR const struct . size(1) Largest target is 2
		 -> motor1(COMRAM[2]), 

    ecu_dc_motor_stop@dc_motor	PTR const struct . size(1) Largest target is 2
		 -> motor1(COMRAM[2]), 

    ecu_keypad_get_value@keypad	PTR const struct . size(1) Largest target is 8
		 -> keypad(BANK0[8]), 

    ecu_keypad_get_value@value	PTR unsigned char  size(1) Largest target is 1
		 -> keypad_value(BANK0[1]), 

    ecu_keypad_initialize@keypad	PTR const struct . size(1) Largest target is 8
		 -> keypad(BANK0[8]), 

    ecu_led_initialize@led	PTR const struct . size(1) Largest target is 1
		 -> green_led(COMRAM[1]), red_led(COMRAM[1]), 

    ecu_led_turn_off@led	PTR const struct . size(1) Largest target is 1
		 -> green_led(COMRAM[1]), red_led(COMRAM[1]), 

    ecu_led_turn_on@led	PTR const struct . size(1) Largest target is 1
		 -> green_led(COMRAM[1]), red_led(COMRAM[1]), 

    entering_password@pass_entered	PTR unsigned char  size(1) Largest target is 8
		 -> entered_password(BANK0[8]), 

    entering_password@pass_entered_didits	PTR unsigned char  size(1) Largest target is 1
		 -> enterd_pass_num_digits(BANK0[1]), 

    entering_password@stored_password	PTR unsigned char  size(1) Largest target is 8
		 -> stored_password(BANK0[8]), 

    entering_password@stored_password_digits	PTR unsigned char  size(1) Largest target is 1
		 -> stored_pass_num_digits(BANK0[1]), 

    entering_password@user_statue	PTR unsigned char  size(1) Largest target is 1
		 -> user_statue(BANK0[1]), 

    f$.$buffer	PTR unsigned char  size(2) Largest target is 0

    f$.$source	PTR const unsigned char  size(2) Largest target is 0

    fputc@fp	PTR struct _IO_FILE size(2) Largest target is 12
		 -> sprintf@f(BANK1[12]), 

    fputc@fp$.$buffer	PTR unsigned char  size(2) Largest target is 0

    fputc@fp$.$source	PTR const unsigned char  size(2) Largest target is 0

    get_password@pass	PTR unsigned char  size(1) Largest target is 8
		 -> password(BANK0[8]), 

    get_password@pass_didits	PTR unsigned char  size(2) Largest target is 4095
		 -> pass_num_digits(BANK0[1]), RAM(DATA[4095]), 

    gpio_pin_direction_initialize@_pin_config	PTR const struct . size(1) Largest target is 8
		 -> buzzer(COMRAM[1]), ecu_led_initialize@led_pin(BANK0[1]), ecu_relay_initialize@relay_pin(COMRAM[1]), INT_obj(BANK0[6]), 
		 -> keypad(BANK0[8]), keypad$keypad_columns_pins(BANK0[4]), keypad$keypad_rows_pins(BANK0[4]), lcd1(COMRAM[6]), 
		 -> lcd1$data(COMRAM[4]), motor1(COMRAM[2]), motor1$dc_motor_pin(COMRAM[2]), 

    gpio_pin_initialize@_pin_config	PTR const struct . size(1) Largest target is 8
		 -> buzzer(COMRAM[1]), ecu_led_initialize@led_pin(BANK0[1]), ecu_relay_initialize@relay_pin(COMRAM[1]), keypad(BANK0[8]), 
		 -> keypad$keypad_rows_pins(BANK0[4]), lcd1(COMRAM[6]), lcd1$data(COMRAM[4]), motor1(COMRAM[2]), 
		 -> motor1$dc_motor_pin(COMRAM[2]), 

    gpio_pin_read_logic@_pin_config	PTR const struct . size(1) Largest target is 8
		 -> keypad(BANK0[8]), keypad$keypad_columns_pins(BANK0[4]), 

    gpio_pin_read_logic@logic	PTR enum E2979 size(1) Largest target is 1
		 -> ecu_button_read_state@btn_logic(COMRAM[1]), ecu_keypad_get_value@column_val(BANK0[1]), 

    gpio_pin_write_logic@_pin_config	PTR const struct . size(1) Largest target is 8
		 -> buzzer(COMRAM[1]), ecu_led_initialize@led_pin(BANK0[1]), ecu_led_turn_off@led_pin(BANK0[1]), ecu_led_turn_on@led_pin(BANK0[1]), 
		 -> ecu_relay_initialize@relay_pin(COMRAM[1]), ecu_relay_off@relay_pin(COMRAM[1]), ecu_relay_on@relay_pin(COMRAM[1]), keypad(BANK0[8]), 
		 -> keypad$keypad_rows_pins(BANK0[4]), lcd1(COMRAM[6]), lcd1$data(COMRAM[4]), motor1(COMRAM[2]), 
		 -> motor1$dc_motor_pin(COMRAM[2]), 

    INT0_INTERRUPT_HANDLER	PTR FTN()void  size(2) Largest target is 1
		 -> INT0_app_ISR(), NULL(), 

    INT0_SET_INTERRUPT_HANDLER@INTERRUPT_HANDLER	PTR FTN()void  size(2) Largest target is 1
		 -> INT0_app_ISR(), 

    INT1_INTERRUPT_HANDLER	PTR FTN()void  size(2) Largest target is 1
		 -> INT0_app_ISR(), NULL(), 

    INT1_SET_INTERRUPT_HANDLER@INTERRUPT_HANDLER	PTR FTN()void  size(2) Largest target is 1
		 -> INT0_app_ISR(), 

    INT2_INTERRUPT_HANDLER	PTR FTN()void  size(2) Largest target is 1
		 -> INT0_app_ISR(), NULL(), 

    INT2_SET_INTERRUPT_HANDLER@INTERRUPT_HANDLER	PTR FTN()void  size(2) Largest target is 1
		 -> INT0_app_ISR(), 

    INT_obj$EXT_Interrupr_Handler	PTR FTN()void  size(2) Largest target is 1
		 -> INT0_app_ISR(), 

    INTERRUPT_INTx_clear_flag@int_obj	PTR const struct . size(1) Largest target is 6
		 -> INT_obj(BANK0[6]), 

    INTERRUPT_INTx_clear_flag@int_obj$EXT_Interrupr_Handler	PTR FTN()void  size(2) Largest target is 1
		 -> INT0_app_ISR(), 

    INTERRUPT_INTx_disable@int_obj	PTR const struct . size(1) Largest target is 6
		 -> INT_obj(BANK0[6]), 

    INTERRUPT_INTx_disable@int_obj$EXT_Interrupr_Handler	PTR FTN()void  size(2) Largest target is 1
		 -> INT0_app_ISR(), 

    INTERRUPT_INTx_edge_int@int_obj	PTR const struct . size(1) Largest target is 6
		 -> INT_obj(BANK0[6]), 

    INTERRUPT_INTx_edge_int@int_obj$EXT_Interrupr_Handler	PTR FTN()void  size(2) Largest target is 1
		 -> INT0_app_ISR(), 

    INTERRUPT_INTx_enable@int_obj	PTR const struct . size(1) Largest target is 6
		 -> INT_obj(BANK0[6]), 

    INTERRUPT_INTx_enable@int_obj$EXT_Interrupr_Handler	PTR FTN()void  size(2) Largest target is 1
		 -> INT0_app_ISR(), 

    Interrupt_INTx_Init@int_obj	PTR const struct . size(1) Largest target is 6
		 -> INT_obj(BANK0[6]), 

    INTERRUPT_INTx_pin_int@int_obj	PTR const struct . size(1) Largest target is 6
		 -> INT_obj(BANK0[6]), 

    INTERRUPT_INTx_pin_int@int_obj$EXT_Interrupr_Handler	PTR FTN()void  size(2) Largest target is 1
		 -> INT0_app_ISR(), 

    INTERRUPT_INTx_priority_int@int_obj$EXT_Interrupr_Handler	PTR FTN()void  size(2) Largest target is 1
		 -> INT0_app_ISR(), 

    Interrupt_RBx_Init@RB_obj$EXT_Interrupr_Handler_HIGH	PTR FTN()void  size(2) Largest target is 0

    Interrupt_RBx_Init@RB_obj$EXT_Interrupr_Handler_LOW	PTR FTN()void  size(2) Largest target is 0

    INTERRUPT_RBx_pin_int@RB_obj$EXT_Interrupr_Handler_HIGH	PTR FTN()void  size(2) Largest target is 0

    INTERRUPT_RBx_pin_int@RB_obj$EXT_Interrupr_Handler_LOW	PTR FTN()void  size(2) Largest target is 0

    INTERRUPT_RBx_priority_int@RB_obj$EXT_Interrupr_Handler_HIGH	PTR FTN()void  size(2) Largest target is 0

    INTERRUPT_RBx_priority_int@RB_obj$EXT_Interrupr_Handler_LOW	PTR FTN()void  size(2) Largest target is 0

    INTERRUPT_SET_INTERRUPT_HANDLER@int_obj	PTR const struct . size(1) Largest target is 6
		 -> INT_obj(BANK0[6]), 

    INTERRUPT_SET_INTERRUPT_HANDLER@int_obj$EXT_Interrupr_Handler	PTR FTN()void  size(2) Largest target is 1
		 -> INT0_app_ISR(), 

    lat_registers	PTR volatile unsigned char [5] size(2) Largest target is 1
		 -> LATA(BITBIGSFRlllll[1]), LATB(BITBIGSFRllllh[1]), LATC(BITBIGSFRllllh[1]), LATD(BITBIGSFRllllh[1]), 
		 -> LATE(BITBIGSFRllllh[1]), 

    lcd_4bit_initialize@lcd	PTR const struct . size(1) Largest target is 6
		 -> lcd1(COMRAM[6]), 

    lcd_4bit_send_char_data@lcd	PTR const struct . size(1) Largest target is 6
		 -> lcd1(COMRAM[6]), 

    lcd_4bit_send_char_data_pos@lcd	PTR const struct . size(1) Largest target is 6
		 -> lcd1(COMRAM[6]), 

    lcd_4bit_send_command@lcd	PTR const struct . size(1) Largest target is 6
		 -> lcd1(COMRAM[6]), 

    lcd_4bit_send_enable_enable@lcd	PTR const struct . size(1) Largest target is 6
		 -> lcd1(COMRAM[6]), 

    lcd_4bit_send_string_pos@lcd	PTR const struct . size(1) Largest target is 6
		 -> lcd1(COMRAM[6]), 

    lcd_4bit_send_string_pos@str	PTR unsigned char  size(2) Largest target is 22
		 -> entering_password@str(BANK1[4]), STR_10(CODE[20]), STR_11(CODE[21]), STR_12(CODE[22]), 
		 -> STR_13(CODE[18]), STR_14(CODE[19]), STR_15(CODE[21]), STR_16(CODE[22]), 
		 -> STR_17(CODE[8]), STR_18(CODE[14]), STR_19(CODE[2]), STR_20(CODE[21]), 
		 -> STR_21(CODE[22]), STR_22(CODE[14]), STR_23(CODE[22]), STR_24(CODE[21]), 
		 -> STR_25(CODE[22]), STR_26(CODE[14]), STR_27(CODE[22]), STR_28(CODE[22]), 
		 -> STR_29(CODE[2]), STR_30(CODE[21]), STR_31(CODE[22]), STR_32(CODE[14]), 
		 -> STR_33(CODE[22]), STR_34(CODE[15]), STR_35(CODE[22]), STR_36(CODE[16]), 
		 -> STR_37(CODE[22]), STR_38(CODE[21]), STR_39(CODE[22]), STR_4(CODE[22]), 
		 -> STR_40(CODE[14]), STR_41(CODE[22]), STR_42(CODE[21]), STR_43(CODE[2]), 
		 -> STR_44(CODE[21]), STR_45(CODE[22]), STR_46(CODE[14]), STR_47(CODE[22]), 
		 -> STR_48(CODE[17]), STR_49(CODE[22]), STR_5(CODE[2]), STR_50(CODE[16]), 
		 -> STR_51(CODE[3]), STR_52(CODE[22]), STR_53(CODE[4]), STR_54(CODE[21]), 
		 -> STR_55(CODE[22]), STR_56(CODE[14]), STR_57(CODE[22]), STR_58(CODE[17]), 
		 -> STR_59(CODE[2]), STR_6(CODE[2]), STR_60(CODE[21]), STR_61(CODE[22]), 
		 -> STR_62(CODE[14]), STR_63(CODE[22]), STR_64(CODE[16]), STR_65(CODE[22]), 
		 -> STR_66(CODE[21]), STR_67(CODE[22]), STR_68(CODE[14]), STR_69(CODE[22]), 
		 -> STR_7(CODE[2]), STR_8(CODE[2]), STR_9(CODE[2]), 

    lcd_4bit_set_curser@lcd	PTR const struct . size(1) Largest target is 6
		 -> lcd1(COMRAM[6]), 

    lcd_send_4bit@lcd	PTR const struct . size(1) Largest target is 6
		 -> lcd1(COMRAM[6]), 

    memset@dest	PTR void  size(2) Largest target is 4
		 -> entering_password@str(BANK1[4]), 

    memset@p	PTR unsigned char  size(2) Largest target is 4
		 -> entering_password@str(BANK1[4]), 

    password_confirmation@pass	PTR unsigned char  size(1) Largest target is 8
		 -> password(BANK0[8]), 

    password_confirmation@pass_confirm	PTR unsigned char  size(1) Largest target is 8
		 -> password_confirm(BANK0[8]), 

    password_confirmation@pass_confirm_didits	PTR unsigned char  size(2) Largest target is 4095
		 -> pass_confirm_num_digits(BANK0[1]), RAM(DATA[4095]), 

    password_confirmation@pass_didits	PTR unsigned char  size(2) Largest target is 4095
		 -> pass_num_digits(BANK0[1]), RAM(DATA[4095]), 

    port_registers	PTR volatile unsigned char [5] size(2) Largest target is 1
		 -> PORTA(BITBIGSFRlllll[1]), PORTB(BITBIGSFRlllll[1]), PORTC(BITBIGSFRlllll[1]), PORTD(BITBIGSFRlllll[1]), 
		 -> PORTE(BITBIGSFRlllll[1]), 

    RB4_INTERRUPT_HANDLER_HIGH	PTR FTN()void  size(2) Largest target is 1
		 -> NULL(), 

    RB4_INTERRUPT_HANDLER_LOW	PTR FTN()void  size(2) Largest target is 1
		 -> NULL(), 

    RB5_INTERRUPT_HANDLER_HIGH	PTR FTN()void  size(2) Largest target is 1
		 -> NULL(), 

    RB5_INTERRUPT_HANDLER_LOW	PTR FTN()void  size(2) Largest target is 1
		 -> NULL(), 

    RB6_INTERRUPT_HANDLER_HIGH	PTR FTN()void  size(2) Largest target is 1
		 -> NULL(), 

    RB6_INTERRUPT_HANDLER_LOW	PTR FTN()void  size(2) Largest target is 1
		 -> NULL(), 

    RB7_INTERRUPT_HANDLER_HIGH	PTR FTN()void  size(2) Largest target is 1
		 -> NULL(), 

    RB7_INTERRUPT_HANDLER_LOW	PTR FTN()void  size(2) Largest target is 1
		 -> NULL(), 

    S1122$EXT_Interrupr_Handler_HIGH	PTR FTN()void  size(2) Largest target is 0

    S1122$EXT_Interrupr_Handler_LOW	PTR FTN()void  size(2) Largest target is 0

    S2312$buffer	PTR unsigned char  size(2) Largest target is 0

    S2312$source	PTR const unsigned char  size(2) Largest target is 0

    S682$EXT_Interrupr_Handler	PTR FTN()void  size(2) Largest target is 1
		 -> INT0_app_ISR(), 

    save_password@pass	PTR unsigned char  size(1) Largest target is 8
		 -> password(BANK0[8]), 

    sp__memset	PTR void  size(2) Largest target is 4
		 -> entering_password@str(BANK1[4]), 

    sprintf@ap	PTR void [1] size(1) Largest target is 2
		 -> ?_sprintf(BANK0[2]), 

    sprintf@fmt	PTR const unsigned char  size(2) Largest target is 3
		 -> STR_1(CODE[3]), STR_2(CODE[3]), STR_3(CODE[3]), 

    sprintf@s	PTR unsigned char  size(2) Largest target is 4
		 -> entering_password@str(BANK1[4]), 

    tris_registers	PTR volatile unsigned char [5] size(2) Largest target is 1
		 -> TRISA(BITBIGSFRlllll[1]), TRISB(BITBIGSFRlllh[1]), TRISC(BITBIGSFRlllh[1]), TRISD(BITBIGSFRlllh[1]), 
		 -> TRISE(BITBIGSFRlllh[1]), 

    vfpfcnvrt@ap	PTR PTR void  size(2) Largest target is 1
		 -> sprintf@ap(BANK1[1]), 

    vfpfcnvrt@cp	PTR unsigned char  size(2) Largest target is 3
		 -> STR_1(CODE[3]), STR_2(CODE[3]), STR_3(CODE[3]), 

    vfpfcnvrt@fmt	PTR PTR unsigned char  size(1) Largest target is 2
		 -> vfprintf@cfmt(BANK0[2]), 

    vfpfcnvrt@fp	PTR struct _IO_FILE size(2) Largest target is 12
		 -> sprintf@f(BANK1[12]), 

    vfprintf@ap	PTR PTR void  size(2) Largest target is 1
		 -> sprintf@ap(BANK1[1]), 

    vfprintf@cfmt	PTR unsigned char  size(2) Largest target is 3
		 -> STR_1(CODE[3]), STR_2(CODE[3]), STR_3(CODE[3]), 

    vfprintf@fmt	PTR const unsigned char  size(2) Largest target is 3
		 -> STR_1(CODE[3]), STR_2(CODE[3]), STR_3(CODE[3]), 

    vfprintf@fp	PTR struct _IO_FILE size(2) Largest target is 12
		 -> sprintf@f(BANK1[12]), 


Critical Paths under _main in COMRAM

    None.

Critical Paths under _INTERRUPT_MANAGER_HIGH in COMRAM

    _INT2_ISR->_INT0_app_ISR
    _INT1_ISR->_INT0_app_ISR
    _INT0_ISR->_INT0_app_ISR
    _INT0_app_ISR->i2_lcd_4bit_send_string_pos
    i2_lcd_4bit_send_string_pos->i2_lcd_4bit_set_curser
    i2_lcd_4bit_set_curser->i2_lcd_4bit_send_command
    i2_lcd_4bit_send_command->i2_lcd_send_4bit
    i2_lcd_4bit_send_char_data->i2_lcd_send_4bit
    i2_lcd_send_4bit->i2_gpio_pin_write_logic
    i2_lcd_4bit_send_enable_enable->i2_gpio_pin_write_logic

Critical Paths under _main in BANK0

    _main->_entering_password
    _welcome_msg->_lcd_4bit_send_string_pos
    _entering_password->_convert_byte_to_string
    _convert_byte_to_string->_sprintf
    _sprintf->_vfprintf
    _vfprintf->_vfpfcnvrt
    _vfpfcnvrt->_abs
    _abs->___awmod
    _ecu_led_turn_on->_gpio_pin_write_logic
    _ecu_led_turn_off->_gpio_pin_write_logic
    _ecu_dc_motor_stop->_gpio_pin_write_logic
    _ecu_dc_motor_move_left->_gpio_pin_write_logic
    _change_password->_password_confirmation
    _password_confirmation->_lcd_4bit_send_char_data_pos
    _password_confirmation->_lcd_4bit_send_string_pos
    _save_password->_Data_EEPROM_WriteByte
    _get_password->_lcd_4bit_send_char_data_pos
    _get_password->_lcd_4bit_send_string_pos
    _lcd_4bit_send_string_pos->_lcd_4bit_set_curser
    _lcd_4bit_send_char_data_pos->_lcd_4bit_set_curser
    _lcd_4bit_set_curser->_lcd_4bit_send_command
    _lcd_4bit_send_char_data->_lcd_send_4bit
    _ecu_keypad_get_value->_gpio_pin_write_logic
    _check_entered_password->_Data_EEPROM_ReadByte
    _ecu_layer_Initialization->_lcd_4bit_initialize
    _lcd_4bit_initialize->_lcd_4bit_send_command
    _lcd_4bit_send_command->_lcd_send_4bit
    _lcd_send_4bit->_gpio_pin_write_logic
    _lcd_4bit_send_enable_enable->_gpio_pin_write_logic
    _ecu_led_initialize->_gpio_pin_initialize
    _ecu_keypad_initialize->_gpio_pin_initialize
    _ecu_dc_motor_initialize->_gpio_pin_initialize
    _gpio_pin_initialize->_gpio_pin_write_logic
    _Interrupt_INTx_Init->_INTERRUPT_INTx_pin_int
    _INTERRUPT_SET_INTERRUPT_HANDLER->_INT0_SET_INTERRUPT_HANDLER
    _INTERRUPT_SET_INTERRUPT_HANDLER->_INT1_SET_INTERRUPT_HANDLER
    _INTERRUPT_SET_INTERRUPT_HANDLER->_INT2_SET_INTERRUPT_HANDLER
    _INTERRUPT_INTx_pin_int->_gpio_pin_direction_initialize

Critical Paths under _INTERRUPT_MANAGER_HIGH in BANK0

    None.

Critical Paths under _main in BANK1

    _main->_entering_password
    _entering_password->_convert_byte_to_string
    _convert_byte_to_string->_sprintf

Critical Paths under _INTERRUPT_MANAGER_HIGH in BANK1

    None.

Critical Paths under _main in BANK2

    None.

Critical Paths under _INTERRUPT_MANAGER_HIGH in BANK2

    None.

Critical Paths under _main in BANK3

    None.

Critical Paths under _INTERRUPT_MANAGER_HIGH in BANK3

    None.

Critical Paths under _main in BANK4

    None.

Critical Paths under _INTERRUPT_MANAGER_HIGH in BANK4

    None.

Critical Paths under _main in BANK5

    None.

Critical Paths under _INTERRUPT_MANAGER_HIGH in BANK5

    None.

Critical Paths under _main in BANK6

    None.

Critical Paths under _INTERRUPT_MANAGER_HIGH in BANK6

    None.

Critical Paths under _main in BANK7

    None.

Critical Paths under _INTERRUPT_MANAGER_HIGH in BANK7

    None.

Critical Paths under _main in BANK8

    None.

Critical Paths under _INTERRUPT_MANAGER_HIGH in BANK8

    None.

Critical Paths under _main in BANK9

    None.

Critical Paths under _INTERRUPT_MANAGER_HIGH in BANK9

    None.

Critical Paths under _main in BANK10

    None.

Critical Paths under _INTERRUPT_MANAGER_HIGH in BANK10

    None.

Critical Paths under _main in BANK11

    None.

Critical Paths under _INTERRUPT_MANAGER_HIGH in BANK11

    None.

Critical Paths under _main in BANK12

    None.

Critical Paths under _INTERRUPT_MANAGER_HIGH in BANK12

    None.

Critical Paths under _main in BANK13

    None.

Critical Paths under _INTERRUPT_MANAGER_HIGH in BANK13

    None.

Critical Paths under _main in BANK14

    None.

Critical Paths under _INTERRUPT_MANAGER_HIGH in BANK14

    None.

Critical Paths under _main in BANK15

    None.

Critical Paths under _INTERRUPT_MANAGER_HIGH in BANK15

    None.

Call Graph Tables:

 ---------------------------------------------------------------------------------
 (Depth) Function   	        Calls       Base Space   Used Autos Params    Refs
 ---------------------------------------------------------------------------------
 (0) _main                                                 9     9      0 1754775
                                             28 BANK1      8     8      0
         _Application_Initialization
               _Data_EEPROM_ReadByte
                    _change_password
             _ecu_dc_motor_move_left
                  _ecu_dc_motor_stop
               _ecu_keypad_get_value
                   _ecu_led_turn_off
                    _ecu_led_turn_on
                  _entering_password
                       _get_password
               _gpio_pin_write_logic
                     _initialize_var
           _lcd_4bit_send_string_pos
              _password_confirmation
                        _welcome_msg
 ---------------------------------------------------------------------------------
 (1) _welcome_msg                                          2     2      0  134783
                                             25 BANK0      2     2      0
              _lcd_4bit_send_command
           _lcd_4bit_send_string_pos
 ---------------------------------------------------------------------------------
 (1) _initialize_var                                       0     0      0       0
 ---------------------------------------------------------------------------------
 (1) _entering_password                                   15    10      5  237678
                                             40 BANK0      2     2      0
                                             15 BANK1     13     8      5
             _check_entered_password
             _convert_byte_to_string
               _ecu_keypad_get_value
        _lcd_4bit_send_char_data_pos
              _lcd_4bit_send_command
           _lcd_4bit_send_string_pos
 ---------------------------------------------------------------------------------
 (2) _convert_byte_to_string                               4     2      2    9808
                                             39 BANK0      1     1      0
                                             13 BANK1      2     0      2
                             _memset
                            _sprintf
 ---------------------------------------------------------------------------------
 (3) _sprintf                                             21    15      6    7728
                                             33 BANK0      6     0      6
                                              0 BANK1     13    13      0
                           _vfprintf
 ---------------------------------------------------------------------------------
 (4) _vfprintf                                             8     2      6    6365
                                             25 BANK0      8     2      6
                          _vfpfcnvrt
 ---------------------------------------------------------------------------------
 (5) _vfpfcnvrt                                           15    10      5    5598
                                             10 BANK0     15    10      5
                            ___awdiv
                            ___awmod
                                _abs
                              _fputc
 ---------------------------------------------------------------------------------
 (6) _fputc                                                9     5      4    1391
                                              0 BANK0      9     5      4
                              _putch
 ---------------------------------------------------------------------------------
 (7) _putch                                                1     1      0       0
 ---------------------------------------------------------------------------------
 (6) _abs                                                  4     2      2     289
                                              6 BANK0      4     2      2
                            ___awmod (ARG)
 ---------------------------------------------------------------------------------
 (6) ___awmod                                              6     2      4    1063
                                              0 BANK0      6     2      4
 ---------------------------------------------------------------------------------
 (6) ___awdiv                                              8     4      4    1103
                                              0 BANK0      8     4      4
 ---------------------------------------------------------------------------------
 (3) _memset                                               8     2      6    1616
                                              0 BANK0      8     2      6
 ---------------------------------------------------------------------------------
 (1) _ecu_led_turn_on                                      4     3      1    9356
                                              8 BANK0      3     2      1
               _gpio_pin_write_logic
 ---------------------------------------------------------------------------------
 (1) _ecu_led_turn_off                                     4     3      1    9356
                                              8 BANK0      3     2      1
               _gpio_pin_write_logic
 ---------------------------------------------------------------------------------
 (1) _ecu_dc_motor_stop                                    2     1      1    8972
                                              8 BANK0      1     0      1
               _gpio_pin_write_logic
 ---------------------------------------------------------------------------------
 (1) _ecu_dc_motor_move_left                               2     1      1    8972
                                              8 BANK0      1     0      1
               _gpio_pin_write_logic
 ---------------------------------------------------------------------------------
 (1) _change_password                                     17     5     12  675861
                                             36 BANK0      5     5      0
                                              0 BANK1     12     0     12
             _check_entered_password
               _ecu_keypad_get_value
                       _get_password
        _lcd_4bit_send_char_data_pos
              _lcd_4bit_send_command
           _lcd_4bit_send_string_pos
              _password_confirmation
 ---------------------------------------------------------------------------------
 (1) _password_confirmation                               11     5      6  225623
                                             25 BANK0     11     5      6
                 _comparing_password
               _ecu_keypad_get_value
        _lcd_4bit_send_char_data_pos
              _lcd_4bit_send_command
           _lcd_4bit_send_string_pos
                      _save_password
 ---------------------------------------------------------------------------------
 (2) _save_password                                        2     1      1    1056
                                              4 BANK0      2     1      1
              _Data_EEPROM_WriteByte
 ---------------------------------------------------------------------------------
 (3) _Data_EEPROM_WriteByte                                5     2      3     627
                                              0 BANK0      4     1      3
 ---------------------------------------------------------------------------------
 (2) _comparing_password                                  10     3      7    1190
                                              0 BANK0     10     3      7
 ---------------------------------------------------------------------------------
 (1) _get_password                                         7     4      3  222426
                                             25 BANK0      7     4      3
               _ecu_keypad_get_value
        _lcd_4bit_send_char_data_pos
              _lcd_4bit_send_command
           _lcd_4bit_send_string_pos
 ---------------------------------------------------------------------------------
 (2) _lcd_4bit_send_string_pos                             6     1      5   99072
                                             20 BANK0      5     0      5
            _lcd_4bit_send_char_data
                _lcd_4bit_set_curser
 ---------------------------------------------------------------------------------
 (2) _lcd_4bit_send_char_data_pos                          5     1      4   74181
                                             20 BANK0      5     1      4
            _lcd_4bit_send_char_data
                _lcd_4bit_set_curser
 ---------------------------------------------------------------------------------
 (3) _lcd_4bit_set_curser                                  6     3      3   37065
                                             14 BANK0      6     3      3
              _lcd_4bit_send_command
 ---------------------------------------------------------------------------------
 (3) _lcd_4bit_send_char_data                              3     1      2   29747
                                             11 BANK0      3     1      2
               _gpio_pin_write_logic
        _lcd_4bit_send_enable_enable
                      _lcd_send_4bit
 ---------------------------------------------------------------------------------
 (2) _ecu_keypad_get_value                                 9     7      2   12246
                                              8 BANK0      8     6      2
                _gpio_pin_read_logic
               _gpio_pin_write_logic
 ---------------------------------------------------------------------------------
 (3) _gpio_pin_read_logic                                  8     6      2     855
                                              0 BANK0      7     5      2
 ---------------------------------------------------------------------------------
 (2) _check_entered_password                              12     4      8    3575
                                              3 BANK0     12     4      8
               _Data_EEPROM_ReadByte
 ---------------------------------------------------------------------------------
 (3) _Data_EEPROM_ReadByte                                 4     1      3     745
                                              0 BANK0      3     0      3
 ---------------------------------------------------------------------------------
 (1) _Application_Initialization                           0     0      0  101016
           _ecu_layer_Initialization
 ---------------------------------------------------------------------------------
 (2) _ecu_layer_Initialization                             0     0      0  101016
                _Interrupt_INTx_Init
            _ecu_dc_motor_initialize
              _ecu_keypad_initialize
                 _ecu_led_initialize
                _gpio_pin_initialize
                _lcd_4bit_initialize
 ---------------------------------------------------------------------------------
 (3) _lcd_4bit_initialize                                  4     3      1   48609
                                             14 BANK0      4     3      1
                _gpio_pin_initialize
              _lcd_4bit_send_command
 ---------------------------------------------------------------------------------
 (4) _lcd_4bit_send_command                                3     1      2   35711
                                             11 BANK0      3     1      2
               _gpio_pin_write_logic
        _lcd_4bit_send_enable_enable
                      _lcd_send_4bit
 ---------------------------------------------------------------------------------
 (5) _lcd_send_4bit                                        3     1      2   10191
                                              8 BANK0      3     1      2
               _gpio_pin_write_logic
 ---------------------------------------------------------------------------------
 (5) _lcd_4bit_send_enable_enable                          2     1      1    9345
                                              8 BANK0      2     1      1
               _gpio_pin_write_logic
 ---------------------------------------------------------------------------------
 (3) _ecu_led_initialize                                   4     3      1   12491
                                             11 BANK0      3     2      1
                _gpio_pin_initialize
 ---------------------------------------------------------------------------------
 (3) _ecu_keypad_initialize                                4     3      1   13110
                                             11 BANK0      3     2      1
      _gpio_pin_direction_initialize
                _gpio_pin_initialize
 ---------------------------------------------------------------------------------
 (3) _ecu_dc_motor_initialize                              2     1      1   12033
                                             11 BANK0      1     0      1
                _gpio_pin_initialize
 ---------------------------------------------------------------------------------
 (4) _gpio_pin_initialize                                  3     2      1   11715
                                              8 BANK0      3     2      1
      _gpio_pin_direction_initialize
               _gpio_pin_write_logic
 ---------------------------------------------------------------------------------
 (6) _gpio_pin_write_logic                                 8     6      2    8654
                                              0 BANK0      8     6      2
 ---------------------------------------------------------------------------------
 (3) _Interrupt_INTx_Init                                  2     1      1    3058
                                              9 BANK0      2     1      1
          _INTERRUPT_INTx_clear_flag
             _INTERRUPT_INTx_disable
            _INTERRUPT_INTx_edge_int
              _INTERRUPT_INTx_enable
             _INTERRUPT_INTx_pin_int
    _INTERRUPT_SET_INTERRUPT_HANDLER
 ---------------------------------------------------------------------------------
 (4) _INTERRUPT_SET_INTERRUPT_HANDLER                      4     3      1     780
                                              2 BANK0      4     3      1
         _INT0_SET_INTERRUPT_HANDLER
         _INT1_SET_INTERRUPT_HANDLER
         _INT2_SET_INTERRUPT_HANDLER
 ---------------------------------------------------------------------------------
 (5) _INT2_SET_INTERRUPT_HANDLER                           3     1      2     165
                                              0 BANK0      2     0      2
 ---------------------------------------------------------------------------------
 (5) _INT1_SET_INTERRUPT_HANDLER                           3     1      2     165
                                              0 BANK0      2     0      2
 ---------------------------------------------------------------------------------
 (5) _INT0_SET_INTERRUPT_HANDLER                           3     1      2     165
                                              0 BANK0      2     0      2
 ---------------------------------------------------------------------------------
 (4) _INTERRUPT_INTx_pin_int                               2     1      1     896
                                              7 BANK0      2     1      1
      _gpio_pin_direction_initialize
 ---------------------------------------------------------------------------------
 (5) _gpio_pin_direction_initialize                        7     6      1     707
                                              0 BANK0      7     6      1
 ---------------------------------------------------------------------------------
 (4) _INTERRUPT_INTx_enable                                4     3      1     192
                                              0 BANK0      4     3      1
 ---------------------------------------------------------------------------------
 (4) _INTERRUPT_INTx_edge_int                              4     3      1     378
                                              0 BANK0      4     3      1
 ---------------------------------------------------------------------------------
 (4) _INTERRUPT_INTx_disable                               4     3      1     282
                                              0 BANK0      4     3      1
 ---------------------------------------------------------------------------------
 (4) _INTERRUPT_INTx_clear_flag                            4     3      1     192
                                              0 BANK0      4     3      1
 ---------------------------------------------------------------------------------
 Estimated maximum stack depth 7
 ---------------------------------------------------------------------------------
 (Depth) Function   	        Calls       Base Space   Used Autos Params    Refs
 ---------------------------------------------------------------------------------
 (8) _INTERRUPT_MANAGER_HIGH                              12    12      0   69957
                                             29 COMRAM    12    12      0
                           _INT0_ISR
                           _INT1_ISR
                           _INT2_ISR
                            _RB4_ISR
                            _RB5_ISR
                            _RB6_ISR
                            _RB7_ISR
 ---------------------------------------------------------------------------------
 (9) _RB7_ISR                                              1     1      0      30
                                              0 COMRAM     1     1      0
 ---------------------------------------------------------------------------------
 (9) _RB6_ISR                                              1     1      0      30
                                              0 COMRAM     1     1      0
 ---------------------------------------------------------------------------------
 (9) _RB5_ISR                                              1     1      0      30
                                              0 COMRAM     1     1      0
 ---------------------------------------------------------------------------------
 (9) _RB4_ISR                                              1     1      0      30
                                              0 COMRAM     1     1      0
 ---------------------------------------------------------------------------------
 (9) _INT2_ISR                                             0     0      0   23279
                                NULL *
                       _INT0_app_ISR *
 ---------------------------------------------------------------------------------
 (9) _INT1_ISR                                             0     0      0   23279
                                NULL *
                       _INT0_app_ISR *
 ---------------------------------------------------------------------------------
 (9) _INT0_ISR                                             0     0      0   23279
                                NULL *
                       _INT0_app_ISR *
 ---------------------------------------------------------------------------------
 (10) _INT0_app_ISR                                        4     4      0   23279
                                             25 COMRAM     4     4      0
            i2_Data_EEPROM_WriteByte
            i2_lcd_4bit_send_command
         i2_lcd_4bit_send_string_pos
 ---------------------------------------------------------------------------------
 (11) i2_lcd_4bit_send_string_pos                          6     1      5   15983
                                             20 COMRAM     5     0      5
          i2_lcd_4bit_send_char_data
              i2_lcd_4bit_set_curser
 ---------------------------------------------------------------------------------
 (12) i2_lcd_4bit_set_curser                               6     3      3    7750
                                             14 COMRAM     6     3      3
            i2_lcd_4bit_send_command
 ---------------------------------------------------------------------------------
 (13) i2_lcd_4bit_send_command                             3     1      2    6963
                                             11 COMRAM     3     1      2
             i2_gpio_pin_write_logic
      i2_lcd_4bit_send_enable_enable
                    i2_lcd_send_4bit
 ---------------------------------------------------------------------------------
 (12) i2_lcd_4bit_send_char_data                           3     1      2    6373
                                             11 COMRAM     3     1      2
             i2_gpio_pin_write_logic
      i2_lcd_4bit_send_enable_enable
                    i2_lcd_send_4bit
 ---------------------------------------------------------------------------------
 (14) i2_lcd_send_4bit                                     3     1      2    2431
                                              8 COMRAM     3     1      2
             i2_gpio_pin_write_logic
 ---------------------------------------------------------------------------------
 (14) i2_lcd_4bit_send_enable_enable                       2     1      1    1845
                                              8 COMRAM     2     1      1
             i2_gpio_pin_write_logic
 ---------------------------------------------------------------------------------
 (15) i2_gpio_pin_write_logic                              8     6      2    1414
                                              0 COMRAM     8     6      2
 ---------------------------------------------------------------------------------
 (11) i2_Data_EEPROM_WriteByte                             5     2      3     148
                                              0 COMRAM     4     1      3
 ---------------------------------------------------------------------------------
 (10) NULL(Fake)                                           0     0      0       0
 ---------------------------------------------------------------------------------
 Estimated maximum stack depth 15
 ---------------------------------------------------------------------------------

 Call Graph Graphs:

 _main (ROOT)
   _Application_Initialization
     _ecu_layer_Initialization
       _Interrupt_INTx_Init
         _INTERRUPT_INTx_clear_flag
         _INTERRUPT_INTx_disable
         _INTERRUPT_INTx_edge_int
         _INTERRUPT_INTx_enable
         _INTERRUPT_INTx_pin_int
           _gpio_pin_direction_initialize
         _INTERRUPT_SET_INTERRUPT_HANDLER
           _INT0_SET_INTERRUPT_HANDLER
           _INT1_SET_INTERRUPT_HANDLER
           _INT2_SET_INTERRUPT_HANDLER
       _ecu_dc_motor_initialize
         _gpio_pin_initialize
           _gpio_pin_direction_initialize
           _gpio_pin_write_logic
       _ecu_keypad_initialize
         _gpio_pin_direction_initialize
         _gpio_pin_initialize
       _ecu_led_initialize
         _gpio_pin_initialize
       _gpio_pin_initialize
       _lcd_4bit_initialize
         _gpio_pin_initialize
         _lcd_4bit_send_command
           _gpio_pin_write_logic
           _lcd_4bit_send_enable_enable
             _gpio_pin_write_logic
           _lcd_send_4bit
             _gpio_pin_write_logic
   _Data_EEPROM_ReadByte
   _change_password
     _check_entered_password
       _Data_EEPROM_ReadByte
     _ecu_keypad_get_value
       _gpio_pin_read_logic
       _gpio_pin_write_logic
     _get_password
       _ecu_keypad_get_value
       _lcd_4bit_send_char_data_pos
         _lcd_4bit_send_char_data
           _gpio_pin_write_logic
           _lcd_4bit_send_enable_enable
           _lcd_send_4bit
         _lcd_4bit_set_curser
           _lcd_4bit_send_command
       _lcd_4bit_send_command
       _lcd_4bit_send_string_pos
         _lcd_4bit_send_char_data
         _lcd_4bit_set_curser
     _lcd_4bit_send_char_data_pos
     _lcd_4bit_send_command
     _lcd_4bit_send_string_pos
     _password_confirmation
       _comparing_password
       _ecu_keypad_get_value
       _lcd_4bit_send_char_data_pos
       _lcd_4bit_send_command
       _lcd_4bit_send_string_pos
       _save_password
         _Data_EEPROM_WriteByte
   _ecu_dc_motor_move_left
     _gpio_pin_write_logic
   _ecu_dc_motor_stop
     _gpio_pin_write_logic
   _ecu_keypad_get_value
   _ecu_led_turn_off
     _gpio_pin_write_logic
   _ecu_led_turn_on
     _gpio_pin_write_logic
   _entering_password
     _check_entered_password
     _convert_byte_to_string
       _memset
       _sprintf
         _vfprintf
           _vfpfcnvrt
             ___awdiv
             ___awmod
             _abs
               ___awmod (ARG)
             _fputc
               _putch
     _ecu_keypad_get_value
     _lcd_4bit_send_char_data_pos
     _lcd_4bit_send_command
     _lcd_4bit_send_string_pos
   _get_password
   _gpio_pin_write_logic
   _initialize_var
   _lcd_4bit_send_string_pos
   _password_confirmation
   _welcome_msg
     _lcd_4bit_send_command
     _lcd_4bit_send_string_pos

 _INTERRUPT_MANAGER_HIGH (ROOT)
   _INT0_ISR
     NULL(Fake) *
     _INT0_app_ISR *
       i2_Data_EEPROM_WriteByte
       i2_lcd_4bit_send_command
         i2_gpio_pin_write_logic
         i2_lcd_4bit_send_enable_enable
           i2_gpio_pin_write_logic
         i2_lcd_send_4bit
           i2_gpio_pin_write_logic
       i2_lcd_4bit_send_string_pos
         i2_lcd_4bit_send_char_data
           i2_gpio_pin_write_logic
           i2_lcd_4bit_send_enable_enable
           i2_lcd_send_4bit
         i2_lcd_4bit_set_curser
           i2_lcd_4bit_send_command
   _INT1_ISR
     NULL(Fake) *
     _INT0_app_ISR *
   _INT2_ISR
     NULL(Fake) *
     _INT0_app_ISR *
   _RB4_ISR
   _RB5_ISR
   _RB6_ISR
   _RB7_ISR

 Address spaces:
Name               Size   Autos  Total    Cost      Usage
BIGRAM             F7F      0       0      42        0.0%
EEDATA             400      0       0       0        0.0%
BITBANK14          100      0       0      32        0.0%
BANK14             100      0       0      33        0.0%
BITBANK13          100      0       0      30        0.0%
BANK13             100      0       0      31        0.0%
BITBANK12          100      0       0      28        0.0%
BANK12             100      0       0      29        0.0%
BITBANK11          100      0       0      26        0.0%
BANK11             100      0       0      27        0.0%
BITBANK10          100      0       0      24        0.0%
BANK10             100      0       0      25        0.0%
BITBANK9           100      0       0      22        0.0%
BANK9              100      0       0      23        0.0%
BITBANK8           100      0       0      20        0.0%
BANK8              100      0       0      21        0.0%
BITBANK7           100      0       0      18        0.0%
BANK7              100      0       0      19        0.0%
BITBANK6           100      0       0      16        0.0%
BANK6              100      0       0      17        0.0%
BITBANK5           100      0       0      14        0.0%
BANK5              100      0       0      15        0.0%
BITBANK4           100      0       0      12        0.0%
BANK4              100      0       0      13        0.0%
BITBANK3           100      0       0      10        0.0%
BANK3              100      0       0      11        0.0%
BITBANK2           100      0       0       8        0.0%
BANK2              100      0       0       9        0.0%
BITBANK1           100      0       0       6        0.0%
BANK1              100     24      5E       7       36.7%
BITBANK15           80      0       0      34        0.0%
BANK15              80      0       0      35        0.0%
BITBANK0            80      0       0       4        0.0%
BANK0               80     2A      7B       5       96.1%
BITCOMRAM           7E      0       0       0        0.0%
COMRAM              7E     29      56       1       68.3%
BITBIGSFRlhl        45      0       0      37        0.0%
BITBIGSFRlllh        F      0       0      38        0.0%
BITBIGSFRh           D      0       0      36        0.0%
BITBIGSFRllllh       4      0       0      39        0.0%
BITBIGSFRlllll       4      0       0      40        0.0%
BIGSFR               0      0       0     200        0.0%
BITSFR               0      0       0     200        0.0%
SFR                  0      0       0     200        0.0%
STACK                0      0       0       2        0.0%
NULL                 0      0       0       0        0.0%
ABS                  0      0     12F      41        0.0%
DATA                 0      0     12F       3        0.0%
CODE                 0      0       0       0        0.0%


Microchip Technology PIC18 Macro Assembler V2.45 build 20230818022343 
Symbol Table                                                                                   Wed Mar 13 12:42:36 2024

                  INTERRUPT_INTx_clear_flag@ret 00AF                                  ?_lcd_send_4bit 00B4  
                               fp__INT0_app_ISR 0000                                   ?_get_password 00C5  
                                            l70 224E                                              l80 2EA0  
                                            l75 2F08                                              l85 33E6  
                                  ___awdiv@sign 00B1                      i2lcd_4bit_send_command@lcd 000C  
                    i2lcd_4bit_send_command@ret 000E             __end_of_lcd_4bit_send_enable_enable 35D8  
                ?i2_lcd_4bit_send_enable_enable 0009                     _lcd_4bit_send_enable_enable 35AC  
                                           l101 2980                                             l201 27B4  
                                           l210 3600                                             l220 34F2  
                                           l225 34C0                                             l162 3194  
                                           l260 234A                                             l246 302A  
                                           l175 313C                                             l280 2D60  
                                           l273 2E38                                             l178 35D6  
                                           l283 2D78                                             l276 2D0A  
                                           l269 2DE6                                             l365 3360  
                                           l438 1E0A                                             l390 3458  
                                           l382 32FC                                             l287 2DCE  
                                           l464 2712                                             l384 330A  
                                           l457 203E                                             l385 3318  
                                           l706 1F26                                             l731 2CA8  
                                           l723 3520                                             l732 2CAE  
                                           l661 2B40                                             l734 2CF2  
                                           l718 1F28                                             l478 2F6C  
                                           l663 2B4A                                             l672 2C32  
                                           l664 2B54                                             l744 3690  
                                           l760 2856                                             l729 2CA2  
                                           l674 2C38                                             l666 2B9C  
                                           l578 2FCC                                             l675 2C3E  
                                           l739 36B2                                             l677 2C82  
                                           l749 366E                                             l942 3752  
                                           l995 2C12                                             l998 374C  
                                           _abs 345A                         __end_of_ecu_led_turn_on 2D62  
                     INTERRUPT_INTx_pin_int@ret 00B4                                    ___awmod@sign 00B1  
                                           prod 0FF3                                             tosl 0FFD  
                                           wreg 0FE8                        ??_ecu_dc_motor_move_left 00B5  
                               __end_of_RB4_ISR 3736                                 __end_of_RB5_ISR 371C  
                               __end_of_RB6_ISR 3702                                 __end_of_RB7_ISR 36E8  
                             _ecu_dc_motor_stop 3490                   ??_lcd_4bit_send_enable_enable 00B5  
                                          l1011 168C                                            l1103 32D0  
                                          l1113 2B20                                            ?_abs 00B2  
                                          l1044 0ACC                                            l1128 2428  
                                          l1073 0616                                            l1097 0F2E  
                                          l1362 25BA                                            l1375 266C  
                                          l1815 31E8                                            l1808 3420  
                                          l1853 1B6E                                            l1863 3476  
                                          l1866 348E                                            l7003 2C44  
                                          l1859 3238                                            l7021 2CB4  
                                          l7005 2C80                                            l1878 24F4  
                                          l7023 2CF0                                            l7015 2C84  
                                          l7111 2B5E                                            l7017 2C9A  
                                          l7041 1E4A                                            l7033 1E0C  
                                          l7113 2B9A                                            l7105 2B22  
                                          l1889 3754                                            l7051 1EA4  
                                          l7043 1E64                                            l7035 1E22  
                                          l7107 2B38                                            l7053 1EAA  
                                          l7045 1E6A                                            l7037 1E2A  
                                          l7055 1EC4                                            l7047 1E84  
                                          l7039 1E44                                            l7063 1EEA  
                                          l7057 1ECA                                            l7049 1E8A  
                                          l7065 1F26                                            l7073 34F4  
                                          l7059 1EE4                                            l7075 350A  
                                          l7091 2800                                            l7083 27B6  
                                          l7077 3512                                            l7085 27CC  
                                          l7079 351C                                            l7087 27D4  
                                          l7095 2816                                            l7351 2F6E  
                                          l6801 1D1E                                            l7089 27EA  
                                          l7097 2852                                            l7361 2FC0  
                                          l7353 2F80                     ?_INT1_SET_INTERRUPT_HANDLER 00AC  
                                          l6803 1D76                                            l7355 2F84  
                                          l7357 2FA8                                            l6807 1DC8  
                                          l6831 36A6                                            l7359 2FB4  
                                          l6809 1E08                                            l6833 36AA  
                                          l6841 3684                                            l6827 3692  
                                          l6843 3688                                            l6851 3662  
                                          l6829 3692                                            l6837 3670  
                                          l6853 3666                         ??_Data_EEPROM_WriteByte 00AF  
                                          l6839 3670                                            l6847 364E  
                                          l6849 364E                                            l6795 1CE0  
                                          l6797 1CF6                                            l7845 3746  
                                          l6799 1D16                                            l6997 2C14  
                                          l6999 2C2A                                            STR_1 FFF6  
                                          STR_4 FF15                                            STR_5 FFF4  
                                          STR_6 FF13                                            STR_7 FFFD  
                                          STR_8 FF13                                            STR_9 FFFB  
                                          _LATA 0F89                                            _LATB 0F8A  
                                          _LATC 0F8B                                            _LATD 0F8C  
                                          _LATE 0F8D                                            u6200 1EC4  
                                          u6201 1EC0                                            u6130 2C2A  
                                          u6210 1EE4                                            u6131 2C26  
                                          u6211 1EE0                                            u6140 2C9A  
                                          u6220 350A                                            u6141 2C96  
                                          u6221 3506                                            u6150 1E22  
                                          u6230 27CC                                            u6151 1E1E  
                                          u6231 27C8                                            u6160 1E44  
                                          u6240 2B38                                            u6161 1E40  
                                          u6241 2B34                                            u6170 1E64  
                                          u6171 1E60                                            u6180 1E84  
                                          u6181 1E80                                            u6190 1EA4  
                                          u6191 1EA0                                            u5900 36A6  
                                          u5901 36A2                                            u5830 1CF6  
                                          u5910 3684                                            u6470 2F80  
                                          u5831 1CF2                                            u5911 3680  
                                          u6471 2F7C                                            i2l80 30E2  
                                          u5840 1D16                                            u5920 3662  
                                          u5841 1D12                                            u5921 365E  
                                          i2l75 3086                                            u5870 1DDE  
                                          u5854 1D3C                                            u5871 1DD8  
                                          u5855 1D38                                            u5880 1DE0  
                                          u5864 1D94                                            u5865 1D90  
                            ?_ecu_dc_motor_stop 00B4                                ??_initialize_var 00AC  
                                          abs@a 00B2                                            _lcd1 004C  
                                          _btn1 00EA                                            _dbuf 0124  
                gpio_pin_read_logic@_pin_config 00AC                                            _main 0F30  
                      __end_of_ecu_led_turn_off 2DD0                       lcd_4bit_set_curser@column 00BC  
                                          _prec 0082                                            fsr0h 0FEA  
                                          fsr1h 0FE2                                            indf0 0FEF  
                                          fsr2h 0FDA                                            fsr0l 0FE9  
                                          indf1 0FE7                                            indf2 0FDF  
                                          fsr1l 0FE1                                            fsr2l 0FD9  
                                          btemp 0057          INTERRUPT_SET_INTERRUPT_HANDLER@int_obj 00AE  
             lcd_4bit_send_char_data_pos@column 00C2                                     _user_statue 00A9  
                                          prodh 0FF4                                            prodl 0FF3  
                                          start 000E                           _INTERRUPT_INTx_enable 2B22  
                           ??_ecu_dc_motor_stop 00B5                      ecu_keypad_get_value@keypad 00B4  
                     lcd_send_4bit@command_data 00B5                                    ___param_bank 0000  
                                ??_get_password 00C8                           _lcd_4bit_send_command 2EA2  
                                         ??_abs 00B4                            _gpio_pin_write_logic 1F2A  
              i2lcd_4bit_send_string_pos@column 0017                  lcd_4bit_send_string_pos@column 00C2  
                              __end_of_INT0_ISR 35AC                                __end_of_INT1_ISR 357E  
                              __end_of_INT2_ISR 3550                                           l11001 25BC  
                                         l11011 25EA                                           l11003 25C2  
                                         l11021 2622                                           l11013 25F2  
                                         l11005 25D0                                           l11101 19E2  
                                         l11031 265C                                           l11023 2638  
                                         l11015 2604                                           l11007 25D8  
                                         l11111 1A4C                                           l11103 1A00  
                                         l11033 2664                                           l11025 2640  
                                         l11017 260C                                           l11009 25DC  
                                         l11041 2450                                           l11121 1AD2  
                                         l11113 1A82                                           l11105 1A1A  
                               _pass_num_digits 00A8                                           l11211 32DC  
                                         l11027 2646                                           l11019 2614  
                                         l11051 345A                                           l11043 245A  
                                         l11123 1AE2                                           l11115 1A9E  
                                         l11107 1A34                                           l11131 1B34  
                                         l11301 21FA                                           l11221 32EE  
                                         l11213 32E2                                           l11029 264C  
                                         l11053 346A                                           l11045 2478  
                                         l11037 242A                                           l11125 1AF8  
                                         l11117 1AB2                                           l11109 1A38  
                                         l11151 2F0A                                           l11311 2240  
                                         l11303 2208                                           l11223 32F0  
                                         l11215 32E6                                           l11207 32D2  
                                         l11047 24AE                                           l11039 243E  
                                         l11127 1B1A                                           l11119 1AC2  
                                         l11135 1B46                                           l11231 31EA  
                                         l11153 2F1C                                           l11081 2EB4  
                                         l11305 2216                                           l11401 228A  
                                         l11321 33E4                                           l11225 32F2  
                                         l11217 32EA                                           l11209 32D2  
                                         l11129 1B1E                                           l11233 31F6  
                                         l13001 0268                                           l11155 2F3C  
                                         l11083 2EBC                                           l11307 2224  
                                         l11171 26B4                                           l11163 266E  
                                         l11403 228E                                           l11315 33A6  
                                         l11331 291A                                           l11227 32F6  
                                         l11219 32EC                                           l11091 199A  
                                         l11235 3210                                           l13011 02E2  
                                         l13003 027A                                           l11157 2F44  
                                         l11085 2F06                                           l11309 2232  
                                         l11165 2680                                           l11421 22B8  
                                         l11181 2E9E                                           l11317 33B8  
                                         l11333 2948                                           l11325 28F0  
                                         l11229 32FA                                           l11501 3298  
                                         l13101 0AE0                                           l11093 19A6  
                                         l11237 322E                                           l13021 031A  
                                         l13005 0294                                           l11159 2F6A  
                                         l11079 2EA2                                           l11167 2690  
                                         l11431 22DE                                           l11423 22C6  
                                         l11415 2296                                           l11175 2E3A  
                                         l11191 2736                                           l11319 33C0  
                                         l11335 294E                                           l11327 2902  
                                         l11503 32B4                                           l13111 0B40  
                                         l13103 0AEC                                           l11095 19B2  
                                         l11351 31B4                                           l13031 0352  
                                         l13007 02AE                                           l13015 02F2  
                                         l11361 35EE                                           l11273 2150  
                                         l11169 26B0                                           l11441 2338  
                                         l11433 22EE                                           l11425 22D8  
                                         l11417 22A4                                           l11409 2292  
                                         l11177 2E4C                                           l11193 274C  
                                         l11185 2714                                           l11329 2906  
                                         l11505 32B8                                           l13121 0BB0  
                                         l13113 0B5A                                           l13105 0AFE  
                                         l11097 19B6                                           l11089 1974  
                                         l11353 31D2                                           l11345 3196  
                                         l13041 03CA                                           l13033 036C  
                                         l13017 0304                                           l13025 0330  
                                         l13009 02C8                                           l11451 2E1C  
                                         l11291 21A6                                           l11275 2166  
                                         l11443 233A                                           l11435 2300  
                                         l11419 22A8                                           l11179 2E54  
                                         l11195 2762                                           l11187 271A  
                                         l11611 12EA                                           l13131 0C26  
                                         l13123 0BCA                                           l13115 0B6C  
                                         l13107 0B18                                           l11099 19C4  
                                         l11347 31A4                                           l13051 0444  
                                         l13043 03E4                                           l13035 037C  
                                         l13027 0332                                           l13019 030C  
                                         l10901 2012                                           l11357 35D8  
                                         l11381 3006                                           l11365 2FCE  
                                         l11453 2E1E                                           l11445 2DD0  
                                         l11293 21B8                                           l11285 2186  
                                         l11277 216A                                           l11461 3434  
                                         l11437 2326                                           l11189 2720  
                                         l11197 2778                                           l11621 134A  
                                         l11613 12F8                                           l11701 062A  
                                         l13141 0C7A                                           l13133 0C28  
                                         l13117 0B7E                                           l13125 0C02  
                                         l13109 0B32                                           l11349 31AC  
                                         l13061 047A                                           l13053 0446  
                                         l13045 03FE                                           l13037 0396  
                                         l13029 0340                                           l13301 124E  
                                         l13221 0F30                                           l10903 203C  
                                         l11359 35EA                                           l11391 301A  
                                         l11375 2FE8                                           l11367 2FE0  
                                         l11455 2E30                                           l11447 2DE2  
                                         l11295 21C6                                           l11287 2192  
                                         l11279 2182                                           l11471 3446  
                                         l11463 3438                                           l11439 2328  
                                         l11199 27B2                                           l11631 13AC  
                                         l11623 1358                                           l11615 1304  
                                         l11711 068A                                           l11703 0636  
                                         l13151 0D0C                                           l13143 0C94  
                                         l13127 0C16                                           l13135 0C40  
                                         l13119 0B96                                           l13071 04C2  
                                         l13055 0450                                           l13047 0418  
                                         l13039 03B0                                           l13303 1268  
                                         l13231 0F60                                           l13223 0F34  
                                         l11377 2FF2                                           l11369 2FE4  
                                         l11449 2DEA                                           l11297 21E6  
                                         l11289 2196                                           l11609 331A  
                                         l11473 3448                                           l11465 343E  
                                         l11393 2250                                           l11641 142A  
                                         l11633 13C4                                           l11625 1372  
                                         l11617 1316                                           l11481 2A9C  
                                         l11801 0A62                                           l11721 06F6  
                                         l11713 06A4                                           l11705 0648  
                                         l13145 0CCC                                           l13137 0C52  
                                         l13161 0DA6                                           l13129 0C18  
                                         l13081 0550                                           l13073 04D4  
                                         l13057 0452                                           l13049 0426  
                                         l13065 048C                                           l13305 1276  
                                         l13241 0FC4                                           l13233 0F78  
                                         l13225 0F38                                           l11387 300A  
                                         l11379 2FF6                                           l11299 21EC  
                                         l11475 344A                                           l11467 3442  
                                         l11459 3422                                           l11395 2262  
                                         l11651 1470                                           l11643 1434  
                                         l11635 13DE                                           l11627 1384  
                                         l11619 1330                                           l11491 2AF4  
                                         l11483 2AA2                                           l11803 0A7A  
                                         l11731 0766                                           l11723 0710  
                                         l11715 06B6                                           l11707 0662  
                                         l13171 0E06                                           l13163 0DB8  
                                         l13155 0D3C                                           l13147 0CD8  
                                         l13139 0C62                                           l13091 05A4  
                                         l13083 055C                                           l13075 04EC  
                                         l13067 049E                                           l13059 0468  
                                         l13307 1284                                           l13251 104C  
                                         l13235 0F86                                           l13227 0F3C  
                                         l13219 0F30                                           l11389 3016  
                                         l10941 3120                                           l10933 30E4  
                                         l11477 344C                                           l11469 3444  
                                         l11397 226A                                           l11661 14F2  
                                         l11653 1488                                           l11645 1436  
                                         l11629 1396                                           l11637 1416  
                                         l11493 2AFA                                           l11485 2AAC  
                                         l11805 0A94                                           l11741 07BA  
                                         l11733 0768                                           l11717 06C8  
                                         l11725 0748                                           l11709 067C  
                                         l13181 0E8C                                           l13173 0E20  
                                         l13165 0DCA                                           l13157 0D54  
                                         l13149 0CFA                                           l11901 2D54  
                                         l13085 0572                                           l13093 05AA  
                                         l13077 0506                                           l13069 04B0  
                                         l13261 10E4                                           l13245 0FE2  
                                         l13237 0FA0                                           l13253 1076  
                                         l13229 0F4E                                           l10951 35C2  
                                         l10935 30E4                                           l11399 227A  
                                         l11671 153E                                           l11655 14A2  
                                         l11639 1428                                           l11647 144E  
                                         l11495 2B06                                           l11751 084A  
                                         l11743 07D4                                           l11727 075A  
                                         l11735 0780                                           l11719 06DE  
                                         l13191 0EDC                                           l13183 0EA4  
                                         l13175 0E58                                           l13167 0DDC  
                                         l13159 0D6E                                           l11911 2DAE  
                                         l13095 05C4                                           l13087 058A  
                                         l13079 053E                                           l13271 112A  
                                         l13263 10F6                                           l13255 10AA  
                                         l13247 0FFA                                           l13239 0FB2  
                                         l10953 35D4                                           l10945 35AC  
                                         l10937 30F6                                           l11681 15CA  
                                         l11673 1550                                           l11657 14DA  
                                         l11649 1460                                           l11665 1508  
                                         l11489 2AD2                                           l11761 08A6  
                                         l11753 0852                                           l11745 080C  
                                         l11737 0792                                           l11729 075C  
                                         l13193 0EF6                                           l13185 0EBA  
                                         l13177 0E68                                           l13169 0DEE  
                                         l11913 2DB0                                           l11905 2D62  
                                         l10961 250A                                           l13097 05DE  
                                         l13089 05A0                                           l13281 1164  
                                         l13265 10FA                                           l13257 10B8  
                                         l13249 1014                                           l10891 1F40  
                                         l10947 35AC                                           l10939 310A  
                                         l11691 161C                                           l11683 15D6  
                                         l11675 1568                                           l11667 151A  
                                         l11659 14E6                                           l11499 328A  
                                         l11771 0910                                           l11763 08C0  
                                         l11755 0860                                           l11747 0818  
                                         l11739 07A2                                           l13187 0EBE  
                                         l13179 0E78                                           l13099 0ACE  
                                         l11915 2DC2                                           l11907 2D74  
                                         l10971 2530                                           l10963 2512  
                                         l13291 11E2                                           l13283 119C  
                                         l13259 10D2                                           l13541 2026  
                                         l10893 1F60                                           l10949 35BA  
                                         l11685 15EA                                           l11693 1622  
                                         l11677 1582                                           l11669 152C  
                                         l11781 0990                                           l11757 0872  
                                         l11749 0838                                           l11773 0948  
                                         l13189 0EC4                                           l11909 2D7C  
                                         l12901 3400                                           l10981 2568  
                                         l10973 2538                                           l10965 2516  
                                         l10957 24F6                                           l11941 2BAC  
                                         l13293 11FC                                           l13285 11AE  
                                         l13277 1132                                           l13269 1118  
                                         l13551 2C62                                           l13543 2834  
                                         l10895 1F68                                           l11695 163A  
                                         l11687 1602                                           l11679 15BA  
                                         l11791 0A16                                           l11783 09A8  
                                         l11775 095A                                           l11759 088C  
                                         l11767 08DE                                           l12903 3404  
                                         l10991 2594                                           l10983 256E  
                                         l10975 254A                                           l10967 2524  
                                         l10959 24FC                                           l12911 315A  
                                         l11943 2BBE                                           l13295 1206  
                                         l13287 11C8                                           l13279 114A  
                                         l13553 2CD2                                           l13545 1DF2  
                                         l10897 1FC0                                           l10889 1F2A  
                                         l11937 374E                                           l12921 2362  
                                         l11697 1654                                           l11689 1618  
                                         l11793 0A2A                                           l11785 09C2  
                                         l11777 096C                                           l11769 08F6  
                                         l10985 2584                                           l10977 2552  
                                         l10993 259A                                           l10969 252C  
                                         l12913 3178                                           l12905 3142  
                                         l11945 2BD8                                           l13297 1210  
                                         l13289 11DA                                           l13547 2B7C  
                                         l12931 23A6                                           l12923 2378  
                                         l13539 278C                                           l11795 0A42  
                                         l11787 09FA                                           l11779 097E  
                                         l11699 0618                                           l11875 34C2  
                                         l11883 3490                                           l11891 2CF4  
                                         l10995 25AA                                           l10987 258C  
                                         l10979 255A                                           l12907 3142  
                                         l11947 2BF2                                           l11939 2B9E  
                                         l13299 1238                                           l13549 1F08  
                                         l12941 2400                                           l12933 23B2  
                                         l12925 2392                                           l12917 234C  
                                         l11797 0A58                                           l11789 0A0A  
                                         l11877 34D4                                           l11885 34A2  
                                         l11893 2D06                                           l10997 25B2  
                                         l10989 258E                                           l12909 3156  
                                         l11949 2C00                                           l12943 240E  
                                         l12919 2356                                           l11799 0A5C  
                                         l11879 34D8                                           l11887 34A6  
                                         l11895 2D0E                                           l12951 0038  
                                         l12937 23D8                                           l12929 23A0  
                                         l11897 2D40                                           l12961 00A6  
                                         l12953 004A                                           l12939 23FA  
                                         l11899 2D42                                           l12971 0116  
                                         l12963 00B8                                           l12955 0064  
                                         l12947 0012                                           l12981 0172  
                                         l12965 00CA                                           l12973 014E  
                                         l12957 007E                                           l12949 002A  
                                         l12991 01E4                                           l12975 0162  
                                         l12983 018C                                           l12967 00E2  
                                         l12959 008C                                           l12897 33E8  
                                         l12993 021C                                           l12985 019E  
                                         l12977 0166                                           l12969 00FC  
                                         l12899 33F4                                           l12995 0226  
                                         l12987 01B0                                           l12979 0170  
                                         l12997 0248                                           l12989 01CA  
                                         l12999 025A                                   ?_INT0_app_ISR 0001  
                                         ?_main 0001                                 __end_of___awdiv 25BC  
                                         _EEADR 0FA9                                           STR_10 FF55  
                                         STR_11 FF40                                           STR_20 FF40  
                                         STR_12 FEFF                                           STR_21 FEFF  
                                         STR_13 FF7C                                           STR_30 FF40  
                                         STR_22 FFCF                                           STR_14 FF69  
                                         STR_31 FEFF                                           STR_23 FEFF  
                                         STR_15 FF40                                           STR_16 FEFF  
                                         STR_24 FF40                                           STR_32 FFCF  
                                         STR_40 FFDD                                           STR_41 FEFF  
                                         STR_33 FEFF                                           STR_25 FEFF  
                                         STR_17 FFEB                                           STR_18 FEF1  
                                         STR_50 FFB0                                           STR_26 FFDD  
                                         STR_34 FFC0                                           STR_42 FF2B  
                                         STR_35 FEFF                                           STR_27 FEFF  
                                         STR_43 FFF9                                           STR_19 FFF9  
                                         STR_51 FFF3                                           STR_52 FEFF  
                                         STR_60 FF40                                           STR_44 FF40  
                                         STR_36 FFB0                                           STR_28 FEE9  
                               __end_of___awmod 266E                                           STR_53 FF11  
                                         STR_61 FEFF                                           STR_45 FEFF  
                                         STR_37 FEFF                                           STR_29 FFF9  
                                         STR_54 FF40                                           STR_38 FF40  
                                         STR_62 FFCF                                           STR_46 FFCF  
                                         STR_63 FEFF                                           STR_55 FEFF  
                                         STR_47 FEFF                                           STR_39 FEFF  
                                         STR_64 FFB0                                           STR_56 FFDD  
                                         STR_48 FF9F                                           STR_65 FEFF  
                                         STR_57 FEFF                                           STR_49 FEFF  
                                         STR_66 FF40                                           STR_58 FF8E  
                                         STR_67 FEFF                                           STR_59 FFF9  
                                         STR_68 FFDD                                           STR_69 FEFF  
                                         u11000 22B8                                           u11001 22B4  
                                         u11010 2300                                           u11011 22FC  
                                         u11020 2338                                           u11100 32D0  
                                         u11021 2334                                           u11101 32CC  
                                         u11030 234A                                           u11031 2346  
                                         u11040 2DE2                                           u11200 1384  
                                         u11041 2DDE                                           u11201 1380  
                                         u11210 1396                                           u11211 1392  
                                         u10404 1F86                                           u11060 3434  
                                         u11300 15CA                                           u11220 13AC  
                                         u10500 2584                                           u10405 1F82  
                                         u11061 3430                                           u11301 15C6  
                                         u11221 13A8                                           u10501 2580  
                                         u10414 1FDE                                           u11230 1428  
                                         u11070 2ACE                                           u11310 06B6  
                                         u10510 25AA                                           u10415 1FDA  
                                         u11055 2E2C                                           u11231 1424  
                                         u11071 2ACA                                           u11311 06B2  
                                         u10511 25A6                                           u11240 1460  
                                         u11080 2AF4                                           u11400 097E  
                                         u11320 06C8                                           u10520 25D0  
                                         u10600 2478                                           u13000 0FB2  
                                         u11057 2E30                                           u11241 145C  
                                         u11081 2AF0                                           u11401 097A  
                                         u11321 06C4                                           u10521 25CC  
                                         u10601 2474                                           u13001 0FAE  
                                         u11250 1470                                           u11090 2B20  
                                         u11410 0990                                           u11330 06DE  
                                         u10530 25EA                                           u10610 24AE  
                                         u13010 0FC4                                           u11251 146C  
                                         u11091 2B1C                                           u11411 098C  
                                         u11331 06DA                                           u10531 25E6  
                                         u10611 24AA                                           u13011 0FC0  
                                         u10380 1F40                                           u11260 151A  
                                         u11420 0A0A                                           u11340 075A  
                                         u10460 250A                                           u10540 2604  
                                         u10620 346A                                           u10700 1AC2  
                                         u13020 10E4                                 ___awdiv@divisor 00AE  
                                         u10381 1F3C                                           u11261 1516  
                                         u11421 0A06                                           u11341 0756  
                                         u10461 2506                                           u10541 2600  
                                         u10621 3466                                           u10701 1ABE  
                                         u13021 10E0                                           u10390 1F60  
                                         u10630 2EB4                                           u11270 152C  
                                         u11350 0792                                           u11510 34D4  
                                         u10470 2524                                           u10550 2622  
                                         u10710 1AD2                                           u13030 10F6  
                                         u10391 1F5C                                           u10631 2EB0  
                                         u11271 1528                                           u11351 078E  
                                         u11511 34D0                                           u10471 2520  
                                         u10551 261E                                           u10711 1ACE  
                                         u13031 10F2                                           u11280 153E  
                                         u11360 07A2                                           u11520 34A2  
                                         u10480 254A                                           u10560 2638  
                                         u10720 1AE2                                           u10640 199A  
                                         u13040 112A                                           u11281 153A  
                                         u11361 079E                                           u11521 349E  
                                         u10481 2546                                           u10561 2634  
                                         u10721 1ADE                                           u10641 1996  
                                         u13041 1126                                           u10810 2E4C  
                                         u11290 1550                                           u11370 084A  
                                         u11530 2D06                                           u10490 2568  
                                         u10570 265C                                           u10730 1B30  
                                         u10650 19E2                                           u13050 11AE  
                                         u10811 2E48                                           u11291 154C  
                                         u11371 0846                                           u11531 2D02  
                                         u10491 2564                                           u10571 2658  
                                         u10731 1B2C                                           u10651 19DE  
                                         u13051 11AA                                           u13107 103A  
                                         u10804 2704                                           u10900 2940  
                                         u10820 330A                                           u11380 095A  
                                         u10580 243E                                           u10660 1A00  
                                         u13060 11DA                                           u10805 2700  
                                         u10821 3306                                           u11381 0956  
                                         u10581 243A                                           u10661 19FC  
                                         u13061 11D6                                           u13117 10C4  
                                         u10750 2F1C                                           u10910 2970  
                                         u11390 096C                                           u11550 2D74  
                                         u10590 2450                                           u10670 1A48  
                                         u10751 2F18                                           u11391 0968  
                                         u11551 2D70                                           u10591 244C  
                                         u10671 1A42                                           u13207 2C08  
                                         u13127 1106                                           u10760 2F3C  
                                         u10920 2980                                           u10680 1A4A  
                                         u10840 322E                                           u10761 2F38  
                                         u10921 297C                                           u11545 2D50  
                                         u10841 322A                                           u13217 0040  
                                         u13137 1156                                           u10770 2680  
                                         u10690 1AB2                                           u10771 267C  
                                         u10907 2936                                           u10835 3316  
                                         u11547 2D54                                           u10691 1AAE  
                                         u13307 0322                                           u13227 0098  
                                         u13147 118A                                           u10940 35EA  
                                         u10860 2166                                           u12700 2428  
                                         u10780 2690                                           u10836 3318  
                        _INT0_INTERRUPT_HANDLER 003E                                           u10941 35E6  
                                         u10861 2162                                           u12701 2424  
                                         u10781 268C                                           u10917 2966  
                                         u11565 2DBE                                           u13317 0348  
                                         u13237 0108                                           u13157 11EE  
                                         u13077 0F92                                           u10950 2FE0  
                                         u10870 21A6                                           u10790 26B0  
                                         u12710 00B8                                           u10951 2FDC  
                                         u10871 21A2                                           u10791 26AC  
                                         u13407 0AF4                                           u11567 2DC2  
                                         u13327 03BC                                           u13247 013C  
                                         u12711 00B4                                           u13167 121C  
                                         u13087 0FD0                                           u10960 3006  
                                         u10880 33B8                                           u12800 049E  
                                         u12720 00CA                                           u10961 3002  
                                         u10881 33B4                                           u13417 0B4C  
                                         u12801 049A                                           u13337 040A  
                                         u13257 01D6                                           u12721 00C6  
                                         u13177 125A                                           u13097 1006  
                                         u10970 302A                                           u10890 2902  
                                         u12650 3420                                           u12810 04B0  
                                         u12730 00E2                                           u10971 3026  
                                         u10891 28FE                                           u13507 0E98  
                                         u13427 0BBC                                           u12651 341C  
                                         u12811 04AC                                           u13347 0432  
                                         u13267 020A                                           u12731 00DE  
                                         u13187 2BB4                                           u10980 227A  
                                         u12900 0C62                                           u12660 3156  
                                         u12820 04C2                                           u12740 0162  
                                         u10981 2276                                           u13517 0EE8  
                                         u12901 0C5E                                           u13437 0BF0  
                                         u12661 3152                                           u13357 04F8  
                                         u12821 04BE                                           u13277 0270  
                                         u12741 015E                                           u13197 2BE4  
                                         u12670 2392                                           u10990 228A  
                                         u12910 0D0C                                           u12830 04D4  
                                         u12750 019E                                           u12671 238E  
                                         u10991 2286                                           u13607 0898  
                                         u13527 0F1C                                           u12911 0D08  
                                         u13447 0C86                                           u13367 052C  
                                         u12831 04D0                                           u13287 02A0  
                                         u12751 019A                                           u12680 23D4  
                                         u12920 0DB8                                           u12840 0550  
                                         u12760 01B0                                           u12681 23D0  
                                         u13617 08CC                                           u13537 063E  
                                         u12921 0DB4                                           u13457 0CBA  
                                         u13377 057E                                           u12841 054C  
                                         u13297 02D4                                           u12761 01AC  
                                         u12690 23FA                                           u12930 0DCA  
                                         u12850 0B6C                                           u12770 025A  
                                         u12691 23F6                                           u13707 1364  
                                         u13627 0902                                           u13547 0696  
                                         u12931 0DC6                                           u13467 0D60  
                                         u12851 0B68                                           u13387 05D0  
                                         u12771 0256                                           u12940 0DDC  
                                         u12860 0B7E                                           u12780 0304  
                                         u13717 13D0                                           u13637 0936  
                                         u13557 0702                                           u12941 0DD8  
                                         u13477 0D94                                           u12861 0B7A  
                                         u13397 0604                                           u12781 0300  
                                         u12950 0DEE                                           u12870 0B96  
                                         u12790 047A                                           u13807 167A  
                                         u13727 1404                                           u13647 09B4  
                                         u13567 0736                                           u13487 0E12  
                                         u12951 0DEA                                           u12871 0B92  
                                         u12791 0476                                           u12960 0E68  
                                         u12880 0C16                                           u13817 22CE  
                                         u13737 1494                                           u13657 09E8  
                                         u13577 07C6                                           u12961 0E64  
                                         u13497 0E46                                           u12881 0C12  
                                         u12890 0C52                                           u13827 21AE  
                                         u13747 14C8                                           u13667 0A36  
                                         u13587 07FA                                           u12891 0C4E  
                                         u13837 21CE                                           u13757 14FA  
                                         u13677 0A86                                           u13597 0868  
                                         u12990 0F60                                           u13847 21E8  
                                         u13767 1574                                           u13687 0ABA  
                                         u12991 0F5C                                           u13857 35BC  
                                         u13777 15A8                                           u13697 130C  
                                         u13787 15F6                                           u13797 1646  
                                         i2l101 2A9A                                           i2l201 28EE  
                                         i2l350 1CDE                                           i2l175 3288  
                                         i2l601 3734                                           i2l178 3626  
                                         i2l612 371A                                           i2l382 338A  
                                         i2l623 3700                                           i2l384 3398  
                                         i2l385 33A4                                           i2l457 214E  
                                         i2l634 36E6                                           i2l820 1700  
                                         i2l582 35AA                                           i2l590 354E  
                                         i2l830 1830                                           i2l822 1720  
                                         i2l832 1874                                           i2l824 1764  
                                         i2l586 357C                                           i2l834 18B8  
                                         i2l826 17A8                                           i2l818 16E0  
                                         i2l836 18FC                                           i2l828 17EC  
                                         i2l839 1940                                 ___awdiv@counter 00B0  
                                  vfpfcnvrt@fmt 00B8                                           _PORTA 0F80  
                                         _PORTB 0F81                                           _PORTC 0F82  
                                         _PORTD 0F83                                           _PORTE 0F84  
                                         _TRISA 0F92                                           _TRISB 0F93  
                                         _TRISC 0F94                                           _TRISD 0F95  
                                         _TRISE 0F96                          ?_ecu_keypad_initialize 00B7  
i2Data_EEPROM_WriteByte@GLOBAL_INTERRUPT_STATUS 0004    Data_EEPROM_WriteByte@GLOBAL_INTERRUPT_STATUS 00AF  
                     __end_of_ecu_dc_motor_stop 34C2                                           _flags 0040  
                                         _fputc 242A                          ?_password_confirmation 00C5  
                                         _width 0080                                           _putch 3754  
                               _stored_password 0085                                 _change_password 0ACE  
            __end_of_INT2_SET_INTERRUPT_HANDLER 3670                      _INT2_SET_INTERRUPT_HANDLER 364E  
                        ecu_led_turn_on@led_pin 00B6                                           pclath 0FFA  
                                         pclatu 0FFB              __end_of_Application_Initialization 3754  
                    _Application_Initialization 374E                                           tablat 0FF5  
                             ??i2_lcd_send_4bit 000B                        INTERRUPT_INTx_enable@ret 00AF  
                                         ttemp5 0058                                           ttemp6 005B  
                                         ttemp7 005F                                           status 0FD8  
                                         wtemp8 0058                                 __end_of_sprintf 31EA  
                  __end_of_Data_EEPROM_ReadByte 345A                          _INTERRUPT_INTx_disable 2C14  
                   ecu_keypad_get_value@columns 00BB                  ?_gpio_pin_direction_initialize 00AC  
                               ??_lcd_send_4bit 00B6                                 __initialization 2982  
                        _INTERRUPT_INTx_pin_int 34F4                                    __end_of_main 12EA  
                        _check_entered_password 234C                       i2gpio_pin_write_logic@ret 0008  
                         ?_gpio_pin_write_logic 00AC                               save_password@pass 00B0  
                            _ecu_led_initialize 2DD0                            save_password@counter 00B1  
                   i2gpio_pin_write_logic@logic 0002                                  ??_INT0_app_ISR 001A  
                      gpio_pin_read_logic@logic 00AD                                   _lat_registers 00D6  
                                        ??_main 011C                                   __activetblptr 0003  
                                     ??_RB4_ISR 0001                                       ??_RB5_ISR 0001  
                                     ??_RB6_ISR 0001                                       ??_RB7_ISR 0001  
                           ?_ecu_led_initialize 00B7                                ?_ecu_led_turn_on 00B4  
                     password_confirmation@pass 00C5                                          ?_fputc 00AC  
                                        _EEADRH 0FAA                                          _EEDATA 0FA8  
                                        _EECON2 0FA7                                ___awdiv@dividend 00AC  
                                        ?_putch 0001                     ecu_keypad_initialize@keypad 00B7  
                                        i2l3201 36EA                           __end_of_save_password 32D2  
                                        i2l3203 36EC                                          i2l3223 36E6  
                                        i2l3215 36D0                                          i2l3209 3700  
                                        i2l3217 36D2                                          i2l3181 3734  
                                        i2l3173 371E                                          i2l3175 3720  
                                        i2l3195 371A                                          i2l3187 3704  
                                        i2l5061 3362                                          i2l3189 3706  
                                        i2l5071 3378                                          i2l5063 3362  
                                        i2l5081 3384                                          i2l5073 337A  
                                        i2l5065 336A                                          i2l5083 3388  
                                        i2l5075 337C                                          i2l5067 3370  
                                        i2l5077 337E                                          i2l5069 3374  
                                        i2l5079 3380                      _RB6_INTERRUPT_HANDLER_HIGH 0030  
                                 vfpfcnvrt@done 00BD                          ?_INTERRUPT_INTx_enable 00AC  
              INTERRUPT_INTx_clear_flag@int_obj 00AC                __end_of_lcd_4bit_send_string_pos 2982  
                          ??_ecu_led_initialize 00B8                              ecu_led_turn_on@led 00B4  
                      i2lcd_4bit_set_curser@lcd 000F                        i2lcd_4bit_set_curser@ret 0014  
                      i2lcd_4bit_set_curser@row 0010                    INTERRUPT_INTx_enable@int_obj 00AC  
                        ?_lcd_4bit_send_command 00B7                                    vfprintf@cfmt 00CB  
                    ?_INTERRUPT_INTx_clear_flag 00AC                                       ??___awdiv 00B0  
                                     ??___awmod 00B0           password_confirmation@comparing_result 00CE  
                                        _keypad 00ED                                          _memset 33E8  
                                        _buzzer 0054                                          clear_0 29E8  
                                        clear_1 29F4                                          clear_2 2A00  
                              ___awdiv@quotient 00B2                                 ___awmod@divisor 00AE  
                                        _motor1 0052                                          isa$std 0001  
                              lcd_send_4bit@lcd 00B4                                 ___awmod@counter 00B0  
                              lcd_send_4bit@ret 00B6                                          fputc@c 00AC  
                                  __pdataCOMRAM 0048                         __end_of_change_password 0F30  
                                  __mediumconst FEE8                                          tblptrh 0FF7  
                                        tblptrl 0FF6                                          tblptru 0FF8  
                       ecu_led_turn_off@led_pin 00B6                                          putch@c 0001  
                              __end_of_vfprintf 323A                            __end_of_get_password 168E  
                     ecu_keypad_get_value@value 00B5                                       ??_sprintf 00D3  
                       _INTERRUPT_INTx_edge_int 1E0C                    ??_INT0_SET_INTERRUPT_HANDLER 00AE  
                                  ?_welcome_msg 0001                                _entered_password 008D  
                                    __accesstop 0080                         __end_of__initialization 2A06  
                      ??_convert_byte_to_string 00D3                                       ?_INT0_ISR 0001  
                                     ?_INT1_ISR 0001                                       ?_INT2_ISR 0001  
                change_password@old_pass_didits 0101                       _RB5_INTERRUPT_HANDLER_LOW 0032  
                                 ___rparam_used 0001       check_entered_password@entered_pass_digits 00B0  
                  entering_password@lcd_counter 011A                              ecu_relay_off@F3063 0041  
       entering_password@stored_password_digits 0112           change_password@stored_password_digits 0104  
                    ?i2_lcd_4bit_send_char_data 000C                         _lcd_4bit_send_char_data 2E3A  
                       i2_lcd_4bit_send_command 302C                          _ecu_dc_motor_move_left 34C2  
                        ??_gpio_pin_write_logic 00AE                                  __pcstackCOMRAM 0001  
                                  __pidataBANK0 3628                                    __pidataBANK1 36B4  
                      _ecu_layer_Initialization 331A               __end_of_INTERRUPT_INTx_clear_flag 2CF4  
                                 __end_of_fputc 24F6                                   __end_of_putch 3756  
                      lcd_4bit_send_command@lcd 00B7                               RB5_ISR@RB5_source 0001  
                      lcd_4bit_send_command@ret 00B9                    ??i2_lcd_4bit_send_string_pos 001A  
                  __end_of_ecu_keypad_get_value 234C        gpio_pin_direction_initialize@_pin_config 00AC  
          entering_password@pass_entered_didits 0110                            _Data_EEPROM_ReadByte 3422  
                  ?_lcd_4bit_send_char_data_pos 00C0                  change_password@new_pass_Digits 0107  
                   __end_of_Interrupt_INTx_Init 2FCE                                         ??_fputc 00B0  
                                       ??_putch 00AC                                      __pbssBANK0 0080  
                                    __pbssBANK1 0124                   __end_of_Data_EEPROM_WriteByte 331A  
                          __end_of_INT0_app_ISR 1CE0                                      ??_INT0_ISR 001E  
                                    ??_INT1_ISR 001E                                      ??_INT2_ISR 001E  
                             ?_ecu_led_turn_off 00B4                                get_password@pass 00C5  
                  password_confirmation@counter 00CF                              ??_ecu_led_turn_off 00B5  
                         i2_lcd_4bit_set_curser 2858               __end_ofi2_lcd_4bit_send_char_data 30E4  
                       get_password@lcd_counter 00CA                                         ?_memset 00AC  
                       ??_ecu_keypad_initialize 00B8                    ecu_keypad_initialize@columns 00B9  
                                       i2l11061 325C                                         i2l11141 302C  
                                       i2l11071 360E                                         i2l11063 3270  
                                       i2l11055 323A                                         i2l11143 303C  
                                       i2l11073 3616                                         i2l11057 323A  
                                       i2l11241 3088                                         i2l11145 3044  
                                       i2l11075 3624                                         i2l11067 3602  
                                       i2l11059 324A                                         i2l11243 3098  
                                       i2l11147 3084                                         i2l11251 2858  
                                       i2l11069 3602                                         i2l11245 30A0  
                                       i2l11261 289E                                         i2l11253 285C  
                                       i2l11247 30E0                                         i2l11255 2862  
                                       i2l11263 28B2                                         i2l11511 2A24  
                                       i2l11257 2876                                         i2l11265 28EC  
                                       i2l11513 2A38                                         i2l11601 1C80  
                                       i2l11259 288A                                         i2l11515 2A64  
                                       i2l11507 2A10                                         i2l11603 1C96  
                                       i2l11517 2A68                                         i2l11509 2A20  
                                       i2l11605 1CAE                                         i2l12501 174A  
                                       i2l10911 2040                                         i2l11607 1CD0  
                                       i2l12511 178E                                         i2l12503 175A  
                                       i2l10913 2054                                         i2l12521 17D2  
                                       i2l12513 179E                                         i2l12505 175E  
                                       i2l10923 2122                                         i2l10915 2074  
                                       i2l12531 1816                                         i2l12523 17E2  
                                       i2l12515 17A2                                         i2l12507 1772  
                                       i2l10917 207C                                         i2l10925 214C  
                                       i2l11581 1BAC                                         i2l12541 185A  
                                       i2l12533 1826                                         i2l12525 17E6  
                                       i2l12517 17B6                                         i2l12509 1780  
                                       i2l10919 20D2                                         i2l11591 1C0C  
                                       i2l11583 1BB8                                         i2l11575 1B78  
                                       i2l12551 189E                                         i2l12543 186A  
                                       i2l12535 182A                                         i2l12527 17FA  
                                       i2l12519 17C4                                         i2l11593 1C24  
                                       i2l11585 1BC6                                         i2l11577 1B8C  
                                       i2l11569 1B70                                         i2l11921 3580  
                                       i2l12561 18E2                                         i2l12553 18AE  
                                       i2l12545 186E                                         i2l12537 183E  
                                       i2l12529 1808                                         i2l11595 1C3A  
                                       i2l11587 1BDE                                         i2l11579 1B90  
                                       i2l11923 3592                                         i2l11931 3522  
                                       i2l12571 1926                                         i2l12563 18F2  
                                       i2l12555 18B2                                         i2l12547 1882  
                                       i2l12539 184C                                         i2l12491 16FC  
                                       i2l12483 16C0                                         _RB4_ISR 371C  
                                       i2l11597 1C52                                         i2l11589 1BF6  
                                       i2l11925 3550                                         i2l11933 3524  
                                       i2l12573 1936                                         i2l12565 18F6  
                                       i2l12557 18C6                                         i2l12549 1890  
                                       i2l12493 170E                                         i2l12485 16CE  
                                       i2l11599 1C68                                         i2l11919 357E  
                                       i2l11927 3552                                         i2l11935 3536  
                                       i2l12575 193A                                         i2l12567 190A  
                                       i2l12559 18D4                                         i2l12495 171C  
                                       i2l12487 16DC                                         i2l11929 3564  
                                       i2l12569 1918                                         i2l12497 172E  
                                       i2l12489 16EE                                         i2l13555 28C6  
                                       i2l12499 173C                                         i2l13557 2136  
                                       _RB5_ISR 3702                           ?_Data_EEPROM_ReadByte 00AC  
                               i2_lcd_send_4bit 323A                                         _RB6_ISR 36E8  
                                       _RB7_ISR 36CE                       ?_lcd_4bit_send_string_pos 00C0  
                              ?_change_password 0100                         ??_password_confirmation 00CB  
                     ??_INTERRUPT_INTx_edge_int 00AD                                   _keypad_values 0144  
                      ?i2_Data_EEPROM_WriteByte 0001                                         _INT_obj 00F5  
                             RB7_ISR@RB7_source 0001                entering_password@stored_password 0111  
                   ?_INT2_SET_INTERRUPT_HANDLER 00AC                         ?_INTERRUPT_INTx_disable 00AC  
                      comparing_password@result 00B2                     ?_Application_Initialization 0001  
                                _tris_registers 00E0                       ??_lcd_4bit_send_char_data 00B9  
                           ecu_led_turn_off@led 00B4                       ??i2_lcd_4bit_send_command 000E  
                 i2lcd_4bit_send_string_pos@lcd 0015                   i2lcd_4bit_send_string_pos@row 0016  
                 i2lcd_4bit_send_string_pos@str 0018                         ?_INTERRUPT_INTx_pin_int 00B3  
                       ?_check_entered_password 00AF                                         __Hparam 0000  
                                       __Lparam 0000                             _gpio_pin_initialize 2F0A  
                           _gpio_pin_read_logic 266E                                         ___awdiv 24F6  
                                       ___awmod 25BC                                       ?_vfprintf 00C5  
                                       __pcinit 2982                        ??_INTERRUPT_MANAGER_HIGH 001E  
                      entering_password@counter 011B         __end_of_INTERRUPT_SET_INTERRUPT_HANDLER 2858  
             ??_INTERRUPT_SET_INTERRUPT_HANDLER 00AF                ?_INTERRUPT_SET_INTERRUPT_HANDLER 00AE  
               _INTERRUPT_SET_INTERRUPT_HANDLER 27B6                                         __ramtop 1000  
                                       __ptext0 0F30                                         __ptext1 2B9E  
                                       __ptext2 3746                                         __ptext3 0012  
                                       __ptext4 313E                                         __ptext5 3196  
                                       __ptext6 31EA                                         __ptext7 1974  
                                       __ptext8 242A                                         __ptext9 3754  
                  i2lcd_4bit_send_char_data@lcd 000C                    i2lcd_4bit_send_char_data@ret 000E  
                        _INT1_INTERRUPT_HANDLER 003C                 ??_gpio_pin_direction_initialize 00AD  
            check_entered_password@entered_pass 00AF                                         _red_led 0056  
                   i2Data_EEPROM_WriteByte@badd 0001                                ___awmod@dividend 00AC  
                                    _pass_check 00AA          change_password@new_pass_confirm_Digits 010A  
                          ?_gpio_pin_initialize 00B4                            ?_gpio_pin_read_logic 00AC  
                      ??i2_gpio_pin_write_logic 0003              __end_of_INT0_SET_INTERRUPT_HANDLER 36B4  
                    _INT0_SET_INTERRUPT_HANDLER 3692                                         _sprintf 3196  
                __end_of_INTERRUPT_INTx_disable 2C84                                  __pintcode_body 168E  
                          end_of_initialization 2A06                          change_password@counter 00D4  
                       ??_INTERRUPT_INTx_enable 00AD                  ecu_dc_motor_move_left@dc_motor 00B4  
                                       fputc@fp 00AE                                         memset@c 00AE  
                                       memset@n 00B0                                         memset@p 00B2  
                __end_of_INTERRUPT_INTx_pin_int 3522                                         int_func 168E  
                __end_of_check_entered_password 242A                                       i2u1111_40 2A20  
                                     i2u1111_41 2A1C                                       i2u1112_40 2A5E  
                                     i2u1112_47 2A54                                       i2u1113_40 2A8A  
                                     i2u1113_47 2A80                         ??_lcd_4bit_send_command 00B9  
                                     i2u1042_40 2054                                       i2u1114_40 2A9A  
                                     i2u1042_41 2050                                       i2u1114_41 2A96  
                                     i2u1043_40 2074                                       i2u1043_41 2070  
                                     i2u1220_40 16DC                                       i2u1220_41 16D8  
                                     i2u1044_44 209A                                       i2u1044_45 2096  
                                     i2u1221_40 16EE                                       i2u1221_41 16EA  
                                     i2u1045_44 20F0                                       i2u1045_45 20EC  
                                     i2u1230_40 1780                                       i2u1222_40 16FC  
                                     i2u1230_41 177C                                       i2u1222_41 16F8  
                                     i2u1119_40 1BAC                                       i2u1231_40 178E  
                                     i2u1223_40 170E                                       i2u1119_41 1BA8  
                                     i2u1231_41 178A                                       i2u1223_41 170A  
                                     i2u1240_40 1826                                       i2u1232_40 179E  
                                     i2u1224_40 171C                                       i2u1240_41 1822  
                                     i2u1232_41 179A                                       i2u1224_41 1718  
                                     i2u1160_48 356A                                       i2u1161_40 3536  
                                     i2u1241_40 183E                                       i2u1233_40 17B6  
                                     i2u1225_40 172E                                       i2u1160_49 357C  
                                     i2u1161_41 3532                                       i2u1241_41 183A  
                                     i2u1233_41 17B2                                       i2u1225_41 172A  
                                     i2u1074_40 303C                                       i2u1250_40 18D4  
                                     i2u1242_40 184C                                       i2u1234_40 17C4  
                                     i2u1226_40 173C                                       i2u1074_41 3038  
                                     i2u1250_41 18D0                                       i2u1242_41 1848  
                                     i2u1234_41 17C0                                       i2u1226_41 1738  
                                     i2u1162_48 353C                                       i2u1251_40 18E2  
                                     i2u1243_40 185A                                       i2u1235_40 17D2  
                                     i2u1227_40 174A                                       i2u1219_40 16CE  
                                     i2u1162_49 354E                                       i2u1251_41 18DE  
                                     i2u1243_41 1856                                       i2u1235_41 17CE  
                                     i2u1227_41 1746                                       i2u1219_41 16CA  
                         ecu_led_initialize@led 00B7                                       i2u1252_40 18F2  
                                     i2u1244_40 186A                                       i2u1236_40 17E2  
                                     i2u1228_40 175A                                       i2u1252_41 18EE  
                                     i2u1244_41 1866                                       i2u1236_41 17DE  
                                     i2u1228_41 1756                                       i2u1085_40 3098  
                                     i2u1157_40 3592                                       i2u1253_40 190A  
                                     i2u1245_40 1882                                       i2u1237_40 17FA  
                                     i2u1229_40 1772                                       i2u1085_41 3094  
                                     i2u1157_41 358E                                       i2u1253_41 1906  
                                     i2u1245_41 187E                                       i2u1237_41 17F6  
                                     i2u1229_41 176E                                       i2u1254_40 1918  
                                     i2u1246_40 1890                                       i2u1238_40 1808  
                                     i2u1254_41 1914                                       i2u1246_41 188C  
                                     i2u1238_41 1804                                       i2u1158_48 3598  
                                     i2u1159_40 3564                                       i2u1255_40 1926  
                                     i2u1247_40 189E                                       i2u1239_40 1816  
                                     i2u1158_49 35AA                                       i2u1159_41 3560  
                                     i2u1255_41 1922                                       i2u1247_41 189A  
                                     i2u1239_41 1812                                       i2u1256_40 1936  
                                     i2u1248_40 18AE                                       i2u1256_41 1932  
                                     i2u1248_41 18AA                                       i2u1249_40 18C6  
                                     i2u1249_41 18C2                                       i2u1390_47 1C8A  
                                     i2u1391_47 1CB8                                       i2u1392_47 1CD6  
                                     i2u1393_47 3610                                       i2u1386_47 1BBE  
                                     i2u1387_47 1C00                          ?i2_lcd_4bit_set_curser 000F  
                                     i2u1388_47 1C2E                            _ecu_keypad_get_value 2250  
                                     i2u1389_47 1C5C                               __end_of_vfpfcnvrt 1B70  
                         __end_of_lcd_send_4bit 313E                                         postdec1 0FE5  
                                       postdec2 0FDD                                         postinc0 0FEE  
                                       postinc1 0FE6                                         postinc2 0FDE  
                   ??_INTERRUPT_INTx_clear_flag 00AD                                vfpfcnvrt@convarg 00C0  
                                  _get_password 12EA                                      ??_vfprintf 00CB  
                 comparing_password@pass_digits 00AD                         __end_ofi2_lcd_send_4bit 328A  
                       get_password@pass_didits 00C6              __end_ofi2_lcd_4bit_send_string_pos 2A9C  
                    i2_lcd_4bit_send_string_pos 2A10                             _lcd_4bit_initialize 2150  
                                 INT0_app_ISR@i 001C                 __end_ofi2_Data_EEPROM_WriteByte 33A6  
               __end_of_lcd_4bit_send_char_data 2EA2                                       _PORTBbits 0F81  
                        _convert_byte_to_string 313E                         _ecu_dc_motor_initialize 35D8  
                        _enterd_pass_num_digits 00A6                          ??_Data_EEPROM_ReadByte 00AF  
              password_confirmation@lcd_counter 00CD                 ecu_dc_motor_initialize@dc_motor 00B7  
             entering_password@comparing_result 0119               check_entered_password@stored_pass 00B2  
                    lcd_4bit_send_char_data@lcd 00B7                      lcd_4bit_send_char_data@ret 00B9  
                         ??_gpio_pin_initialize 00B5                           ??_gpio_pin_read_logic 00AE  
                     ecu_dc_motor_stop@dc_motor 00B4                      _RB5_INTERRUPT_HANDLER_HIGH 0034  
               lcd_4bit_send_char_data_pos@data 00C3                            ?_lcd_4bit_initialize 00BA  
                   i2lcd_4bit_set_curser@column 0011                      ??_ecu_layer_Initialization 00BE  
                       ?_ecu_dc_motor_move_left 00B4                           ?_ecu_keypad_get_value 00B4  
                          entering_password@str 0114                     i2lcd_send_4bit@command_data 000A  
                    __end_of_comparing_password 2B22                     ??i2_lcd_4bit_send_char_data 000E  
                           _lcd_4bit_set_curser 2714                           ecu_led_turn_off@F3069 0045  
                   lcd_4bit_send_string_pos@lcd 00C0                     lcd_4bit_send_string_pos@row 00C1  
                   lcd_4bit_send_string_pos@str 00C3                          Interrupt_INTx_Init@ret 00B6  
                    INTERRUPT_INTx_edge_int@ret 00AF                                     vfpfcnvrt@ap 00B9  
                                   vfpfcnvrt@cp 00BE                                     vfpfcnvrt@fp 00B6  
                                 __pidataCOMRAM 3736                                  __end_of_memset 3422  
                                  _INT0_app_ISR 1B70                    ?_lcd_4bit_send_enable_enable 00B4  
                           start_initialization 2982             comparing_password@comparing_counter 00B5  
                          ?_lcd_4bit_set_curser 00BA                              i2lcd_send_4bit@lcd 0009  
                            i2lcd_send_4bit@ret 000B                                     __end_of_abs 3490  
                     _INTERRUPT_INTx_clear_flag 2C84                  change_password@stored_password 0103  
         __end_of_gpio_pin_direction_initialize 1E0C                   _gpio_pin_direction_initialize 1CE0  
                entering_password@wrong_counter 0118                           ??_lcd_4bit_initialize 00BB  
                  ??_INT1_SET_INTERRUPT_HANDLER 00AE                  __end_of_ecu_dc_motor_move_left 34F4  
                 INTERRUPT_INTx_disable@int_obj 00AC                             get_password@counter 00CB  
                      Data_EEPROM_ReadByte@badd 00AC                    entering_password@user_statue 0113  
                     _RB6_INTERRUPT_HANDLER_LOW 002E                          comparing_password@pass 00AC  
                                   vfprintf@fmt 00C7                       ??_ecu_dc_motor_initialize 00B8  
                                   __pdataBANK0 00D6                                     __pdataBANK1 0144  
                     convert_byte_to_string@str 010D                                ?i2_lcd_send_4bit 0009  
                                      ??_memset 00B2                                      memset@dest 00AC  
                  lcd_4bit_send_command@command 00B8                               ecu_relay_on@F3058 0042  
                   convert_byte_to_string@value 00D3                   __end_of_ecu_keypad_initialize 302C  
                                      ?_RB4_ISR 0001                                        ?_RB5_ISR 0001  
                                      ?_RB6_ISR 0001                                        ?_RB7_ISR 0001  
                 INTERRUPT_INTx_pin_int@int_obj 00B3                           ??_lcd_4bit_set_curser 00BD  
                                   __pbssCOMRAM 002A                       i2_lcd_4bit_send_char_data 3088  
                                 _selected_mode 0084                password_confirmation@pass_didits 00C6  
                                 __pcstackBANK0 00AC                                   __pcstackBANK1 0100  
                 __end_of_password_confirmation 0ACE                 change_password@new_pass_confirm 0109  
                INTERRUPT_INTx_edge_int@int_obj 00AC                          _INTERRUPT_MANAGER_HIGH 0008  
                                 _save_password 328A                          ??_ecu_keypad_get_value 00B6  
                         _Data_EEPROM_WriteByte 32D2                               ??_ecu_led_turn_on 00B5  
                                     __pintcode 0008                          _stored_pass_num_digits 00A5  
                                 __pmediumconst FEE8                                  _initialize_var 3746  
                        i2_gpio_pin_write_logic 2040               i2gpio_pin_write_logic@_pin_config 0001  
               gpio_pin_write_logic@_pin_config 00AC                                        ?___awdiv 00AC  
                                      ?___awmod 00AC                       gpio_pin_write_logic@logic 00AD  
                                  _keypad_value 00AB                                       _green_led 0055  
                                      ?_sprintf 00CD                     ?_INT0_SET_INTERRUPT_HANDLER 00AC  
               __end_of_ecu_dc_motor_initialize 3602                                  ?_save_password 00B0  
                       ??i2_lcd_4bit_set_curser 0012                __end_of_ecu_layer_Initialization 3362  
                                      _INT0_ISR 357E                                        _INT1_ISR 3550  
                                      _INT2_ISR 3522                   __end_of_INTERRUPT_INTx_enable 2B9E  
                    lcd_4bit_initialize@counter 00BC                                        _RB4_flag 004B  
               ??i2_lcd_4bit_send_enable_enable 000A                                        _RB5_flag 004A  
                                      _RB6_flag 0049                                        _RB7_flag 0048  
                     ecu_relay_initialize@F3053 0043                   __end_of_lcd_4bit_send_command 2F0A  
                                      i2u150_40 3730                                        i2u150_41 372C  
                                      i2u151_40 3716                                        i2u151_41 3712  
                                      i2u152_40 36FC                                        i2u152_41 36F8  
                                      i2u153_40 36E2                                        i2u153_41 36DE  
                        __end_of_initialize_var 374E                                        i2u386_40 3398  
                                      i2u386_41 3394                                        i2u387_45 33A2  
                                      i2u387_46 33A4          ecu_keypad_get_value@clear_rows_counter 00B9  
              gpio_pin_direction_initialize@ret 00B2                               RB4_ISR@RB4_source 0001  
                       ?_convert_byte_to_string 010D                                       _vfpfcnvrt 1974  
                   ?i2_lcd_4bit_send_string_pos 0015                        _lcd_4bit_send_string_pos 28F0  
                     ecu_keypad_initialize@rows 00B8                        ?_INTERRUPT_INTx_edge_int 00AC  
                          ecu_led_turn_on@F3064 0046                          _INT2_INTERRUPT_HANDLER 003A  
                lcd_4bit_send_char_data_pos@lcd 00C0                  lcd_4bit_send_char_data_pos@ret 00C4  
                lcd_4bit_send_char_data_pos@row 00C1                       Data_EEPROM_ReadByte@bData 00AE  
                        gpio_pin_initialize@ret 00B6             __end_of_lcd_4bit_send_char_data_pos 33E8  
                   _lcd_4bit_send_char_data_pos 33A6                                      vfpfcnvrt@c 00C4  
                       gpio_pin_write_logic@ret 00B3                                     _INTCON2bits 0FF1  
                                   _INTCON3bits 0FF0              __end_of_INT1_SET_INTERRUPT_HANDLER 3692  
                    _INT1_SET_INTERRUPT_HANDLER 3670                        ?_lcd_4bit_send_char_data 00B7  
                                     copy_data0 2996                                       copy_data1 29B6  
                                     copy_data2 29D6                        ?i2_lcd_4bit_send_command 000C  
                                 ??_welcome_msg 00C5                  ecu_keypad_get_value@column_val 00B8  
            INTERRUPT_SET_INTERRUPT_HANDLER@ret 00B1                          ?_Data_EEPROM_WriteByte 00AC  
                 ??_lcd_4bit_send_char_data_pos 00C4                                      _EECON1bits 0FA6  
                                      __Hrparam 0000                                 ?_initialize_var 0001  
              i2lcd_4bit_send_enable_enable@lcd 0009                  lcd_4bit_send_enable_enable@lcd 00B4  
              i2lcd_4bit_send_enable_enable@ret 000A                  lcd_4bit_send_enable_enable@ret 00B5  
                                    vfprintf@ap 00C9                                        __Lrparam 0000  
                                    vfprintf@fp 00C5                  __end_of_convert_byte_to_string 3196  
                       ecu_led_initialize@F3059 0047                          lcd_4bit_set_curser@lcd 00BA  
                        lcd_4bit_set_curser@ret 00BF                          lcd_4bit_set_curser@row 00BB  
                             _entering_password 0012                      change_password@lcd_counter 00D2  
                 entering_password@pass_entered 010F                                      ?_vfpfcnvrt 00B6  
                    Interrupt_INTx_Init@int_obj 00B5                              ?_entering_password 010F  
                              _ecu_led_turn_off 2D62                     __end_of_gpio_pin_initialize 2F6E  
                   __end_of_gpio_pin_read_logic 2714                              _comparing_password 2A9C  
                gpio_pin_initialize@_pin_config 00B4                        ecu_keypad_get_value@rows 00BA  
      password_confirmation@pass_confirm_didits 00C9                                      sprintf@fmt 00CF  
                             RB6_ISR@RB6_source 0001                             ??_entering_password 00D4  
                                      __ptext10 345A                                        __ptext11 25BC  
                                      __ptext20 328A                                        __ptext12 24F6  
                                      __ptext21 32D2                                        __ptext13 33E8  
                                      __ptext30 234C                                        __ptext22 2A9C  
                                      __ptext14 2CF4                                        __ptext31 3422  
                                      __ptext23 12EA                                        __ptext15 2D62  
                                      __ptext40 35D8                                        __ptext32 374E  
                                      __ptext24 28F0                                        __ptext16 3490  
                                      __ptext41 2F0A                                        __ptext33 331A  
                                      __ptext25 33A6                                        __ptext17 34C2  
                                      __ptext50 2B22                                        __ptext42 1F2A  
                                      __ptext34 2150                                        __ptext26 2714  
                                      __ptext18 0ACE                                        __ptext51 1E0C  
                                      __ptext43 2F6E                                        __ptext35 2EA2  
                                      __ptext27 2E3A                                        __ptext19 0618  
                                      __ptext60 3550                                        __ptext52 2C14  
                                      __ptext44 27B6                                        __ptext36 30E4  
                                      __ptext28 2250                                        __ptext61 357E  
                                      __ptext53 2C84                                        __ptext45 364E  
                                      __ptext37 35AC                                        __ptext29 266E  
                                      __ptext70 3362                                        __ptext62 1B70  
                                      __ptext46 3670                                        __ptext38 2DD0  
                                      __ptext71 0000                                        __ptext63 2A10  
                                      __ptext55 36CE                                        __ptext47 3692  
                                      __ptext39 2FCE                                        __ptext64 2858  
                                      __ptext56 36E8                                        __ptext48 34F4  
                                      __ptext65 302C                                        __ptext57 3702  
                                      __ptext49 1CE0                                        __ptext66 3088  
                                      __ptext58 371C                                        __ptext67 323A  
                                      __ptext59 3522                                        __ptext68 3602  
                                      __ptext69 2040                       INTERRUPT_INTx_disable@ret 00AF  
                           ?_comparing_password 00AC                                 ??_save_password 00B1  
                 i2lcd_4bit_send_char_data@data 000D                      _RB4_INTERRUPT_HANDLER_HIGH 0038  
                  check_entered_password@result 00B5                      __end_of_ecu_led_initialize 2E3A  
                  i2Data_EEPROM_WriteByte@bData 0003                         i2_Data_EEPROM_WriteByte 3362  
                    _RB7_INTERRUPT_HANDLER_HIGH 002C               password_confirmation@pass_confirm 00C8  
                           __end_of_welcome_msg 2C14                                        _password 009D  
                             ??_change_password 00D0                       __end_of_entering_password 0618  
                                      isa$xinst 0000                            ??_comparing_password 00B3  
               __end_of_INTERRUPT_INTx_edge_int 1F2A           __end_ofi2_lcd_4bit_send_enable_enable 3628  
                 i2_lcd_4bit_send_enable_enable 3602                                        int$flags 0057  
                                      _vfprintf 31EA                 change_password@comparing_result 00D3  
                       _pass_confirm_num_digits 00A7                       ?_ecu_layer_Initialization 0001  
                           _Interrupt_INTx_Init 2F6E                        ??_INTERRUPT_INTx_disable 00AD  
                                    _INTCONbits 0FF2                         change_password@old_pass 0100  
                   __end_of_lcd_4bit_initialize 2250                         change_password@new_pass 0106  
               __end_ofi2_lcd_4bit_send_command 3088           comparing_password@pass_confirm_digits 00B0  
                      ??_INTERRUPT_INTx_pin_int 00B4                         ?_INTERRUPT_MANAGER_HIGH 0001  
                  __end_of_gpio_pin_write_logic 2040                       ecu_led_initialize@led_pin 00B9  
                      ??_check_entered_password 00B7                                 _ecu_led_turn_on 2CF4  
                                      intlevel2 0000                                       sprintf@ap 0100  
                i2lcd_4bit_send_command@command 000D                    ??_INT2_SET_INTERRUPT_HANDLER 00AE  
                  ??_Application_Initialization 00BE                        ecu_led_turn_toggle@F3074 0044  
                     _RB4_INTERRUPT_HANDLER_LOW 0036                            ?_Interrupt_INTx_Init 00B5  
                    Data_EEPROM_WriteByte@bData 00AE                       _RB7_INTERRUPT_HANDLER_LOW 002A  
                       ?i2_gpio_pin_write_logic 0001                                _password_confirm 0095  
                                 _lcd_send_4bit 30E4                                     ??_vfpfcnvrt 00BB  
                   __end_of_lcd_4bit_set_curser 27B6            check_entered_password@helper_counter 00BA  
                                      sprintf@f 0101                                        sprintf@s 00CD  
                comparing_password@pass_confirm 00AF                                  _port_registers 0154  
                __end_of_INTERRUPT_MANAGER_HIGH 1974                       Data_EEPROM_WriteByte@badd 00AC  
                         _ecu_keypad_initialize 2FCE     INT2_SET_INTERRUPT_HANDLER@INTERRUPT_HANDLER 00AC  
   INT1_SET_INTERRUPT_HANDLER@INTERRUPT_HANDLER 00AC     INT0_SET_INTERRUPT_HANDLER@INTERRUPT_HANDLER 00AC  
                     ??i2_Data_EEPROM_WriteByte 0004                           _password_confirmation 0618  
       check_entered_password@comparing_counter 00B9                                     _welcome_msg 2B9E  
                         ??_Interrupt_INTx_Init 00B6                     lcd_4bit_send_char_data@data 00B8  
                __end_ofi2_gpio_pin_write_logic 2150                   __end_ofi2_lcd_4bit_set_curser 28F0  
                    ??_lcd_4bit_send_string_pos 00C5                          lcd_4bit_initialize@lcd 00BA  
                        lcd_4bit_initialize@ret 00BD                        ?_ecu_dc_motor_initialize 00B7  
      check_entered_password@stored_pass_digits 00B3  
