

Microchip MPLAB XC8 Assembler V2.45 build 20230818022343 
                                                                                               Fri Apr 12 21:16:52 2024

Microchip MPLAB XC8 C Compiler v2.45 (Free license) build 20230818022343 Og1 
     1                           	processor	18F4620
     2                           	fnconf	rparam,??,?,0
     3                           	pagewidth 120
     4                           	opt	flic
     5                           	psect	idataCOMRAM,global,class=CODE,delta=1,noexec
     6                           	psect	idataBANK0,global,class=CODE,delta=1,noexec
     7                           	psect	idataBANK1,global,class=CODE,delta=1,noexec
     8                           	psect	mediumconst,global,reloc=2,class=MEDIUMCONST,delta=1,noexec
     9                           	psect	cinit,global,reloc=2,class=CODE,delta=1
    10                           	psect	bssCOMRAM,global,class=COMRAM,space=1,delta=1,lowdata,noexec
    11                           	psect	dataCOMRAM,global,class=COMRAM,space=1,delta=1,lowdata,noexec
    12                           	psect	bssBANK0,global,class=BANK0,space=1,delta=1,lowdata,noexec
    13                           	psect	dataBANK0,global,class=BANK0,space=1,delta=1,lowdata,noexec
    14                           	psect	bssBANK1,global,class=BANK1,space=1,delta=1,lowdata,noexec
    15                           	psect	dataBANK1,global,class=BANK1,space=1,delta=1,lowdata,noexec
    16                           	psect	cstackBANK1,global,class=BANK1,space=1,delta=1,lowdata,noexec
    17                           	psect	cstackBANK0,global,class=BANK0,space=1,delta=1,lowdata,noexec
    18                           	psect	cstackCOMRAM,global,class=COMRAM,space=1,delta=1,lowdata,noexec
    19                           	psect	text0,global,reloc=2,class=CODE,delta=1
    20                           	psect	text1,global,reloc=2,class=CODE,delta=1
    21                           	psect	text2,global,reloc=2,class=CODE,delta=1
    22                           	psect	text3,global,reloc=2,class=CODE,delta=1
    23                           	psect	text4,global,reloc=2,class=CODE,delta=1,group=3
    24                           	psect	text5,global,reloc=2,class=CODE,delta=1,group=1
    25                           	psect	text6,global,reloc=2,class=CODE,delta=1,group=1
    26                           	psect	text7,global,reloc=2,class=CODE,delta=1,group=3
    27                           	psect	text8,global,reloc=2,class=CODE,delta=1,group=3
    28                           	psect	text9,global,reloc=2,class=CODE,delta=1,group=3
    29                           	psect	text10,global,reloc=2,class=CODE,delta=1,group=2
    30                           	psect	text11,global,reloc=2,class=CODE,delta=1,group=2
    31                           	psect	text12,global,reloc=2,class=CODE,delta=1,group=3
    32                           	psect	text13,global,reloc=2,class=CODE,delta=1
    33                           	psect	text14,global,reloc=2,class=CODE,delta=1
    34                           	psect	text15,global,reloc=2,class=CODE,delta=1
    35                           	psect	text16,global,reloc=2,class=CODE,delta=1
    36                           	psect	text17,global,reloc=2,class=CODE,delta=1
    37                           	psect	text18,global,reloc=2,class=CODE,delta=1
    38                           	psect	text19,global,reloc=2,class=CODE,delta=1
    39                           	psect	text20,global,reloc=2,class=CODE,delta=1
    40                           	psect	text21,global,reloc=2,class=CODE,delta=1
    41                           	psect	text22,global,reloc=2,class=CODE,delta=1
    42                           	psect	text23,global,reloc=2,class=CODE,delta=1
    43                           	psect	text24,global,reloc=2,class=CODE,delta=1
    44                           	psect	text25,global,reloc=2,class=CODE,delta=1
    45                           	psect	text26,global,reloc=2,class=CODE,delta=1
    46                           	psect	text27,global,reloc=2,class=CODE,delta=1
    47                           	psect	text28,global,reloc=2,class=CODE,delta=1
    48                           	psect	text29,global,reloc=2,class=CODE,delta=1
    49                           	psect	text30,global,reloc=2,class=CODE,delta=1
    50                           	psect	text31,global,reloc=2,class=CODE,delta=1
    51                           	psect	text32,global,reloc=2,class=CODE,delta=1
    52                           	psect	text33,global,reloc=2,class=CODE,delta=1
    53                           	psect	text34,global,reloc=2,class=CODE,delta=1
    54                           	psect	text35,global,reloc=2,class=CODE,delta=1
    55                           	psect	text36,global,reloc=2,class=CODE,delta=1
    56                           	psect	text37,global,reloc=2,class=CODE,delta=1
    57                           	psect	text38,global,reloc=2,class=CODE,delta=1
    58                           	psect	text39,global,reloc=2,class=CODE,delta=1
    59                           	psect	text40,global,reloc=2,class=CODE,delta=1
    60                           	psect	text41,global,reloc=2,class=CODE,delta=1
    61                           	psect	text42,global,reloc=2,class=CODE,delta=1
    62                           	psect	text43,global,reloc=2,class=CODE,delta=1
    63                           	psect	text44,global,reloc=2,class=CODE,delta=1
    64                           	psect	text45,global,reloc=2,class=CODE,delta=1
    65                           	psect	text46,global,reloc=2,class=CODE,delta=1
    66                           	psect	text47,global,reloc=2,class=CODE,delta=1
    67                           	psect	text48,global,reloc=2,class=CODE,delta=1
    68                           	psect	text49,global,reloc=2,class=CODE,delta=1
    69                           	psect	text50,global,reloc=2,class=CODE,delta=1
    70                           	psect	text51,global,reloc=2,class=CODE,delta=1
    71                           	psect	text52,global,reloc=2,class=CODE,delta=1
    72                           	psect	intcode,global,reloc=2,class=CODE,delta=1
    73                           	psect	intcode_body,global,reloc=2,class=CODE,delta=1
    74                           	psect	text54,global,reloc=2,class=CODE,delta=1
    75                           	psect	text55,global,reloc=2,class=CODE,delta=1
    76                           	psect	text56,global,reloc=2,class=CODE,delta=1
    77                           	psect	text57,global,reloc=2,class=CODE,delta=1
    78                           	psect	text58,global,reloc=2,class=CODE,delta=1
    79                           	psect	text59,global,reloc=2,class=CODE,delta=1
    80                           	psect	text60,global,reloc=2,class=CODE,delta=1
    81                           	psect	text61,global,reloc=2,class=CODE,delta=1
    82                           	psect	text62,global,reloc=2,class=CODE,delta=1
    83                           	psect	text63,global,reloc=2,class=CODE,delta=1
    84                           	psect	text64,global,reloc=2,class=CODE,delta=1
    85                           	psect	text65,global,reloc=2,class=CODE,delta=1
    86                           	psect	text66,global,reloc=2,class=CODE,delta=1
    87                           	psect	text67,global,reloc=2,class=CODE,delta=1
    88                           	psect	text68,global,reloc=2,class=CODE,delta=1
    89                           	psect	text69,global,reloc=2,class=CODE,delta=1
    90                           	psect	intsave_regs,global,class=BIGRAM,space=1,delta=1,noexec
    91                           	psect	text70,global,reloc=2,class=CODE,delta=1
    92                           	psect	rparam,global,class=COMRAM,space=1,delta=1,noexec
    93                           	psect	temp,global,ovrld,common,class=COMRAM,space=1,delta=1
    94                           	psect	config,global,abs,ovrld,class=CONFIG,space=4,delta=1,noexec
    95   000000                     
    96                           ; Generated 23/03/2023 GMT
    97                           ; 
    98                           ; Copyright © 2023, Microchip Technology Inc. and its subsidiaries ("Microchip")
    99                           ; All rights reserved.
   100                           ; 
   101                           ; This software is developed by Microchip Technology Inc. and its subsidiaries ("Microch
      +                          ip").
   102                           ; 
   103                           ; Redistribution and use in source and binary forms, with or without modification, are
   104                           ; permitted provided that the following conditions are met:
   105                           ; 
   106                           ;     1. Redistributions of source code must retain the above copyright notice, this lis
      +                          t of
   107                           ;        conditions and the following disclaimer.
   108                           ; 
   109                           ;     2. Redistributions in binary form must reproduce the above copyright notice, this 
      +                          list
   110                           ;        of conditions and the following disclaimer in the documentation and/or other
   111                           ;        materials provided with the distribution. Publication is not required when
   112                           ;        this file is used in an embedded application.
   113                           ; 
   114                           ;     3. Microchip's name may not be used to endorse or promote products derived from th
      +                          is
   115                           ;        software without specific prior written permission.
   116                           ; 
   117                           ; THIS SOFTWARE IS PROVIDED BY MICROCHIP "AS IS" AND ANY EXPRESS OR IMPLIED WARRANTIES,
   118                           ; INCLUDING, BUT NOT LIMITED TO, THE IMPLIED WARRANTIES OF MERCHANTABILITY AND FITNESS F
      +                          OR
   119                           ; PURPOSE ARE DISCLAIMED.  IN NO EVENT SHALL MICROCHIP BE LIABLE FOR ANY DIRECT, INDIREC
      +                          T,
   120                           ; INCIDENTAL, SPECIAL, EXEMPLARY, OR CONSEQUENTIAL DAMAGES (INCLUDING BUT NOT LIMITED TO
   121                           ; PROCUREMENT OF SUBSTITUTE GOODS OR SERVICES; LOSS OF USE, DATA OR PROFITS; OR BUSINESS
   122                           ; INTERRUPTION) HOWSOEVER CAUSED AND ON ANY THEORY OF LIABILITY, WHETHER IN CONTRACT, ST
      +                          RICT
   123                           ; LIABILITY, OR TORT (INCLUDING NEGLIGENCE OR OTHERWISE) ARISING IN ANY WAY OUT OF THE U
      +                          SE OF
   124                           ; THIS SOFTWARE, EVEN IF ADVISED OF THE POSSIBILITY OF SUCH DAMAGE.
   125                           ; 
   126                           ; 
   127                           ; Code-generator required, PIC18F4620 Definitions
   128                           ; 
   129                           ; SFR Addresses
   130   000000                     
   131                           	psect	idataCOMRAM
   132   003734                     __pidataCOMRAM:
   133                           	callstack 0
   134                           
   135                           ;initializer for _RB7_flag
   136   003734  01                 	db	1
   137                           
   138                           ;initializer for _RB6_flag
   139   003735  01                 	db	1
   140                           
   141                           ;initializer for _RB5_flag
   142   003736  01                 	db	1
   143                           
   144                           ;initializer for _RB4_flag
   145   003737  01                 	db	1
   146                           
   147                           ;initializer for _lcd1
   148   003738  02                 	db	2
   149   003739  0A                 	db	10
   150   00373A  12                 	db	18
   151   00373B  1A                 	db	26
   152   00373C  22                 	db	34
   153   00373D  2A                 	db	42
   154                           
   155                           ;initializer for _motor1
   156   00373E  08                 	db	8
   157   00373F  10                 	db	16
   158                           
   159                           ;initializer for _buzzer
   160   003740  18                 	db	24
   161                           
   162                           ;initializer for _green_led
   163   003741  72                 	db	114
   164                           
   165                           ;initializer for _red_led
   166   003742  62                 	db	98
   167                           
   168                           	psect	idataBANK0
   169   0034F2                     __pidataBANK0:
   170                           	callstack 0
   171                           
   172                           ;initializer for _port_registers
   173   0034F2  80                 	db	128
   174   0034F3  0F                 	db	15
   175   0034F4  81                 	db	129
   176   0034F5  0F                 	db	15
   177   0034F6  82                 	db	130
   178   0034F7  0F                 	db	15
   179   0034F8  83                 	db	131
   180   0034F9  0F                 	db	15
   181   0034FA  84                 	db	132
   182   0034FB  0F                 	db	15
   183                           
   184                           ;initializer for _lat_registers
   185   0034FC  89                 	db	137
   186   0034FD  0F                 	db	15
   187   0034FE  8A                 	db	138
   188   0034FF  0F                 	db	15
   189   003500  8B                 	db	139
   190   003501  0F                 	db	15
   191   003502  8C                 	db	140
   192   003503  0F                 	db	15
   193   003504  8D                 	db	141
   194   003505  0F                 	db	15
   195                           
   196                           ;initializer for _tris_registers
   197   003506  92                 	db	146
   198   003507  0F                 	db	15
   199   003508  93                 	db	147
   200   003509  0F                 	db	15
   201   00350A  94                 	db	148
   202   00350B  0F                 	db	15
   203   00350C  95                 	db	149
   204   00350D  0F                 	db	15
   205   00350E  96                 	db	150
   206   00350F  0F                 	db	15
   207                           
   208                           ;initializer for _btn1
   209   003510  40                 	db	64
   210   003511  01                 	db	1
   211   003512  00                 	db	0
   212                           
   213                           ;initializer for _keypad
   214   003513  03                 	db	3
   215   003514  0B                 	db	11
   216   003515  13                 	db	19
   217   003516  1B                 	db	27
   218   003517  63                 	db	99
   219   003518  6B                 	db	107
   220   003519  73                 	db	115
   221   00351A  7B                 	db	123
   222                           
   223                           ;initializer for _INT_obj
   224   00351B  64                 	db	low _INT0_app_ISR
   225   00351C  1B                 	db	high _INT0_app_ISR
   226   00351D  41                 	db	65
   227   00351E  01                 	db	1
   228   00351F  00                 	db	0
   229   003520  01                 	db	1
   230                           
   231                           	psect	idataBANK1
   232   003724                     __pidataBANK1:
   233                           	callstack 0
   234                           
   235                           ;initializer for _keypad_values
   236   003724  37                 	db	55
   237   003725  38                 	db	56
   238   003726  39                 	db	57
   239   003727  2F                 	db	47
   240   003728  34                 	db	52
   241   003729  35                 	db	53
   242   00372A  36                 	db	54
   243   00372B  2A                 	db	42
   244   00372C  31                 	db	49
   245   00372D  32                 	db	50
   246   00372E  33                 	db	51
   247   00372F  2D                 	db	45
   248   003730  23                 	db	35
   249   003731  30                 	db	48
   250   003732  3D                 	db	61
   251   003733  2B                 	db	43
   252   000000                     _INTCON2bits	set	4081
   253   000000                     _EECON2	set	4007
   254   000000                     _PORTBbits	set	3969
   255   000000                     _EECON1bits	set	4006
   256   000000                     _EEDATA	set	4008
   257   000000                     _EEADR	set	4009
   258   000000                     _EEADRH	set	4010
   259   000000                     _INTCONbits	set	4082
   260   000000                     _PORTE	set	3972
   261   000000                     _PORTD	set	3971
   262   000000                     _PORTC	set	3970
   263   000000                     _PORTB	set	3969
   264   000000                     _PORTA	set	3968
   265   000000                     _LATA	set	3977
   266   000000                     _TRISA	set	3986
   267   000000                     _INTCON3bits	set	4080
   268   000000                     _TRISE	set	3990
   269   000000                     _TRISD	set	3989
   270   000000                     _TRISC	set	3988
   271   000000                     _TRISB	set	3987
   272   000000                     _LATE	set	3981
   273   000000                     _LATD	set	3980
   274   000000                     _LATC	set	3979
   275   000000                     _LATB	set	3978
   276                           
   277                           	psect	mediumconst
   278   00FEE8                     __pmediumconst:
   279                           	callstack 0
   280   00FEE8  00                 	db	0
   281   00FEE9                     STR_14:
   282   00FEE9  20                 	db	32
   283   00FEEA  20                 	db	32
   284   00FEEB  20                 	db	32
   285   00FEEC  20                 	db	32
   286   00FEED  20                 	db	32
   287   00FEEE  20                 	db	32
   288   00FEEF  20                 	db	32
   289   00FEF0  20                 	db	32
   290   00FEF1  20                 	db	32
   291   00FEF2  20                 	db	32
   292   00FEF3  20                 	db	32
   293   00FEF4  20                 	db	32
   294   00FEF5  20                 	db	32
   295   00FEF6  20                 	db	32
   296   00FEF7  20                 	db	32
   297   00FEF8  20                 	db	32
   298   00FEF9  20                 	db	32
   299   00FEFA  20                 	db	32
   300   00FEFB  20                 	db	32
   301   00FEFC  20                 	db	32
   302   00FEFD  20                 	db	32
   303   00FEFE  00                 	db	0
   304   00FEFF                     STR_21:
   305   00FEFF  63                 	db	99	;'c'
   306   00FF00  6F                 	db	111	;'o'
   307   00FF01  6E                 	db	110	;'n'
   308   00FF02  66                 	db	102	;'f'
   309   00FF03  69                 	db	105	;'i'
   310   00FF04  72                 	db	114	;'r'
   311   00FF05  6D                 	db	109	;'m'
   312   00FF06  20                 	db	32
   313   00FF07  54                 	db	84	;'T'
   314   00FF08  68                 	db	104	;'h'
   315   00FF09  65                 	db	101	;'e'
   316   00FF0A  20                 	db	32
   317   00FF0B  70                 	db	112	;'p'
   318   00FF0C  61                 	db	97	;'a'
   319   00FF0D  73                 	db	115	;'s'
   320   00FF0E  73                 	db	115	;'s'
   321   00FF0F  77                 	db	119	;'w'
   322   00FF10  6F                 	db	111	;'o'
   323   00FF11  72                 	db	114	;'r'
   324   00FF12  64                 	db	100	;'d'
   325   00FF13  20                 	db	32
   326   00FF14  00                 	db	0
   327   00FF15                     STR_4:
   328   00FF15  73                 	db	115	;'s'
   329   00FF16  79                 	db	121	;'y'
   330   00FF17  73                 	db	115	;'s'
   331   00FF18  74                 	db	116	;'t'
   332   00FF19  65                 	db	101	;'e'
   333   00FF1A  6D                 	db	109	;'m'
   334   00FF1B  20                 	db	32
   335   00FF1C  77                 	db	119	;'w'
   336   00FF1D  69                 	db	105	;'i'
   337   00FF1E  6C                 	db	108	;'l'
   338   00FF1F  6C                 	db	108	;'l'
   339   00FF20  20                 	db	32
   340   00FF21  63                 	db	99	;'c'
   341   00FF22  6C                 	db	108	;'l'
   342   00FF23  6F                 	db	111	;'o'
   343   00FF24  73                 	db	115	;'s'
   344   00FF25  65                 	db	101	;'e'
   345   00FF26  20                 	db	32
   346   00FF27  69                 	db	105	;'i'
   347   00FF28  6E                 	db	110	;'n'
   348   00FF29  20                 	db	32
   349   00FF2A  00                 	db	0
   350   00FF2B                     STR_35:
   351   00FF2B  65                 	db	101	;'e'
   352   00FF2C  6E                 	db	110	;'n'
   353   00FF2D  74                 	db	116	;'t'
   354   00FF2E  65                 	db	101	;'e'
   355   00FF2F  72                 	db	114	;'r'
   356   00FF30  20                 	db	32
   357   00FF31  79                 	db	121	;'y'
   358   00FF32  6F                 	db	111	;'o'
   359   00FF33  75                 	db	117	;'u'
   360   00FF34  72                 	db	114	;'r'
   361   00FF35  20                 	db	32
   362   00FF36  70                 	db	112	;'p'
   363   00FF37  61                 	db	97	;'a'
   364   00FF38  73                 	db	115	;'s'
   365   00FF39  73                 	db	115	;'s'
   366   00FF3A  77                 	db	119	;'w'
   367   00FF3B  6F                 	db	111	;'o'
   368   00FF3C  72                 	db	114	;'r'
   369   00FF3D  64                 	db	100	;'d'
   370   00FF3E  20                 	db	32
   371   00FF3F  00                 	db	0
   372   00FF40                     STR_13:
   373   00FF40  55                 	db	85	;'U'
   374   00FF41  6E                 	db	110	;'n'
   375   00FF42  61                 	db	97	;'a'
   376   00FF43  76                 	db	118	;'v'
   377   00FF44  61                 	db	97	;'a'
   378   00FF45  69                 	db	105	;'i'
   379   00FF46  6C                 	db	108	;'l'
   380   00FF47  61                 	db	97	;'a'
   381   00FF48  62                 	db	98	;'b'
   382   00FF49  6C                 	db	108	;'l'
   383   00FF4A  65                 	db	101	;'e'
   384   00FF4B  20                 	db	32
   385   00FF4C  70                 	db	112	;'p'
   386   00FF4D  72                 	db	114	;'r'
   387   00FF4E  6F                 	db	111	;'o'
   388   00FF4F  63                 	db	99	;'c'
   389   00FF50  65                 	db	101	;'e'
   390   00FF51  73                 	db	115	;'s'
   391   00FF52  73                 	db	115	;'s'
   392   00FF53  20                 	db	32
   393   00FF54  00                 	db	0
   394   00FF55                     STR_63:
   395   00FF55  31                 	db	49	;'1'
   396   00FF56  2D                 	db	45
   397   00FF57  53                 	db	83	;'S'
   398   00FF58  65                 	db	101	;'e'
   399   00FF59  74                 	db	116	;'t'
   400   00FF5A  20                 	db	32
   401   00FF5B  6E                 	db	110	;'n'
   402   00FF5C  65                 	db	101	;'e'
   403   00FF5D  77                 	db	119	;'w'
   404   00FF5E  20                 	db	32
   405   00FF5F  70                 	db	112	;'p'
   406   00FF60  61                 	db	97	;'a'
   407   00FF61  73                 	db	115	;'s'
   408   00FF62  73                 	db	115	;'s'
   409   00FF63  77                 	db	119	;'w'
   410   00FF64  6F                 	db	111	;'o'
   411   00FF65  72                 	db	114	;'r'
   412   00FF66  64                 	db	100	;'d'
   413   00FF67  2E                 	db	46
   414   00FF68  00                 	db	0
   415   00FF69                     STR_67:
   416   00FF69  32                 	db	50	;'2'
   417   00FF6A  2D                 	db	45
   418   00FF6B  43                 	db	67	;'C'
   419   00FF6C  68                 	db	104	;'h'
   420   00FF6D  61                 	db	97	;'a'
   421   00FF6E  6E                 	db	110	;'n'
   422   00FF6F  67                 	db	103	;'g'
   423   00FF70  65                 	db	101	;'e'
   424   00FF71  20                 	db	32
   425   00FF72  70                 	db	112	;'p'
   426   00FF73  61                 	db	97	;'a'
   427   00FF74  73                 	db	115	;'s'
   428   00FF75  73                 	db	115	;'s'
   429   00FF76  77                 	db	119	;'w'
   430   00FF77  6F                 	db	111	;'o'
   431   00FF78  72                 	db	114	;'r'
   432   00FF79  64                 	db	100	;'d'
   433   00FF7A  2E                 	db	46
   434   00FF7B  00                 	db	0
   435   00FF7C                     STR_66:
   436   00FF7C  31                 	db	49	;'1'
   437   00FF7D  2D                 	db	45
   438   00FF7E  45                 	db	69	;'E'
   439   00FF7F  6E                 	db	110	;'n'
   440   00FF80  74                 	db	116	;'t'
   441   00FF81  65                 	db	101	;'e'
   442   00FF82  72                 	db	114	;'r'
   443   00FF83  20                 	db	32
   444   00FF84  70                 	db	112	;'p'
   445   00FF85  61                 	db	97	;'a'
   446   00FF86  73                 	db	115	;'s'
   447   00FF87  73                 	db	115	;'s'
   448   00FF88  77                 	db	119	;'w'
   449   00FF89  6F                 	db	111	;'o'
   450   00FF8A  72                 	db	114	;'r'
   451   00FF8B  64                 	db	100	;'d'
   452   00FF8C  2E                 	db	46
   453   00FF8D  00                 	db	0
   454   00FF8E                     STR_51:
   455   00FF8E  74                 	db	116	;'t'
   456   00FF8F  68                 	db	104	;'h'
   457   00FF90  65                 	db	101	;'e'
   458   00FF91  20                 	db	32
   459   00FF92  6F                 	db	111	;'o'
   460   00FF93  6C                 	db	108	;'l'
   461   00FF94  64                 	db	100	;'d'
   462   00FF95  20                 	db	32
   463   00FF96  70                 	db	112	;'p'
   464   00FF97  61                 	db	97	;'a'
   465   00FF98  73                 	db	115	;'s'
   466   00FF99  73                 	db	115	;'s'
   467   00FF9A  77                 	db	119	;'w'
   468   00FF9B  6F                 	db	111	;'o'
   469   00FF9C  72                 	db	114	;'r'
   470   00FF9D  64                 	db	100	;'d'
   471   00FF9E  00                 	db	0
   472   00FF9F                     STR_41:
   473   00FF9F  70                 	db	112	;'p'
   474   00FFA0  61                 	db	97	;'a'
   475   00FFA1  73                 	db	115	;'s'
   476   00FFA2  73                 	db	115	;'s'
   477   00FFA3  77                 	db	119	;'w'
   478   00FFA4  6F                 	db	111	;'o'
   479   00FFA5  72                 	db	114	;'r'
   480   00FFA6  64                 	db	100	;'d'
   481   00FFA7  20                 	db	32
   482   00FFA8  63                 	db	99	;'c'
   483   00FFA9  6F                 	db	111	;'o'
   484   00FFAA  72                 	db	114	;'r'
   485   00FFAB  72                 	db	114	;'r'
   486   00FFAC  65                 	db	101	;'e'
   487   00FFAD  63                 	db	99	;'c'
   488   00FFAE  74                 	db	116	;'t'
   489   00FFAF  00                 	db	0
   490   00FFB0                     STR_29:
   491   00FFB0  77                 	db	119	;'w'
   492   00FFB1  72                 	db	114	;'r'
   493   00FFB2  6F                 	db	111	;'o'
   494   00FFB3  6E                 	db	110	;'n'
   495   00FFB4  67                 	db	103	;'g'
   496   00FFB5  20                 	db	32
   497   00FFB6  70                 	db	112	;'p'
   498   00FFB7  61                 	db	97	;'a'
   499   00FFB8  73                 	db	115	;'s'
   500   00FFB9  73                 	db	115	;'s'
   501   00FFBA  77                 	db	119	;'w'
   502   00FFBB  6F                 	db	111	;'o'
   503   00FFBC  72                 	db	114	;'r'
   504   00FFBD  64                 	db	100	;'d'
   505   00FFBE  20                 	db	32
   506   00FFBF  00                 	db	0
   507   00FFC0                     STR_27:
   508   00FFC0  70                 	db	112	;'p'
   509   00FFC1  61                 	db	97	;'a'
   510   00FFC2  73                 	db	115	;'s'
   511   00FFC3  73                 	db	115	;'s'
   512   00FFC4  77                 	db	119	;'w'
   513   00FFC5  6F                 	db	111	;'o'
   514   00FFC6  72                 	db	114	;'r'
   515   00FFC7  64                 	db	100	;'d'
   516   00FFC8  20                 	db	32
   517   00FFC9  73                 	db	115	;'s'
   518   00FFCA  61                 	db	97	;'a'
   519   00FFCB  76                 	db	118	;'v'
   520   00FFCC  65                 	db	101	;'e'
   521   00FFCD  64                 	db	100	;'d'
   522   00FFCE  00                 	db	0
   523   00FFCF                     STR_15:
   524   00FFCF  6D                 	db	109	;'m'
   525   00FFD0  69                 	db	105	;'i'
   526   00FFD1  6E                 	db	110	;'n'
   527   00FFD2  20                 	db	32
   528   00FFD3  34                 	db	52	;'4'
   529   00FFD4  20                 	db	32
   530   00FFD5  64                 	db	100	;'d'
   531   00FFD6  69                 	db	105	;'i'
   532   00FFD7  67                 	db	103	;'g'
   533   00FFD8  69                 	db	105	;'i'
   534   00FFD9  74                 	db	116	;'t'
   535   00FFDA  73                 	db	115	;'s'
   536   00FFDB  20                 	db	32
   537   00FFDC  00                 	db	0
   538   00FFDD                     STR_19:
   539   00FFDD  6D                 	db	109	;'m'
   540   00FFDE  61                 	db	97	;'a'
   541   00FFDF  78                 	db	120	;'x'
   542   00FFE0  20                 	db	32
   543   00FFE1  38                 	db	56	;'8'
   544   00FFE2  20                 	db	32
   545   00FFE3  64                 	db	100	;'d'
   546   00FFE4  69                 	db	105	;'i'
   547   00FFE5  67                 	db	103	;'g'
   548   00FFE6  69                 	db	105	;'i'
   549   00FFE7  74                 	db	116	;'t'
   550   00FFE8  73                 	db	115	;'s'
   551   00FFE9  20                 	db	32
   552   00FFEA  00                 	db	0
   553   00FFEB                     STR_10:
   554   00FFEB  77                 	db	119	;'w'
   555   00FFEC  65                 	db	101	;'e'
   556   00FFED  6C                 	db	108	;'l'
   557   00FFEE  63                 	db	99	;'c'
   558   00FFEF  6F                 	db	111	;'o'
   559   00FFF0  6D                 	db	109	;'m'
   560   00FFF1  65                 	db	101	;'e'
   561   00FFF2  00                 	db	0
   562   00FFF3                     STR_44:
   563   00FFF3  2F                 	db	47
   564   00FFF4  33                 	db	51	;'3'
   565   00FFF5  00                 	db	0
   566   00FFF6                     STR_1:
   567   00FFF6  25                 	db	37
   568   00FFF7  69                 	db	105	;'i'
   569   00FFF8  00                 	db	0
   570   00FFF9                     STR_12:
   571   00FFF9  3A                 	db	58	;':'
   572   00FFFA  00                 	db	0
   573   00FFFB                     STR_9:
   574   00FFFB  31                 	db	49	;'1'
   575   00FFFC  00                 	db	0
   576   00FFFD                     STR_7:
   577   00FFFD  32                 	db	50	;'2'
   578   00FFFE  00                 	db	0
   579   00FFFF  00                 	db	0	; dummy byte at the end
   580   000000                     
   581                           ; #config settings
   582                           
   583                           	psect	cinit
   584   00297A                     __pcinit:
   585                           	callstack 0
   586   00297A                     start_initialization:
   587                           	callstack 0
   588   00297A                     __initialization:
   589                           	callstack 0
   590                           
   591                           ; Initialize objects allocated to BANK1 (16 bytes)
   592                           ; load TBLPTR registers with __pidataBANK1
   593   00297A  0E24               	movlw	low __pidataBANK1
   594   00297C  6EF6               	movwf	tblptrl,c
   595   00297E  0E37               	movlw	high __pidataBANK1
   596   002980  6EF7               	movwf	tblptrh,c
   597   002982  0E00               	movlw	low (__pidataBANK1 shr (0+16))
   598   002984  6EF8               	movwf	tblptru,c
   599   002986  EE01  F041         	lfsr	0,__pdataBANK1
   600   00298A  EE10 F010          	lfsr	1,16
   601   00298E                     copy_data0:
   602   00298E  0009               	tblrd		*+
   603   002990  CFF5 FFEE          	movff	tablat,postinc0
   604   002994  50E5               	movf	postdec1,w,c
   605   002996  50E1               	movf	fsr1l,w,c
   606   002998  E1FA               	bnz	copy_data0
   607                           
   608                           ; Initialize objects allocated to BANK0 (47 bytes)
   609                           ; load TBLPTR registers with __pidataBANK0
   610   00299A  0EF2               	movlw	low __pidataBANK0
   611   00299C  6EF6               	movwf	tblptrl,c
   612   00299E  0E34               	movlw	high __pidataBANK0
   613   0029A0  6EF7               	movwf	tblptrh,c
   614   0029A2  0E00               	movlw	low (__pidataBANK0 shr (0+16))
   615   0029A4  6EF8               	movwf	tblptru,c
   616   0029A6  EE00  F080         	lfsr	0,__pdataBANK0
   617   0029AA  EE10 F02F          	lfsr	1,47
   618   0029AE                     copy_data1:
   619   0029AE  0009               	tblrd		*+
   620   0029B0  CFF5 FFEE          	movff	tablat,postinc0
   621   0029B4  50E5               	movf	postdec1,w,c
   622   0029B6  50E1               	movf	fsr1l,w,c
   623   0029B8  E1FA               	bnz	copy_data1
   624                           
   625                           ; Initialize objects allocated to COMRAM (15 bytes)
   626                           ; load TBLPTR registers with __pidataCOMRAM
   627   0029BA  0E34               	movlw	low __pidataCOMRAM
   628   0029BC  6EF6               	movwf	tblptrl,c
   629   0029BE  0E37               	movlw	high __pidataCOMRAM
   630   0029C0  6EF7               	movwf	tblptrh,c
   631   0029C2  0E00               	movlw	low (__pidataCOMRAM shr (0+16))
   632   0029C4  6EF8               	movwf	tblptru,c
   633   0029C6  EE00  F049         	lfsr	0,__pdataCOMRAM
   634   0029CA  EE10 F00F          	lfsr	1,15
   635   0029CE                     copy_data2:
   636   0029CE  0009               	tblrd		*+
   637   0029D0  CFF5 FFEE          	movff	tablat,postinc0
   638   0029D4  50E5               	movf	postdec1,w,c
   639   0029D6  50E1               	movf	fsr1l,w,c
   640   0029D8  E1FA               	bnz	copy_data2
   641                           
   642                           ; Clear objects allocated to BANK1 (32 bytes)
   643   0029DA  EE01  F021         	lfsr	0,__pbssBANK1
   644   0029DE  0E20               	movlw	32
   645   0029E0                     clear_0:
   646   0029E0  6AEE               	clrf	postinc0,c
   647   0029E2  06E8               	decf	wreg,f,c
   648   0029E4  E1FD               	bnz	clear_0
   649                           
   650                           ; Clear objects allocated to BANK0 (43 bytes)
   651   0029E6  EE00  F0AF         	lfsr	0,__pbssBANK0
   652   0029EA  0E2B               	movlw	43
   653   0029EC                     clear_1:
   654   0029EC  6AEE               	clrf	postinc0,c
   655   0029EE  06E8               	decf	wreg,f,c
   656   0029F0  E1FD               	bnz	clear_1
   657                           
   658                           ; Clear objects allocated to COMRAM (31 bytes)
   659   0029F2  EE00  F02A         	lfsr	0,__pbssCOMRAM
   660   0029F6  0E1F               	movlw	31
   661   0029F8                     clear_2:
   662   0029F8  6AEE               	clrf	postinc0,c
   663   0029FA  06E8               	decf	wreg,f,c
   664   0029FC  E1FD               	bnz	clear_2
   665   0029FE                     end_of_initialization:
   666                           	callstack 0
   667   0029FE                     __end_of__initialization:
   668                           	callstack 0
   669   0029FE  9058               	bcf	int$flags,0,c	;clear compiler interrupt flag (level 1)
   670   002A00  9258               	bcf	int$flags,1,c	;clear compiler interrupt flag (level 2)
   671   002A02  0100               	movlb	0
   672   002A04  EF8F  F009         	goto	_main	;jump to C main() function
   673                           
   674                           	psect	bssCOMRAM
   675   00002A                     __pbssCOMRAM:
   676                           	callstack 0
   677   00002A                     _RB7_INTERRUPT_HANDLER_LOW:
   678                           	callstack 0
   679   00002A                     	ds	2
   680   00002C                     _RB7_INTERRUPT_HANDLER_HIGH:
   681                           	callstack 0
   682   00002C                     	ds	2
   683   00002E                     _RB6_INTERRUPT_HANDLER_LOW:
   684                           	callstack 0
   685   00002E                     	ds	2
   686   000030                     _RB6_INTERRUPT_HANDLER_HIGH:
   687                           	callstack 0
   688   000030                     	ds	2
   689   000032                     _RB5_INTERRUPT_HANDLER_LOW:
   690                           	callstack 0
   691   000032                     	ds	2
   692   000034                     _RB5_INTERRUPT_HANDLER_HIGH:
   693                           	callstack 0
   694   000034                     	ds	2
   695   000036                     _RB4_INTERRUPT_HANDLER_LOW:
   696                           	callstack 0
   697   000036                     	ds	2
   698   000038                     _RB4_INTERRUPT_HANDLER_HIGH:
   699                           	callstack 0
   700   000038                     	ds	2
   701   00003A                     _INT2_INTERRUPT_HANDLER:
   702                           	callstack 0
   703   00003A                     	ds	2
   704   00003C                     _INT1_INTERRUPT_HANDLER:
   705                           	callstack 0
   706   00003C                     	ds	2
   707   00003E                     _INT0_INTERRUPT_HANDLER:
   708                           	callstack 0
   709   00003E                     	ds	2
   710   000040                     _flags:
   711                           	callstack 0
   712   000040                     	ds	1
   713   000041                     ecu_relay_off@F3063:
   714                           	callstack 0
   715   000041                     	ds	1
   716   000042                     ecu_relay_on@F3058:
   717                           	callstack 0
   718   000042                     	ds	1
   719   000043                     ecu_relay_initialize@F3053:
   720                           	callstack 0
   721   000043                     	ds	1
   722   000044                     ecu_led_turn_toggle@F3074:
   723                           	callstack 0
   724   000044                     	ds	1
   725   000045                     ecu_led_turn_off@F3069:
   726                           	callstack 0
   727   000045                     	ds	1
   728   000046                     ecu_led_turn_on@F3064:
   729                           	callstack 0
   730   000046                     	ds	1
   731   000047                     ecu_led_initialize@F3059:
   732                           	callstack 0
   733   000047                     	ds	1
   734   000048                     _keypad_value:
   735                           	callstack 0
   736   000048                     	ds	1
   737                           
   738                           	psect	dataCOMRAM
   739   000049                     __pdataCOMRAM:
   740                           	callstack 0
   741   000049                     _RB7_flag:
   742                           	callstack 0
   743   000049                     	ds	1
   744   00004A                     _RB6_flag:
   745                           	callstack 0
   746   00004A                     	ds	1
   747   00004B                     _RB5_flag:
   748                           	callstack 0
   749   00004B                     	ds	1
   750   00004C                     _RB4_flag:
   751                           	callstack 0
   752   00004C                     	ds	1
   753   00004D                     _lcd1:
   754                           	callstack 0
   755   00004D                     	ds	6
   756   000053                     _motor1:
   757                           	callstack 0
   758   000053                     	ds	2
   759   000055                     _buzzer:
   760                           	callstack 0
   761   000055                     	ds	1
   762   000056                     _green_led:
   763                           	callstack 0
   764   000056                     	ds	1
   765   000057                     _red_led:
   766                           	callstack 0
   767   000057                     	ds	1
   768                           
   769                           	psect	bssBANK0
   770   0000AF                     __pbssBANK0:
   771                           	callstack 0
   772   0000AF                     _width:
   773                           	callstack 0
   774   0000AF                     	ds	2
   775   0000B1                     _prec:
   776                           	callstack 0
   777   0000B1                     	ds	2
   778   0000B3                     _selected_mode:
   779                           	callstack 0
   780   0000B3                     	ds	1
   781   0000B4                     _stored_pass_obj:
   782                           	callstack 0
   783   0000B4                     	ds	9
   784   0000BD                     _enterd_pass_obj:
   785                           	callstack 0
   786   0000BD                     	ds	9
   787   0000C6                     _confirm_pass_obj:
   788                           	callstack 0
   789   0000C6                     	ds	9
   790   0000CF                     _pass_obj:
   791                           	callstack 0
   792   0000CF                     	ds	9
   793   0000D8                     _user_statue:
   794                           	callstack 0
   795   0000D8                     	ds	1
   796   0000D9                     _pass_check:
   797                           	callstack 0
   798   0000D9                     	ds	1
   799                           
   800                           	psect	dataBANK0
   801   000080                     __pdataBANK0:
   802                           	callstack 0
   803   000080                     _port_registers:
   804                           	callstack 0
   805   000080                     	ds	10
   806   00008A                     _lat_registers:
   807                           	callstack 0
   808   00008A                     	ds	10
   809   000094                     _tris_registers:
   810                           	callstack 0
   811   000094                     	ds	10
   812   00009E                     _btn1:
   813                           	callstack 0
   814   00009E                     	ds	3
   815   0000A1                     _keypad:
   816                           	callstack 0
   817   0000A1                     	ds	8
   818   0000A9                     _INT_obj:
   819                           	callstack 0
   820   0000A9                     	ds	6
   821                           
   822                           	psect	bssBANK1
   823   000121                     __pbssBANK1:
   824                           	callstack 0
   825   000121                     _dbuf:
   826                           	callstack 0
   827   000121                     	ds	32
   828                           
   829                           	psect	dataBANK1
   830   000141                     __pdataBANK1:
   831                           	callstack 0
   832   000141                     _keypad_values:
   833                           	callstack 0
   834   000141                     	ds	16
   835                           
   836                           	psect	cstackBANK1
   837   000100                     __pcstackBANK1:
   838                           	callstack 0
   839   000100                     ?_sprintf:
   840                           	callstack 0
   841   000100                     change_password@lcd_counter:
   842                           	callstack 0
   843   000100                     sprintf@s:
   844                           	callstack 0
   845                           
   846                           ; 2 bytes @ 0x0
   847   000100                     	ds	1
   848   000101                     change_password@comparing_result:
   849                           	callstack 0
   850                           
   851                           ; 1 bytes @ 0x1
   852   000101                     	ds	1
   853   000102                     change_password@counter:
   854                           	callstack 0
   855   000102                     sprintf@fmt:
   856                           	callstack 0
   857                           
   858                           ; 2 bytes @ 0x2
   859   000102                     	ds	4
   860   000106                     sprintf@ap:
   861                           	callstack 0
   862                           
   863                           ; 2 bytes @ 0x6
   864   000106                     	ds	2
   865   000108                     sprintf@f:
   866                           	callstack 0
   867                           
   868                           ; 12 bytes @ 0x8
   869   000108                     	ds	12
   870   000114                     entering_password@enterd_pass_obj:
   871                           	callstack 0
   872                           
   873                           ; 1 bytes @ 0x14
   874   000114                     	ds	1
   875   000115                     entering_password@stored_pass_obj:
   876                           	callstack 0
   877                           
   878                           ; 1 bytes @ 0x15
   879   000115                     	ds	1
   880   000116                     entering_password@user_statue:
   881                           	callstack 0
   882                           
   883                           ; 1 bytes @ 0x16
   884   000116                     	ds	1
   885   000117                     entering_password@str:
   886                           	callstack 0
   887                           
   888                           ; 4 bytes @ 0x17
   889   000117                     	ds	4
   890   00011B                     entering_password@wrong_counter:
   891                           	callstack 0
   892                           
   893                           ; 1 bytes @ 0x1B
   894   00011B                     	ds	1
   895   00011C                     entering_password@comparing_result:
   896                           	callstack 0
   897                           
   898                           ; 1 bytes @ 0x1C
   899   00011C                     	ds	1
   900   00011D                     entering_password@lcd_counter:
   901                           	callstack 0
   902                           
   903                           ; 1 bytes @ 0x1D
   904   00011D                     	ds	1
   905   00011E                     entering_password@counter:
   906                           	callstack 0
   907                           
   908                           ; 1 bytes @ 0x1E
   909   00011E                     	ds	1
   910   00011F                     ??_main:
   911                           
   912                           ; 1 bytes @ 0x1F
   913   00011F                     	ds	2
   914                           
   915                           	psect	cstackBANK0
   916   0000DA                     __pcstackBANK0:
   917                           	callstack 0
   918   0000DA                     ?___awdiv:
   919                           	callstack 0
   920   0000DA                     ?___awmod:
   921                           	callstack 0
   922   0000DA                     comparing_password@pass_obj:
   923                           	callstack 0
   924   0000DA                     gpio_pin_direction_initialize@_pin_config:
   925                           	callstack 0
   926   0000DA                     gpio_pin_write_logic@_pin_config:
   927                           	callstack 0
   928   0000DA                     gpio_pin_read_logic@_pin_config:
   929                           	callstack 0
   930   0000DA                     INTERRUPT_INTx_enable@int_obj:
   931                           	callstack 0
   932   0000DA                     INTERRUPT_INTx_disable@int_obj:
   933                           	callstack 0
   934   0000DA                     INTERRUPT_INTx_edge_int@int_obj:
   935                           	callstack 0
   936   0000DA                     INTERRUPT_INTx_clear_flag@int_obj:
   937                           	callstack 0
   938   0000DA                     Data_EEPROM_WriteByte@badd:
   939                           	callstack 0
   940   0000DA                     Data_EEPROM_ReadByte@badd:
   941                           	callstack 0
   942   0000DA                     INT0_SET_INTERRUPT_HANDLER@INTERRUPT_HANDLER:
   943                           	callstack 0
   944   0000DA                     INT1_SET_INTERRUPT_HANDLER@INTERRUPT_HANDLER:
   945                           	callstack 0
   946   0000DA                     INT2_SET_INTERRUPT_HANDLER@INTERRUPT_HANDLER:
   947                           	callstack 0
   948   0000DA                     ___awdiv@dividend:
   949                           	callstack 0
   950   0000DA                     ___awmod@dividend:
   951                           	callstack 0
   952   0000DA                     memset@dest:
   953                           	callstack 0
   954   0000DA                     fputc@c:
   955                           	callstack 0
   956                           
   957                           ; 2 bytes @ 0x0
   958   0000DA                     	ds	1
   959   0000DB                     ??_gpio_pin_direction_initialize:
   960   0000DB                     ??_INTERRUPT_INTx_disable:
   961   0000DB                     ??_INTERRUPT_INTx_clear_flag:
   962   0000DB                     ??_INTERRUPT_INTx_edge_int:
   963   0000DB                     ??_INTERRUPT_INTx_enable:
   964   0000DB                     comparing_password@confirm_pass_obj:
   965                           	callstack 0
   966   0000DB                     gpio_pin_write_logic@logic:
   967                           	callstack 0
   968   0000DB                     gpio_pin_read_logic@logic:
   969                           	callstack 0
   970                           
   971                           ; 1 bytes @ 0x1
   972   0000DB                     	ds	1
   973   0000DC                     ??_gpio_pin_write_logic:
   974   0000DC                     ??_gpio_pin_read_logic:
   975   0000DC                     comparing_password@result:
   976                           	callstack 0
   977   0000DC                     Data_EEPROM_WriteByte@bData:
   978                           	callstack 0
   979   0000DC                     Data_EEPROM_ReadByte@bData:
   980                           	callstack 0
   981   0000DC                     INTERRUPT_SET_INTERRUPT_HANDLER@int_obj:
   982                           	callstack 0
   983   0000DC                     ___awdiv@divisor:
   984                           	callstack 0
   985   0000DC                     ___awmod@divisor:
   986                           	callstack 0
   987   0000DC                     memset@c:
   988                           	callstack 0
   989   0000DC                     fputc@fp:
   990                           	callstack 0
   991                           
   992                           ; 2 bytes @ 0x2
   993   0000DC                     	ds	1
   994   0000DD                     ??_INTERRUPT_SET_INTERRUPT_HANDLER:
   995   0000DD                     check_entered_password@enterd_pass_obj:
   996                           	callstack 0
   997   0000DD                     Data_EEPROM_WriteByte@GLOBAL_INTERRUPT_STATUS:
   998                           	callstack 0
   999   0000DD                     INTERRUPT_INTx_enable@ret:
  1000                           	callstack 0
  1001   0000DD                     INTERRUPT_INTx_disable@ret:
  1002                           	callstack 0
  1003   0000DD                     INTERRUPT_INTx_edge_int@ret:
  1004                           	callstack 0
  1005   0000DD                     INTERRUPT_INTx_clear_flag@ret:
  1006                           	callstack 0
  1007                           
  1008                           ; 1 bytes @ 0x3
  1009   0000DD                     	ds	1
  1010   0000DE                     ??_fputc:
  1011   0000DE                     save_password@pass_obj:
  1012                           	callstack 0
  1013   0000DE                     check_entered_password@stored_pass_obj:
  1014                           	callstack 0
  1015   0000DE                     ___awdiv@counter:
  1016                           	callstack 0
  1017   0000DE                     ___awmod@counter:
  1018                           	callstack 0
  1019   0000DE                     memset@n:
  1020                           	callstack 0
  1021                           
  1022                           ; 2 bytes @ 0x4
  1023   0000DE                     	ds	1
  1024   0000DF                     save_password@counter:
  1025                           	callstack 0
  1026   0000DF                     comparing_password@looping_counter:
  1027                           	callstack 0
  1028   0000DF                     INTERRUPT_SET_INTERRUPT_HANDLER@ret:
  1029                           	callstack 0
  1030   0000DF                     ___awdiv@sign:
  1031                           	callstack 0
  1032   0000DF                     ___awmod@sign:
  1033                           	callstack 0
  1034   0000DF                     check_entered_password@result:
  1035                           	callstack 0
  1036                           
  1037                           ; 2 bytes @ 0x5
  1038   0000DF                     	ds	1
  1039   0000E0                     ?_abs:
  1040                           	callstack 0
  1041   0000E0                     comparing_password@comparing_counter:
  1042                           	callstack 0
  1043   0000E0                     gpio_pin_direction_initialize@ret:
  1044                           	callstack 0
  1045   0000E0                     ___awdiv@quotient:
  1046                           	callstack 0
  1047   0000E0                     memset@p:
  1048                           	callstack 0
  1049   0000E0                     abs@a:
  1050                           	callstack 0
  1051                           
  1052                           ; 2 bytes @ 0x6
  1053   0000E0                     	ds	1
  1054   0000E1                     ??_check_entered_password:
  1055   0000E1                     gpio_pin_write_logic@ret:
  1056                           	callstack 0
  1057   0000E1                     INTERRUPT_INTx_pin_int@int_obj:
  1058                           	callstack 0
  1059                           
  1060                           ; 1 bytes @ 0x7
  1061   0000E1                     	ds	1
  1062   0000E2                     ??_abs:
  1063   0000E2                     lcd_send_4bit@lcd:
  1064                           	callstack 0
  1065   0000E2                     lcd_4bit_send_enable_enable@lcd:
  1066                           	callstack 0
  1067   0000E2                     ecu_dc_motor_move_left@dc_motor:
  1068                           	callstack 0
  1069   0000E2                     ecu_dc_motor_stop@dc_motor:
  1070                           	callstack 0
  1071   0000E2                     ecu_keypad_get_value@keypad:
  1072                           	callstack 0
  1073   0000E2                     ecu_led_turn_on@led:
  1074                           	callstack 0
  1075   0000E2                     ecu_led_turn_off@led:
  1076                           	callstack 0
  1077   0000E2                     gpio_pin_initialize@_pin_config:
  1078                           	callstack 0
  1079   0000E2                     INTERRUPT_INTx_pin_int@ret:
  1080                           	callstack 0
  1081                           
  1082                           ; 1 bytes @ 0x8
  1083   0000E2                     	ds	1
  1084   0000E3                     ??_gpio_pin_initialize:
  1085   0000E3                     ??_ecu_led_turn_on:
  1086   0000E3                     ??_ecu_led_turn_off:
  1087   0000E3                     lcd_send_4bit@command_data:
  1088                           	callstack 0
  1089   0000E3                     lcd_4bit_send_enable_enable@ret:
  1090                           	callstack 0
  1091   0000E3                     ecu_keypad_get_value@value:
  1092                           	callstack 0
  1093   0000E3                     check_entered_password@comparing_counter:
  1094                           	callstack 0
  1095   0000E3                     Interrupt_INTx_Init@int_obj:
  1096                           	callstack 0
  1097                           
  1098                           ; 1 bytes @ 0x9
  1099   0000E3                     	ds	1
  1100   0000E4                     ??_ecu_keypad_get_value:
  1101   0000E4                     lcd_send_4bit@ret:
  1102                           	callstack 0
  1103   0000E4                     ecu_led_turn_on@led_pin:
  1104                           	callstack 0
  1105   0000E4                     ecu_led_turn_off@led_pin:
  1106                           	callstack 0
  1107   0000E4                     check_entered_password@helper_counter:
  1108                           	callstack 0
  1109   0000E4                     gpio_pin_initialize@ret:
  1110                           	callstack 0
  1111   0000E4                     Interrupt_INTx_Init@ret:
  1112                           	callstack 0
  1113   0000E4                     vfpfcnvrt@fp:
  1114                           	callstack 0
  1115                           
  1116                           ; 2 bytes @ 0xA
  1117   0000E4                     	ds	1
  1118   0000E5                     lcd_4bit_send_command@lcd:
  1119                           	callstack 0
  1120   0000E5                     lcd_4bit_send_char_data@lcd:
  1121                           	callstack 0
  1122   0000E5                     ecu_dc_motor_initialize@dc_motor:
  1123                           	callstack 0
  1124   0000E5                     ecu_keypad_initialize@keypad:
  1125                           	callstack 0
  1126   0000E5                     ecu_led_initialize@led:
  1127                           	callstack 0
  1128                           
  1129                           ; 1 bytes @ 0xB
  1130   0000E5                     	ds	1
  1131   0000E6                     ??_ecu_led_initialize:
  1132   0000E6                     lcd_4bit_send_command@command:
  1133                           	callstack 0
  1134   0000E6                     lcd_4bit_send_char_data@data:
  1135                           	callstack 0
  1136   0000E6                     ecu_keypad_initialize@rows:
  1137                           	callstack 0
  1138   0000E6                     ecu_keypad_get_value@column_val:
  1139                           	callstack 0
  1140   0000E6                     vfpfcnvrt@fmt:
  1141                           	callstack 0
  1142                           
  1143                           ; 1 bytes @ 0xC
  1144   0000E6                     	ds	1
  1145   0000E7                     lcd_4bit_send_command@ret:
  1146                           	callstack 0
  1147   0000E7                     lcd_4bit_send_char_data@ret:
  1148                           	callstack 0
  1149   0000E7                     ecu_keypad_initialize@columns:
  1150                           	callstack 0
  1151   0000E7                     ecu_keypad_get_value@clear_rows_counter:
  1152                           	callstack 0
  1153   0000E7                     ecu_led_initialize@led_pin:
  1154                           	callstack 0
  1155   0000E7                     vfpfcnvrt@ap:
  1156                           	callstack 0
  1157                           
  1158                           ; 2 bytes @ 0xD
  1159   0000E7                     	ds	1
  1160   0000E8                     lcd_4bit_initialize@lcd:
  1161                           	callstack 0
  1162   0000E8                     lcd_4bit_set_curser@lcd:
  1163                           	callstack 0
  1164   0000E8                     ecu_keypad_get_value@rows:
  1165                           	callstack 0
  1166                           
  1167                           ; 1 bytes @ 0xE
  1168   0000E8                     	ds	1
  1169   0000E9                     ??_lcd_4bit_initialize:
  1170   0000E9                     ??_vfpfcnvrt:
  1171   0000E9                     lcd_4bit_set_curser@row:
  1172                           	callstack 0
  1173   0000E9                     ecu_keypad_get_value@columns:
  1174                           	callstack 0
  1175                           
  1176                           ; 1 bytes @ 0xF
  1177   0000E9                     	ds	1
  1178   0000EA                     lcd_4bit_initialize@counter:
  1179                           	callstack 0
  1180   0000EA                     lcd_4bit_set_curser@column:
  1181                           	callstack 0
  1182                           
  1183                           ; 1 bytes @ 0x10
  1184   0000EA                     	ds	1
  1185   0000EB                     ??_lcd_4bit_set_curser:
  1186   0000EB                     lcd_4bit_initialize@ret:
  1187                           	callstack 0
  1188   0000EB                     vfpfcnvrt@done:
  1189                           	callstack 0
  1190                           
  1191                           ; 1 bytes @ 0x11
  1192   0000EB                     	ds	1
  1193   0000EC                     vfpfcnvrt@cp:
  1194                           	callstack 0
  1195                           
  1196                           ; 2 bytes @ 0x12
  1197   0000EC                     	ds	1
  1198   0000ED                     lcd_4bit_set_curser@ret:
  1199                           	callstack 0
  1200                           
  1201                           ; 1 bytes @ 0x13
  1202   0000ED                     	ds	1
  1203   0000EE                     lcd_4bit_send_char_data_pos@lcd:
  1204                           	callstack 0
  1205   0000EE                     lcd_4bit_send_string_pos@lcd:
  1206                           	callstack 0
  1207   0000EE                     vfpfcnvrt@convarg:
  1208                           	callstack 0
  1209                           
  1210                           ; 4 bytes @ 0x14
  1211   0000EE                     	ds	1
  1212   0000EF                     lcd_4bit_send_char_data_pos@row:
  1213                           	callstack 0
  1214   0000EF                     lcd_4bit_send_string_pos@row:
  1215                           	callstack 0
  1216                           
  1217                           ; 1 bytes @ 0x15
  1218   0000EF                     	ds	1
  1219   0000F0                     lcd_4bit_send_char_data_pos@column:
  1220                           	callstack 0
  1221   0000F0                     lcd_4bit_send_string_pos@column:
  1222                           	callstack 0
  1223                           
  1224                           ; 1 bytes @ 0x16
  1225   0000F0                     	ds	1
  1226   0000F1                     lcd_4bit_send_char_data_pos@data:
  1227                           	callstack 0
  1228   0000F1                     lcd_4bit_send_string_pos@str:
  1229                           	callstack 0
  1230                           
  1231                           ; 2 bytes @ 0x17
  1232   0000F1                     	ds	1
  1233   0000F2                     lcd_4bit_send_char_data_pos@ret:
  1234                           	callstack 0
  1235   0000F2                     vfpfcnvrt@c:
  1236                           	callstack 0
  1237                           
  1238                           ; 1 bytes @ 0x18
  1239   0000F2                     	ds	1
  1240   0000F3                     ??_welcome_msg:
  1241   0000F3                     ?_vfprintf:
  1242                           	callstack 0
  1243   0000F3                     get_password@pass_obj:
  1244                           	callstack 0
  1245   0000F3                     password_confirmation@pass_obj:
  1246                           	callstack 0
  1247   0000F3                     vfprintf@fp:
  1248                           	callstack 0
  1249                           
  1250                           ; 2 bytes @ 0x19
  1251   0000F3                     	ds	1
  1252   0000F4                     ??_get_password:
  1253   0000F4                     password_confirmation@confirm_pass_obj:
  1254                           	callstack 0
  1255                           
  1256                           ; 1 bytes @ 0x1A
  1257   0000F4                     	ds	1
  1258   0000F5                     ??_password_confirmation:
  1259   0000F5                     vfprintf@fmt:
  1260                           	callstack 0
  1261                           
  1262                           ; 2 bytes @ 0x1B
  1263   0000F5                     	ds	1
  1264   0000F6                     get_password@lcd_counter:
  1265                           	callstack 0
  1266                           
  1267                           ; 1 bytes @ 0x1C
  1268   0000F6                     	ds	1
  1269   0000F7                     get_password@counter:
  1270                           	callstack 0
  1271   0000F7                     password_confirmation@lcd_counter:
  1272                           	callstack 0
  1273   0000F7                     vfprintf@ap:
  1274                           	callstack 0
  1275                           
  1276                           ; 2 bytes @ 0x1D
  1277   0000F7                     	ds	1
  1278   0000F8                     password_confirmation@comparing_result:
  1279                           	callstack 0
  1280                           
  1281                           ; 1 bytes @ 0x1E
  1282   0000F8                     	ds	1
  1283   0000F9                     password_confirmation@counter:
  1284                           	callstack 0
  1285   0000F9                     vfprintf@cfmt:
  1286                           	callstack 0
  1287                           
  1288                           ; 2 bytes @ 0x1F
  1289   0000F9                     	ds	1
  1290   0000FA                     change_password@pass_obj:
  1291                           	callstack 0
  1292                           
  1293                           ; 1 bytes @ 0x20
  1294   0000FA                     	ds	1
  1295   0000FB                     change_password@stored_pass_obj:
  1296                           	callstack 0
  1297   0000FB                     convert_byte_to_string@str:
  1298                           	callstack 0
  1299                           
  1300                           ; 2 bytes @ 0x21
  1301   0000FB                     	ds	1
  1302   0000FC                     change_password@enterd_pass_obj:
  1303                           	callstack 0
  1304                           
  1305                           ; 1 bytes @ 0x22
  1306   0000FC                     	ds	1
  1307   0000FD                     convert_byte_to_string@value:
  1308                           	callstack 0
  1309   0000FD                     change_password@confirm_pass_obj:
  1310                           	callstack 0
  1311                           
  1312                           ; 1 bytes @ 0x23
  1313   0000FD                     	ds	1
  1314   0000FE                     ??_entering_password:
  1315   0000FE                     ??_change_password:
  1316                           
  1317                           ; 1 bytes @ 0x24
  1318   0000FE                     	ds	2
  1319                           
  1320                           	psect	cstackCOMRAM
  1321   000001                     __pcstackCOMRAM:
  1322                           	callstack 0
  1323   000001                     RB4_ISR@RB4_source:
  1324                           	callstack 0
  1325   000001                     RB5_ISR@RB5_source:
  1326                           	callstack 0
  1327   000001                     RB6_ISR@RB6_source:
  1328                           	callstack 0
  1329   000001                     RB7_ISR@RB7_source:
  1330                           	callstack 0
  1331   000001                     i2gpio_pin_write_logic@_pin_config:
  1332                           	callstack 0
  1333   000001                     i2Data_EEPROM_WriteByte@badd:
  1334                           	callstack 0
  1335                           
  1336                           ; 2 bytes @ 0x0
  1337   000001                     	ds	1
  1338   000002                     i2gpio_pin_write_logic@logic:
  1339                           	callstack 0
  1340                           
  1341                           ; 1 bytes @ 0x1
  1342   000002                     	ds	1
  1343   000003                     ??i2_gpio_pin_write_logic:
  1344   000003                     i2Data_EEPROM_WriteByte@bData:
  1345                           	callstack 0
  1346                           
  1347                           ; 1 bytes @ 0x2
  1348   000003                     	ds	1
  1349   000004                     i2Data_EEPROM_WriteByte@GLOBAL_INTERRUPT_STATUS:
  1350                           	callstack 0
  1351                           
  1352                           ; 1 bytes @ 0x3
  1353   000004                     	ds	4
  1354   000008                     i2gpio_pin_write_logic@ret:
  1355                           	callstack 0
  1356                           
  1357                           ; 1 bytes @ 0x7
  1358   000008                     	ds	1
  1359   000009                     i2lcd_send_4bit@lcd:
  1360                           	callstack 0
  1361   000009                     i2lcd_4bit_send_enable_enable@lcd:
  1362                           	callstack 0
  1363                           
  1364                           ; 1 bytes @ 0x8
  1365   000009                     	ds	1
  1366   00000A                     i2lcd_send_4bit@command_data:
  1367                           	callstack 0
  1368   00000A                     i2lcd_4bit_send_enable_enable@ret:
  1369                           	callstack 0
  1370                           
  1371                           ; 1 bytes @ 0x9
  1372   00000A                     	ds	1
  1373   00000B                     i2lcd_send_4bit@ret:
  1374                           	callstack 0
  1375                           
  1376                           ; 1 bytes @ 0xA
  1377   00000B                     	ds	1
  1378   00000C                     i2lcd_4bit_send_command@lcd:
  1379                           	callstack 0
  1380   00000C                     i2lcd_4bit_send_char_data@lcd:
  1381                           	callstack 0
  1382                           
  1383                           ; 1 bytes @ 0xB
  1384   00000C                     	ds	1
  1385   00000D                     i2lcd_4bit_send_command@command:
  1386                           	callstack 0
  1387   00000D                     i2lcd_4bit_send_char_data@data:
  1388                           	callstack 0
  1389                           
  1390                           ; 1 bytes @ 0xC
  1391   00000D                     	ds	1
  1392   00000E                     i2lcd_4bit_send_command@ret:
  1393                           	callstack 0
  1394   00000E                     i2lcd_4bit_send_char_data@ret:
  1395                           	callstack 0
  1396                           
  1397                           ; 1 bytes @ 0xD
  1398   00000E                     	ds	1
  1399   00000F                     i2lcd_4bit_set_curser@lcd:
  1400                           	callstack 0
  1401                           
  1402                           ; 1 bytes @ 0xE
  1403   00000F                     	ds	1
  1404   000010                     i2lcd_4bit_set_curser@row:
  1405                           	callstack 0
  1406                           
  1407                           ; 1 bytes @ 0xF
  1408   000010                     	ds	1
  1409   000011                     i2lcd_4bit_set_curser@column:
  1410                           	callstack 0
  1411                           
  1412                           ; 1 bytes @ 0x10
  1413   000011                     	ds	1
  1414   000012                     ??i2_lcd_4bit_set_curser:
  1415                           
  1416                           ; 1 bytes @ 0x11
  1417   000012                     	ds	2
  1418   000014                     i2lcd_4bit_set_curser@ret:
  1419                           	callstack 0
  1420                           
  1421                           ; 1 bytes @ 0x13
  1422   000014                     	ds	1
  1423   000015                     i2lcd_4bit_send_string_pos@lcd:
  1424                           	callstack 0
  1425                           
  1426                           ; 1 bytes @ 0x14
  1427   000015                     	ds	1
  1428   000016                     i2lcd_4bit_send_string_pos@row:
  1429                           	callstack 0
  1430                           
  1431                           ; 1 bytes @ 0x15
  1432   000016                     	ds	1
  1433   000017                     i2lcd_4bit_send_string_pos@column:
  1434                           	callstack 0
  1435                           
  1436                           ; 1 bytes @ 0x16
  1437   000017                     	ds	1
  1438   000018                     i2lcd_4bit_send_string_pos@str:
  1439                           	callstack 0
  1440                           
  1441                           ; 2 bytes @ 0x17
  1442   000018                     	ds	2
  1443   00001A                     ??_INT0_app_ISR:
  1444   00001A                     
  1445                           ; 1 bytes @ 0x19
  1446   00001A                     	ds	2
  1447   00001C                     INT0_app_ISR@i:
  1448                           	callstack 0
  1449                           
  1450                           ; 2 bytes @ 0x1B
  1451   00001C                     	ds	2
  1452   00001E                     ??_INTERRUPT_MANAGER_HIGH:
  1453                           
  1454                           ; 1 bytes @ 0x1D
  1455   00001E                     	ds	12
  1456                           
  1457 ;;
  1458 ;;Main: autosize = 0, tempsize = 2, incstack = 0, save=0
  1459 ;;
  1460 ;; *************** function _main *****************
  1461 ;; Defined at:
  1462 ;;		line 12 in file "application.c"
  1463 ;; Parameters:    Size  Location     Type
  1464 ;;		None
  1465 ;; Auto vars:     Size  Location     Type
  1466 ;;  ret             1    0        unsigned char 
  1467 ;; Return value:  Size  Location     Type
  1468 ;;                  2  1078[None  ] int 
  1469 ;; Registers used:
  1470 ;;		wreg, fsr0l, fsr0h, fsr1l, fsr1h, fsr2l, fsr2h, status,2, status,0, tblptrl, tblptrh, tblptru, prodl, prodh, cstack
  1471 ;; Tracked objects:
  1472 ;;		On entry : 0/0
  1473 ;;		On exit  : 0/0
  1474 ;;		Unchanged: 0/0
  1475 ;; Data sizes:     COMRAM   BANK0   BANK1   BANK2   BANK3   BANK4   BANK5   BANK6   BANK7   BANK8   BANK9  BANK10  BANK1
      +1  BANK12  BANK13  BANK14  BANK15
  1476 ;;      Params:         0       0       0       0       0       0       0       0       0       0       0       0       
      +0       0       0       0       0
  1477 ;;      Locals:         0       0       0       0       0       0       0       0       0       0       0       0       
      +0       0       0       0       0
  1478 ;;      Temps:          0       0       2       0       0       0       0       0       0       0       0       0       
      +0       0       0       0       0
  1479 ;;      Totals:         0       0       2       0       0       0       0       0       0       0       0       0       
      +0       0       0       0       0
  1480 ;;Total ram usage:        2 bytes
  1481 ;; Hardware stack levels required when called: 15
  1482 ;; This function calls:
  1483 ;;		_Application_Initialization
  1484 ;;		_Data_EEPROM_ReadByte
  1485 ;;		_change_password
  1486 ;;		_ecu_dc_motor_move_left
  1487 ;;		_ecu_dc_motor_stop
  1488 ;;		_ecu_keypad_get_value
  1489 ;;		_ecu_led_turn_off
  1490 ;;		_ecu_led_turn_on
  1491 ;;		_entering_password
  1492 ;;		_get_password
  1493 ;;		_gpio_pin_write_logic
  1494 ;;		_lcd_4bit_send_string_pos
  1495 ;;		_password_confirmation
  1496 ;;		_welcome_msg
  1497 ;; This function is called by:
  1498 ;;		Startup code after reset
  1499 ;; This function uses a non-reentrant model
  1500 ;;
  1501                           
  1502                           	psect	text0
  1503   00131E                     __ptext0:
  1504                           	callstack 0
  1505   00131E                     _main:
  1506                           	callstack 16
  1507   00131E                     
  1508                           ;application.c: 14:     Application_Initialization();
  1509   00131E  ECA2  F01B         	call	_Application_Initialization	;wreg free
  1510   001322                     l9380:
  1511                           
  1512                           ;application.c: 17:         welcome_msg();
  1513   001322  ECCE  F015         	call	_welcome_msg	;wreg free
  1514   001326                     
  1515                           ;application.c: 18:         Data_EEPROM_ReadByte(0x03f8,&pass_check);
  1516   001326  0E03               	movlw	3
  1517   001328  0100               	movlb	0	; () banked
  1518   00132A  6FDB               	movwf	(Data_EEPROM_ReadByte@badd+1)& (0+255),b
  1519   00132C  0EF8               	movlw	248
  1520   00132E  6FDA               	movwf	Data_EEPROM_ReadByte@badd& (0+255),b
  1521   001330  0ED9               	movlw	low _pass_check
  1522   001332  6FDC               	movwf	Data_EEPROM_ReadByte@bData& (0+255),b
  1523   001334  EC10  F01A         	call	_Data_EEPROM_ReadByte	;wreg free
  1524   001338                     
  1525                           ;application.c: 19:         if(pass_check == 0xff){
  1526   001338  0100               	movlb	0	; () banked
  1527   00133A  29D9               	incf	_pass_check& (0+255),w,b
  1528   00133C  A4D8               	btfss	status,2,c
  1529   00133E  EFA3  F009         	goto	u8871
  1530   001342  EFA5  F009         	goto	u8870
  1531   001346                     u8871:
  1532   001346  EF27  F00A         	goto	l9408
  1533   00134A                     u8870:
  1534   00134A                     
  1535                           ; BSR set to: 0
  1536                           ;application.c: 20:             lcd_4bit_send_string_pos(&lcd1,2,1,"1-Set new password."
      +                          );
  1537   00134A  0E4D               	movlw	low _lcd1
  1538   00134C  6FEE               	movwf	lcd_4bit_send_string_pos@lcd& (0+255),b
  1539   00134E  0E02               	movlw	2
  1540   001350  6FEF               	movwf	lcd_4bit_send_string_pos@row& (0+255),b
  1541   001352  0E01               	movlw	1
  1542   001354  6FF0               	movwf	lcd_4bit_send_string_pos@column& (0+255),b
  1543   001356  0E55               	movlw	low STR_63
  1544   001358  6FF1               	movwf	lcd_4bit_send_string_pos@str& (0+255),b
  1545   00135A  0EFF               	movlw	high STR_63
  1546   00135C  6FF2               	movwf	(lcd_4bit_send_string_pos@str+1)& (0+255),b
  1547   00135E  EC74  F014         	call	_lcd_4bit_send_string_pos	;wreg free
  1548   001362                     l9388:
  1549                           
  1550                           ;application.c: 24:                 ecu_keypad_get_value(&keypad,&keypad_value);
  1551   001362  0EA1               	movlw	low _keypad
  1552   001364  0100               	movlb	0	; () banked
  1553   001366  6FE2               	movwf	ecu_keypad_get_value@keypad& (0+255),b
  1554   001368  0E48               	movlw	low _keypad_value
  1555   00136A  6FE3               	movwf	ecu_keypad_get_value@value& (0+255),b
  1556   00136C  EC22  F011         	call	_ecu_keypad_get_value	;wreg free
  1557   001370                     
  1558                           ;application.c: 25:                 _delay((unsigned long)((100)*(8000000ul/4000.0)));
  1559   001370  0E02               	movlw	2
  1560   001372  0101               	movlb	1	; () banked
  1561   001374  6F20               	movwf	(??_main+1)& (0+255),b
  1562   001376  0E04               	movlw	4
  1563   001378  6F1F               	movwf	??_main& (0+255),b
  1564   00137A  0EBA               	movlw	186
  1565   00137C                     u8957:
  1566   00137C  2EE8               	decfsz	wreg,f,c
  1567   00137E  D7FE               	bra	u8957
  1568   001380  2F1F               	decfsz	??_main& (0+255),f,b
  1569   001382  D7FC               	bra	u8957
  1570   001384  2F20               	decfsz	(??_main+1)& (0+255),f,b
  1571   001386  D7FA               	bra	u8957
  1572   001388  0000               	nop	
  1573   00138A                     
  1574                           ;application.c: 26:                 }while(keypad_value == 0 );
  1575   00138A  5048               	movf	_keypad_value^0,w,c
  1576   00138C  B4D8               	btfsc	status,2,c
  1577   00138E  EFCB  F009         	goto	u8881
  1578   001392  EFCD  F009         	goto	u8880
  1579   001396                     u8881:
  1580   001396  EFB1  F009         	goto	l9388
  1581   00139A                     u8880:
  1582   00139A                     
  1583                           ;application.c: 28:                 if(keypad_value == '1'){
  1584   00139A  0E31               	movlw	49
  1585   00139C  1848               	xorwf	_keypad_value^0,w,c
  1586   00139E  A4D8               	btfss	status,2,c
  1587   0013A0  EFD4  F009         	goto	u8891
  1588   0013A4  EFD6  F009         	goto	u8890
  1589   0013A8                     u8891:
  1590   0013A8  EFE5  F009         	goto	l9400
  1591   0013AC                     u8890:
  1592   0013AC                     
  1593                           ;application.c: 29:                     _delay((unsigned long)((100)*(8000000ul/4000.0))
      +                          );
  1594   0013AC  0E02               	movlw	2
  1595   0013AE  0101               	movlb	1	; () banked
  1596   0013B0  6F20               	movwf	(??_main+1)& (0+255),b
  1597   0013B2  0E04               	movlw	4
  1598   0013B4  6F1F               	movwf	??_main& (0+255),b
  1599   0013B6  0EBA               	movlw	186
  1600   0013B8                     u8967:
  1601   0013B8  2EE8               	decfsz	wreg,f,c
  1602   0013BA  D7FE               	bra	u8967
  1603   0013BC  2F1F               	decfsz	??_main& (0+255),f,b
  1604   0013BE  D7FC               	bra	u8967
  1605   0013C0  2F20               	decfsz	(??_main+1)& (0+255),f,b
  1606   0013C2  D7FA               	bra	u8967
  1607   0013C4  0000               	nop	
  1608                           
  1609                           ;application.c: 30:                     break;
  1610   0013C6  EF1B  F00A         	goto	l9406
  1611   0013CA                     l9400:
  1612                           
  1613                           ;application.c: 33:                     lcd_4bit_send_string_pos(&lcd1,4,1,"Unavailable 
      +                          process ");
  1614   0013CA  0E4D               	movlw	low _lcd1
  1615   0013CC  0100               	movlb	0	; () banked
  1616   0013CE  6FEE               	movwf	lcd_4bit_send_string_pos@lcd& (0+255),b
  1617   0013D0  0E04               	movlw	4
  1618   0013D2  6FEF               	movwf	lcd_4bit_send_string_pos@row& (0+255),b
  1619   0013D4  0E01               	movlw	1
  1620   0013D6  6FF0               	movwf	lcd_4bit_send_string_pos@column& (0+255),b
  1621   0013D8  0E40               	movlw	low STR_13
  1622   0013DA  6FF1               	movwf	lcd_4bit_send_string_pos@str& (0+255),b
  1623   0013DC  0EFF               	movlw	high STR_13
  1624   0013DE  6FF2               	movwf	(lcd_4bit_send_string_pos@str+1)& (0+255),b
  1625   0013E0  EC74  F014         	call	_lcd_4bit_send_string_pos	;wreg free
  1626   0013E4                     
  1627                           ;application.c: 34:                     _delay((unsigned long)((500)*(8000000ul/4000.0))
      +                          );
  1628   0013E4  0E06               	movlw	6
  1629   0013E6  0101               	movlb	1	; () banked
  1630   0013E8  6F20               	movwf	(??_main+1)& (0+255),b
  1631   0013EA  0E13               	movlw	19
  1632   0013EC  6F1F               	movwf	??_main& (0+255),b
  1633   0013EE  0EAD               	movlw	173
  1634   0013F0                     u8977:
  1635   0013F0  2EE8               	decfsz	wreg,f,c
  1636   0013F2  D7FE               	bra	u8977
  1637   0013F4  2F1F               	decfsz	??_main& (0+255),f,b
  1638   0013F6  D7FC               	bra	u8977
  1639   0013F8  2F20               	decfsz	(??_main+1)& (0+255),f,b
  1640   0013FA  D7FA               	bra	u8977
  1641   0013FC  D000               	nop2	
  1642   0013FE                     
  1643                           ;application.c: 35:                     lcd_4bit_send_string_pos(&lcd1,4,1,"            
      +                                   ");
  1644   0013FE  0E4D               	movlw	low _lcd1
  1645   001400  0100               	movlb	0	; () banked
  1646   001402  6FEE               	movwf	lcd_4bit_send_string_pos@lcd& (0+255),b
  1647   001404  0E04               	movlw	4
  1648   001406  6FEF               	movwf	lcd_4bit_send_string_pos@row& (0+255),b
  1649   001408  0E01               	movlw	1
  1650   00140A  6FF0               	movwf	lcd_4bit_send_string_pos@column& (0+255),b
  1651   00140C  0EE9               	movlw	low STR_14
  1652   00140E  6FF1               	movwf	lcd_4bit_send_string_pos@str& (0+255),b
  1653   001410  0EFE               	movlw	high STR_14
  1654   001412  6FF2               	movwf	(lcd_4bit_send_string_pos@str+1)& (0+255),b
  1655   001414  EC74  F014         	call	_lcd_4bit_send_string_pos	;wreg free
  1656                           
  1657                           ;application.c: 36:                     _delay((unsigned long)((500)*(8000000ul/4000.0))
      +                          );
  1658   001418  0E06               	movlw	6
  1659   00141A  0101               	movlb	1	; () banked
  1660   00141C  6F20               	movwf	(??_main+1)& (0+255),b
  1661   00141E  0E13               	movlw	19
  1662   001420  6F1F               	movwf	??_main& (0+255),b
  1663   001422  0EAD               	movlw	173
  1664   001424                     u8987:
  1665   001424  2EE8               	decfsz	wreg,f,c
  1666   001426  D7FE               	bra	u8987
  1667   001428  2F1F               	decfsz	??_main& (0+255),f,b
  1668   00142A  D7FC               	bra	u8987
  1669   00142C  2F20               	decfsz	(??_main+1)& (0+255),f,b
  1670   00142E  D7FA               	bra	u8987
  1671   001430  D000               	nop2	
  1672   001432  EFB1  F009         	goto	l9388
  1673   001436                     l9406:
  1674                           
  1675                           ;application.c: 40:             get_password(&pass_obj);
  1676   001436  0ECF               	movlw	low _pass_obj
  1677   001438  0100               	movlb	0	; () banked
  1678   00143A  6FF3               	movwf	get_password@pass_obj& (0+255),b
  1679   00143C  ECAC  F007         	call	_get_password	;wreg free
  1680                           
  1681                           ;application.c: 42:             password_confirmation(&pass_obj,&confirm_pass_obj);
  1682   001440  0ECF               	movlw	low _pass_obj
  1683   001442  0100               	movlb	0	; () banked
  1684   001444  6FF3               	movwf	password_confirmation@pass_obj& (0+255),b
  1685   001446  0EC6               	movlw	low _confirm_pass_obj
  1686   001448  6FF4               	movwf	password_confirmation@confirm_pass_obj& (0+255),b
  1687   00144A  EC15  F003         	call	_password_confirmation	;wreg free
  1688   00144E                     l9408:
  1689                           
  1690                           ;application.c: 49:         lcd_4bit_send_string_pos(&lcd1,2,1,"1-Enter password.");
  1691   00144E  0E4D               	movlw	low _lcd1
  1692   001450  0100               	movlb	0	; () banked
  1693   001452  6FEE               	movwf	lcd_4bit_send_string_pos@lcd& (0+255),b
  1694   001454  0E02               	movlw	2
  1695   001456  6FEF               	movwf	lcd_4bit_send_string_pos@row& (0+255),b
  1696   001458  0E01               	movlw	1
  1697   00145A  6FF0               	movwf	lcd_4bit_send_string_pos@column& (0+255),b
  1698   00145C  0E7C               	movlw	low STR_66
  1699   00145E  6FF1               	movwf	lcd_4bit_send_string_pos@str& (0+255),b
  1700   001460  0EFF               	movlw	high STR_66
  1701   001462  6FF2               	movwf	(lcd_4bit_send_string_pos@str+1)& (0+255),b
  1702   001464  EC74  F014         	call	_lcd_4bit_send_string_pos	;wreg free
  1703                           
  1704                           ;application.c: 50:         lcd_4bit_send_string_pos(&lcd1,3,1,"2-Change password.");
  1705   001468  0E4D               	movlw	low _lcd1
  1706   00146A  0100               	movlb	0	; () banked
  1707   00146C  6FEE               	movwf	lcd_4bit_send_string_pos@lcd& (0+255),b
  1708   00146E  0E03               	movlw	3
  1709   001470  6FEF               	movwf	lcd_4bit_send_string_pos@row& (0+255),b
  1710   001472  0E01               	movlw	1
  1711   001474  6FF0               	movwf	lcd_4bit_send_string_pos@column& (0+255),b
  1712   001476  0E69               	movlw	low STR_67
  1713   001478  6FF1               	movwf	lcd_4bit_send_string_pos@str& (0+255),b
  1714   00147A  0EFF               	movlw	high STR_67
  1715   00147C  6FF2               	movwf	(lcd_4bit_send_string_pos@str+1)& (0+255),b
  1716   00147E  EC74  F014         	call	_lcd_4bit_send_string_pos	;wreg free
  1717   001482                     l9410:
  1718                           
  1719                           ;application.c: 55:                 ecu_keypad_get_value(&keypad,&keypad_value);
  1720   001482  0EA1               	movlw	low _keypad
  1721   001484  0100               	movlb	0	; () banked
  1722   001486  6FE2               	movwf	ecu_keypad_get_value@keypad& (0+255),b
  1723   001488  0E48               	movlw	low _keypad_value
  1724   00148A  6FE3               	movwf	ecu_keypad_get_value@value& (0+255),b
  1725   00148C  EC22  F011         	call	_ecu_keypad_get_value	;wreg free
  1726   001490                     
  1727                           ;application.c: 56:                 _delay((unsigned long)((100)*(8000000ul/4000.0)));
  1728   001490  0E02               	movlw	2
  1729   001492  0101               	movlb	1	; () banked
  1730   001494  6F20               	movwf	(??_main+1)& (0+255),b
  1731   001496  0E04               	movlw	4
  1732   001498  6F1F               	movwf	??_main& (0+255),b
  1733   00149A  0EBA               	movlw	186
  1734   00149C                     u8997:
  1735   00149C  2EE8               	decfsz	wreg,f,c
  1736   00149E  D7FE               	bra	u8997
  1737   0014A0  2F1F               	decfsz	??_main& (0+255),f,b
  1738   0014A2  D7FC               	bra	u8997
  1739   0014A4  2F20               	decfsz	(??_main+1)& (0+255),f,b
  1740   0014A6  D7FA               	bra	u8997
  1741   0014A8  0000               	nop	
  1742   0014AA                     
  1743                           ;application.c: 57:                 }while(keypad_value == 0 );
  1744   0014AA  5048               	movf	_keypad_value^0,w,c
  1745   0014AC  B4D8               	btfsc	status,2,c
  1746   0014AE  EF5B  F00A         	goto	u8901
  1747   0014B2  EF5D  F00A         	goto	u8900
  1748   0014B6                     u8901:
  1749   0014B6  EF41  F00A         	goto	l9410
  1750   0014BA                     u8900:
  1751   0014BA                     
  1752                           ;application.c: 59:                 if(keypad_value == '1'){
  1753   0014BA  0E31               	movlw	49
  1754   0014BC  1848               	xorwf	_keypad_value^0,w,c
  1755   0014BE  A4D8               	btfss	status,2,c
  1756   0014C0  EF64  F00A         	goto	u8911
  1757   0014C4  EF66  F00A         	goto	u8910
  1758   0014C8                     u8911:
  1759   0014C8  EF78  F00A         	goto	l9424
  1760   0014CC                     u8910:
  1761   0014CC                     
  1762                           ;application.c: 60:                     selected_mode = 1 ;
  1763   0014CC  0E01               	movlw	1
  1764   0014CE  0100               	movlb	0	; () banked
  1765   0014D0  6FB3               	movwf	_selected_mode& (0+255),b
  1766   0014D2                     l9420:
  1767                           
  1768                           ; BSR set to: 0
  1769                           ;application.c: 61:                     _delay((unsigned long)((100)*(8000000ul/4000.0))
      +                          );
  1770   0014D2  0E02               	movlw	2
  1771   0014D4  0101               	movlb	1	; () banked
  1772   0014D6  6F20               	movwf	(??_main+1)& (0+255),b
  1773   0014D8  0E04               	movlw	4
  1774   0014DA  6F1F               	movwf	??_main& (0+255),b
  1775   0014DC  0EBA               	movlw	186
  1776   0014DE                     u9007:
  1777   0014DE  2EE8               	decfsz	wreg,f,c
  1778   0014E0  D7FE               	bra	u9007
  1779   0014E2  2F1F               	decfsz	??_main& (0+255),f,b
  1780   0014E4  D7FC               	bra	u9007
  1781   0014E6  2F20               	decfsz	(??_main+1)& (0+255),f,b
  1782   0014E8  D7FA               	bra	u9007
  1783   0014EA  0000               	nop	
  1784                           
  1785                           ;application.c: 62:                     break;
  1786   0014EC  EFBC  F00A         	goto	l9438
  1787   0014F0                     l9424:
  1788   0014F0  0E32               	movlw	50
  1789   0014F2  1848               	xorwf	_keypad_value^0,w,c
  1790   0014F4  A4D8               	btfss	status,2,c
  1791   0014F6  EF7F  F00A         	goto	u8921
  1792   0014FA  EF81  F00A         	goto	u8920
  1793   0014FE                     u8921:
  1794   0014FE  EF86  F00A         	goto	l9432
  1795   001502                     u8920:
  1796   001502                     
  1797                           ;application.c: 65:                     selected_mode = 2 ;
  1798   001502  0E02               	movlw	2
  1799   001504  0100               	movlb	0	; () banked
  1800   001506  6FB3               	movwf	_selected_mode& (0+255),b
  1801   001508  EF69  F00A         	goto	l9420
  1802   00150C                     l9432:
  1803                           
  1804                           ;application.c: 70:                     lcd_4bit_send_string_pos(&lcd1,4,1,"Unavailable 
      +                          process ");
  1805   00150C  0E4D               	movlw	low _lcd1
  1806   00150E  0100               	movlb	0	; () banked
  1807   001510  6FEE               	movwf	lcd_4bit_send_string_pos@lcd& (0+255),b
  1808   001512  0E04               	movlw	4
  1809   001514  6FEF               	movwf	lcd_4bit_send_string_pos@row& (0+255),b
  1810   001516  0E01               	movlw	1
  1811   001518  6FF0               	movwf	lcd_4bit_send_string_pos@column& (0+255),b
  1812   00151A  0E40               	movlw	low STR_13
  1813   00151C  6FF1               	movwf	lcd_4bit_send_string_pos@str& (0+255),b
  1814   00151E  0EFF               	movlw	high STR_13
  1815   001520  6FF2               	movwf	(lcd_4bit_send_string_pos@str+1)& (0+255),b
  1816   001522  EC74  F014         	call	_lcd_4bit_send_string_pos	;wreg free
  1817   001526                     
  1818                           ;application.c: 71:                     _delay((unsigned long)((500)*(8000000ul/4000.0))
      +                          );
  1819   001526  0E06               	movlw	6
  1820   001528  0101               	movlb	1	; () banked
  1821   00152A  6F20               	movwf	(??_main+1)& (0+255),b
  1822   00152C  0E13               	movlw	19
  1823   00152E  6F1F               	movwf	??_main& (0+255),b
  1824   001530  0EAD               	movlw	173
  1825   001532                     u9017:
  1826   001532  2EE8               	decfsz	wreg,f,c
  1827   001534  D7FE               	bra	u9017
  1828   001536  2F1F               	decfsz	??_main& (0+255),f,b
  1829   001538  D7FC               	bra	u9017
  1830   00153A  2F20               	decfsz	(??_main+1)& (0+255),f,b
  1831   00153C  D7FA               	bra	u9017
  1832   00153E  D000               	nop2	
  1833   001540                     
  1834                           ;application.c: 72:                     lcd_4bit_send_string_pos(&lcd1,4,1,"            
      +                                   ");
  1835   001540  0E4D               	movlw	low _lcd1
  1836   001542  0100               	movlb	0	; () banked
  1837   001544  6FEE               	movwf	lcd_4bit_send_string_pos@lcd& (0+255),b
  1838   001546  0E04               	movlw	4
  1839   001548  6FEF               	movwf	lcd_4bit_send_string_pos@row& (0+255),b
  1840   00154A  0E01               	movlw	1
  1841   00154C  6FF0               	movwf	lcd_4bit_send_string_pos@column& (0+255),b
  1842   00154E  0EE9               	movlw	low STR_14
  1843   001550  6FF1               	movwf	lcd_4bit_send_string_pos@str& (0+255),b
  1844   001552  0EFE               	movlw	high STR_14
  1845   001554  6FF2               	movwf	(lcd_4bit_send_string_pos@str+1)& (0+255),b
  1846   001556  EC74  F014         	call	_lcd_4bit_send_string_pos	;wreg free
  1847                           
  1848                           ;application.c: 73:                     _delay((unsigned long)((500)*(8000000ul/4000.0))
      +                          );
  1849   00155A  0E06               	movlw	6
  1850   00155C  0101               	movlb	1	; () banked
  1851   00155E  6F20               	movwf	(??_main+1)& (0+255),b
  1852   001560  0E13               	movlw	19
  1853   001562  6F1F               	movwf	??_main& (0+255),b
  1854   001564  0EAD               	movlw	173
  1855   001566                     u9027:
  1856   001566  2EE8               	decfsz	wreg,f,c
  1857   001568  D7FE               	bra	u9027
  1858   00156A  2F1F               	decfsz	??_main& (0+255),f,b
  1859   00156C  D7FC               	bra	u9027
  1860   00156E  2F20               	decfsz	(??_main+1)& (0+255),f,b
  1861   001570  D7FA               	bra	u9027
  1862   001572  D000               	nop2	
  1863   001574  EF41  F00A         	goto	l9410
  1864   001578                     l9438:
  1865                           
  1866                           ;application.c: 77:         if(selected_mode == 1){
  1867   001578  0100               	movlb	0	; () banked
  1868   00157A  05B3               	decf	_selected_mode& (0+255),w,b
  1869   00157C  A4D8               	btfss	status,2,c
  1870   00157E  EFC3  F00A         	goto	u8931
  1871   001582  EFC5  F00A         	goto	u8930
  1872   001586                     u8931:
  1873   001586  EF2C  F00B         	goto	l9462
  1874   00158A                     u8930:
  1875   00158A                     
  1876                           ; BSR set to: 0
  1877                           ;application.c: 78:             entering_password(&enterd_pass_obj,&stored_pass_obj,&use
      +                          r_statue);
  1878   00158A  0EBD               	movlw	low _enterd_pass_obj
  1879   00158C  0101               	movlb	1	; () banked
  1880   00158E  6F14               	movwf	entering_password@enterd_pass_obj& (0+255),b
  1881   001590  0EB4               	movlw	low _stored_pass_obj
  1882   001592  6F15               	movwf	entering_password@stored_pass_obj& (0+255),b
  1883   001594  0ED8               	movlw	low _user_statue
  1884   001596  6F16               	movwf	entering_password@user_statue& (0+255),b
  1885   001598  EC09  F000         	call	_entering_password	;wreg free
  1886   00159C                     
  1887                           ;application.c: 79:             if(user_statue == 1){
  1888   00159C  0100               	movlb	0	; () banked
  1889   00159E  05D8               	decf	_user_statue& (0+255),w,b
  1890   0015A0  A4D8               	btfss	status,2,c
  1891   0015A2  EFD5  F00A         	goto	u8941
  1892   0015A6  EFD7  F00A         	goto	u8940
  1893   0015AA                     u8941:
  1894   0015AA  EF06  F00B         	goto	l9454
  1895   0015AE                     u8940:
  1896   0015AE                     
  1897                           ; BSR set to: 0
  1898                           ;application.c: 80:                 ecu_led_turn_on(&green_led);
  1899   0015AE  0E56               	movlw	low _green_led
  1900   0015B0  6FE2               	movwf	ecu_led_turn_on@led& (0+255),b
  1901   0015B2  EC79  F016         	call	_ecu_led_turn_on	;wreg free
  1902   0015B6                     
  1903                           ;application.c: 81:                 _delay((unsigned long)((1000)*(8000000ul/4000.0)));
  1904   0015B6  0E0B               	movlw	11
  1905   0015B8  0101               	movlb	1	; () banked
  1906   0015BA  6F20               	movwf	(??_main+1)& (0+255),b
  1907   0015BC  0E26               	movlw	38
  1908   0015BE  6F1F               	movwf	??_main& (0+255),b
  1909   0015C0  0E5D               	movlw	93
  1910   0015C2                     u9037:
  1911   0015C2  2EE8               	decfsz	wreg,f,c
  1912   0015C4  D7FE               	bra	u9037
  1913   0015C6  2F1F               	decfsz	??_main& (0+255),f,b
  1914   0015C8  D7FC               	bra	u9037
  1915   0015CA  2F20               	decfsz	(??_main+1)& (0+255),f,b
  1916   0015CC  D7FA               	bra	u9037
  1917   0015CE  D000               	nop2	
  1918   0015D0                     
  1919                           ;application.c: 82:                 ecu_led_turn_off(&green_led);
  1920   0015D0  0E56               	movlw	low _green_led
  1921   0015D2  0100               	movlb	0	; () banked
  1922   0015D4  6FE2               	movwf	ecu_led_turn_off@led& (0+255),b
  1923   0015D6  ECB0  F016         	call	_ecu_led_turn_off	;wreg free
  1924   0015DA                     
  1925                           ;application.c: 83:                 ecu_dc_motor_move_left(&motor1);
  1926   0015DA  0E53               	movlw	low _motor1
  1927   0015DC  0100               	movlb	0	; () banked
  1928   0015DE  6FE2               	movwf	ecu_dc_motor_move_left@dc_motor& (0+255),b
  1929   0015E0  EC60  F01A         	call	_ecu_dc_motor_move_left	;wreg free
  1930   0015E4                     
  1931                           ;application.c: 84:                 _delay((unsigned long)((3000)*(8000000ul/4000.0)));
  1932   0015E4  0E1F               	movlw	31
  1933   0015E6  0101               	movlb	1	; () banked
  1934   0015E8  6F20               	movwf	(??_main+1)& (0+255),b
  1935   0015EA  0E71               	movlw	113
  1936   0015EC  6F1F               	movwf	??_main& (0+255),b
  1937   0015EE  0E1E               	movlw	30
  1938   0015F0                     u9047:
  1939   0015F0  2EE8               	decfsz	wreg,f,c
  1940   0015F2  D7FE               	bra	u9047
  1941   0015F4  2F1F               	decfsz	??_main& (0+255),f,b
  1942   0015F6  D7FC               	bra	u9047
  1943   0015F8  2F20               	decfsz	(??_main+1)& (0+255),f,b
  1944   0015FA  D7FA               	bra	u9047
  1945   0015FC  0000               	nop	
  1946                           
  1947                           ;application.c: 85:                 ecu_dc_motor_stop(&motor1);
  1948   0015FE  0E53               	movlw	low _motor1
  1949   001600  0100               	movlb	0	; () banked
  1950   001602  6FE2               	movwf	ecu_dc_motor_stop@dc_motor& (0+255),b
  1951   001604  EC47  F01A         	call	_ecu_dc_motor_stop	;wreg free
  1952                           
  1953                           ;application.c: 87:             }
  1954   001608  EF91  F009         	goto	l9380
  1955   00160C                     l9454:
  1956                           
  1957                           ; BSR set to: 0
  1958                           ;application.c: 89:                 gpio_pin_write_logic(&buzzer,HIGH);
  1959   00160C  0E55               	movlw	low _buzzer
  1960   00160E  6FDA               	movwf	gpio_pin_write_logic@_pin_config& (0+255),b
  1961   001610  0E01               	movlw	1
  1962   001612  6FDB               	movwf	gpio_pin_write_logic@logic& (0+255),b
  1963   001614  EC8F  F00F         	call	_gpio_pin_write_logic	;wreg free
  1964                           
  1965                           ;application.c: 90:                 ecu_led_turn_on(&red_led);
  1966   001618  0E57               	movlw	low _red_led
  1967   00161A  0100               	movlb	0	; () banked
  1968   00161C  6FE2               	movwf	ecu_led_turn_on@led& (0+255),b
  1969   00161E  EC79  F016         	call	_ecu_led_turn_on	;wreg free
  1970   001622                     
  1971                           ;application.c: 91:                 _delay((unsigned long)((3000)*(8000000ul/4000.0)));
  1972   001622  0E1F               	movlw	31
  1973   001624  0101               	movlb	1	; () banked
  1974   001626  6F20               	movwf	(??_main+1)& (0+255),b
  1975   001628  0E71               	movlw	113
  1976   00162A  6F1F               	movwf	??_main& (0+255),b
  1977   00162C  0E1E               	movlw	30
  1978   00162E                     u9057:
  1979   00162E  2EE8               	decfsz	wreg,f,c
  1980   001630  D7FE               	bra	u9057
  1981   001632  2F1F               	decfsz	??_main& (0+255),f,b
  1982   001634  D7FC               	bra	u9057
  1983   001636  2F20               	decfsz	(??_main+1)& (0+255),f,b
  1984   001638  D7FA               	bra	u9057
  1985   00163A  0000               	nop	
  1986   00163C                     
  1987                           ;application.c: 92:                 gpio_pin_write_logic(&buzzer,LOW);
  1988   00163C  0E55               	movlw	low _buzzer
  1989   00163E  0100               	movlb	0	; () banked
  1990   001640  6FDA               	movwf	gpio_pin_write_logic@_pin_config& (0+255),b
  1991   001642  0E00               	movlw	0
  1992   001644  6FDB               	movwf	gpio_pin_write_logic@logic& (0+255),b
  1993   001646  EC8F  F00F         	call	_gpio_pin_write_logic	;wreg free
  1994   00164A                     
  1995                           ;application.c: 93:                 ecu_led_turn_off(&red_led);
  1996   00164A  0E57               	movlw	low _red_led
  1997   00164C  0100               	movlb	0	; () banked
  1998   00164E  6FE2               	movwf	ecu_led_turn_off@led& (0+255),b
  1999   001650  ECB0  F016         	call	_ecu_led_turn_off	;wreg free
  2000   001654  EF91  F009         	goto	l9380
  2001   001658                     l9462:
  2002                           
  2003                           ; BSR set to: 0
  2004                           ;application.c: 102:             change_password(&enterd_pass_obj,&stored_pass_obj,&pass
      +                          _obj,&confirm_pass_obj);
  2005   001658  0EBD               	movlw	low _enterd_pass_obj
  2006   00165A  6FFA               	movwf	change_password@pass_obj& (0+255),b
  2007   00165C  0EB4               	movlw	low _stored_pass_obj
  2008   00165E  6FFB               	movwf	change_password@stored_pass_obj& (0+255),b
  2009   001660  0ECF               	movlw	low _pass_obj
  2010   001662  6FFC               	movwf	change_password@enterd_pass_obj& (0+255),b
  2011   001664  0EC6               	movlw	low _confirm_pass_obj
  2012   001666  6FFD               	movwf	change_password@confirm_pass_obj& (0+255),b
  2013   001668  EC79  F005         	call	_change_password	;wreg free
  2014   00166C  EF91  F009         	goto	l9380
  2015   001670  EF07  F000         	goto	start
  2016   001674                     __end_of_main:
  2017                           	callstack 0
  2018                           
  2019 ;; *************** function _welcome_msg *****************
  2020 ;; Defined at:
  2021 ;;		line 36 in file "Helper_functions/helper_fn.c"
  2022 ;; Parameters:    Size  Location     Type
  2023 ;;		None
  2024 ;; Auto vars:     Size  Location     Type
  2025 ;;		None
  2026 ;; Return value:  Size  Location     Type
  2027 ;;                  1    wreg      void 
  2028 ;; Registers used:
  2029 ;;		wreg, fsr0l, fsr0h, fsr2l, fsr2h, status,2, status,0, tblptrl, tblptrh, tblptru, prodl, prodh, cstack
  2030 ;; Tracked objects:
  2031 ;;		On entry : 0/0
  2032 ;;		On exit  : 0/0
  2033 ;;		Unchanged: 0/0
  2034 ;; Data sizes:     COMRAM   BANK0   BANK1   BANK2   BANK3   BANK4   BANK5   BANK6   BANK7   BANK8   BANK9  BANK10  BANK1
      +1  BANK12  BANK13  BANK14  BANK15
  2035 ;;      Params:         0       0       0       0       0       0       0       0       0       0       0       0       
      +0       0       0       0       0
  2036 ;;      Locals:         0       0       0       0       0       0       0       0       0       0       0       0       
      +0       0       0       0       0
  2037 ;;      Temps:          0       2       0       0       0       0       0       0       0       0       0       0       
      +0       0       0       0       0
  2038 ;;      Totals:         0       2       0       0       0       0       0       0       0       0       0       0       
      +0       0       0       0       0
  2039 ;;Total ram usage:        2 bytes
  2040 ;; Hardware stack levels used: 1
  2041 ;; Hardware stack levels required when called: 13
  2042 ;; This function calls:
  2043 ;;		_lcd_4bit_send_command
  2044 ;;		_lcd_4bit_send_string_pos
  2045 ;; This function is called by:
  2046 ;;		_main
  2047 ;; This function uses a non-reentrant model
  2048 ;;
  2049                           
  2050                           	psect	text1
  2051   002B9C                     __ptext1:
  2052                           	callstack 0
  2053   002B9C                     _welcome_msg:
  2054                           	callstack 17
  2055   002B9C                     
  2056                           ;Helper_functions/helper_fn.c: 37:     lcd_4bit_send_command(&lcd1,0x01);
  2057   002B9C  0E4D               	movlw	low _lcd1
  2058   002B9E  0100               	movlb	0	; () banked
  2059   002BA0  6FE5               	movwf	lcd_4bit_send_command@lcd& (0+255),b
  2060   002BA2  0E01               	movlw	1
  2061   002BA4  6FE6               	movwf	lcd_4bit_send_command@command& (0+255),b
  2062   002BA6  EC50  F017         	call	_lcd_4bit_send_command	;wreg free
  2063   002BAA                     
  2064                           ;Helper_functions/helper_fn.c: 38:     _delay((unsigned long)((20)*(8000000ul/4000.0)));
  2065   002BAA  0E34               	movlw	52
  2066   002BAC  0100               	movlb	0	; () banked
  2067   002BAE  6FF3               	movwf	??_welcome_msg& (0+255),b
  2068   002BB0  0EF1               	movlw	241
  2069   002BB2                     u9067:
  2070   002BB2  2EE8               	decfsz	wreg,f,c
  2071   002BB4  D7FE               	bra	u9067
  2072   002BB6  2FF3               	decfsz	??_welcome_msg& (0+255),f,b
  2073   002BB8  D7FC               	bra	u9067
  2074   002BBA  D000               	nop2	
  2075   002BBC                     
  2076                           ;Helper_functions/helper_fn.c: 39:     lcd_4bit_send_string_pos(&lcd1,2,7,"welcome");
  2077   002BBC  0E4D               	movlw	low _lcd1
  2078   002BBE  0100               	movlb	0	; () banked
  2079   002BC0  6FEE               	movwf	lcd_4bit_send_string_pos@lcd& (0+255),b
  2080   002BC2  0E02               	movlw	2
  2081   002BC4  6FEF               	movwf	lcd_4bit_send_string_pos@row& (0+255),b
  2082   002BC6  0E07               	movlw	7
  2083   002BC8  6FF0               	movwf	lcd_4bit_send_string_pos@column& (0+255),b
  2084   002BCA  0EEB               	movlw	low STR_10
  2085   002BCC  6FF1               	movwf	lcd_4bit_send_string_pos@str& (0+255),b
  2086   002BCE  0EFF               	movlw	high STR_10
  2087   002BD0  6FF2               	movwf	(lcd_4bit_send_string_pos@str+1)& (0+255),b
  2088   002BD2  EC74  F014         	call	_lcd_4bit_send_string_pos	;wreg free
  2089   002BD6                     
  2090                           ;Helper_functions/helper_fn.c: 40:     _delay((unsigned long)((1000)*(8000000ul/4000.0))
      +                          );
  2091   002BD6  0E0B               	movlw	11
  2092   002BD8  0100               	movlb	0	; () banked
  2093   002BDA  6FF4               	movwf	(??_welcome_msg+1)& (0+255),b
  2094   002BDC  0E26               	movlw	38
  2095   002BDE  6FF3               	movwf	??_welcome_msg& (0+255),b
  2096   002BE0  0E5D               	movlw	93
  2097   002BE2                     u9077:
  2098   002BE2  2EE8               	decfsz	wreg,f,c
  2099   002BE4  D7FE               	bra	u9077
  2100   002BE6  2FF3               	decfsz	??_welcome_msg& (0+255),f,b
  2101   002BE8  D7FC               	bra	u9077
  2102   002BEA  2FF4               	decfsz	(??_welcome_msg+1)& (0+255),f,b
  2103   002BEC  D7FA               	bra	u9077
  2104   002BEE  D000               	nop2	
  2105   002BF0                     
  2106                           ;Helper_functions/helper_fn.c: 41:     lcd_4bit_send_command(&lcd1,0x01);
  2107   002BF0  0E4D               	movlw	low _lcd1
  2108   002BF2  0100               	movlb	0	; () banked
  2109   002BF4  6FE5               	movwf	lcd_4bit_send_command@lcd& (0+255),b
  2110   002BF6  0E01               	movlw	1
  2111   002BF8  6FE6               	movwf	lcd_4bit_send_command@command& (0+255),b
  2112   002BFA  EC50  F017         	call	_lcd_4bit_send_command	;wreg free
  2113   002BFE                     
  2114                           ;Helper_functions/helper_fn.c: 42:     _delay((unsigned long)((20)*(8000000ul/4000.0)));
  2115   002BFE  0E34               	movlw	52
  2116   002C00  0100               	movlb	0	; () banked
  2117   002C02  6FF3               	movwf	??_welcome_msg& (0+255),b
  2118   002C04  0EF1               	movlw	241
  2119   002C06                     u9087:
  2120   002C06  2EE8               	decfsz	wreg,f,c
  2121   002C08  D7FE               	bra	u9087
  2122   002C0A  2FF3               	decfsz	??_welcome_msg& (0+255),f,b
  2123   002C0C  D7FC               	bra	u9087
  2124   002C0E  D000               	nop2	
  2125   002C10  0012               	return		;funcret
  2126   002C12                     __end_of_welcome_msg:
  2127                           	callstack 0
  2128                           
  2129 ;; *************** function _entering_password *****************
  2130 ;; Defined at:
  2131 ;;		line 221 in file "Helper_functions/helper_fn.c"
  2132 ;; Parameters:    Size  Location     Type
  2133 ;;  enterd_pass_    1   20[BANK1 ] PTR struct .
  2134 ;;		 -> enterd_pass_obj(9), 
  2135 ;;  stored_pass_    1   21[BANK1 ] PTR struct .
  2136 ;;		 -> stored_pass_obj(9), 
  2137 ;;  user_statue     1   22[BANK1 ] PTR unsigned char 
  2138 ;;		 -> user_statue(1), 
  2139 ;; Auto vars:     Size  Location     Type
  2140 ;;  str             4   23[BANK1 ] unsigned char [4]
  2141 ;;  counter         1   30[BANK1 ] unsigned char 
  2142 ;;  lcd_counter     1   29[BANK1 ] unsigned char 
  2143 ;;  comparing_re    1   28[BANK1 ] unsigned char 
  2144 ;;  wrong_counte    1   27[BANK1 ] unsigned char 
  2145 ;; Return value:  Size  Location     Type
  2146 ;;                  1    wreg      void 
  2147 ;; Registers used:
  2148 ;;		wreg, fsr0l, fsr0h, fsr1l, fsr1h, fsr2l, fsr2h, status,2, status,0, tblptrl, tblptrh, tblptru, prodl, prodh, cstack
  2149 ;; Tracked objects:
  2150 ;;		On entry : 0/0
  2151 ;;		On exit  : 0/0
  2152 ;;		Unchanged: 0/0
  2153 ;; Data sizes:     COMRAM   BANK0   BANK1   BANK2   BANK3   BANK4   BANK5   BANK6   BANK7   BANK8   BANK9  BANK10  BANK1
      +1  BANK12  BANK13  BANK14  BANK15
  2154 ;;      Params:         0       0       3       0       0       0       0       0       0       0       0       0       
      +0       0       0       0       0
  2155 ;;      Locals:         0       0       8       0       0       0       0       0       0       0       0       0       
      +0       0       0       0       0
  2156 ;;      Temps:          0       2       0       0       0       0       0       0       0       0       0       0       
      +0       0       0       0       0
  2157 ;;      Totals:         0       2      11       0       0       0       0       0       0       0       0       0       
      +0       0       0       0       0
  2158 ;;Total ram usage:       13 bytes
  2159 ;; Hardware stack levels used: 1
  2160 ;; Hardware stack levels required when called: 14
  2161 ;; This function calls:
  2162 ;;		_check_entered_password
  2163 ;;		_convert_byte_to_string
  2164 ;;		_ecu_keypad_get_value
  2165 ;;		_lcd_4bit_send_char_data_pos
  2166 ;;		_lcd_4bit_send_command
  2167 ;;		_lcd_4bit_send_string_pos
  2168 ;; This function is called by:
  2169 ;;		_main
  2170 ;; This function uses a non-reentrant model
  2171 ;;
  2172                           
  2173                           	psect	text2
  2174   000012                     __ptext2:
  2175                           	callstack 0
  2176   000012                     _entering_password:
  2177                           	callstack 16
  2178   000012                     
  2179                           ;Helper_functions/helper_fn.c: 222:    keypad_value = 0;
  2180   000012  0E00               	movlw	0
  2181   000014  6E48               	movwf	_keypad_value^0,c
  2182                           
  2183                           ;Helper_functions/helper_fn.c: 223:    uint8 counter = 0;
  2184   000016  0E00               	movlw	0
  2185   000018  0101               	movlb	1	; () banked
  2186   00001A  6F1E               	movwf	entering_password@counter& (0+255),b
  2187                           
  2188                           ;Helper_functions/helper_fn.c: 224:    uint8 comparing_result = 1;
  2189   00001C  0E01               	movlw	1
  2190   00001E  6F1C               	movwf	entering_password@comparing_result& (0+255),b
  2191                           
  2192                           ;Helper_functions/helper_fn.c: 225:    uint8 lcd_counter = 2;
  2193   000020  0E02               	movlw	2
  2194   000022  6F1D               	movwf	entering_password@lcd_counter& (0+255),b
  2195                           
  2196                           ;Helper_functions/helper_fn.c: 226:    uint8 wrong_counter = 0;
  2197   000024  0E00               	movlw	0
  2198   000026  6F1B               	movwf	entering_password@wrong_counter& (0+255),b
  2199   000028                     
  2200                           ; BSR set to: 1
  2201                           ;Helper_functions/helper_fn.c: 227:    uint8 str[4];;Helper_functions/helper_fn.c: 229: 
      +                              lcd_4bit_send_command(&lcd1,0x01);
  2202   000028  0E4D               	movlw	low _lcd1
  2203   00002A  0100               	movlb	0	; () banked
  2204   00002C  6FE5               	movwf	lcd_4bit_send_command@lcd& (0+255),b
  2205   00002E  0E01               	movlw	1
  2206   000030  6FE6               	movwf	lcd_4bit_send_command@command& (0+255),b
  2207   000032  EC50  F017         	call	_lcd_4bit_send_command	;wreg free
  2208   000036                     l9104:
  2209                           
  2210                           ;Helper_functions/helper_fn.c: 230:     _delay((unsigned long)((20)*(8000000ul/4000.0)))
      +                          ;
  2211   000036  0E34               	movlw	52
  2212   000038  0100               	movlb	0	; () banked
  2213   00003A  6FFE               	movwf	??_entering_password& (0+255),b
  2214   00003C  0EF1               	movlw	241
  2215   00003E                     u9097:
  2216   00003E  2EE8               	decfsz	wreg,f,c
  2217   000040  D7FE               	bra	u9097
  2218   000042  2FFE               	decfsz	??_entering_password& (0+255),f,b
  2219   000044  D7FC               	bra	u9097
  2220   000046  D000               	nop2	
  2221   000048                     l9106:
  2222                           
  2223                           ;Helper_functions/helper_fn.c: 234:         lcd_4bit_send_string_pos(&lcd1,2,1,"enter yo
      +                          ur password ");
  2224   000048  0E4D               	movlw	low _lcd1
  2225   00004A  0100               	movlb	0	; () banked
  2226   00004C  6FEE               	movwf	lcd_4bit_send_string_pos@lcd& (0+255),b
  2227   00004E  0E02               	movlw	2
  2228   000050  6FEF               	movwf	lcd_4bit_send_string_pos@row& (0+255),b
  2229   000052  0E01               	movlw	1
  2230   000054  6FF0               	movwf	lcd_4bit_send_string_pos@column& (0+255),b
  2231   000056  0E2B               	movlw	low STR_35
  2232   000058  6FF1               	movwf	lcd_4bit_send_string_pos@str& (0+255),b
  2233   00005A  0EFF               	movlw	high STR_35
  2234   00005C  6FF2               	movwf	(lcd_4bit_send_string_pos@str+1)& (0+255),b
  2235   00005E  EC74  F014         	call	_lcd_4bit_send_string_pos	;wreg free
  2236   000062                     
  2237                           ;Helper_functions/helper_fn.c: 235:         lcd_4bit_send_string_pos(&lcd1,3,1,":");
  2238   000062  0E4D               	movlw	low _lcd1
  2239   000064  0100               	movlb	0	; () banked
  2240   000066  6FEE               	movwf	lcd_4bit_send_string_pos@lcd& (0+255),b
  2241   000068  0E03               	movlw	3
  2242   00006A  6FEF               	movwf	lcd_4bit_send_string_pos@row& (0+255),b
  2243   00006C  0E01               	movlw	1
  2244   00006E  6FF0               	movwf	lcd_4bit_send_string_pos@column& (0+255),b
  2245   000070  0EF9               	movlw	low STR_12
  2246   000072  6FF1               	movwf	lcd_4bit_send_string_pos@str& (0+255),b
  2247   000074  0EFF               	movlw	high STR_12
  2248   000076  6FF2               	movwf	(lcd_4bit_send_string_pos@str+1)& (0+255),b
  2249   000078  EC74  F014         	call	_lcd_4bit_send_string_pos	;wreg free
  2250   00007C                     l9110:
  2251                           
  2252                           ;Helper_functions/helper_fn.c: 238:         ecu_keypad_get_value(&keypad,&keypad_value);
  2253   00007C  0EA1               	movlw	low _keypad
  2254   00007E  0100               	movlb	0	; () banked
  2255   000080  6FE2               	movwf	ecu_keypad_get_value@keypad& (0+255),b
  2256   000082  0E48               	movlw	low _keypad_value
  2257   000084  6FE3               	movwf	ecu_keypad_get_value@value& (0+255),b
  2258   000086  EC22  F011         	call	_ecu_keypad_get_value	;wreg free
  2259   00008A                     
  2260                           ;Helper_functions/helper_fn.c: 239:         _delay((unsigned long)((110)*(8000000ul/4000
      +                          .0)));
  2261   00008A  0E02               	movlw	2
  2262   00008C  0100               	movlb	0	; () banked
  2263   00008E  6FFF               	movwf	(??_entering_password+1)& (0+255),b
  2264   000090  0E1E               	movlw	30
  2265   000092  6FFE               	movwf	??_entering_password& (0+255),b
  2266   000094  0EB3               	movlw	179
  2267   000096                     u9107:
  2268   000096  2EE8               	decfsz	wreg,f,c
  2269   000098  D7FE               	bra	u9107
  2270   00009A  2FFE               	decfsz	??_entering_password& (0+255),f,b
  2271   00009C  D7FC               	bra	u9107
  2272   00009E  2FFF               	decfsz	(??_entering_password+1)& (0+255),f,b
  2273   0000A0  D7FA               	bra	u9107
  2274   0000A2  D000               	nop2	
  2275   0000A4                     
  2276                           ;Helper_functions/helper_fn.c: 240:         }while(keypad_value == 0 );
  2277   0000A4  5048               	movf	_keypad_value^0,w,c
  2278   0000A6  B4D8               	btfsc	status,2,c
  2279   0000A8  EF58  F000         	goto	u8571
  2280   0000AC  EF5A  F000         	goto	u8570
  2281   0000B0                     u8571:
  2282   0000B0  EF3E  F000         	goto	l9110
  2283   0000B4                     u8570:
  2284   0000B4                     
  2285                           ;Helper_functions/helper_fn.c: 242:         if(keypad_value == '#' && (enterd_pass_obj->
      +                          password[0]) == '\0'){
  2286   0000B4  0E23               	movlw	35
  2287   0000B6  1848               	xorwf	_keypad_value^0,w,c
  2288   0000B8  A4D8               	btfss	status,2,c
  2289   0000BA  EF61  F000         	goto	u8581
  2290   0000BE  EF63  F000         	goto	u8580
  2291   0000C2                     u8581:
  2292   0000C2  EFA7  F000         	goto	l9126
  2293   0000C6                     u8580:
  2294   0000C6  0101               	movlb	1	; () banked
  2295   0000C8  5114               	movf	entering_password@enterd_pass_obj& (0+255),w,b
  2296   0000CA  6ED9               	movwf	fsr2l,c
  2297   0000CC  6ADA               	clrf	fsr2h,c
  2298   0000CE  0E01               	movlw	1
  2299   0000D0  26D9               	addwf	fsr2l,f,c
  2300   0000D2  50DF               	movf	indf2,w,c
  2301   0000D4  A4D8               	btfss	status,2,c
  2302   0000D6  EF6F  F000         	goto	u8591
  2303   0000DA  EF71  F000         	goto	u8590
  2304   0000DE                     u8591:
  2305   0000DE  EFA7  F000         	goto	l9126
  2306   0000E2                     u8590:
  2307   0000E2                     
  2308                           ; BSR set to: 1
  2309                           ;Helper_functions/helper_fn.c: 243:             lcd_4bit_send_string_pos(&lcd1,4,1,"Unav
      +                          ailable process ");
  2310   0000E2  0E4D               	movlw	low _lcd1
  2311   0000E4  0100               	movlb	0	; () banked
  2312   0000E6  6FEE               	movwf	lcd_4bit_send_string_pos@lcd& (0+255),b
  2313   0000E8  0E04               	movlw	4
  2314   0000EA  6FEF               	movwf	lcd_4bit_send_string_pos@row& (0+255),b
  2315   0000EC  0E01               	movlw	1
  2316   0000EE  6FF0               	movwf	lcd_4bit_send_string_pos@column& (0+255),b
  2317   0000F0  0E40               	movlw	low STR_13
  2318   0000F2  6FF1               	movwf	lcd_4bit_send_string_pos@str& (0+255),b
  2319   0000F4  0EFF               	movlw	high STR_13
  2320   0000F6  6FF2               	movwf	(lcd_4bit_send_string_pos@str+1)& (0+255),b
  2321   0000F8  EC74  F014         	call	_lcd_4bit_send_string_pos	;wreg free
  2322   0000FC                     
  2323                           ;Helper_functions/helper_fn.c: 244:                  _delay((unsigned long)((300)*(80000
      +                          00ul/4000.0)));
  2324   0000FC  0E04               	movlw	4
  2325   0000FE  0100               	movlb	0	; () banked
  2326   000100  6FFF               	movwf	(??_entering_password+1)& (0+255),b
  2327   000102  0E0C               	movlw	12
  2328   000104  6FFE               	movwf	??_entering_password& (0+255),b
  2329   000106  0E33               	movlw	51
  2330   000108                     u9117:
  2331   000108  2EE8               	decfsz	wreg,f,c
  2332   00010A  D7FE               	bra	u9117
  2333   00010C  2FFE               	decfsz	??_entering_password& (0+255),f,b
  2334   00010E  D7FC               	bra	u9117
  2335   000110  2FFF               	decfsz	(??_entering_password+1)& (0+255),f,b
  2336   000112  D7FA               	bra	u9117
  2337   000114  D000               	nop2	
  2338   000116                     
  2339                           ;Helper_functions/helper_fn.c: 245:                 lcd_4bit_send_string_pos(&lcd1,4,1,"
      +                                               ");
  2340   000116  0E4D               	movlw	low _lcd1
  2341   000118  0100               	movlb	0	; () banked
  2342   00011A  6FEE               	movwf	lcd_4bit_send_string_pos@lcd& (0+255),b
  2343   00011C  0E04               	movlw	4
  2344   00011E  6FEF               	movwf	lcd_4bit_send_string_pos@row& (0+255),b
  2345   000120  0E01               	movlw	1
  2346   000122  6FF0               	movwf	lcd_4bit_send_string_pos@column& (0+255),b
  2347   000124  0EE9               	movlw	low STR_14
  2348   000126  6FF1               	movwf	lcd_4bit_send_string_pos@str& (0+255),b
  2349   000128  0EFE               	movlw	high STR_14
  2350   00012A  6FF2               	movwf	(lcd_4bit_send_string_pos@str+1)& (0+255),b
  2351   00012C  EC74  F014         	call	_lcd_4bit_send_string_pos	;wreg free
  2352                           
  2353                           ;Helper_functions/helper_fn.c: 246:                 _delay((unsigned long)((300)*(800000
      +                          0ul/4000.0)));
  2354   000130  0E04               	movlw	4
  2355   000132  0100               	movlb	0	; () banked
  2356   000134  6FFF               	movwf	(??_entering_password+1)& (0+255),b
  2357   000136  0E0C               	movlw	12
  2358   000138  6FFE               	movwf	??_entering_password& (0+255),b
  2359   00013A  0E33               	movlw	51
  2360   00013C                     u9127:
  2361   00013C  2EE8               	decfsz	wreg,f,c
  2362   00013E  D7FE               	bra	u9127
  2363   000140  2FFE               	decfsz	??_entering_password& (0+255),f,b
  2364   000142  D7FC               	bra	u9127
  2365   000144  2FFF               	decfsz	(??_entering_password+1)& (0+255),f,b
  2366   000146  D7FA               	bra	u9127
  2367   000148  D000               	nop2	
  2368                           
  2369                           ;Helper_functions/helper_fn.c: 247:         }
  2370   00014A  EF24  F000         	goto	l9106
  2371   00014E                     l9126:
  2372   00014E  0E23               	movlw	35
  2373   000150  1848               	xorwf	_keypad_value^0,w,c
  2374   000152  A4D8               	btfss	status,2,c
  2375   000154  EFAE  F000         	goto	u8601
  2376   000158  EFB0  F000         	goto	u8600
  2377   00015C                     u8601:
  2378   00015C  EFCF  F000         	goto	l9138
  2379   000160                     u8600:
  2380   000160  0101               	movlb	1	; () banked
  2381   000162  511E               	movf	entering_password@counter& (0+255),w,b
  2382   000164  B4D8               	btfsc	status,2,c
  2383   000166  EFB7  F000         	goto	u8611
  2384   00016A  EFB9  F000         	goto	u8610
  2385   00016E                     u8611:
  2386   00016E  EFCF  F000         	goto	l9138
  2387   000172                     u8610:
  2388   000172                     
  2389                           ; BSR set to: 1
  2390                           ;Helper_functions/helper_fn.c: 249:                 counter--;
  2391   000172  071E               	decf	entering_password@counter& (0+255),f,b
  2392   000174                     
  2393                           ; BSR set to: 1
  2394                           ;Helper_functions/helper_fn.c: 250:                 (enterd_pass_obj->password[counter])
      +                           = '\0';
  2395   000174  5114               	movf	entering_password@enterd_pass_obj& (0+255),w,b
  2396   000176  251E               	addwf	entering_password@counter& (0+255),w,b
  2397   000178  6ED9               	movwf	fsr2l,c
  2398   00017A  6ADA               	clrf	fsr2h,c
  2399   00017C  0E01               	movlw	1
  2400   00017E  26D9               	addwf	fsr2l,f,c
  2401   000180  6ADF               	clrf	indf2,c
  2402   000182                     
  2403                           ; BSR set to: 1
  2404                           ;Helper_functions/helper_fn.c: 251:                 lcd_counter--;
  2405   000182  071D               	decf	entering_password@lcd_counter& (0+255),f,b
  2406   000184                     
  2407                           ; BSR set to: 1
  2408                           ;Helper_functions/helper_fn.c: 252:                 lcd_4bit_send_char_data_pos(&lcd1,3,
      +                          lcd_counter,' ');
  2409   000184  0E4D               	movlw	low _lcd1
  2410   000186  0100               	movlb	0	; () banked
  2411   000188  6FEE               	movwf	lcd_4bit_send_char_data_pos@lcd& (0+255),b
  2412   00018A  0E03               	movlw	3
  2413   00018C  6FEF               	movwf	lcd_4bit_send_char_data_pos@row& (0+255),b
  2414   00018E  C11D  F0F0         	movff	entering_password@lcd_counter,lcd_4bit_send_char_data_pos@column
  2415   000192  0E20               	movlw	32
  2416   000194  6FF1               	movwf	lcd_4bit_send_char_data_pos@data& (0+255),b
  2417   000196  ECD2  F019         	call	_lcd_4bit_send_char_data_pos	;wreg free
  2418                           
  2419                           ;Helper_functions/helper_fn.c: 253:             }
  2420   00019A  EF24  F000         	goto	l9106
  2421   00019E                     l9138:
  2422   00019E  0E3D               	movlw	61
  2423   0001A0  1848               	xorwf	_keypad_value^0,w,c
  2424   0001A2  A4D8               	btfss	status,2,c
  2425   0001A4  EFD6  F000         	goto	u8621
  2426   0001A8  EFD8  F000         	goto	u8620
  2427   0001AC                     u8621:
  2428   0001AC  EF4C  F002         	goto	l9220
  2429   0001B0                     u8620:
  2430   0001B0                     
  2431                           ;Helper_functions/helper_fn.c: 255:                 if(counter <= 3){
  2432   0001B0  0E04               	movlw	4
  2433   0001B2  0101               	movlb	1	; () banked
  2434   0001B4  611E               	cpfslt	entering_password@counter& (0+255),b
  2435   0001B6  EFDF  F000         	goto	u8631
  2436   0001BA  EFE1  F000         	goto	u8630
  2437   0001BE                     u8631:
  2438   0001BE  EF17  F001         	goto	l9148
  2439   0001C2                     u8630:
  2440   0001C2                     
  2441                           ; BSR set to: 1
  2442                           ;Helper_functions/helper_fn.c: 256:                      lcd_4bit_send_string_pos(&lcd1,
      +                          4,1,"min 4 digits ");
  2443   0001C2  0E4D               	movlw	low _lcd1
  2444   0001C4  0100               	movlb	0	; () banked
  2445   0001C6  6FEE               	movwf	lcd_4bit_send_string_pos@lcd& (0+255),b
  2446   0001C8  0E04               	movlw	4
  2447   0001CA  6FEF               	movwf	lcd_4bit_send_string_pos@row& (0+255),b
  2448   0001CC  0E01               	movlw	1
  2449   0001CE  6FF0               	movwf	lcd_4bit_send_string_pos@column& (0+255),b
  2450   0001D0  0ECF               	movlw	low STR_15
  2451   0001D2  6FF1               	movwf	lcd_4bit_send_string_pos@str& (0+255),b
  2452   0001D4  0EFF               	movlw	high STR_15
  2453   0001D6  6FF2               	movwf	(lcd_4bit_send_string_pos@str+1)& (0+255),b
  2454   0001D8  EC74  F014         	call	_lcd_4bit_send_string_pos	;wreg free
  2455   0001DC                     
  2456                           ;Helper_functions/helper_fn.c: 257:                     _delay((unsigned long)((300)*(80
      +                          00000ul/4000.0)));
  2457   0001DC  0E04               	movlw	4
  2458   0001DE  0100               	movlb	0	; () banked
  2459   0001E0  6FFF               	movwf	(??_entering_password+1)& (0+255),b
  2460   0001E2  0E0C               	movlw	12
  2461   0001E4  6FFE               	movwf	??_entering_password& (0+255),b
  2462   0001E6  0E33               	movlw	51
  2463   0001E8                     u9137:
  2464   0001E8  2EE8               	decfsz	wreg,f,c
  2465   0001EA  D7FE               	bra	u9137
  2466   0001EC  2FFE               	decfsz	??_entering_password& (0+255),f,b
  2467   0001EE  D7FC               	bra	u9137
  2468   0001F0  2FFF               	decfsz	(??_entering_password+1)& (0+255),f,b
  2469   0001F2  D7FA               	bra	u9137
  2470   0001F4  D000               	nop2	
  2471   0001F6                     
  2472                           ;Helper_functions/helper_fn.c: 258:                     lcd_4bit_send_string_pos(&lcd1,4
      +                          ,1,"                     ");
  2473   0001F6  0E4D               	movlw	low _lcd1
  2474   0001F8  0100               	movlb	0	; () banked
  2475   0001FA  6FEE               	movwf	lcd_4bit_send_string_pos@lcd& (0+255),b
  2476   0001FC  0E04               	movlw	4
  2477   0001FE  6FEF               	movwf	lcd_4bit_send_string_pos@row& (0+255),b
  2478   000200  0E01               	movlw	1
  2479   000202  6FF0               	movwf	lcd_4bit_send_string_pos@column& (0+255),b
  2480   000204  0EE9               	movlw	low STR_14
  2481   000206  6FF1               	movwf	lcd_4bit_send_string_pos@str& (0+255),b
  2482   000208  0EFE               	movlw	high STR_14
  2483   00020A  6FF2               	movwf	(lcd_4bit_send_string_pos@str+1)& (0+255),b
  2484   00020C  EC74  F014         	call	_lcd_4bit_send_string_pos	;wreg free
  2485                           
  2486                           ;Helper_functions/helper_fn.c: 259:                     _delay((unsigned long)((300)*(80
      +                          00000ul/4000.0)));
  2487   000210  0E04               	movlw	4
  2488   000212  0100               	movlb	0	; () banked
  2489   000214  6FFF               	movwf	(??_entering_password+1)& (0+255),b
  2490   000216  0E0C               	movlw	12
  2491   000218  6FFE               	movwf	??_entering_password& (0+255),b
  2492   00021A  0E33               	movlw	51
  2493   00021C                     u9147:
  2494   00021C  2EE8               	decfsz	wreg,f,c
  2495   00021E  D7FE               	bra	u9147
  2496   000220  2FFE               	decfsz	??_entering_password& (0+255),f,b
  2497   000222  D7FC               	bra	u9147
  2498   000224  2FFF               	decfsz	(??_entering_password+1)& (0+255),f,b
  2499   000226  D7FA               	bra	u9147
  2500   000228  D000               	nop2	
  2501                           
  2502                           ;Helper_functions/helper_fn.c: 260:                 }
  2503   00022A  EF24  F000         	goto	l9106
  2504   00022E                     l9148:
  2505                           
  2506                           ; BSR set to: 1
  2507                           ;Helper_functions/helper_fn.c: 262:                     enterd_pass_obj->pass_arr_num_di
      +                          gits = counter;
  2508   00022E  5114               	movf	entering_password@enterd_pass_obj& (0+255),w,b
  2509   000230  6ED9               	movwf	fsr2l,c
  2510   000232  6ADA               	clrf	fsr2h,c
  2511   000234  C11E  FFDF         	movff	entering_password@counter,indf2
  2512   000238                     
  2513                           ; BSR set to: 1
  2514                           ;Helper_functions/helper_fn.c: 263:                     check_entered_password(enterd_pa
      +                          ss_obj,stored_pass_obj,&comparing_result);
  2515   000238  C114  F0DD         	movff	entering_password@enterd_pass_obj,check_entered_password@enterd_pass_obj
  2516   00023C  C115  F0DE         	movff	entering_password@stored_pass_obj,check_entered_password@stored_pass_obj
  2517   000240  0E1C               	movlw	low entering_password@comparing_result
  2518   000242  0100               	movlb	0	; () banked
  2519   000244  6FDF               	movwf	check_entered_password@result& (0+255),b
  2520   000246  0E01               	movlw	high entering_password@comparing_result
  2521   000248  6FE0               	movwf	(check_entered_password@result+1)& (0+255),b
  2522   00024A  ECA0  F011         	call	_check_entered_password	;wreg free
  2523   00024E                     
  2524                           ;Helper_functions/helper_fn.c: 264:                     if(comparing_result == 1){
  2525   00024E  0101               	movlb	1	; () banked
  2526   000250  051C               	decf	entering_password@comparing_result& (0+255),w,b
  2527   000252  A4D8               	btfss	status,2,c
  2528   000254  EF2E  F001         	goto	u8641
  2529   000258  EF30  F001         	goto	u8640
  2530   00025C                     u8641:
  2531   00025C  EF7C  F001         	goto	l9170
  2532   000260                     u8640:
  2533   000260                     
  2534                           ; BSR set to: 1
  2535                           ;Helper_functions/helper_fn.c: 266:                         lcd_4bit_send_command(&lcd1,
      +                          0x01);
  2536   000260  0E4D               	movlw	low _lcd1
  2537   000262  0100               	movlb	0	; () banked
  2538   000264  6FE5               	movwf	lcd_4bit_send_command@lcd& (0+255),b
  2539   000266  0E01               	movlw	1
  2540   000268  6FE6               	movwf	lcd_4bit_send_command@command& (0+255),b
  2541   00026A  EC50  F017         	call	_lcd_4bit_send_command	;wreg free
  2542   00026E                     
  2543                           ;Helper_functions/helper_fn.c: 267:                         _delay((unsigned long)((20)*
      +                          (8000000ul/4000.0)));
  2544   00026E  0E34               	movlw	52
  2545   000270  0100               	movlb	0	; () banked
  2546   000272  6FFE               	movwf	??_entering_password& (0+255),b
  2547   000274  0EF1               	movlw	241
  2548   000276                     u9157:
  2549   000276  2EE8               	decfsz	wreg,f,c
  2550   000278  D7FE               	bra	u9157
  2551   00027A  2FFE               	decfsz	??_entering_password& (0+255),f,b
  2552   00027C  D7FC               	bra	u9157
  2553   00027E  D000               	nop2	
  2554   000280                     
  2555                           ;Helper_functions/helper_fn.c: 268:                         lcd_4bit_send_string_pos(&lc
      +                          d1,2,4,"password correct");
  2556   000280  0E4D               	movlw	low _lcd1
  2557   000282  0100               	movlb	0	; () banked
  2558   000284  6FEE               	movwf	lcd_4bit_send_string_pos@lcd& (0+255),b
  2559   000286  0E02               	movlw	2
  2560   000288  6FEF               	movwf	lcd_4bit_send_string_pos@row& (0+255),b
  2561   00028A  0E04               	movlw	4
  2562   00028C  6FF0               	movwf	lcd_4bit_send_string_pos@column& (0+255),b
  2563   00028E  0E9F               	movlw	low STR_41
  2564   000290  6FF1               	movwf	lcd_4bit_send_string_pos@str& (0+255),b
  2565   000292  0EFF               	movlw	high STR_41
  2566   000294  6FF2               	movwf	(lcd_4bit_send_string_pos@str+1)& (0+255),b
  2567   000296  EC74  F014         	call	_lcd_4bit_send_string_pos	;wreg free
  2568   00029A                     
  2569                           ;Helper_functions/helper_fn.c: 269:                         _delay((unsigned long)((300)
      +                          *(8000000ul/4000.0)));
  2570   00029A  0E04               	movlw	4
  2571   00029C  0100               	movlb	0	; () banked
  2572   00029E  6FFF               	movwf	(??_entering_password+1)& (0+255),b
  2573   0002A0  0E0C               	movlw	12
  2574   0002A2  6FFE               	movwf	??_entering_password& (0+255),b
  2575   0002A4  0E33               	movlw	51
  2576   0002A6                     u9167:
  2577   0002A6  2EE8               	decfsz	wreg,f,c
  2578   0002A8  D7FE               	bra	u9167
  2579   0002AA  2FFE               	decfsz	??_entering_password& (0+255),f,b
  2580   0002AC  D7FC               	bra	u9167
  2581   0002AE  2FFF               	decfsz	(??_entering_password+1)& (0+255),f,b
  2582   0002B0  D7FA               	bra	u9167
  2583   0002B2  D000               	nop2	
  2584   0002B4                     
  2585                           ;Helper_functions/helper_fn.c: 270:                         lcd_4bit_send_string_pos(&lc
      +                          d1,2,4,"                     ");
  2586   0002B4  0E4D               	movlw	low _lcd1
  2587   0002B6  0100               	movlb	0	; () banked
  2588   0002B8  6FEE               	movwf	lcd_4bit_send_string_pos@lcd& (0+255),b
  2589   0002BA  0E02               	movlw	2
  2590   0002BC  6FEF               	movwf	lcd_4bit_send_string_pos@row& (0+255),b
  2591   0002BE  0E04               	movlw	4
  2592   0002C0  6FF0               	movwf	lcd_4bit_send_string_pos@column& (0+255),b
  2593   0002C2  0EE9               	movlw	low STR_14
  2594   0002C4  6FF1               	movwf	lcd_4bit_send_string_pos@str& (0+255),b
  2595   0002C6  0EFE               	movlw	high STR_14
  2596   0002C8  6FF2               	movwf	(lcd_4bit_send_string_pos@str+1)& (0+255),b
  2597   0002CA  EC74  F014         	call	_lcd_4bit_send_string_pos	;wreg free
  2598   0002CE                     
  2599                           ;Helper_functions/helper_fn.c: 271:                         _delay((unsigned long)((300)
      +                          *(8000000ul/4000.0)));
  2600   0002CE  0E04               	movlw	4
  2601   0002D0  0100               	movlb	0	; () banked
  2602   0002D2  6FFF               	movwf	(??_entering_password+1)& (0+255),b
  2603   0002D4  0E0C               	movlw	12
  2604   0002D6  6FFE               	movwf	??_entering_password& (0+255),b
  2605   0002D8  0E33               	movlw	51
  2606   0002DA                     u9177:
  2607   0002DA  2EE8               	decfsz	wreg,f,c
  2608   0002DC  D7FE               	bra	u9177
  2609   0002DE  2FFE               	decfsz	??_entering_password& (0+255),f,b
  2610   0002E0  D7FC               	bra	u9177
  2611   0002E2  2FFF               	decfsz	(??_entering_password+1)& (0+255),f,b
  2612   0002E4  D7FA               	bra	u9177
  2613   0002E6  D000               	nop2	
  2614   0002E8                     
  2615                           ;Helper_functions/helper_fn.c: 273:                         *user_statue = 1 ;
  2616   0002E8  0101               	movlb	1	; () banked
  2617   0002EA  5116               	movf	entering_password@user_statue& (0+255),w,b
  2618   0002EC  6ED9               	movwf	fsr2l,c
  2619   0002EE  6ADA               	clrf	fsr2h,c
  2620   0002F0  0E01               	movlw	1
  2621   0002F2  6EDF               	movwf	indf2,c
  2622                           
  2623                           ;Helper_functions/helper_fn.c: 275:                         break;
  2624   0002F4  EF14  F003         	goto	l485
  2625   0002F8                     l9170:
  2626                           
  2627                           ; BSR set to: 1
  2628                           ;Helper_functions/helper_fn.c: 277:                         if(wrong_counter == 2){
  2629   0002F8  0E02               	movlw	2
  2630   0002FA  191B               	xorwf	entering_password@wrong_counter& (0+255),w,b
  2631   0002FC  A4D8               	btfss	status,2,c
  2632   0002FE  EF83  F001         	goto	u8651
  2633   000302  EF85  F001         	goto	u8650
  2634   000306                     u8651:
  2635   000306  EF9B  F001         	goto	l9180
  2636   00030A                     u8650:
  2637   00030A                     
  2638                           ; BSR set to: 1
  2639                           ;Helper_functions/helper_fn.c: 278:                             *user_statue = 0 ;
  2640   00030A  5116               	movf	entering_password@user_statue& (0+255),w,b
  2641   00030C  6ED9               	movwf	fsr2l,c
  2642   00030E  6ADA               	clrf	fsr2h,c
  2643   000310  6ADF               	clrf	indf2,c
  2644   000312                     
  2645                           ; BSR set to: 1
  2646                           ;Helper_functions/helper_fn.c: 279:                             lcd_4bit_send_command(&l
      +                          cd1,0x01);
  2647   000312  0E4D               	movlw	low _lcd1
  2648   000314  0100               	movlb	0	; () banked
  2649   000316  6FE5               	movwf	lcd_4bit_send_command@lcd& (0+255),b
  2650   000318  0E01               	movlw	1
  2651   00031A  6FE6               	movwf	lcd_4bit_send_command@command& (0+255),b
  2652   00031C  EC50  F017         	call	_lcd_4bit_send_command	;wreg free
  2653   000320                     
  2654                           ;Helper_functions/helper_fn.c: 280:                             _delay((unsigned long)((
      +                          40)*(8000000ul/4000.0)));
  2655   000320  0E68               	movlw	104
  2656   000322  0100               	movlb	0	; () banked
  2657   000324  6FFE               	movwf	??_entering_password& (0+255),b
  2658   000326  0EE4               	movlw	228
  2659   000328                     u9187:
  2660   000328  2EE8               	decfsz	wreg,f,c
  2661   00032A  D7FE               	bra	u9187
  2662   00032C  2FFE               	decfsz	??_entering_password& (0+255),f,b
  2663   00032E  D7FC               	bra	u9187
  2664   000330  0000               	nop	
  2665                           
  2666                           ;Helper_functions/helper_fn.c: 281:                             break;
  2667   000332  EF14  F003         	goto	l485
  2668   000336                     l9180:
  2669                           
  2670                           ; BSR set to: 1
  2671                           ;Helper_functions/helper_fn.c: 284:                             wrong_counter++;
  2672   000336  2B1B               	incf	entering_password@wrong_counter& (0+255),f,b
  2673   000338                     
  2674                           ; BSR set to: 1
  2675                           ;Helper_functions/helper_fn.c: 285:                             lcd_4bit_send_command(&l
      +                          cd1,0x01);
  2676   000338  0E4D               	movlw	low _lcd1
  2677   00033A  0100               	movlb	0	; () banked
  2678   00033C  6FE5               	movwf	lcd_4bit_send_command@lcd& (0+255),b
  2679   00033E  0E01               	movlw	1
  2680   000340  6FE6               	movwf	lcd_4bit_send_command@command& (0+255),b
  2681   000342  EC50  F017         	call	_lcd_4bit_send_command	;wreg free
  2682   000346                     
  2683                           ;Helper_functions/helper_fn.c: 286:                             _delay((unsigned long)((
      +                          40)*(8000000ul/4000.0)));
  2684   000346  0E68               	movlw	104
  2685   000348  0100               	movlb	0	; () banked
  2686   00034A  6FFE               	movwf	??_entering_password& (0+255),b
  2687   00034C  0EE4               	movlw	228
  2688   00034E                     u9197:
  2689   00034E  2EE8               	decfsz	wreg,f,c
  2690   000350  D7FE               	bra	u9197
  2691   000352  2FFE               	decfsz	??_entering_password& (0+255),f,b
  2692   000354  D7FC               	bra	u9197
  2693   000356  0000               	nop	
  2694   000358                     
  2695                           ;Helper_functions/helper_fn.c: 287:                             lcd_4bit_send_string_pos
      +                          (&lcd1,2,4,"wrong password ");
  2696   000358  0E4D               	movlw	low _lcd1
  2697   00035A  0100               	movlb	0	; () banked
  2698   00035C  6FEE               	movwf	lcd_4bit_send_string_pos@lcd& (0+255),b
  2699   00035E  0E02               	movlw	2
  2700   000360  6FEF               	movwf	lcd_4bit_send_string_pos@row& (0+255),b
  2701   000362  0E04               	movlw	4
  2702   000364  6FF0               	movwf	lcd_4bit_send_string_pos@column& (0+255),b
  2703   000366  0EB0               	movlw	low STR_29
  2704   000368  6FF1               	movwf	lcd_4bit_send_string_pos@str& (0+255),b
  2705   00036A  0EFF               	movlw	high STR_29
  2706   00036C  6FF2               	movwf	(lcd_4bit_send_string_pos@str+1)& (0+255),b
  2707   00036E  EC74  F014         	call	_lcd_4bit_send_string_pos	;wreg free
  2708   000372                     
  2709                           ;Helper_functions/helper_fn.c: 288:                             convert_byte_to_string(w
      +                          rong_counter,str);
  2710   000372  0E17               	movlw	low entering_password@str
  2711   000374  0100               	movlb	0	; () banked
  2712   000376  6FFB               	movwf	convert_byte_to_string@str& (0+255),b
  2713   000378  0E01               	movlw	high entering_password@str
  2714   00037A  6FFC               	movwf	(convert_byte_to_string@str+1)& (0+255),b
  2715   00037C  0101               	movlb	1	; () banked
  2716   00037E  511B               	movf	entering_password@wrong_counter& (0+255),w,b
  2717   000380  EC9E  F018         	call	_convert_byte_to_string
  2718   000384                     
  2719                           ;Helper_functions/helper_fn.c: 289:                             lcd_4bit_send_string_pos
      +                          (&lcd1,4,1,str);
  2720   000384  0E4D               	movlw	low _lcd1
  2721   000386  0100               	movlb	0	; () banked
  2722   000388  6FEE               	movwf	lcd_4bit_send_string_pos@lcd& (0+255),b
  2723   00038A  0E04               	movlw	4
  2724   00038C  6FEF               	movwf	lcd_4bit_send_string_pos@row& (0+255),b
  2725   00038E  0E01               	movlw	1
  2726   000390  6FF0               	movwf	lcd_4bit_send_string_pos@column& (0+255),b
  2727   000392  0E17               	movlw	low entering_password@str
  2728   000394  6FF1               	movwf	lcd_4bit_send_string_pos@str& (0+255),b
  2729   000396  0E01               	movlw	high entering_password@str
  2730   000398  6FF2               	movwf	(lcd_4bit_send_string_pos@str+1)& (0+255),b
  2731   00039A  EC74  F014         	call	_lcd_4bit_send_string_pos	;wreg free
  2732   00039E                     
  2733                           ;Helper_functions/helper_fn.c: 290:                             lcd_4bit_send_string_pos
      +                          (&lcd1,4,2,"/3");
  2734   00039E  0E4D               	movlw	low _lcd1
  2735   0003A0  0100               	movlb	0	; () banked
  2736   0003A2  6FEE               	movwf	lcd_4bit_send_string_pos@lcd& (0+255),b
  2737   0003A4  0E04               	movlw	4
  2738   0003A6  6FEF               	movwf	lcd_4bit_send_string_pos@row& (0+255),b
  2739   0003A8  0E02               	movlw	2
  2740   0003AA  6FF0               	movwf	lcd_4bit_send_string_pos@column& (0+255),b
  2741   0003AC  0EF3               	movlw	low STR_44
  2742   0003AE  6FF1               	movwf	lcd_4bit_send_string_pos@str& (0+255),b
  2743   0003B0  0EFF               	movlw	high STR_44
  2744   0003B2  6FF2               	movwf	(lcd_4bit_send_string_pos@str+1)& (0+255),b
  2745   0003B4  EC74  F014         	call	_lcd_4bit_send_string_pos	;wreg free
  2746   0003B8                     
  2747                           ;Helper_functions/helper_fn.c: 291:                             _delay((unsigned long)((
      +                          300)*(8000000ul/4000.0)));
  2748   0003B8  0E04               	movlw	4
  2749   0003BA  0100               	movlb	0	; () banked
  2750   0003BC  6FFF               	movwf	(??_entering_password+1)& (0+255),b
  2751   0003BE  0E0C               	movlw	12
  2752   0003C0  6FFE               	movwf	??_entering_password& (0+255),b
  2753   0003C2  0E33               	movlw	51
  2754   0003C4                     u9207:
  2755   0003C4  2EE8               	decfsz	wreg,f,c
  2756   0003C6  D7FE               	bra	u9207
  2757   0003C8  2FFE               	decfsz	??_entering_password& (0+255),f,b
  2758   0003CA  D7FC               	bra	u9207
  2759   0003CC  2FFF               	decfsz	(??_entering_password+1)& (0+255),f,b
  2760   0003CE  D7FA               	bra	u9207
  2761   0003D0  D000               	nop2	
  2762   0003D2                     
  2763                           ;Helper_functions/helper_fn.c: 292:                             lcd_4bit_send_string_pos
      +                          (&lcd1,2,4,"                     ");
  2764   0003D2  0E4D               	movlw	low _lcd1
  2765   0003D4  0100               	movlb	0	; () banked
  2766   0003D6  6FEE               	movwf	lcd_4bit_send_string_pos@lcd& (0+255),b
  2767   0003D8  0E02               	movlw	2
  2768   0003DA  6FEF               	movwf	lcd_4bit_send_string_pos@row& (0+255),b
  2769   0003DC  0E04               	movlw	4
  2770   0003DE  6FF0               	movwf	lcd_4bit_send_string_pos@column& (0+255),b
  2771   0003E0  0EE9               	movlw	low STR_14
  2772   0003E2  6FF1               	movwf	lcd_4bit_send_string_pos@str& (0+255),b
  2773   0003E4  0EFE               	movlw	high STR_14
  2774   0003E6  6FF2               	movwf	(lcd_4bit_send_string_pos@str+1)& (0+255),b
  2775   0003E8  EC74  F014         	call	_lcd_4bit_send_string_pos	;wreg free
  2776   0003EC                     
  2777                           ;Helper_functions/helper_fn.c: 293:                             lcd_4bit_send_string_pos
      +                          (&lcd1,4,1,"   ");
  2778   0003EC  0E4D               	movlw	low _lcd1
  2779   0003EE  0100               	movlb	0	; () banked
  2780   0003F0  6FEE               	movwf	lcd_4bit_send_string_pos@lcd& (0+255),b
  2781   0003F2  0E04               	movlw	4
  2782   0003F4  6FEF               	movwf	lcd_4bit_send_string_pos@row& (0+255),b
  2783   0003F6  0E01               	movlw	1
  2784   0003F8  6FF0               	movwf	lcd_4bit_send_string_pos@column& (0+255),b
  2785   0003FA  0EFB               	movlw	low (STR_14+18)
  2786   0003FC  6FF1               	movwf	lcd_4bit_send_string_pos@str& (0+255),b
  2787   0003FE  0EFE               	movlw	high (STR_14+18)
  2788   000400  6FF2               	movwf	(lcd_4bit_send_string_pos@str+1)& (0+255),b
  2789   000402  EC74  F014         	call	_lcd_4bit_send_string_pos	;wreg free
  2790   000406                     
  2791                           ;Helper_functions/helper_fn.c: 294:                             _delay((unsigned long)((
      +                          300)*(8000000ul/4000.0)));
  2792   000406  0E04               	movlw	4
  2793   000408  0100               	movlb	0	; () banked
  2794   00040A  6FFF               	movwf	(??_entering_password+1)& (0+255),b
  2795   00040C  0E0C               	movlw	12
  2796   00040E  6FFE               	movwf	??_entering_password& (0+255),b
  2797   000410  0E33               	movlw	51
  2798   000412                     u9217:
  2799   000412  2EE8               	decfsz	wreg,f,c
  2800   000414  D7FE               	bra	u9217
  2801   000416  2FFE               	decfsz	??_entering_password& (0+255),f,b
  2802   000418  D7FC               	bra	u9217
  2803   00041A  2FFF               	decfsz	(??_entering_password+1)& (0+255),f,b
  2804   00041C  D7FA               	bra	u9217
  2805   00041E  D000               	nop2	
  2806   000420                     
  2807                           ;Helper_functions/helper_fn.c: 296:                             lcd_4bit_send_command(&l
      +                          cd1,0x08);
  2808   000420  0E4D               	movlw	low _lcd1
  2809   000422  0100               	movlb	0	; () banked
  2810   000424  6FE5               	movwf	lcd_4bit_send_command@lcd& (0+255),b
  2811   000426  0E08               	movlw	8
  2812   000428  6FE6               	movwf	lcd_4bit_send_command@command& (0+255),b
  2813   00042A  EC50  F017         	call	_lcd_4bit_send_command	;wreg free
  2814   00042E                     
  2815                           ;Helper_functions/helper_fn.c: 297:                             _delay((unsigned long)((
      +                          300)*(8000000ul/4000.0)));
  2816   00042E  0E04               	movlw	4
  2817   000430  0100               	movlb	0	; () banked
  2818   000432  6FFF               	movwf	(??_entering_password+1)& (0+255),b
  2819   000434  0E0C               	movlw	12
  2820   000436  6FFE               	movwf	??_entering_password& (0+255),b
  2821   000438  0E33               	movlw	51
  2822   00043A                     u9227:
  2823   00043A  2EE8               	decfsz	wreg,f,c
  2824   00043C  D7FE               	bra	u9227
  2825   00043E  2FFE               	decfsz	??_entering_password& (0+255),f,b
  2826   000440  D7FC               	bra	u9227
  2827   000442  2FFF               	decfsz	(??_entering_password+1)& (0+255),f,b
  2828   000444  D7FA               	bra	u9227
  2829   000446  D000               	nop2	
  2830                           
  2831                           ;Helper_functions/helper_fn.c: 299:                           while(counter){
  2832   000448  EF3A  F002         	goto	l9214
  2833   00044C                     l9206:
  2834                           
  2835                           ; BSR set to: 1
  2836                           ;Helper_functions/helper_fn.c: 300:                               counter--;
  2837   00044C  071E               	decf	entering_password@counter& (0+255),f,b
  2838   00044E                     
  2839                           ; BSR set to: 1
  2840                           ;Helper_functions/helper_fn.c: 301:                               (enterd_pass_obj->pass
      +                          word[counter]) = '\0';
  2841   00044E  5114               	movf	entering_password@enterd_pass_obj& (0+255),w,b
  2842   000450  251E               	addwf	entering_password@counter& (0+255),w,b
  2843   000452  6ED9               	movwf	fsr2l,c
  2844   000454  6ADA               	clrf	fsr2h,c
  2845   000456  0E01               	movlw	1
  2846   000458  26D9               	addwf	fsr2l,f,c
  2847   00045A  6ADF               	clrf	indf2,c
  2848   00045C                     
  2849                           ; BSR set to: 1
  2850                           ;Helper_functions/helper_fn.c: 302:                               lcd_counter--;
  2851   00045C  071D               	decf	entering_password@lcd_counter& (0+255),f,b
  2852   00045E                     
  2853                           ; BSR set to: 1
  2854                           ;Helper_functions/helper_fn.c: 303:                               lcd_4bit_send_char_dat
      +                          a_pos(&lcd1,3,lcd_counter,' ');
  2855   00045E  0E4D               	movlw	low _lcd1
  2856   000460  0100               	movlb	0	; () banked
  2857   000462  6FEE               	movwf	lcd_4bit_send_char_data_pos@lcd& (0+255),b
  2858   000464  0E03               	movlw	3
  2859   000466  6FEF               	movwf	lcd_4bit_send_char_data_pos@row& (0+255),b
  2860   000468  C11D  F0F0         	movff	entering_password@lcd_counter,lcd_4bit_send_char_data_pos@column
  2861   00046C  0E20               	movlw	32
  2862   00046E  6FF1               	movwf	lcd_4bit_send_char_data_pos@data& (0+255),b
  2863   000470  ECD2  F019         	call	_lcd_4bit_send_char_data_pos	;wreg free
  2864   000474                     l9214:
  2865                           
  2866                           ;Helper_functions/helper_fn.c: 299:                           while(counter){
  2867   000474  0101               	movlb	1	; () banked
  2868   000476  511E               	movf	entering_password@counter& (0+255),w,b
  2869   000478  A4D8               	btfss	status,2,c
  2870   00047A  EF41  F002         	goto	u8661
  2871   00047E  EF43  F002         	goto	u8660
  2872   000482                     u8661:
  2873   000482  EF26  F002         	goto	l9206
  2874   000486                     u8660:
  2875   000486                     
  2876                           ; BSR set to: 1
  2877                           ;Helper_functions/helper_fn.c: 306:                           lcd_4bit_send_command(&lcd
      +                          1,0x0C);
  2878   000486  0E4D               	movlw	low _lcd1
  2879   000488  0100               	movlb	0	; () banked
  2880   00048A  6FE5               	movwf	lcd_4bit_send_command@lcd& (0+255),b
  2881   00048C  0E0C               	movlw	12
  2882   00048E  6FE6               	movwf	lcd_4bit_send_command@command& (0+255),b
  2883   000490  EC50  F017         	call	_lcd_4bit_send_command	;wreg free
  2884   000494  EF1B  F000         	goto	l9104
  2885   000498                     l9220:
  2886   000498  0E2F               	movlw	47
  2887   00049A  1848               	xorwf	_keypad_value^0,w,c
  2888   00049C  B4D8               	btfsc	status,2,c
  2889   00049E  EF53  F002         	goto	u8671
  2890   0004A2  EF55  F002         	goto	u8670
  2891   0004A6                     u8671:
  2892   0004A6  EF70  F002         	goto	l9228
  2893   0004AA                     u8670:
  2894   0004AA  0E2A               	movlw	42
  2895   0004AC  1848               	xorwf	_keypad_value^0,w,c
  2896   0004AE  B4D8               	btfsc	status,2,c
  2897   0004B0  EF5C  F002         	goto	u8681
  2898   0004B4  EF5E  F002         	goto	u8680
  2899   0004B8                     u8681:
  2900   0004B8  EF70  F002         	goto	l9228
  2901   0004BC                     u8680:
  2902   0004BC  0E2B               	movlw	43
  2903   0004BE  1848               	xorwf	_keypad_value^0,w,c
  2904   0004C0  B4D8               	btfsc	status,2,c
  2905   0004C2  EF65  F002         	goto	u8691
  2906   0004C6  EF67  F002         	goto	u8690
  2907   0004CA                     u8691:
  2908   0004CA  EF70  F002         	goto	l9228
  2909   0004CE                     u8690:
  2910   0004CE  0E2D               	movlw	45
  2911   0004D0  1848               	xorwf	_keypad_value^0,w,c
  2912   0004D2  A4D8               	btfss	status,2,c
  2913   0004D4  EF6E  F002         	goto	u8701
  2914   0004D8  EF70  F002         	goto	u8700
  2915   0004DC                     u8701:
  2916   0004DC  EFA6  F002         	goto	l9234
  2917   0004E0                     u8700:
  2918   0004E0                     l9228:
  2919                           
  2920                           ;Helper_functions/helper_fn.c: 314:                     lcd_4bit_send_string_pos(&lcd1,4
      +                          ,1,"Unavailable process ");
  2921   0004E0  0E4D               	movlw	low _lcd1
  2922   0004E2  0100               	movlb	0	; () banked
  2923   0004E4  6FEE               	movwf	lcd_4bit_send_string_pos@lcd& (0+255),b
  2924   0004E6  0E04               	movlw	4
  2925   0004E8  6FEF               	movwf	lcd_4bit_send_string_pos@row& (0+255),b
  2926   0004EA  0E01               	movlw	1
  2927   0004EC  6FF0               	movwf	lcd_4bit_send_string_pos@column& (0+255),b
  2928   0004EE  0E40               	movlw	low STR_13
  2929   0004F0  6FF1               	movwf	lcd_4bit_send_string_pos@str& (0+255),b
  2930   0004F2  0EFF               	movlw	high STR_13
  2931   0004F4  6FF2               	movwf	(lcd_4bit_send_string_pos@str+1)& (0+255),b
  2932   0004F6  EC74  F014         	call	_lcd_4bit_send_string_pos	;wreg free
  2933   0004FA                     
  2934                           ;Helper_functions/helper_fn.c: 315:                      _delay((unsigned long)((300)*(8
      +                          000000ul/4000.0)));
  2935   0004FA  0E04               	movlw	4
  2936   0004FC  0100               	movlb	0	; () banked
  2937   0004FE  6FFF               	movwf	(??_entering_password+1)& (0+255),b
  2938   000500  0E0C               	movlw	12
  2939   000502  6FFE               	movwf	??_entering_password& (0+255),b
  2940   000504  0E33               	movlw	51
  2941   000506                     u9237:
  2942   000506  2EE8               	decfsz	wreg,f,c
  2943   000508  D7FE               	bra	u9237
  2944   00050A  2FFE               	decfsz	??_entering_password& (0+255),f,b
  2945   00050C  D7FC               	bra	u9237
  2946   00050E  2FFF               	decfsz	(??_entering_password+1)& (0+255),f,b
  2947   000510  D7FA               	bra	u9237
  2948   000512  D000               	nop2	
  2949   000514                     
  2950                           ;Helper_functions/helper_fn.c: 316:                     lcd_4bit_send_string_pos(&lcd1,4
      +                          ,1,"                     ");
  2951   000514  0E4D               	movlw	low _lcd1
  2952   000516  0100               	movlb	0	; () banked
  2953   000518  6FEE               	movwf	lcd_4bit_send_string_pos@lcd& (0+255),b
  2954   00051A  0E04               	movlw	4
  2955   00051C  6FEF               	movwf	lcd_4bit_send_string_pos@row& (0+255),b
  2956   00051E  0E01               	movlw	1
  2957   000520  6FF0               	movwf	lcd_4bit_send_string_pos@column& (0+255),b
  2958   000522  0EE9               	movlw	low STR_14
  2959   000524  6FF1               	movwf	lcd_4bit_send_string_pos@str& (0+255),b
  2960   000526  0EFE               	movlw	high STR_14
  2961   000528  6FF2               	movwf	(lcd_4bit_send_string_pos@str+1)& (0+255),b
  2962   00052A  EC74  F014         	call	_lcd_4bit_send_string_pos	;wreg free
  2963                           
  2964                           ;Helper_functions/helper_fn.c: 317:                     _delay((unsigned long)((300)*(80
      +                          00000ul/4000.0)));
  2965   00052E  0E04               	movlw	4
  2966   000530  0100               	movlb	0	; () banked
  2967   000532  6FFF               	movwf	(??_entering_password+1)& (0+255),b
  2968   000534  0E0C               	movlw	12
  2969   000536  6FFE               	movwf	??_entering_password& (0+255),b
  2970   000538  0E33               	movlw	51
  2971   00053A                     u9247:
  2972   00053A  2EE8               	decfsz	wreg,f,c
  2973   00053C  D7FE               	bra	u9247
  2974   00053E  2FFE               	decfsz	??_entering_password& (0+255),f,b
  2975   000540  D7FC               	bra	u9247
  2976   000542  2FFF               	decfsz	(??_entering_password+1)& (0+255),f,b
  2977   000544  D7FA               	bra	u9247
  2978   000546  D000               	nop2	
  2979                           
  2980                           ;Helper_functions/helper_fn.c: 318:                 }
  2981   000548  EF24  F000         	goto	l9106
  2982   00054C                     l9234:
  2983                           
  2984                           ;Helper_functions/helper_fn.c: 320:             if(counter < 8){
  2985   00054C  0E08               	movlw	8
  2986   00054E  0101               	movlb	1	; () banked
  2987   000550  611E               	cpfslt	entering_password@counter& (0+255),b
  2988   000552  EFAD  F002         	goto	u8711
  2989   000556  EFAF  F002         	goto	u8710
  2990   00055A                     u8711:
  2991   00055A  EFDE  F002         	goto	l9248
  2992   00055E                     u8710:
  2993   00055E                     
  2994                           ; BSR set to: 1
  2995                           ;Helper_functions/helper_fn.c: 321:                         (enterd_pass_obj->password[c
      +                          ounter]) = keypad_value;
  2996   00055E  5114               	movf	entering_password@enterd_pass_obj& (0+255),w,b
  2997   000560  251E               	addwf	entering_password@counter& (0+255),w,b
  2998   000562  6ED9               	movwf	fsr2l,c
  2999   000564  6ADA               	clrf	fsr2h,c
  3000   000566  0E01               	movlw	1
  3001   000568  26D9               	addwf	fsr2l,f,c
  3002   00056A  C048  FFDF         	movff	_keypad_value,indf2
  3003   00056E                     
  3004                           ; BSR set to: 1
  3005                           ;Helper_functions/helper_fn.c: 322:                         lcd_4bit_send_char_data_pos(
      +                          &lcd1,3,lcd_counter,keypad_value);
  3006   00056E  0E4D               	movlw	low _lcd1
  3007   000570  0100               	movlb	0	; () banked
  3008   000572  6FEE               	movwf	lcd_4bit_send_char_data_pos@lcd& (0+255),b
  3009   000574  0E03               	movlw	3
  3010   000576  6FEF               	movwf	lcd_4bit_send_char_data_pos@row& (0+255),b
  3011   000578  C11D  F0F0         	movff	entering_password@lcd_counter,lcd_4bit_send_char_data_pos@column
  3012   00057C  C048  F0F1         	movff	_keypad_value,lcd_4bit_send_char_data_pos@data
  3013   000580  ECD2  F019         	call	_lcd_4bit_send_char_data_pos	;wreg free
  3014   000584                     
  3015                           ;Helper_functions/helper_fn.c: 323:                         _delay((unsigned long)((200)
      +                          *(8000000ul/4000.0)));
  3016   000584  0E03               	movlw	3
  3017   000586  0100               	movlb	0	; () banked
  3018   000588  6FFF               	movwf	(??_entering_password+1)& (0+255),b
  3019   00058A  0E08               	movlw	8
  3020   00058C  6FFE               	movwf	??_entering_password& (0+255),b
  3021   00058E  0E77               	movlw	119
  3022   000590                     u9257:
  3023   000590  2EE8               	decfsz	wreg,f,c
  3024   000592  D7FE               	bra	u9257
  3025   000594  2FFE               	decfsz	??_entering_password& (0+255),f,b
  3026   000596  D7FC               	bra	u9257
  3027   000598  2FFF               	decfsz	(??_entering_password+1)& (0+255),f,b
  3028   00059A  D7FA               	bra	u9257
  3029   00059C                     
  3030                           ;Helper_functions/helper_fn.c: 324:                         lcd_4bit_send_char_data_pos(
      +                          &lcd1,3,lcd_counter,'*');
  3031   00059C  0E4D               	movlw	low _lcd1
  3032   00059E  0100               	movlb	0	; () banked
  3033   0005A0  6FEE               	movwf	lcd_4bit_send_char_data_pos@lcd& (0+255),b
  3034   0005A2  0E03               	movlw	3
  3035   0005A4  6FEF               	movwf	lcd_4bit_send_char_data_pos@row& (0+255),b
  3036   0005A6  C11D  F0F0         	movff	entering_password@lcd_counter,lcd_4bit_send_char_data_pos@column
  3037   0005AA  0E2A               	movlw	42
  3038   0005AC  6FF1               	movwf	lcd_4bit_send_char_data_pos@data& (0+255),b
  3039   0005AE  ECD2  F019         	call	_lcd_4bit_send_char_data_pos	;wreg free
  3040   0005B2                     
  3041                           ;Helper_functions/helper_fn.c: 325:                         counter++;
  3042   0005B2  0101               	movlb	1	; () banked
  3043   0005B4  2B1E               	incf	entering_password@counter& (0+255),f,b
  3044   0005B6                     
  3045                           ; BSR set to: 1
  3046                           ;Helper_functions/helper_fn.c: 326:                         lcd_counter++;
  3047   0005B6  2B1D               	incf	entering_password@lcd_counter& (0+255),f,b
  3048                           
  3049                           ;Helper_functions/helper_fn.c: 327:             }
  3050   0005B8  EF24  F000         	goto	l9106
  3051   0005BC                     l9248:
  3052                           
  3053                           ; BSR set to: 1
  3054                           ;Helper_functions/helper_fn.c: 329:                 lcd_4bit_send_string_pos(&lcd1,4,1,"
      +                          max 8 digits ");
  3055   0005BC  0E4D               	movlw	low _lcd1
  3056   0005BE  0100               	movlb	0	; () banked
  3057   0005C0  6FEE               	movwf	lcd_4bit_send_string_pos@lcd& (0+255),b
  3058   0005C2  0E04               	movlw	4
  3059   0005C4  6FEF               	movwf	lcd_4bit_send_string_pos@row& (0+255),b
  3060   0005C6  0E01               	movlw	1
  3061   0005C8  6FF0               	movwf	lcd_4bit_send_string_pos@column& (0+255),b
  3062   0005CA  0EDD               	movlw	low STR_19
  3063   0005CC  6FF1               	movwf	lcd_4bit_send_string_pos@str& (0+255),b
  3064   0005CE  0EFF               	movlw	high STR_19
  3065   0005D0  6FF2               	movwf	(lcd_4bit_send_string_pos@str+1)& (0+255),b
  3066   0005D2  EC74  F014         	call	_lcd_4bit_send_string_pos	;wreg free
  3067   0005D6                     
  3068                           ;Helper_functions/helper_fn.c: 330:                  _delay((unsigned long)((300)*(80000
      +                          00ul/4000.0)));
  3069   0005D6  0E04               	movlw	4
  3070   0005D8  0100               	movlb	0	; () banked
  3071   0005DA  6FFF               	movwf	(??_entering_password+1)& (0+255),b
  3072   0005DC  0E0C               	movlw	12
  3073   0005DE  6FFE               	movwf	??_entering_password& (0+255),b
  3074   0005E0  0E33               	movlw	51
  3075   0005E2                     u9267:
  3076   0005E2  2EE8               	decfsz	wreg,f,c
  3077   0005E4  D7FE               	bra	u9267
  3078   0005E6  2FFE               	decfsz	??_entering_password& (0+255),f,b
  3079   0005E8  D7FC               	bra	u9267
  3080   0005EA  2FFF               	decfsz	(??_entering_password+1)& (0+255),f,b
  3081   0005EC  D7FA               	bra	u9267
  3082   0005EE  D000               	nop2	
  3083   0005F0                     
  3084                           ;Helper_functions/helper_fn.c: 331:                 lcd_4bit_send_string_pos(&lcd1,4,1,"
      +                                               ");
  3085   0005F0  0E4D               	movlw	low _lcd1
  3086   0005F2  0100               	movlb	0	; () banked
  3087   0005F4  6FEE               	movwf	lcd_4bit_send_string_pos@lcd& (0+255),b
  3088   0005F6  0E04               	movlw	4
  3089   0005F8  6FEF               	movwf	lcd_4bit_send_string_pos@row& (0+255),b
  3090   0005FA  0E01               	movlw	1
  3091   0005FC  6FF0               	movwf	lcd_4bit_send_string_pos@column& (0+255),b
  3092   0005FE  0EE9               	movlw	low STR_14
  3093   000600  6FF1               	movwf	lcd_4bit_send_string_pos@str& (0+255),b
  3094   000602  0EFE               	movlw	high STR_14
  3095   000604  6FF2               	movwf	(lcd_4bit_send_string_pos@str+1)& (0+255),b
  3096   000606  EC74  F014         	call	_lcd_4bit_send_string_pos	;wreg free
  3097                           
  3098                           ;Helper_functions/helper_fn.c: 332:                  _delay((unsigned long)((300)*(80000
      +                          00ul/4000.0)));
  3099   00060A  0E04               	movlw	4
  3100   00060C  0100               	movlb	0	; () banked
  3101   00060E  6FFF               	movwf	(??_entering_password+1)& (0+255),b
  3102   000610  0E0C               	movlw	12
  3103   000612  6FFE               	movwf	??_entering_password& (0+255),b
  3104   000614  0E33               	movlw	51
  3105   000616                     u9277:
  3106   000616  2EE8               	decfsz	wreg,f,c
  3107   000618  D7FE               	bra	u9277
  3108   00061A  2FFE               	decfsz	??_entering_password& (0+255),f,b
  3109   00061C  D7FC               	bra	u9277
  3110   00061E  2FFF               	decfsz	(??_entering_password+1)& (0+255),f,b
  3111   000620  D7FA               	bra	u9277
  3112   000622  D000               	nop2	
  3113   000624  EF24  F000         	goto	l9106
  3114   000628                     l485:
  3115   000628  0012               	return		;funcret
  3116   00062A                     __end_of_entering_password:
  3117                           	callstack 0
  3118                           
  3119 ;; *************** function _convert_byte_to_string *****************
  3120 ;; Defined at:
  3121 ;;		line 427 in file "ECU_layer/chr_LCD/ecu_chr_LCD.c"
  3122 ;; Parameters:    Size  Location     Type
  3123 ;;  value           1    wreg     unsigned char 
  3124 ;;  str             2   33[BANK0 ] PTR unsigned char 
  3125 ;;		 -> entering_password@str(4), 
  3126 ;; Auto vars:     Size  Location     Type
  3127 ;;  value           1   35[BANK0 ] unsigned char 
  3128 ;;  ret             1    0        unsigned char 
  3129 ;; Return value:  Size  Location     Type
  3130 ;;                  1    wreg      unsigned char 
  3131 ;; Registers used:
  3132 ;;		wreg, fsr1l, fsr1h, fsr2l, fsr2h, status,2, status,0, tblptrl, tblptrh, tblptru, cstack
  3133 ;; Tracked objects:
  3134 ;;		On entry : 0/0
  3135 ;;		On exit  : 0/0
  3136 ;;		Unchanged: 0/0
  3137 ;; Data sizes:     COMRAM   BANK0   BANK1   BANK2   BANK3   BANK4   BANK5   BANK6   BANK7   BANK8   BANK9  BANK10  BANK1
      +1  BANK12  BANK13  BANK14  BANK15
  3138 ;;      Params:         0       2       0       0       0       0       0       0       0       0       0       0       
      +0       0       0       0       0
  3139 ;;      Locals:         0       1       0       0       0       0       0       0       0       0       0       0       
      +0       0       0       0       0
  3140 ;;      Temps:          0       0       0       0       0       0       0       0       0       0       0       0       
      +0       0       0       0       0
  3141 ;;      Totals:         0       3       0       0       0       0       0       0       0       0       0       0       
      +0       0       0       0       0
  3142 ;;Total ram usage:        3 bytes
  3143 ;; Hardware stack levels used: 1
  3144 ;; Hardware stack levels required when called: 13
  3145 ;; This function calls:
  3146 ;;		_memset
  3147 ;;		_sprintf
  3148 ;; This function is called by:
  3149 ;;		_entering_password
  3150 ;; This function uses a non-reentrant model
  3151 ;;
  3152                           
  3153                           	psect	text3
  3154   00313C                     __ptext3:
  3155                           	callstack 0
  3156   00313C                     _convert_byte_to_string:
  3157                           	callstack 16
  3158                           
  3159                           ;incstack = 0
  3160                           ;convert_byte_to_string@value stored from wreg
  3161   00313C  0100               	movlb	0	; () banked
  3162   00313E  6FFD               	movwf	convert_byte_to_string@value& (0+255),b
  3163   003140                     
  3164                           ;ECU_layer/chr_LCD/ecu_chr_LCD.c: 429:     if(((void*)0) == str)
  3165   003140  0100               	movlb	0	; () banked
  3166   003142  51FB               	movf	convert_byte_to_string@str& (0+255),w,b
  3167   003144  11FC               	iorwf	(convert_byte_to_string@str+1)& (0+255),w,b
  3168   003146  A4D8               	btfss	status,2,c
  3169   003148  EFA8  F018         	goto	u8521
  3170   00314C  EFAA  F018         	goto	u8520
  3171   003150                     u8521:
  3172   003150  EFAC  F018         	goto	l9064
  3173   003154                     u8520:
  3174   003154                     
  3175                           ; BSR set to: 0
  3176                           ;ECU_layer/chr_LCD/ecu_chr_LCD.c: 432:     }
  3177   003154  EFC8  F018         	goto	l162
  3178   003158                     l9064:
  3179                           
  3180                           ; BSR set to: 0
  3181                           ;ECU_layer/chr_LCD/ecu_chr_LCD.c: 434:     {;ECU_layer/chr_LCD/ecu_chr_LCD.c: 435:      
      +                             memset(str,'/0',4);
  3182   003158  C0FB  F0DA         	movff	convert_byte_to_string@str,memset@dest
  3183   00315C  C0FC  F0DB         	movff	convert_byte_to_string@str+1,memset@dest+1
  3184   003160  0E2F               	movlw	47
  3185   003162  6FDD               	movwf	(memset@c+1)& (0+255),b
  3186   003164  0E30               	movlw	48
  3187   003166  6FDC               	movwf	memset@c& (0+255),b
  3188   003168  0E00               	movlw	0
  3189   00316A  6FDF               	movwf	(memset@n+1)& (0+255),b
  3190   00316C  0E04               	movlw	4
  3191   00316E  6FDE               	movwf	memset@n& (0+255),b
  3192   003170  ECF3  F019         	call	_memset	;wreg free
  3193   003174                     
  3194                           ;ECU_layer/chr_LCD/ecu_chr_LCD.c: 436:         sprintf(str,"%i",value);
  3195   003174  C0FB  F100         	movff	convert_byte_to_string@str,sprintf@s
  3196   003178  C0FC  F101         	movff	convert_byte_to_string@str+1,sprintf@s+1
  3197   00317C  0EF6               	movlw	low STR_1
  3198   00317E  0101               	movlb	1	; () banked
  3199   003180  6F02               	movwf	sprintf@fmt& (0+255),b
  3200   003182  0EFF               	movlw	high STR_1
  3201   003184  6F03               	movwf	(sprintf@fmt+1)& (0+255),b
  3202   003186  C0FD  F104         	movff	convert_byte_to_string@value,?_sprintf+4
  3203   00318A  6B05               	clrf	(?_sprintf+5)& (0+255),b
  3204   00318C  ECC9  F018         	call	_sprintf	;wreg free
  3205   003190                     l162:
  3206   003190  0012               	return		;funcret
  3207   003192                     __end_of_convert_byte_to_string:
  3208                           	callstack 0
  3209                           
  3210 ;; *************** function _sprintf *****************
  3211 ;; Defined at:
  3212 ;;		line 9 in file "C:\Program Files\Microchip\xc8\v2.45\pic\sources\c99\common\nf_sprintf.c"
  3213 ;; Parameters:    Size  Location     Type
  3214 ;;  s               2    0[BANK1 ] PTR unsigned char 
  3215 ;;		 -> entering_password@str(4), 
  3216 ;;  fmt             2    2[BANK1 ] PTR const unsigned char 
  3217 ;;		 -> STR_3(3), STR_2(3), STR_1(3), 
  3218 ;; Auto vars:     Size  Location     Type
  3219 ;;  f              12    8[BANK1 ] struct _IO_FILE
  3220 ;;  ap              2    6[BANK1 ] PTR void [1]
  3221 ;;		 -> ?_sprintf(2), 
  3222 ;;  ret             2    0        int 
  3223 ;; Return value:  Size  Location     Type
  3224 ;;                  2    0[BANK1 ] int 
  3225 ;; Registers used:
  3226 ;;		wreg, fsr1l, fsr1h, fsr2l, fsr2h, status,2, status,0, tblptrl, tblptrh, tblptru, cstack
  3227 ;; Tracked objects:
  3228 ;;		On entry : 0/0
  3229 ;;		On exit  : 0/0
  3230 ;;		Unchanged: 0/0
  3231 ;; Data sizes:     COMRAM   BANK0   BANK1   BANK2   BANK3   BANK4   BANK5   BANK6   BANK7   BANK8   BANK9  BANK10  BANK1
      +1  BANK12  BANK13  BANK14  BANK15
  3232 ;;      Params:         0       0       6       0       0       0       0       0       0       0       0       0       
      +0       0       0       0       0
  3233 ;;      Locals:         0       0      14       0       0       0       0       0       0       0       0       0       
      +0       0       0       0       0
  3234 ;;      Temps:          0       0       0       0       0       0       0       0       0       0       0       0       
      +0       0       0       0       0
  3235 ;;      Totals:         0       0      20       0       0       0       0       0       0       0       0       0       
      +0       0       0       0       0
  3236 ;;Total ram usage:       20 bytes
  3237 ;; Hardware stack levels used: 1
  3238 ;; Hardware stack levels required when called: 12
  3239 ;; This function calls:
  3240 ;;		_vfprintf
  3241 ;; This function is called by:
  3242 ;;		_convert_byte_to_string
  3243 ;;		_convert_short_to_string
  3244 ;;		_convert_int_to_string
  3245 ;; This function uses a non-reentrant model
  3246 ;;
  3247                           
  3248                           	psect	text4
  3249   003192                     __ptext4:
  3250                           	callstack 0
  3251   003192                     _sprintf:
  3252                           	callstack 16
  3253   003192  0E04               	movlw	low (?_sprintf+4)
  3254   003194  0101               	movlb	1	; () banked
  3255   003196  6F06               	movwf	sprintf@ap& (0+255),b
  3256   003198  0E01               	movlw	high (?_sprintf+4)
  3257   00319A  6F07               	movwf	(sprintf@ap+1)& (0+255),b
  3258   00319C  C100  F108         	movff	sprintf@s,sprintf@f
  3259   0031A0  C101  F109         	movff	sprintf@s+1,sprintf@f+1
  3260   0031A4                     
  3261                           ; BSR set to: 1
  3262   0031A4  0E00               	movlw	0
  3263   0031A6  6F0C               	movwf	(sprintf@f+4)& (0+255),b
  3264   0031A8  0E00               	movlw	0
  3265   0031AA  6F0B               	movwf	(sprintf@f+3)& (0+255),b
  3266   0031AC                     
  3267                           ; BSR set to: 1
  3268   0031AC  0E00               	movlw	0
  3269   0031AE  6F13               	movwf	(sprintf@f+11)& (0+255),b
  3270   0031B0  0E00               	movlw	0
  3271   0031B2  6F12               	movwf	(sprintf@f+10)& (0+255),b
  3272   0031B4                     
  3273                           ; BSR set to: 1
  3274   0031B4  0E08               	movlw	low sprintf@f
  3275   0031B6  0100               	movlb	0	; () banked
  3276   0031B8  6FF3               	movwf	vfprintf@fp& (0+255),b
  3277   0031BA  0E01               	movlw	high sprintf@f
  3278   0031BC  6FF4               	movwf	(vfprintf@fp+1)& (0+255),b
  3279   0031BE  C102  F0F5         	movff	sprintf@fmt,vfprintf@fmt
  3280   0031C2  C103  F0F6         	movff	sprintf@fmt+1,vfprintf@fmt+1
  3281   0031C6  0E06               	movlw	low sprintf@ap
  3282   0031C8  6FF7               	movwf	vfprintf@ap& (0+255),b
  3283   0031CA  0E01               	movlw	high sprintf@ap
  3284   0031CC  6FF8               	movwf	(vfprintf@ap+1)& (0+255),b
  3285   0031CE  ECF2  F018         	call	_vfprintf	;wreg free
  3286   0031D2  0101               	movlb	1	; () banked
  3287   0031D4  510B               	movf	(sprintf@f+3)& (0+255),w,b
  3288   0031D6  2500               	addwf	sprintf@s& (0+255),w,b
  3289   0031D8  6ED9               	movwf	fsr2l,c
  3290   0031DA  510C               	movf	(sprintf@f+4)& (0+255),w,b
  3291   0031DC  2101               	addwfc	(sprintf@s+1)& (0+255),w,b
  3292   0031DE  6EDA               	movwf	fsr2h,c
  3293   0031E0  6ADF               	clrf	indf2,c
  3294   0031E2                     
  3295                           ; BSR set to: 1
  3296   0031E2  0012               	return		;funcret
  3297   0031E4                     __end_of_sprintf:
  3298                           	callstack 0
  3299                           
  3300 ;; *************** function _vfprintf *****************
  3301 ;; Defined at:
  3302 ;;		line 1817 in file "C:\Program Files\Microchip\xc8\v2.45\pic\sources\c99\common\doprnt.c"
  3303 ;; Parameters:    Size  Location     Type
  3304 ;;  fp              2   25[BANK0 ] PTR struct _IO_FILE
  3305 ;;		 -> sprintf@f(12), 
  3306 ;;  fmt             2   27[BANK0 ] PTR const unsigned char 
  3307 ;;		 -> STR_3(3), STR_2(3), STR_1(3), 
  3308 ;;  ap              2   29[BANK0 ] PTR PTR void 
  3309 ;;		 -> sprintf@ap(2), 
  3310 ;; Auto vars:     Size  Location     Type
  3311 ;;  cfmt            2   31[BANK0 ] PTR unsigned char 
  3312 ;;		 -> STR_3(3), STR_2(3), STR_1(3), 
  3313 ;; Return value:  Size  Location     Type
  3314 ;;                  2   25[BANK0 ] int 
  3315 ;; Registers used:
  3316 ;;		wreg, fsr1l, fsr1h, fsr2l, fsr2h, status,2, status,0, tblptrl, tblptrh, tblptru, cstack
  3317 ;; Tracked objects:
  3318 ;;		On entry : 0/0
  3319 ;;		On exit  : 0/0
  3320 ;;		Unchanged: 0/0
  3321 ;; Data sizes:     COMRAM   BANK0   BANK1   BANK2   BANK3   BANK4   BANK5   BANK6   BANK7   BANK8   BANK9  BANK10  BANK1
      +1  BANK12  BANK13  BANK14  BANK15
  3322 ;;      Params:         0       6       0       0       0       0       0       0       0       0       0       0       
      +0       0       0       0       0
  3323 ;;      Locals:         0       2       0       0       0       0       0       0       0       0       0       0       
      +0       0       0       0       0
  3324 ;;      Temps:          0       0       0       0       0       0       0       0       0       0       0       0       
      +0       0       0       0       0
  3325 ;;      Totals:         0       8       0       0       0       0       0       0       0       0       0       0       
      +0       0       0       0       0
  3326 ;;Total ram usage:        8 bytes
  3327 ;; Hardware stack levels used: 1
  3328 ;; Hardware stack levels required when called: 11
  3329 ;; This function calls:
  3330 ;;		_vfpfcnvrt
  3331 ;; This function is called by:
  3332 ;;		_sprintf
  3333 ;; This function uses a non-reentrant model
  3334 ;;
  3335                           
  3336                           	psect	text5
  3337   0031E4                     __ptext5:
  3338                           	callstack 0
  3339   0031E4                     _vfprintf:
  3340                           	callstack 16
  3341   0031E4                     
  3342                           ;C:\Program Files\Microchip\xc8\v2.45\pic\sources\c99\common\doprnt.c: 1817: int vfprint
      +                          f(FILE *fp, const char *fmt, va_list ap);C:\Program Files\Microchip\xc8\v2.45\pic\source
      +                          s\c99\common\doprnt.c: 1818: {;C:\Program Files\Microchip\xc8\v2.45\pic\sources\c99\comm
      +                          on\doprnt.c: 1820:     char *cfmt;;C:\Program Files\Microchip\xc8\v2.45\pic\sources\c99\
      +                          common\doprnt.c: 1822:     cfmt = (char *)fmt;
  3343   0031E4  C0F5  F0F9         	movff	vfprintf@fmt,vfprintf@cfmt
  3344   0031E8  C0F6  F0FA         	movff	vfprintf@fmt+1,vfprintf@cfmt+1
  3345                           
  3346                           ;C:\Program Files\Microchip\xc8\v2.45\pic\sources\c99\common\doprnt.c: 1826:     while (
      +                          *cfmt) {
  3347   0031EC  EF05  F019         	goto	l9032
  3348   0031F0                     l9030:
  3349                           
  3350                           ;C:\Program Files\Microchip\xc8\v2.45\pic\sources\c99\common\doprnt.c: 1830:    vfpfcnvr
      +                          t(fp, &cfmt, ap);
  3351   0031F0  C0F3  F0E4         	movff	vfprintf@fp,vfpfcnvrt@fp
  3352   0031F4  C0F4  F0E5         	movff	vfprintf@fp+1,vfpfcnvrt@fp+1
  3353   0031F8  0EF9               	movlw	low vfprintf@cfmt
  3354   0031FA  0100               	movlb	0	; () banked
  3355   0031FC  6FE6               	movwf	vfpfcnvrt@fmt& (0+255),b
  3356   0031FE  C0F7  F0E7         	movff	vfprintf@ap,vfpfcnvrt@ap
  3357   003202  C0F8  F0E8         	movff	vfprintf@ap+1,vfpfcnvrt@ap+1
  3358   003206  ECAD  F00C         	call	_vfpfcnvrt	;wreg free
  3359   00320A                     l9032:
  3360                           
  3361                           ;C:\Program Files\Microchip\xc8\v2.45\pic\sources\c99\common\doprnt.c: 1826:     while (
      +                          *cfmt) {
  3362   00320A  C0F9  FFF6         	movff	vfprintf@cfmt,tblptrl
  3363   00320E  C0FA  FFF7         	movff	vfprintf@cfmt+1,tblptrh
  3364   003212                     	if	1	;Program memory is < 0x10000, tblptru is always zero
  3365   003212  6AF8               	clrf	tblptru,c
  3366   003214                     	endif
  3367   003214                     	if	0	;tblptru may be non-zero
  3368   003214                     	endif
  3369   003214  0008               	tblrd		*
  3370   003216  50F5               	movf	tablat,w,c
  3371   003218  0900               	iorlw	0
  3372   00321A  A4D8               	btfss	status,2,c
  3373   00321C  EF12  F019         	goto	u8501
  3374   003220  EF14  F019         	goto	u8500
  3375   003224                     u8501:
  3376   003224  EFF8  F018         	goto	l9030
  3377   003228                     u8500:
  3378   003228                     
  3379                           ;C:\Program Files\Microchip\xc8\v2.45\pic\sources\c99\common\doprnt.c: 1835:  return 0;
  3380   003228  0E00               	movlw	0
  3381   00322A  0100               	movlb	0	; () banked
  3382   00322C  6FF4               	movwf	(?_vfprintf+1)& (0+255),b
  3383   00322E  0E00               	movlw	0
  3384   003230  6FF3               	movwf	?_vfprintf& (0+255),b
  3385   003232                     
  3386                           ; BSR set to: 0
  3387   003232  0012               	return		;funcret
  3388   003234                     __end_of_vfprintf:
  3389                           	callstack 0
  3390                           
  3391 ;; *************** function _vfpfcnvrt *****************
  3392 ;; Defined at:
  3393 ;;		line 1177 in file "C:\Program Files\Microchip\xc8\v2.45\pic\sources\c99\common\doprnt.c"
  3394 ;; Parameters:    Size  Location     Type
  3395 ;;  fp              2   10[BANK0 ] PTR struct _IO_FILE
  3396 ;;		 -> sprintf@f(12), 
  3397 ;;  fmt             1   12[BANK0 ] PTR PTR unsigned char 
  3398 ;;		 -> vfprintf@cfmt(2), 
  3399 ;;  ap              2   13[BANK0 ] PTR PTR void 
  3400 ;;		 -> sprintf@ap(2), 
  3401 ;; Auto vars:     Size  Location     Type
  3402 ;;  convarg         4   20[BANK0 ] struct .
  3403 ;;  cp              2   18[BANK0 ] PTR unsigned char 
  3404 ;;		 -> STR_3(3), STR_2(3), STR_1(3), 
  3405 ;;  c               1   24[BANK0 ] unsigned char 
  3406 ;;  done            1   17[BANK0 ] _Bool 
  3407 ;; Return value:  Size  Location     Type
  3408 ;;                  1    wreg      void 
  3409 ;; Registers used:
  3410 ;;		wreg, fsr1l, fsr1h, fsr2l, fsr2h, status,2, status,0, tblptrl, tblptrh, tblptru, cstack
  3411 ;; Tracked objects:
  3412 ;;		On entry : 0/0
  3413 ;;		On exit  : 0/0
  3414 ;;		Unchanged: 0/0
  3415 ;; Data sizes:     COMRAM   BANK0   BANK1   BANK2   BANK3   BANK4   BANK5   BANK6   BANK7   BANK8   BANK9  BANK10  BANK1
      +1  BANK12  BANK13  BANK14  BANK15
  3416 ;;      Params:         0       5       0       0       0       0       0       0       0       0       0       0       
      +0       0       0       0       0
  3417 ;;      Locals:         0       8       0       0       0       0       0       0       0       0       0       0       
      +0       0       0       0       0
  3418 ;;      Temps:          0       2       0       0       0       0       0       0       0       0       0       0       
      +0       0       0       0       0
  3419 ;;      Totals:         0      15       0       0       0       0       0       0       0       0       0       0       
      +0       0       0       0       0
  3420 ;;Total ram usage:       15 bytes
  3421 ;; Hardware stack levels used: 1
  3422 ;; Hardware stack levels required when called: 10
  3423 ;; This function calls:
  3424 ;;		___awdiv
  3425 ;;		___awmod
  3426 ;;		_abs
  3427 ;;		_fputc
  3428 ;; This function is called by:
  3429 ;;		_vfprintf
  3430 ;; This function uses a non-reentrant model
  3431 ;;
  3432                           
  3433                           	psect	text6
  3434   00195A                     __ptext6:
  3435                           	callstack 0
  3436   00195A                     _vfpfcnvrt:
  3437                           	callstack 16
  3438   00195A                     
  3439                           ;C:\Program Files\Microchip\xc8\v2.45\pic\sources\c99\common\doprnt.c: 1177: vfpfcnvrt(F
      +                          ILE *fp, char *fmt[], va_list ap);C:\Program Files\Microchip\xc8\v2.45\pic\sources\c99\c
      +                          ommon\doprnt.c: 1178: {;C:\Program Files\Microchip\xc8\v2.45\pic\sources\c99\common\dopr
      +                          nt.c: 1179:     char c, *cp;;C:\Program Files\Microchip\xc8\v2.45\pic\sources\c99\common
      +                          \doprnt.c: 1180:     _Bool done;;C:\Program Files\Microchip\xc8\v2.45\pic\sources\c99\co
      +                          mmon\doprnt.c: 1188:  } convarg;;C:\Program Files\Microchip\xc8\v2.45\pic\sources\c99\co
      +                          mmon\doprnt.c: 1201:     if ((*fmt)[0] == '%') {
  3440   00195A  0100               	movlb	0	; () banked
  3441   00195C  51E6               	movf	vfpfcnvrt@fmt& (0+255),w,b
  3442   00195E  6ED9               	movwf	fsr2l,c
  3443   001960  6ADA               	clrf	fsr2h,c
  3444   001962  CFDE FFF6          	movff	postinc2,tblptrl
  3445   001966  CFDD FFF7          	movff	postdec2,tblptrh
  3446   00196A                     	if	1	;Program memory is < 0x10000, tblptru is always zero
  3447   00196A  6AF8               	clrf	tblptru,c
  3448   00196C                     	endif
  3449   00196C                     	if	0	;tblptru may be non-zero
  3450   00196C                     	endif
  3451   00196C  0008               	tblrd		*
  3452   00196E  50F5               	movf	tablat,w,c
  3453   001970  0A25               	xorlw	37
  3454   001972  A4D8               	btfss	status,2,c
  3455   001974  EFBE  F00C         	goto	u8401
  3456   001978  EFC0  F00C         	goto	u8400
  3457   00197C                     u8401:
  3458   00197C  EF9D  F00D         	goto	l9022
  3459   001980                     u8400:
  3460   001980                     
  3461                           ; BSR set to: 0
  3462                           ;C:\Program Files\Microchip\xc8\v2.45\pic\sources\c99\common\doprnt.c: 1202:         ++*
      +                          fmt;
  3463   001980  51E6               	movf	vfpfcnvrt@fmt& (0+255),w,b
  3464   001982  6ED9               	movwf	fsr2l,c
  3465   001984  6ADA               	clrf	fsr2h,c
  3466   001986  2ADE               	incf	postinc2,f,c
  3467   001988  0E00               	movlw	0
  3468   00198A  22DD               	addwfc	postdec2,f,c
  3469   00198C                     
  3470                           ; BSR set to: 0
  3471                           ;C:\Program Files\Microchip\xc8\v2.45\pic\sources\c99\common\doprnt.c: 1204:         fla
      +                          gs = width = 0;
  3472   00198C  0E00               	movlw	0
  3473   00198E  6FB0               	movwf	(_width+1)& (0+255),b
  3474   001990  0E00               	movlw	0
  3475   001992  6FAF               	movwf	_width& (0+255),b
  3476   001994  C0AF  F040         	movff	_width,_flags
  3477   001998                     
  3478                           ; BSR set to: 0
  3479                           ;C:\Program Files\Microchip\xc8\v2.45\pic\sources\c99\common\doprnt.c: 1205:         pre
      +                          c = -1;
  3480   001998  69B1               	setf	_prec& (0+255),b
  3481   00199A  69B2               	setf	(_prec+1)& (0+255),b
  3482   00199C                     
  3483                           ; BSR set to: 0
  3484                           ;C:\Program Files\Microchip\xc8\v2.45\pic\sources\c99\common\doprnt.c: 1291:   cp = *fmt
      +                          ;
  3485   00199C  51E6               	movf	vfpfcnvrt@fmt& (0+255),w,b
  3486   00199E  6ED9               	movwf	fsr2l,c
  3487   0019A0  6ADA               	clrf	fsr2h,c
  3488   0019A2  CFDE F0EC          	movff	postinc2,vfpfcnvrt@cp
  3489   0019A6  CFDD F0ED          	movff	postdec2,vfpfcnvrt@cp+1
  3490   0019AA                     
  3491                           ; BSR set to: 0
  3492                           ;C:\Program Files\Microchip\xc8\v2.45\pic\sources\c99\common\doprnt.c: 1361:   if (*cp =
      +                          = 'd' || *cp == 'i') {
  3493   0019AA  C0EC  FFF6         	movff	vfpfcnvrt@cp,tblptrl
  3494   0019AE  C0ED  FFF7         	movff	vfpfcnvrt@cp+1,tblptrh
  3495   0019B2                     	if	1	;Program memory is < 0x10000, tblptru is always zero
  3496   0019B2  6AF8               	clrf	tblptru,c
  3497   0019B4                     	endif
  3498   0019B4                     	if	0	;tblptru may be non-zero
  3499   0019B4                     	endif
  3500   0019B4  0008               	tblrd		*
  3501   0019B6  50F5               	movf	tablat,w,c
  3502   0019B8  0A64               	xorlw	100
  3503   0019BA  B4D8               	btfsc	status,2,c
  3504   0019BC  EFE2  F00C         	goto	u8411
  3505   0019C0  EFE4  F00C         	goto	u8410
  3506   0019C4                     u8411:
  3507   0019C4  EFF3  F00C         	goto	l8992
  3508   0019C8                     u8410:
  3509   0019C8                     
  3510                           ; BSR set to: 0
  3511   0019C8  C0EC  FFF6         	movff	vfpfcnvrt@cp,tblptrl
  3512   0019CC  C0ED  FFF7         	movff	vfpfcnvrt@cp+1,tblptrh
  3513   0019D0                     	if	1	;Program memory is < 0x10000, tblptru is always zero
  3514   0019D0  6AF8               	clrf	tblptru,c
  3515   0019D2                     	endif
  3516   0019D2                     	if	0	;tblptru may be non-zero
  3517   0019D2                     	endif
  3518   0019D2  0008               	tblrd		*
  3519   0019D4  50F5               	movf	tablat,w,c
  3520   0019D6  0A69               	xorlw	105
  3521   0019D8  A4D8               	btfss	status,2,c
  3522   0019DA  EFF1  F00C         	goto	u8421
  3523   0019DE  EFF3  F00C         	goto	u8420
  3524   0019E2                     u8421:
  3525   0019E2  EF94  F00D         	goto	l9018
  3526   0019E6                     u8420:
  3527   0019E6                     l8992:
  3528                           
  3529                           ; BSR set to: 0
  3530                           ;C:\Program Files\Microchip\xc8\v2.45\pic\sources\c99\common\doprnt.c: 1404:    convarg.
      +                          sint = (vfpf_sint_t)(int)(*(int *)__va_arg(*(int **)ap, (int)0));
  3531   0019E6  C0E7  FFD9         	movff	vfpfcnvrt@ap,fsr2l
  3532   0019EA  C0E8  FFDA         	movff	vfpfcnvrt@ap+1,fsr2h
  3533   0019EE  CFDF F0E9          	movff	indf2,??_vfpfcnvrt
  3534   0019F2  0E02               	movlw	2
  3535   0019F4  26DE               	addwf	postinc2,f,c
  3536   0019F6  CFDF F0EA          	movff	indf2,??_vfpfcnvrt+1
  3537   0019FA  0E00               	movlw	0
  3538   0019FC  22DD               	addwfc	postdec2,f,c
  3539   0019FE  C0E9  FFD9         	movff	??_vfpfcnvrt,fsr2l
  3540   001A02  C0EA  FFDA         	movff	??_vfpfcnvrt+1,fsr2h
  3541   001A06  CFDE F0EE          	movff	postinc2,vfpfcnvrt@convarg
  3542   001A0A  CFDD F0EF          	movff	postdec2,vfpfcnvrt@convarg+1
  3543                           
  3544                           ;C:\Program Files\Microchip\xc8\v2.45\pic\sources\c99\common\doprnt.c: 1406:    *fmt = c
      +                          p+1;
  3545   001A0E  0E01               	movlw	1
  3546   001A10  25EC               	addwf	vfpfcnvrt@cp& (0+255),w,b
  3547   001A12  6FE9               	movwf	??_vfpfcnvrt& (0+255),b
  3548   001A14  0E00               	movlw	0
  3549   001A16  21ED               	addwfc	(vfpfcnvrt@cp+1)& (0+255),w,b
  3550   001A18  6FEA               	movwf	(??_vfpfcnvrt+1)& (0+255),b
  3551   001A1A  51E6               	movf	vfpfcnvrt@fmt& (0+255),w,b
  3552   001A1C  6ED9               	movwf	fsr2l,c
  3553   001A1E  6ADA               	clrf	fsr2h,c
  3554   001A20  C0E9  FFDE         	movff	??_vfpfcnvrt,postinc2
  3555   001A24  C0EA  FFDD         	movff	??_vfpfcnvrt+1,postdec2
  3556   001A28                     
  3557                           ; BSR set to: 0
  3558                           ;C:\Program Files\Microchip\xc8\v2.45\pic\sources\c99\common\doprnt.c: 1408:    c = size
      +                          of(dbuf);
  3559   001A28  0E20               	movlw	32
  3560   001A2A  6FF2               	movwf	vfpfcnvrt@c& (0+255),b
  3561   001A2C                     
  3562                           ; BSR set to: 0
  3563                           ;C:\Program Files\Microchip\xc8\v2.45\pic\sources\c99\common\doprnt.c: 1409:    done = c
      +                          onvarg.sint < 0;
  3564   001A2C  BFEF               	btfsc	(vfpfcnvrt@convarg+1)& (0+255),7,b
  3565   001A2E  EF1B  F00D         	goto	u8431
  3566   001A32  EF1E  F00D         	goto	u8430
  3567   001A36                     u8431:
  3568   001A36  0E01               	movlw	1
  3569   001A38  EF1F  F00D         	goto	u8440
  3570   001A3C                     u8430:
  3571   001A3C  0E00               	movlw	0
  3572   001A3E                     u8440:
  3573   001A3E  6FEB               	movwf	vfpfcnvrt@done& (0+255),b
  3574   001A40                     l8998:
  3575                           
  3576                           ; BSR set to: 0
  3577                           ;C:\Program Files\Microchip\xc8\v2.45\pic\sources\c99\common\doprnt.c: 1411:     dbuf[--
      +                          c] = abs(convarg.sint % 10) + '0';
  3578   001A40  07F2               	decf	vfpfcnvrt@c& (0+255),f,b
  3579   001A42  0E21               	movlw	low _dbuf
  3580   001A44  25F2               	addwf	vfpfcnvrt@c& (0+255),w,b
  3581   001A46  6ED9               	movwf	fsr2l,c
  3582   001A48  6ADA               	clrf	fsr2h,c
  3583   001A4A  0E01               	movlw	high _dbuf
  3584   001A4C  22DA               	addwfc	fsr2h,f,c
  3585   001A4E  C0EE  F0DA         	movff	vfpfcnvrt@convarg,___awmod@dividend
  3586   001A52  C0EF  F0DB         	movff	vfpfcnvrt@convarg+1,___awmod@dividend+1
  3587   001A56  0E00               	movlw	0
  3588   001A58  6FDD               	movwf	(___awmod@divisor+1)& (0+255),b
  3589   001A5A  0E0A               	movlw	10
  3590   001A5C  6FDC               	movwf	___awmod@divisor& (0+255),b
  3591   001A5E  ECDE  F012         	call	___awmod	;wreg free
  3592   001A62  C0DA  F0E0         	movff	?___awmod,abs@a
  3593   001A66  C0DB  F0E1         	movff	?___awmod+1,abs@a+1
  3594   001A6A  EC2C  F01A         	call	_abs	;wreg free
  3595   001A6E  0100               	movlb	0	; () banked
  3596   001A70  51E0               	movf	?_abs& (0+255),w,b
  3597   001A72  0F30               	addlw	48
  3598   001A74  6EDF               	movwf	indf2,c
  3599   001A76                     
  3600                           ; BSR set to: 0
  3601                           ;C:\Program Files\Microchip\xc8\v2.45\pic\sources\c99\common\doprnt.c: 1412:     convarg
      +                          .sint /= 10;
  3602   001A76  C0EE  F0DA         	movff	vfpfcnvrt@convarg,___awdiv@dividend
  3603   001A7A  C0EF  F0DB         	movff	vfpfcnvrt@convarg+1,___awdiv@dividend+1
  3604   001A7E  0E00               	movlw	0
  3605   001A80  6FDD               	movwf	(___awdiv@divisor+1)& (0+255),b
  3606   001A82  0E0A               	movlw	10
  3607   001A84  6FDC               	movwf	___awdiv@divisor& (0+255),b
  3608   001A86  EC7B  F012         	call	___awdiv	;wreg free
  3609   001A8A  C0DA  F0EE         	movff	?___awdiv,vfpfcnvrt@convarg
  3610   001A8E  C0DB  F0EF         	movff	?___awdiv+1,vfpfcnvrt@convarg+1
  3611   001A92                     
  3612                           ;C:\Program Files\Microchip\xc8\v2.45\pic\sources\c99\common\doprnt.c: 1416:    } while 
      +                          (convarg.sint != 0 && c != 0);
  3613   001A92  0100               	movlb	0	; () banked
  3614   001A94  51EE               	movf	vfpfcnvrt@convarg& (0+255),w,b
  3615   001A96  11EF               	iorwf	(vfpfcnvrt@convarg+1)& (0+255),w,b
  3616   001A98  B4D8               	btfsc	status,2,c
  3617   001A9A  EF51  F00D         	goto	u8451
  3618   001A9E  EF53  F00D         	goto	u8450
  3619   001AA2                     u8451:
  3620   001AA2  EF5B  F00D         	goto	l9006
  3621   001AA6                     u8450:
  3622   001AA6                     
  3623                           ; BSR set to: 0
  3624   001AA6  51F2               	movf	vfpfcnvrt@c& (0+255),w,b
  3625   001AA8  A4D8               	btfss	status,2,c
  3626   001AAA  EF59  F00D         	goto	u8461
  3627   001AAE  EF5B  F00D         	goto	u8460
  3628   001AB2                     u8461:
  3629   001AB2  EF20  F00D         	goto	l8998
  3630   001AB6                     u8460:
  3631   001AB6                     l9006:
  3632                           
  3633                           ; BSR set to: 0
  3634                           ;C:\Program Files\Microchip\xc8\v2.45\pic\sources\c99\common\doprnt.c: 1417:    if (c !=
      +                           0 && done) {
  3635   001AB6  51F2               	movf	vfpfcnvrt@c& (0+255),w,b
  3636   001AB8  B4D8               	btfsc	status,2,c
  3637   001ABA  EF61  F00D         	goto	u8471
  3638   001ABE  EF63  F00D         	goto	u8470
  3639   001AC2                     u8471:
  3640   001AC2  EF89  F00D         	goto	l9016
  3641   001AC6                     u8470:
  3642   001AC6                     
  3643                           ; BSR set to: 0
  3644   001AC6  51EB               	movf	vfpfcnvrt@done& (0+255),w,b
  3645   001AC8  B4D8               	btfsc	status,2,c
  3646   001ACA  EF69  F00D         	goto	u8481
  3647   001ACE  EF6B  F00D         	goto	u8480
  3648   001AD2                     u8481:
  3649   001AD2  EF89  F00D         	goto	l9016
  3650   001AD6                     u8480:
  3651   001AD6                     
  3652                           ; BSR set to: 0
  3653                           ;C:\Program Files\Microchip\xc8\v2.45\pic\sources\c99\common\doprnt.c: 1418:     dbuf[--
      +                          c] = '-';
  3654   001AD6  07F2               	decf	vfpfcnvrt@c& (0+255),f,b
  3655   001AD8  0E21               	movlw	low _dbuf
  3656   001ADA  25F2               	addwf	vfpfcnvrt@c& (0+255),w,b
  3657   001ADC  6ED9               	movwf	fsr2l,c
  3658   001ADE  6ADA               	clrf	fsr2h,c
  3659   001AE0  0E01               	movlw	high _dbuf
  3660   001AE2  22DA               	addwfc	fsr2h,f,c
  3661   001AE4  0E2D               	movlw	45
  3662   001AE6  6EDF               	movwf	indf2,c
  3663   001AE8  EF89  F00D         	goto	l9016
  3664   001AEC                     l9012:
  3665                           
  3666                           ; BSR set to: 0
  3667                           ;C:\Program Files\Microchip\xc8\v2.45\pic\sources\c99\common\doprnt.c: 1424:     fputc(d
      +                          buf[c++], fp);
  3668   001AEC  0E21               	movlw	low _dbuf
  3669   001AEE  25F2               	addwf	vfpfcnvrt@c& (0+255),w,b
  3670   001AF0  6ED9               	movwf	fsr2l,c
  3671   001AF2  6ADA               	clrf	fsr2h,c
  3672   001AF4  0E01               	movlw	high _dbuf
  3673   001AF6  22DA               	addwfc	fsr2h,f,c
  3674   001AF8  50DF               	movf	indf2,w,c
  3675   001AFA  6FE9               	movwf	??_vfpfcnvrt& (0+255),b
  3676   001AFC  51E9               	movf	??_vfpfcnvrt& (0+255),w,b
  3677   001AFE  6FDA               	movwf	fputc@c& (0+255),b
  3678   001B00  6BDB               	clrf	(fputc@c+1)& (0+255),b
  3679   001B02  C0E4  F0DC         	movff	vfpfcnvrt@fp,fputc@fp
  3680   001B06  C0E5  F0DD         	movff	vfpfcnvrt@fp+1,fputc@fp+1
  3681   001B0A  EC15  F012         	call	_fputc	;wreg free
  3682   001B0E  0100               	movlb	0	; () banked
  3683   001B10  2BF2               	incf	vfpfcnvrt@c& (0+255),f,b
  3684   001B12                     l9016:
  3685                           
  3686                           ; BSR set to: 0
  3687                           ;C:\Program Files\Microchip\xc8\v2.45\pic\sources\c99\common\doprnt.c: 1423:    while (c
      +                           != sizeof(dbuf)) {
  3688   001B12  0E20               	movlw	32
  3689   001B14  19F2               	xorwf	vfpfcnvrt@c& (0+255),w,b
  3690   001B16  A4D8               	btfss	status,2,c
  3691   001B18  EF90  F00D         	goto	u8491
  3692   001B1C  EF92  F00D         	goto	u8490
  3693   001B20                     u8491:
  3694   001B20  EF76  F00D         	goto	l9012
  3695   001B24                     u8490:
  3696   001B24  EFB1  F00D         	goto	l1832
  3697   001B28                     l9018:
  3698                           
  3699                           ;C:\Program Files\Microchip\xc8\v2.45\pic\sources\c99\common\doprnt.c: 1806:         ++*
      +                          fmt;
  3700   001B28  0100               	movlb	0	; () banked
  3701   001B2A  51E6               	movf	vfpfcnvrt@fmt& (0+255),w,b
  3702   001B2C  6ED9               	movwf	fsr2l,c
  3703   001B2E  6ADA               	clrf	fsr2h,c
  3704   001B30  2ADE               	incf	postinc2,f,c
  3705   001B32  0E00               	movlw	0
  3706   001B34  22DD               	addwfc	postdec2,f,c
  3707   001B36  EFB1  F00D         	goto	l1832
  3708   001B3A                     l9022:
  3709                           
  3710                           ; BSR set to: 0
  3711                           ;C:\Program Files\Microchip\xc8\v2.45\pic\sources\c99\common\doprnt.c: 1811:     fputc((
      +                          int)(*fmt)[0], fp);
  3712   001B3A  51E6               	movf	vfpfcnvrt@fmt& (0+255),w,b
  3713   001B3C  6ED9               	movwf	fsr2l,c
  3714   001B3E  6ADA               	clrf	fsr2h,c
  3715   001B40  CFDE FFF6          	movff	postinc2,tblptrl
  3716   001B44  CFDD FFF7          	movff	postdec2,tblptrh
  3717   001B48                     	if	1	;Program memory is < 0x10000, tblptru is always zero
  3718   001B48  6AF8               	clrf	tblptru,c
  3719   001B4A                     	endif
  3720   001B4A                     	if	0	;tblptru may be non-zero
  3721   001B4A                     	endif
  3722   001B4A  0008               	tblrd		*
  3723   001B4C  50F5               	movf	tablat,w,c
  3724   001B4E  6FDA               	movwf	fputc@c& (0+255),b
  3725   001B50  6BDB               	clrf	(fputc@c+1)& (0+255),b
  3726   001B52  C0E4  F0DC         	movff	vfpfcnvrt@fp,fputc@fp
  3727   001B56  C0E5  F0DD         	movff	vfpfcnvrt@fp+1,fputc@fp+1
  3728   001B5A  EC15  F012         	call	_fputc	;wreg free
  3729   001B5E  EF94  F00D         	goto	l9018
  3730   001B62                     l1832:
  3731                           
  3732                           ; BSR set to: 0
  3733   001B62  0012               	return		;funcret
  3734   001B64                     __end_of_vfpfcnvrt:
  3735                           	callstack 0
  3736                           
  3737 ;; *************** function _fputc *****************
  3738 ;; Defined at:
  3739 ;;		line 8 in file "C:\Program Files\Microchip\xc8\v2.45\pic\sources\c99\common\nf_fputc.c"
  3740 ;; Parameters:    Size  Location     Type
  3741 ;;  c               2    0[BANK0 ] int 
  3742 ;;  fp              2    2[BANK0 ] PTR struct _IO_FILE
  3743 ;;		 -> sprintf@f(12), 
  3744 ;; Auto vars:     Size  Location     Type
  3745 ;;		None
  3746 ;; Return value:  Size  Location     Type
  3747 ;;                  2    0[BANK0 ] int 
  3748 ;; Registers used:
  3749 ;;		wreg, fsr1l, fsr1h, fsr2l, fsr2h, status,2, status,0, cstack
  3750 ;; Tracked objects:
  3751 ;;		On entry : 0/0
  3752 ;;		On exit  : 0/0
  3753 ;;		Unchanged: 0/0
  3754 ;; Data sizes:     COMRAM   BANK0   BANK1   BANK2   BANK3   BANK4   BANK5   BANK6   BANK7   BANK8   BANK9  BANK10  BANK1
      +1  BANK12  BANK13  BANK14  BANK15
  3755 ;;      Params:         0       4       0       0       0       0       0       0       0       0       0       0       
      +0       0       0       0       0
  3756 ;;      Locals:         0       0       0       0       0       0       0       0       0       0       0       0       
      +0       0       0       0       0
  3757 ;;      Temps:          0       5       0       0       0       0       0       0       0       0       0       0       
      +0       0       0       0       0
  3758 ;;      Totals:         0       9       0       0       0       0       0       0       0       0       0       0       
      +0       0       0       0       0
  3759 ;;Total ram usage:        9 bytes
  3760 ;; Hardware stack levels used: 1
  3761 ;; Hardware stack levels required when called: 9
  3762 ;; This function calls:
  3763 ;;		_putch
  3764 ;; This function is called by:
  3765 ;;		_vfpfcnvrt
  3766 ;; This function uses a non-reentrant model
  3767 ;;
  3768                           
  3769                           	psect	text7
  3770   00242A                     __ptext7:
  3771                           	callstack 0
  3772   00242A                     _fputc:
  3773                           	callstack 16
  3774   00242A  0100               	movlb	0	; () banked
  3775   00242C  51DC               	movf	fputc@fp& (0+255),w,b
  3776   00242E  11DD               	iorwf	(fputc@fp+1)& (0+255),w,b
  3777   002430  B4D8               	btfsc	status,2,c
  3778   002432  EF1D  F012         	goto	u8351
  3779   002436  EF1F  F012         	goto	u8350
  3780   00243A                     u8351:
  3781   00243A  EF28  F012         	goto	l8964
  3782   00243E                     u8350:
  3783   00243E                     
  3784                           ; BSR set to: 0
  3785   00243E  51DC               	movf	fputc@fp& (0+255),w,b
  3786   002440  11DD               	iorwf	(fputc@fp+1)& (0+255),w,b
  3787   002442  A4D8               	btfss	status,2,c
  3788   002444  EF26  F012         	goto	u8361
  3789   002448  EF28  F012         	goto	u8360
  3790   00244C                     u8361:
  3791   00244C  EF2D  F012         	goto	l8966
  3792   002450                     u8360:
  3793   002450                     l8964:
  3794                           
  3795                           ; BSR set to: 0
  3796   002450  51DA               	movf	fputc@c& (0+255),w,b
  3797   002452  ECA5  F01B         	call	_putch
  3798   002456  EF7A  F012         	goto	l1857
  3799   00245A                     l8966:
  3800                           
  3801                           ; BSR set to: 0
  3802   00245A  EE20 F00A          	lfsr	2,10
  3803   00245E  51DC               	movf	fputc@fp& (0+255),w,b
  3804   002460  26D9               	addwf	fsr2l,f,c
  3805   002462  51DD               	movf	(fputc@fp+1)& (0+255),w,b
  3806   002464  22DA               	addwfc	fsr2h,f,c
  3807   002466  50DE               	movf	postinc2,w,c
  3808   002468  10DE               	iorwf	postinc2,w,c
  3809   00246A  B4D8               	btfsc	status,2,c
  3810   00246C  EF3A  F012         	goto	u8371
  3811   002470  EF3C  F012         	goto	u8370
  3812   002474                     u8371:
  3813   002474  EF57  F012         	goto	l8970
  3814   002478                     u8370:
  3815   002478                     
  3816                           ; BSR set to: 0
  3817   002478  EE20 F00A          	lfsr	2,10
  3818   00247C  51DC               	movf	fputc@fp& (0+255),w,b
  3819   00247E  26D9               	addwf	fsr2l,f,c
  3820   002480  51DD               	movf	(fputc@fp+1)& (0+255),w,b
  3821   002482  22DA               	addwfc	fsr2h,f,c
  3822   002484  EE10 F003          	lfsr	1,3
  3823   002488  51DC               	movf	fputc@fp& (0+255),w,b
  3824   00248A  26E1               	addwf	fsr1l,f,c
  3825   00248C  51DD               	movf	(fputc@fp+1)& (0+255),w,b
  3826   00248E  22E2               	addwfc	fsr1h,f,c
  3827   002490  50DE               	movf	postinc2,w,c
  3828   002492  5CE6               	subwf	postinc1,w,c
  3829   002494  50E6               	movf	postinc1,w,c
  3830   002496  0A80               	xorlw	128
  3831   002498  6FE2               	movwf	(??_fputc+4)& (0+255),b
  3832   00249A  50DE               	movf	postinc2,w,c
  3833   00249C  0A80               	xorlw	128
  3834   00249E  59E2               	subwfb	(??_fputc+4)& (0+255),w,b
  3835   0024A0  B0D8               	btfsc	status,0,c
  3836   0024A2  EF55  F012         	goto	u8381
  3837   0024A6  EF57  F012         	goto	u8380
  3838   0024AA                     u8381:
  3839   0024AA  EF7A  F012         	goto	l1857
  3840   0024AE                     u8380:
  3841   0024AE                     l8970:
  3842                           
  3843                           ; BSR set to: 0
  3844   0024AE  EE20 F003          	lfsr	2,3
  3845   0024B2  51DC               	movf	fputc@fp& (0+255),w,b
  3846   0024B4  26D9               	addwf	fsr2l,f,c
  3847   0024B6  51DD               	movf	(fputc@fp+1)& (0+255),w,b
  3848   0024B8  22DA               	addwfc	fsr2h,f,c
  3849   0024BA  CFDE F0DE          	movff	postinc2,??_fputc
  3850   0024BE  CFDD F0DF          	movff	postdec2,??_fputc+1
  3851   0024C2  C0DC  FFD9         	movff	fputc@fp,fsr2l
  3852   0024C6  C0DD  FFDA         	movff	fputc@fp+1,fsr2h
  3853   0024CA  CFDE F0E0          	movff	postinc2,??_fputc+2
  3854   0024CE  CFDD F0E1          	movff	postdec2,??_fputc+3
  3855   0024D2  51DE               	movf	??_fputc& (0+255),w,b
  3856   0024D4  25E0               	addwf	(??_fputc+2)& (0+255),w,b
  3857   0024D6  6ED9               	movwf	fsr2l,c
  3858   0024D8  51DF               	movf	(??_fputc+1)& (0+255),w,b
  3859   0024DA  21E1               	addwfc	(??_fputc+3)& (0+255),w,b
  3860   0024DC  6EDA               	movwf	fsr2h,c
  3861   0024DE  C0DA  FFDF         	movff	fputc@c,indf2
  3862   0024E2  EE20 F003          	lfsr	2,3
  3863   0024E6  51DC               	movf	fputc@fp& (0+255),w,b
  3864   0024E8  26D9               	addwf	fsr2l,f,c
  3865   0024EA  51DD               	movf	(fputc@fp+1)& (0+255),w,b
  3866   0024EC  22DA               	addwfc	fsr2h,f,c
  3867   0024EE  2ADE               	incf	postinc2,f,c
  3868   0024F0  0E00               	movlw	0
  3869   0024F2  22DD               	addwfc	postdec2,f,c
  3870   0024F4                     l1857:
  3871   0024F4  0012               	return		;funcret
  3872   0024F6                     __end_of_fputc:
  3873                           	callstack 0
  3874                           
  3875 ;; *************** function _putch *****************
  3876 ;; Defined at:
  3877 ;;		line 7 in file "C:\Program Files\Microchip\xc8\v2.45\pic\sources\c99\common\putch.c"
  3878 ;; Parameters:    Size  Location     Type
  3879 ;;  c               1    wreg     unsigned char 
  3880 ;; Auto vars:     Size  Location     Type
  3881 ;;  c               1    0[COMRAM] unsigned char 
  3882 ;; Return value:  Size  Location     Type
  3883 ;;                  1    wreg      void 
  3884 ;; Registers used:
  3885 ;;		wreg
  3886 ;; Tracked objects:
  3887 ;;		On entry : 0/0
  3888 ;;		On exit  : 0/0
  3889 ;;		Unchanged: 0/0
  3890 ;; Data sizes:     COMRAM   BANK0   BANK1   BANK2   BANK3   BANK4   BANK5   BANK6   BANK7   BANK8   BANK9  BANK10  BANK1
      +1  BANK12  BANK13  BANK14  BANK15
  3891 ;;      Params:         0       0       0       0       0       0       0       0       0       0       0       0       
      +0       0       0       0       0
  3892 ;;      Locals:         0       0       0       0       0       0       0       0       0       0       0       0       
      +0       0       0       0       0
  3893 ;;      Temps:          0       0       0       0       0       0       0       0       0       0       0       0       
      +0       0       0       0       0
  3894 ;;      Totals:         0       0       0       0       0       0       0       0       0       0       0       0       
      +0       0       0       0       0
  3895 ;;Total ram usage:        0 bytes
  3896 ;; Hardware stack levels used: 1
  3897 ;; Hardware stack levels required when called: 8
  3898 ;; This function calls:
  3899 ;;		Nothing
  3900 ;; This function is called by:
  3901 ;;		_fputc
  3902 ;; This function uses a non-reentrant model
  3903 ;;
  3904                           
  3905                           	psect	text8
  3906   00374A                     __ptext8:
  3907                           	callstack 0
  3908   00374A                     _putch:
  3909                           	callstack 16
  3910   00374A  0012               	return		;funcret
  3911   00374C                     __end_of_putch:
  3912                           	callstack 0
  3913                           
  3914 ;; *************** function _abs *****************
  3915 ;; Defined at:
  3916 ;;		line 1 in file "C:\Program Files\Microchip\xc8\v2.45\pic\sources\c99\common\abs.c"
  3917 ;; Parameters:    Size  Location     Type
  3918 ;;  a               2    6[BANK0 ] int 
  3919 ;; Auto vars:     Size  Location     Type
  3920 ;;		None
  3921 ;; Return value:  Size  Location     Type
  3922 ;;                  2    6[BANK0 ] int 
  3923 ;; Registers used:
  3924 ;;		wreg, status,2, status,0
  3925 ;; Tracked objects:
  3926 ;;		On entry : 0/0
  3927 ;;		On exit  : 0/0
  3928 ;;		Unchanged: 0/0
  3929 ;; Data sizes:     COMRAM   BANK0   BANK1   BANK2   BANK3   BANK4   BANK5   BANK6   BANK7   BANK8   BANK9  BANK10  BANK1
      +1  BANK12  BANK13  BANK14  BANK15
  3930 ;;      Params:         0       2       0       0       0       0       0       0       0       0       0       0       
      +0       0       0       0       0
  3931 ;;      Locals:         0       0       0       0       0       0       0       0       0       0       0       0       
      +0       0       0       0       0
  3932 ;;      Temps:          0       2       0       0       0       0       0       0       0       0       0       0       
      +0       0       0       0       0
  3933 ;;      Totals:         0       4       0       0       0       0       0       0       0       0       0       0       
      +0       0       0       0       0
  3934 ;;Total ram usage:        4 bytes
  3935 ;; Hardware stack levels used: 1
  3936 ;; Hardware stack levels required when called: 8
  3937 ;; This function calls:
  3938 ;;		Nothing
  3939 ;; This function is called by:
  3940 ;;		_vfpfcnvrt
  3941 ;; This function uses a non-reentrant model
  3942 ;;
  3943                           
  3944                           	psect	text9
  3945   003458                     __ptext9:
  3946                           	callstack 0
  3947   003458                     _abs:
  3948                           	callstack 17
  3949   003458  0100               	movlb	0	; () banked
  3950   00345A  BFE1               	btfsc	(abs@a+1)& (0+255),7,b
  3951   00345C  EF32  F01A         	goto	u8391
  3952   003460  EF34  F01A         	goto	u8390
  3953   003464                     u8391:
  3954   003464  EF3A  F01A         	goto	l1842
  3955   003468                     u8390:
  3956   003468                     
  3957                           ; BSR set to: 0
  3958   003468  C0E0  F0E0         	movff	abs@a,?_abs
  3959   00346C  C0E1  F0E1         	movff	abs@a+1,?_abs+1
  3960   003470  EF46  F01A         	goto	l1845
  3961   003474                     l1842:
  3962                           
  3963                           ; BSR set to: 0
  3964   003474  C0E0  F0E2         	movff	abs@a,??_abs
  3965   003478  C0E1  F0E3         	movff	abs@a+1,??_abs+1
  3966   00347C  1FE2               	comf	??_abs& (0+255),f,b
  3967   00347E  1FE3               	comf	(??_abs+1)& (0+255),f,b
  3968   003480  4BE2               	infsnz	??_abs& (0+255),f,b
  3969   003482  2BE3               	incf	(??_abs+1)& (0+255),f,b
  3970   003484  C0E2  F0E0         	movff	??_abs,?_abs
  3971   003488  C0E3  F0E1         	movff	??_abs+1,?_abs+1
  3972   00348C                     l1845:
  3973                           
  3974                           ; BSR set to: 0
  3975   00348C  0012               	return		;funcret
  3976   00348E                     __end_of_abs:
  3977                           	callstack 0
  3978                           
  3979 ;; *************** function ___awmod *****************
  3980 ;; Defined at:
  3981 ;;		line 7 in file "C:\Program Files\Microchip\xc8\v2.45\pic\sources\c99\common\awmod.c"
  3982 ;; Parameters:    Size  Location     Type
  3983 ;;  dividend        2    0[BANK0 ] int 
  3984 ;;  divisor         2    2[BANK0 ] int 
  3985 ;; Auto vars:     Size  Location     Type
  3986 ;;  sign            1    5[BANK0 ] unsigned char 
  3987 ;;  counter         1    4[BANK0 ] unsigned char 
  3988 ;; Return value:  Size  Location     Type
  3989 ;;                  2    0[BANK0 ] int 
  3990 ;; Registers used:
  3991 ;;		wreg, status,2, status,0
  3992 ;; Tracked objects:
  3993 ;;		On entry : 0/0
  3994 ;;		On exit  : 0/0
  3995 ;;		Unchanged: 0/0
  3996 ;; Data sizes:     COMRAM   BANK0   BANK1   BANK2   BANK3   BANK4   BANK5   BANK6   BANK7   BANK8   BANK9  BANK10  BANK1
      +1  BANK12  BANK13  BANK14  BANK15
  3997 ;;      Params:         0       4       0       0       0       0       0       0       0       0       0       0       
      +0       0       0       0       0
  3998 ;;      Locals:         0       2       0       0       0       0       0       0       0       0       0       0       
      +0       0       0       0       0
  3999 ;;      Temps:          0       0       0       0       0       0       0       0       0       0       0       0       
      +0       0       0       0       0
  4000 ;;      Totals:         0       6       0       0       0       0       0       0       0       0       0       0       
      +0       0       0       0       0
  4001 ;;Total ram usage:        6 bytes
  4002 ;; Hardware stack levels used: 1
  4003 ;; Hardware stack levels required when called: 8
  4004 ;; This function calls:
  4005 ;;		Nothing
  4006 ;; This function is called by:
  4007 ;;		_vfpfcnvrt
  4008 ;; This function uses a non-reentrant model
  4009 ;;
  4010                           
  4011                           	psect	text10
  4012   0025BC                     __ptext10:
  4013                           	callstack 0
  4014   0025BC                     ___awmod:
  4015                           	callstack 17
  4016   0025BC  0E00               	movlw	0
  4017   0025BE  0100               	movlb	0	; () banked
  4018   0025C0  6FDF               	movwf	___awmod@sign& (0+255),b
  4019   0025C2                     
  4020                           ; BSR set to: 0
  4021   0025C2  BFDB               	btfsc	(___awmod@dividend+1)& (0+255),7,b
  4022   0025C4  EFE8  F012         	goto	u8290
  4023   0025C8  EFE6  F012         	goto	u8291
  4024   0025CC                     u8291:
  4025   0025CC  EFEE  F012         	goto	l8932
  4026   0025D0                     u8290:
  4027   0025D0                     
  4028                           ; BSR set to: 0
  4029   0025D0  6DDA               	negf	___awmod@dividend& (0+255),b
  4030   0025D2  1FDB               	comf	(___awmod@dividend+1)& (0+255),f,b
  4031   0025D4  B0D8               	btfsc	status,0,c
  4032   0025D6  2BDB               	incf	(___awmod@dividend+1)& (0+255),f,b
  4033   0025D8                     
  4034                           ; BSR set to: 0
  4035   0025D8  0E01               	movlw	1
  4036   0025DA  6FDF               	movwf	___awmod@sign& (0+255),b
  4037   0025DC                     l8932:
  4038                           
  4039                           ; BSR set to: 0
  4040   0025DC  BFDD               	btfsc	(___awmod@divisor+1)& (0+255),7,b
  4041   0025DE  EFF5  F012         	goto	u8300
  4042   0025E2  EFF3  F012         	goto	u8301
  4043   0025E6                     u8301:
  4044   0025E6  EFF9  F012         	goto	l8936
  4045   0025EA                     u8300:
  4046   0025EA                     
  4047                           ; BSR set to: 0
  4048   0025EA  6DDC               	negf	___awmod@divisor& (0+255),b
  4049   0025EC  1FDD               	comf	(___awmod@divisor+1)& (0+255),f,b
  4050   0025EE  B0D8               	btfsc	status,0,c
  4051   0025F0  2BDD               	incf	(___awmod@divisor+1)& (0+255),f,b
  4052   0025F2                     l8936:
  4053                           
  4054                           ; BSR set to: 0
  4055   0025F2  51DC               	movf	___awmod@divisor& (0+255),w,b
  4056   0025F4  11DD               	iorwf	(___awmod@divisor+1)& (0+255),w,b
  4057   0025F6  B4D8               	btfsc	status,2,c
  4058   0025F8  EF00  F013         	goto	u8311
  4059   0025FC  EF02  F013         	goto	u8310
  4060   002600                     u8311:
  4061   002600  EF26  F013         	goto	l8952
  4062   002604                     u8310:
  4063   002604                     
  4064                           ; BSR set to: 0
  4065   002604  0E01               	movlw	1
  4066   002606  6FDE               	movwf	___awmod@counter& (0+255),b
  4067   002608  EF0A  F013         	goto	l8942
  4068   00260C                     l8940:
  4069                           
  4070                           ; BSR set to: 0
  4071   00260C  90D8               	bcf	status,0,c
  4072   00260E  37DC               	rlcf	___awmod@divisor& (0+255),f,b
  4073   002610  37DD               	rlcf	(___awmod@divisor+1)& (0+255),f,b
  4074   002612  2BDE               	incf	___awmod@counter& (0+255),f,b
  4075   002614                     l8942:
  4076                           
  4077                           ; BSR set to: 0
  4078   002614  AFDD               	btfss	(___awmod@divisor+1)& (0+255),7,b
  4079   002616  EF0F  F013         	goto	u8321
  4080   00261A  EF11  F013         	goto	u8320
  4081   00261E                     u8321:
  4082   00261E  EF06  F013         	goto	l8940
  4083   002622                     u8320:
  4084   002622                     l8944:
  4085                           
  4086                           ; BSR set to: 0
  4087   002622  51DC               	movf	___awmod@divisor& (0+255),w,b
  4088   002624  5DDA               	subwf	___awmod@dividend& (0+255),w,b
  4089   002626  51DD               	movf	(___awmod@divisor+1)& (0+255),w,b
  4090   002628  59DB               	subwfb	(___awmod@dividend+1)& (0+255),w,b
  4091   00262A  A0D8               	btfss	status,0,c
  4092   00262C  EF1A  F013         	goto	u8331
  4093   002630  EF1C  F013         	goto	u8330
  4094   002634                     u8331:
  4095   002634  EF20  F013         	goto	l8948
  4096   002638                     u8330:
  4097   002638                     
  4098                           ; BSR set to: 0
  4099   002638  51DC               	movf	___awmod@divisor& (0+255),w,b
  4100   00263A  5FDA               	subwf	___awmod@dividend& (0+255),f,b
  4101   00263C  51DD               	movf	(___awmod@divisor+1)& (0+255),w,b
  4102   00263E  5BDB               	subwfb	(___awmod@dividend+1)& (0+255),f,b
  4103   002640                     l8948:
  4104                           
  4105                           ; BSR set to: 0
  4106   002640  90D8               	bcf	status,0,c
  4107   002642  33DD               	rrcf	(___awmod@divisor+1)& (0+255),f,b
  4108   002644  33DC               	rrcf	___awmod@divisor& (0+255),f,b
  4109   002646                     
  4110                           ; BSR set to: 0
  4111   002646  2FDE               	decfsz	___awmod@counter& (0+255),f,b
  4112   002648  EF11  F013         	goto	l8944
  4113   00264C                     l8952:
  4114                           
  4115                           ; BSR set to: 0
  4116   00264C  51DF               	movf	___awmod@sign& (0+255),w,b
  4117   00264E  B4D8               	btfsc	status,2,c
  4118   002650  EF2C  F013         	goto	u8341
  4119   002654  EF2E  F013         	goto	u8340
  4120   002658                     u8341:
  4121   002658  EF32  F013         	goto	l8956
  4122   00265C                     u8340:
  4123   00265C                     
  4124                           ; BSR set to: 0
  4125   00265C  6DDA               	negf	___awmod@dividend& (0+255),b
  4126   00265E  1FDB               	comf	(___awmod@dividend+1)& (0+255),f,b
  4127   002660  B0D8               	btfsc	status,0,c
  4128   002662  2BDB               	incf	(___awmod@dividend+1)& (0+255),f,b
  4129   002664                     l8956:
  4130                           
  4131                           ; BSR set to: 0
  4132   002664  C0DA  F0DA         	movff	___awmod@dividend,?___awmod
  4133   002668  C0DB  F0DB         	movff	___awmod@dividend+1,?___awmod+1
  4134   00266C                     
  4135                           ; BSR set to: 0
  4136   00266C  0012               	return		;funcret
  4137   00266E                     __end_of___awmod:
  4138                           	callstack 0
  4139                           
  4140 ;; *************** function ___awdiv *****************
  4141 ;; Defined at:
  4142 ;;		line 7 in file "C:\Program Files\Microchip\xc8\v2.45\pic\sources\c99\common\awdiv.c"
  4143 ;; Parameters:    Size  Location     Type
  4144 ;;  dividend        2    0[BANK0 ] int 
  4145 ;;  divisor         2    2[BANK0 ] int 
  4146 ;; Auto vars:     Size  Location     Type
  4147 ;;  quotient        2    6[BANK0 ] int 
  4148 ;;  sign            1    5[BANK0 ] unsigned char 
  4149 ;;  counter         1    4[BANK0 ] unsigned char 
  4150 ;; Return value:  Size  Location     Type
  4151 ;;                  2    0[BANK0 ] int 
  4152 ;; Registers used:
  4153 ;;		wreg, status,2, status,0
  4154 ;; Tracked objects:
  4155 ;;		On entry : 0/0
  4156 ;;		On exit  : 0/0
  4157 ;;		Unchanged: 0/0
  4158 ;; Data sizes:     COMRAM   BANK0   BANK1   BANK2   BANK3   BANK4   BANK5   BANK6   BANK7   BANK8   BANK9  BANK10  BANK1
      +1  BANK12  BANK13  BANK14  BANK15
  4159 ;;      Params:         0       4       0       0       0       0       0       0       0       0       0       0       
      +0       0       0       0       0
  4160 ;;      Locals:         0       4       0       0       0       0       0       0       0       0       0       0       
      +0       0       0       0       0
  4161 ;;      Temps:          0       0       0       0       0       0       0       0       0       0       0       0       
      +0       0       0       0       0
  4162 ;;      Totals:         0       8       0       0       0       0       0       0       0       0       0       0       
      +0       0       0       0       0
  4163 ;;Total ram usage:        8 bytes
  4164 ;; Hardware stack levels used: 1
  4165 ;; Hardware stack levels required when called: 8
  4166 ;; This function calls:
  4167 ;;		Nothing
  4168 ;; This function is called by:
  4169 ;;		_vfpfcnvrt
  4170 ;; This function uses a non-reentrant model
  4171 ;;
  4172                           
  4173                           	psect	text11
  4174   0024F6                     __ptext11:
  4175                           	callstack 0
  4176   0024F6                     ___awdiv:
  4177                           	callstack 17
  4178   0024F6  0E00               	movlw	0
  4179   0024F8  0100               	movlb	0	; () banked
  4180   0024FA  6FDF               	movwf	___awdiv@sign& (0+255),b
  4181   0024FC                     
  4182                           ; BSR set to: 0
  4183   0024FC  BFDD               	btfsc	(___awdiv@divisor+1)& (0+255),7,b
  4184   0024FE  EF85  F012         	goto	u8230
  4185   002502  EF83  F012         	goto	u8231
  4186   002506                     u8231:
  4187   002506  EF8B  F012         	goto	l8888
  4188   00250A                     u8230:
  4189   00250A                     
  4190                           ; BSR set to: 0
  4191   00250A  6DDC               	negf	___awdiv@divisor& (0+255),b
  4192   00250C  1FDD               	comf	(___awdiv@divisor+1)& (0+255),f,b
  4193   00250E  B0D8               	btfsc	status,0,c
  4194   002510  2BDD               	incf	(___awdiv@divisor+1)& (0+255),f,b
  4195   002512                     
  4196                           ; BSR set to: 0
  4197   002512  0E01               	movlw	1
  4198   002514  6FDF               	movwf	___awdiv@sign& (0+255),b
  4199   002516                     l8888:
  4200                           
  4201                           ; BSR set to: 0
  4202   002516  BFDB               	btfsc	(___awdiv@dividend+1)& (0+255),7,b
  4203   002518  EF92  F012         	goto	u8240
  4204   00251C  EF90  F012         	goto	u8241
  4205   002520                     u8241:
  4206   002520  EF98  F012         	goto	l8894
  4207   002524                     u8240:
  4208   002524                     
  4209                           ; BSR set to: 0
  4210   002524  6DDA               	negf	___awdiv@dividend& (0+255),b
  4211   002526  1FDB               	comf	(___awdiv@dividend+1)& (0+255),f,b
  4212   002528  B0D8               	btfsc	status,0,c
  4213   00252A  2BDB               	incf	(___awdiv@dividend+1)& (0+255),f,b
  4214   00252C                     
  4215                           ; BSR set to: 0
  4216   00252C  0E01               	movlw	1
  4217   00252E  1BDF               	xorwf	___awdiv@sign& (0+255),f,b
  4218   002530                     l8894:
  4219                           
  4220                           ; BSR set to: 0
  4221   002530  0E00               	movlw	0
  4222   002532  6FE1               	movwf	(___awdiv@quotient+1)& (0+255),b
  4223   002534  0E00               	movlw	0
  4224   002536  6FE0               	movwf	___awdiv@quotient& (0+255),b
  4225   002538                     
  4226                           ; BSR set to: 0
  4227   002538  51DC               	movf	___awdiv@divisor& (0+255),w,b
  4228   00253A  11DD               	iorwf	(___awdiv@divisor+1)& (0+255),w,b
  4229   00253C  B4D8               	btfsc	status,2,c
  4230   00253E  EFA3  F012         	goto	u8251
  4231   002542  EFA5  F012         	goto	u8250
  4232   002546                     u8251:
  4233   002546  EFCD  F012         	goto	l8916
  4234   00254A                     u8250:
  4235   00254A                     
  4236                           ; BSR set to: 0
  4237   00254A  0E01               	movlw	1
  4238   00254C  6FDE               	movwf	___awdiv@counter& (0+255),b
  4239   00254E  EFAD  F012         	goto	l8902
  4240   002552                     l8900:
  4241                           
  4242                           ; BSR set to: 0
  4243   002552  90D8               	bcf	status,0,c
  4244   002554  37DC               	rlcf	___awdiv@divisor& (0+255),f,b
  4245   002556  37DD               	rlcf	(___awdiv@divisor+1)& (0+255),f,b
  4246   002558  2BDE               	incf	___awdiv@counter& (0+255),f,b
  4247   00255A                     l8902:
  4248                           
  4249                           ; BSR set to: 0
  4250   00255A  AFDD               	btfss	(___awdiv@divisor+1)& (0+255),7,b
  4251   00255C  EFB2  F012         	goto	u8261
  4252   002560  EFB4  F012         	goto	u8260
  4253   002564                     u8261:
  4254   002564  EFA9  F012         	goto	l8900
  4255   002568                     u8260:
  4256   002568                     l8904:
  4257                           
  4258                           ; BSR set to: 0
  4259   002568  90D8               	bcf	status,0,c
  4260   00256A  37E0               	rlcf	___awdiv@quotient& (0+255),f,b
  4261   00256C  37E1               	rlcf	(___awdiv@quotient+1)& (0+255),f,b
  4262   00256E                     
  4263                           ; BSR set to: 0
  4264   00256E  51DC               	movf	___awdiv@divisor& (0+255),w,b
  4265   002570  5DDA               	subwf	___awdiv@dividend& (0+255),w,b
  4266   002572  51DD               	movf	(___awdiv@divisor+1)& (0+255),w,b
  4267   002574  59DB               	subwfb	(___awdiv@dividend+1)& (0+255),w,b
  4268   002576  A0D8               	btfss	status,0,c
  4269   002578  EFC0  F012         	goto	u8271
  4270   00257C  EFC2  F012         	goto	u8270
  4271   002580                     u8271:
  4272   002580  EFC7  F012         	goto	l8912
  4273   002584                     u8270:
  4274   002584                     
  4275                           ; BSR set to: 0
  4276   002584  51DC               	movf	___awdiv@divisor& (0+255),w,b
  4277   002586  5FDA               	subwf	___awdiv@dividend& (0+255),f,b
  4278   002588  51DD               	movf	(___awdiv@divisor+1)& (0+255),w,b
  4279   00258A  5BDB               	subwfb	(___awdiv@dividend+1)& (0+255),f,b
  4280   00258C                     
  4281                           ; BSR set to: 0
  4282   00258C  81E0               	bsf	___awdiv@quotient& (0+255),0,b
  4283   00258E                     l8912:
  4284                           
  4285                           ; BSR set to: 0
  4286   00258E  90D8               	bcf	status,0,c
  4287   002590  33DD               	rrcf	(___awdiv@divisor+1)& (0+255),f,b
  4288   002592  33DC               	rrcf	___awdiv@divisor& (0+255),f,b
  4289   002594                     
  4290                           ; BSR set to: 0
  4291   002594  2FDE               	decfsz	___awdiv@counter& (0+255),f,b
  4292   002596  EFB4  F012         	goto	l8904
  4293   00259A                     l8916:
  4294                           
  4295                           ; BSR set to: 0
  4296   00259A  51DF               	movf	___awdiv@sign& (0+255),w,b
  4297   00259C  B4D8               	btfsc	status,2,c
  4298   00259E  EFD3  F012         	goto	u8281
  4299   0025A2  EFD5  F012         	goto	u8280
  4300   0025A6                     u8281:
  4301   0025A6  EFD9  F012         	goto	l8920
  4302   0025AA                     u8280:
  4303   0025AA                     
  4304                           ; BSR set to: 0
  4305   0025AA  6DE0               	negf	___awdiv@quotient& (0+255),b
  4306   0025AC  1FE1               	comf	(___awdiv@quotient+1)& (0+255),f,b
  4307   0025AE  B0D8               	btfsc	status,0,c
  4308   0025B0  2BE1               	incf	(___awdiv@quotient+1)& (0+255),f,b
  4309   0025B2                     l8920:
  4310                           
  4311                           ; BSR set to: 0
  4312   0025B2  C0E0  F0DA         	movff	___awdiv@quotient,?___awdiv
  4313   0025B6  C0E1  F0DB         	movff	___awdiv@quotient+1,?___awdiv+1
  4314   0025BA                     
  4315                           ; BSR set to: 0
  4316   0025BA  0012               	return		;funcret
  4317   0025BC                     __end_of___awdiv:
  4318                           	callstack 0
  4319                           
  4320 ;; *************** function _memset *****************
  4321 ;; Defined at:
  4322 ;;		line 3 in file "C:\Program Files\Microchip\xc8\v2.45\pic\sources\c99\common\memset.c"
  4323 ;; Parameters:    Size  Location     Type
  4324 ;;  dest            2    0[BANK0 ] PTR void 
  4325 ;;		 -> entering_password@str(4), 
  4326 ;;  c               2    2[BANK0 ] int 
  4327 ;;  n               2    4[BANK0 ] unsigned int 
  4328 ;; Auto vars:     Size  Location     Type
  4329 ;;  p               2    6[BANK0 ] PTR unsigned char 
  4330 ;;		 -> entering_password@str(4), 
  4331 ;; Return value:  Size  Location     Type
  4332 ;;                  2    0[BANK0 ] PTR void 
  4333 ;; Registers used:
  4334 ;;		wreg, fsr2l, fsr2h, status,2, status,0
  4335 ;; Tracked objects:
  4336 ;;		On entry : 0/0
  4337 ;;		On exit  : 0/0
  4338 ;;		Unchanged: 0/0
  4339 ;; Data sizes:     COMRAM   BANK0   BANK1   BANK2   BANK3   BANK4   BANK5   BANK6   BANK7   BANK8   BANK9  BANK10  BANK1
      +1  BANK12  BANK13  BANK14  BANK15
  4340 ;;      Params:         0       6       0       0       0       0       0       0       0       0       0       0       
      +0       0       0       0       0
  4341 ;;      Locals:         0       2       0       0       0       0       0       0       0       0       0       0       
      +0       0       0       0       0
  4342 ;;      Temps:          0       0       0       0       0       0       0       0       0       0       0       0       
      +0       0       0       0       0
  4343 ;;      Totals:         0       8       0       0       0       0       0       0       0       0       0       0       
      +0       0       0       0       0
  4344 ;;Total ram usage:        8 bytes
  4345 ;; Hardware stack levels used: 1
  4346 ;; Hardware stack levels required when called: 8
  4347 ;; This function calls:
  4348 ;;		Nothing
  4349 ;; This function is called by:
  4350 ;;		_convert_byte_to_string
  4351 ;;		_convert_short_to_string
  4352 ;;		_convert_int_to_string
  4353 ;; This function uses a non-reentrant model
  4354 ;;
  4355                           
  4356                           	psect	text12
  4357   0033E6                     __ptext12:
  4358                           	callstack 0
  4359   0033E6                     _memset:
  4360                           	callstack 20
  4361   0033E6  C0DA  F0E0         	movff	memset@dest,memset@p
  4362   0033EA  C0DB  F0E1         	movff	memset@dest+1,memset@p+1
  4363   0033EE  EF01  F01A         	goto	l9044
  4364   0033F2                     l9040:
  4365                           
  4366                           ; BSR set to: 0
  4367   0033F2  C0E0  FFD9         	movff	memset@p,fsr2l
  4368   0033F6  C0E1  FFDA         	movff	memset@p+1,fsr2h
  4369   0033FA  C0DC  FFDF         	movff	memset@c,indf2
  4370   0033FE                     
  4371                           ; BSR set to: 0
  4372   0033FE  4BE0               	infsnz	memset@p& (0+255),f,b
  4373   003400  2BE1               	incf	(memset@p+1)& (0+255),f,b
  4374   003402                     l9044:
  4375   003402  0100               	movlb	0	; () banked
  4376   003404  07DE               	decf	memset@n& (0+255),f,b
  4377   003406  A0D8               	btfss	status,0,c
  4378   003408  07DF               	decf	(memset@n+1)& (0+255),f,b
  4379   00340A  29DE               	incf	memset@n& (0+255),w,b
  4380   00340C  E106               	bnz	u8511
  4381   00340E  29DF               	incf	(memset@n+1)& (0+255),w,b
  4382   003410  A4D8               	btfss	status,2,c
  4383   003412  EF0D  F01A         	goto	u8511
  4384   003416  EF0F  F01A         	goto	u8510
  4385   00341A                     u8511:
  4386   00341A  EFF9  F019         	goto	l9040
  4387   00341E                     u8510:
  4388   00341E                     
  4389                           ; BSR set to: 0
  4390   00341E  0012               	return		;funcret
  4391   003420                     __end_of_memset:
  4392                           	callstack 0
  4393                           
  4394 ;; *************** function _ecu_led_turn_on *****************
  4395 ;; Defined at:
  4396 ;;		line 40 in file "ECU_layer/LED/ecu_led.c"
  4397 ;; Parameters:    Size  Location     Type
  4398 ;;  led             1    8[BANK0 ] PTR const struct .
  4399 ;;		 -> green_led(1), red_led(1), 
  4400 ;; Auto vars:     Size  Location     Type
  4401 ;;  led_pin         1   10[BANK0 ] struct .
  4402 ;;  ret             1    0        unsigned char 
  4403 ;; Return value:  Size  Location     Type
  4404 ;;                  1    wreg      unsigned char 
  4405 ;; Registers used:
  4406 ;;		wreg, fsr2l, fsr2h, status,2, status,0, prodl, prodh, cstack
  4407 ;; Tracked objects:
  4408 ;;		On entry : 0/0
  4409 ;;		On exit  : 0/0
  4410 ;;		Unchanged: 0/0
  4411 ;; Data sizes:     COMRAM   BANK0   BANK1   BANK2   BANK3   BANK4   BANK5   BANK6   BANK7   BANK8   BANK9  BANK10  BANK1
      +1  BANK12  BANK13  BANK14  BANK15
  4412 ;;      Params:         0       1       0       0       0       0       0       0       0       0       0       0       
      +0       0       0       0       0
  4413 ;;      Locals:         0       1       0       0       0       0       0       0       0       0       0       0       
      +0       0       0       0       0
  4414 ;;      Temps:          0       1       0       0       0       0       0       0       0       0       0       0       
      +0       0       0       0       0
  4415 ;;      Totals:         0       3       0       0       0       0       0       0       0       0       0       0       
      +0       0       0       0       0
  4416 ;;Total ram usage:        3 bytes
  4417 ;; Hardware stack levels used: 1
  4418 ;; Hardware stack levels required when called: 9
  4419 ;; This function calls:
  4420 ;;		_gpio_pin_write_logic
  4421 ;; This function is called by:
  4422 ;;		_main
  4423 ;; This function uses a non-reentrant model
  4424 ;;
  4425                           
  4426                           	psect	text13
  4427   002CF2                     __ptext13:
  4428                           	callstack 0
  4429   002CF2                     _ecu_led_turn_on:
  4430                           	callstack 21
  4431   002CF2                     
  4432                           ;ECU_layer/LED/ecu_led.c: 42:     if(((void*)0) == led)
  4433   002CF2  0100               	movlb	0	; () banked
  4434   002CF4  51E2               	movf	ecu_led_turn_on@led& (0+255),w,b
  4435   002CF6  A4D8               	btfss	status,2,c
  4436   002CF8  EF80  F016         	goto	u7051
  4437   002CFC  EF82  F016         	goto	u7050
  4438   002D00                     u7051:
  4439   002D00  EF84  F016         	goto	l276
  4440   002D04                     u7050:
  4441   002D04                     
  4442                           ; BSR set to: 0
  4443                           ;ECU_layer/LED/ecu_led.c: 45:     }
  4444   002D04  EFAF  F016         	goto	l280
  4445   002D08                     l276:
  4446                           
  4447                           ; BSR set to: 0
  4448                           ;ECU_layer/LED/ecu_led.c: 47:     {;ECU_layer/LED/ecu_led.c: 48:         pin_config_t le
      +                          d_pin = {.port =led->port_name , .pin = led->pin ,
  4449   002D08  C046  F0E4         	movff	ecu_led_turn_on@F3064,ecu_led_turn_on@led_pin
  4450   002D0C                     
  4451                           ; BSR set to: 0
  4452   002D0C  51E2               	movf	ecu_led_turn_on@led& (0+255),w,b
  4453   002D0E  6ED9               	movwf	fsr2l,c
  4454   002D10  6ADA               	clrf	fsr2h,c
  4455   002D12  50DF               	movf	223,w,c
  4456   002D14  0B0F               	andlw	15
  4457   002D16  6FE3               	movwf	??_ecu_led_turn_on& (0+255),b
  4458   002D18  51E4               	movf	ecu_led_turn_on@led_pin& (0+255),w,b
  4459   002D1A  19E3               	xorwf	??_ecu_led_turn_on& (0+255),w,b
  4460   002D1C  0BF8               	andlw	-8
  4461   002D1E  19E3               	xorwf	??_ecu_led_turn_on& (0+255),w,b
  4462   002D20  6FE4               	movwf	ecu_led_turn_on@led_pin& (0+255),b
  4463   002D22  51E2               	movf	ecu_led_turn_on@led& (0+255),w,b
  4464   002D24  6ED9               	movwf	fsr2l,c
  4465   002D26  6ADA               	clrf	fsr2h,c
  4466   002D28  38DF               	swapf	223,w,c
  4467   002D2A  0B07               	andlw	7
  4468   002D2C  6FE3               	movwf	??_ecu_led_turn_on& (0+255),b
  4469   002D2E  47E3               	rlncf	??_ecu_led_turn_on& (0+255),f,b
  4470   002D30  47E3               	rlncf	??_ecu_led_turn_on& (0+255),f,b
  4471   002D32  47E3               	rlncf	??_ecu_led_turn_on& (0+255),f,b
  4472   002D34  51E4               	movf	ecu_led_turn_on@led_pin& (0+255),w,b
  4473   002D36  19E3               	xorwf	??_ecu_led_turn_on& (0+255),w,b
  4474   002D38  0BC7               	andlw	-57
  4475   002D3A  19E3               	xorwf	??_ecu_led_turn_on& (0+255),w,b
  4476   002D3C  6FE4               	movwf	ecu_led_turn_on@led_pin& (0+255),b
  4477   002D3E                     
  4478                           ; BSR set to: 0
  4479   002D3E  9DE4               	bcf	ecu_led_turn_on@led_pin& (0+255),6,b
  4480   002D40                     
  4481                           ; BSR set to: 0
  4482   002D40  51E2               	movf	ecu_led_turn_on@led& (0+255),w,b
  4483   002D42  6ED9               	movwf	fsr2l,c
  4484   002D44  6ADA               	clrf	fsr2h,c
  4485   002D46  AEDF               	btfss	indf2,7,c
  4486   002D48  D002               	bra	u7065
  4487   002D4A  8FE4               	bsf	ecu_led_turn_on@led_pin& (0+255),7,b
  4488   002D4C  D002               	bra	u7067
  4489   002D4E                     u7065:
  4490   002D4E  0100               	movlb	0	; () banked
  4491   002D50  9FE4               	bcf	ecu_led_turn_on@led_pin& (0+255),7,b
  4492   002D52                     u7067:
  4493   002D52                     
  4494                           ; BSR set to: 0
  4495                           ;ECU_layer/LED/ecu_led.c: 50:         gpio_pin_write_logic(&led_pin,HIGH);
  4496   002D52  0EE4               	movlw	low ecu_led_turn_on@led_pin
  4497   002D54  6FDA               	movwf	gpio_pin_write_logic@_pin_config& (0+255),b
  4498   002D56  0E01               	movlw	1
  4499   002D58  6FDB               	movwf	gpio_pin_write_logic@logic& (0+255),b
  4500   002D5A  EC8F  F00F         	call	_gpio_pin_write_logic	;wreg free
  4501   002D5E                     l280:
  4502   002D5E  0012               	return		;funcret
  4503   002D60                     __end_of_ecu_led_turn_on:
  4504                           	callstack 0
  4505                           
  4506 ;; *************** function _ecu_led_turn_off *****************
  4507 ;; Defined at:
  4508 ;;		line 64 in file "ECU_layer/LED/ecu_led.c"
  4509 ;; Parameters:    Size  Location     Type
  4510 ;;  led             1    8[BANK0 ] PTR const struct .
  4511 ;;		 -> green_led(1), red_led(1), 
  4512 ;; Auto vars:     Size  Location     Type
  4513 ;;  led_pin         1   10[BANK0 ] struct .
  4514 ;;  ret             1    0        unsigned char 
  4515 ;; Return value:  Size  Location     Type
  4516 ;;                  1    wreg      unsigned char 
  4517 ;; Registers used:
  4518 ;;		wreg, fsr2l, fsr2h, status,2, status,0, prodl, prodh, cstack
  4519 ;; Tracked objects:
  4520 ;;		On entry : 0/0
  4521 ;;		On exit  : 0/0
  4522 ;;		Unchanged: 0/0
  4523 ;; Data sizes:     COMRAM   BANK0   BANK1   BANK2   BANK3   BANK4   BANK5   BANK6   BANK7   BANK8   BANK9  BANK10  BANK1
      +1  BANK12  BANK13  BANK14  BANK15
  4524 ;;      Params:         0       1       0       0       0       0       0       0       0       0       0       0       
      +0       0       0       0       0
  4525 ;;      Locals:         0       1       0       0       0       0       0       0       0       0       0       0       
      +0       0       0       0       0
  4526 ;;      Temps:          0       1       0       0       0       0       0       0       0       0       0       0       
      +0       0       0       0       0
  4527 ;;      Totals:         0       3       0       0       0       0       0       0       0       0       0       0       
      +0       0       0       0       0
  4528 ;;Total ram usage:        3 bytes
  4529 ;; Hardware stack levels used: 1
  4530 ;; Hardware stack levels required when called: 9
  4531 ;; This function calls:
  4532 ;;		_gpio_pin_write_logic
  4533 ;; This function is called by:
  4534 ;;		_main
  4535 ;; This function uses a non-reentrant model
  4536 ;;
  4537                           
  4538                           	psect	text14
  4539   002D60                     __ptext14:
  4540                           	callstack 0
  4541   002D60                     _ecu_led_turn_off:
  4542                           	callstack 21
  4543   002D60                     
  4544                           ;ECU_layer/LED/ecu_led.c: 66:     if(((void*)0) == led)
  4545   002D60  0100               	movlb	0	; () banked
  4546   002D62  51E2               	movf	ecu_led_turn_off@led& (0+255),w,b
  4547   002D64  A4D8               	btfss	status,2,c
  4548   002D66  EFB7  F016         	goto	u7071
  4549   002D6A  EFB9  F016         	goto	u7070
  4550   002D6E                     u7071:
  4551   002D6E  EFBB  F016         	goto	l283
  4552   002D72                     u7070:
  4553   002D72                     
  4554                           ; BSR set to: 0
  4555                           ;ECU_layer/LED/ecu_led.c: 69:     }
  4556   002D72  EFE6  F016         	goto	l287
  4557   002D76                     l283:
  4558                           
  4559                           ; BSR set to: 0
  4560                           ;ECU_layer/LED/ecu_led.c: 71:     {;ECU_layer/LED/ecu_led.c: 72:         pin_config_t le
      +                          d_pin = {.port =led->port_name , .pin = led->pin ,
  4561   002D76  C045  F0E4         	movff	ecu_led_turn_off@F3069,ecu_led_turn_off@led_pin
  4562   002D7A                     
  4563                           ; BSR set to: 0
  4564   002D7A  51E2               	movf	ecu_led_turn_off@led& (0+255),w,b
  4565   002D7C  6ED9               	movwf	fsr2l,c
  4566   002D7E  6ADA               	clrf	fsr2h,c
  4567   002D80  50DF               	movf	223,w,c
  4568   002D82  0B0F               	andlw	15
  4569   002D84  6FE3               	movwf	??_ecu_led_turn_off& (0+255),b
  4570   002D86  51E4               	movf	ecu_led_turn_off@led_pin& (0+255),w,b
  4571   002D88  19E3               	xorwf	??_ecu_led_turn_off& (0+255),w,b
  4572   002D8A  0BF8               	andlw	-8
  4573   002D8C  19E3               	xorwf	??_ecu_led_turn_off& (0+255),w,b
  4574   002D8E  6FE4               	movwf	ecu_led_turn_off@led_pin& (0+255),b
  4575   002D90  51E2               	movf	ecu_led_turn_off@led& (0+255),w,b
  4576   002D92  6ED9               	movwf	fsr2l,c
  4577   002D94  6ADA               	clrf	fsr2h,c
  4578   002D96  38DF               	swapf	223,w,c
  4579   002D98  0B07               	andlw	7
  4580   002D9A  6FE3               	movwf	??_ecu_led_turn_off& (0+255),b
  4581   002D9C  47E3               	rlncf	??_ecu_led_turn_off& (0+255),f,b
  4582   002D9E  47E3               	rlncf	??_ecu_led_turn_off& (0+255),f,b
  4583   002DA0  47E3               	rlncf	??_ecu_led_turn_off& (0+255),f,b
  4584   002DA2  51E4               	movf	ecu_led_turn_off@led_pin& (0+255),w,b
  4585   002DA4  19E3               	xorwf	??_ecu_led_turn_off& (0+255),w,b
  4586   002DA6  0BC7               	andlw	-57
  4587   002DA8  19E3               	xorwf	??_ecu_led_turn_off& (0+255),w,b
  4588   002DAA  6FE4               	movwf	ecu_led_turn_off@led_pin& (0+255),b
  4589   002DAC                     
  4590                           ; BSR set to: 0
  4591   002DAC  9DE4               	bcf	ecu_led_turn_off@led_pin& (0+255),6,b
  4592   002DAE                     
  4593                           ; BSR set to: 0
  4594   002DAE  51E2               	movf	ecu_led_turn_off@led& (0+255),w,b
  4595   002DB0  6ED9               	movwf	fsr2l,c
  4596   002DB2  6ADA               	clrf	fsr2h,c
  4597   002DB4  AEDF               	btfss	indf2,7,c
  4598   002DB6  D002               	bra	u7085
  4599   002DB8  8FE4               	bsf	ecu_led_turn_off@led_pin& (0+255),7,b
  4600   002DBA  D002               	bra	u7087
  4601   002DBC                     u7085:
  4602   002DBC  0100               	movlb	0	; () banked
  4603   002DBE  9FE4               	bcf	ecu_led_turn_off@led_pin& (0+255),7,b
  4604   002DC0                     u7087:
  4605   002DC0                     
  4606                           ; BSR set to: 0
  4607                           ;ECU_layer/LED/ecu_led.c: 74:         gpio_pin_write_logic(&led_pin,LOW);
  4608   002DC0  0EE4               	movlw	low ecu_led_turn_off@led_pin
  4609   002DC2  6FDA               	movwf	gpio_pin_write_logic@_pin_config& (0+255),b
  4610   002DC4  0E00               	movlw	0
  4611   002DC6  6FDB               	movwf	gpio_pin_write_logic@logic& (0+255),b
  4612   002DC8  EC8F  F00F         	call	_gpio_pin_write_logic	;wreg free
  4613   002DCC                     l287:
  4614   002DCC  0012               	return		;funcret
  4615   002DCE                     __end_of_ecu_led_turn_off:
  4616                           	callstack 0
  4617                           
  4618 ;; *************** function _ecu_dc_motor_stop *****************
  4619 ;; Defined at:
  4620 ;;		line 87 in file "ECU_layer/DC_motor/ecu_DC_motor.c"
  4621 ;; Parameters:    Size  Location     Type
  4622 ;;  dc_motor        1    8[BANK0 ] PTR const struct .
  4623 ;;		 -> motor1(2), 
  4624 ;; Auto vars:     Size  Location     Type
  4625 ;;  ret             1    0        unsigned char 
  4626 ;; Return value:  Size  Location     Type
  4627 ;;                  1    wreg      unsigned char 
  4628 ;; Registers used:
  4629 ;;		wreg, fsr2l, fsr2h, status,2, status,0, prodl, prodh, cstack
  4630 ;; Tracked objects:
  4631 ;;		On entry : 0/0
  4632 ;;		On exit  : 0/0
  4633 ;;		Unchanged: 0/0
  4634 ;; Data sizes:     COMRAM   BANK0   BANK1   BANK2   BANK3   BANK4   BANK5   BANK6   BANK7   BANK8   BANK9  BANK10  BANK1
      +1  BANK12  BANK13  BANK14  BANK15
  4635 ;;      Params:         0       1       0       0       0       0       0       0       0       0       0       0       
      +0       0       0       0       0
  4636 ;;      Locals:         0       0       0       0       0       0       0       0       0       0       0       0       
      +0       0       0       0       0
  4637 ;;      Temps:          0       0       0       0       0       0       0       0       0       0       0       0       
      +0       0       0       0       0
  4638 ;;      Totals:         0       1       0       0       0       0       0       0       0       0       0       0       
      +0       0       0       0       0
  4639 ;;Total ram usage:        1 bytes
  4640 ;; Hardware stack levels used: 1
  4641 ;; Hardware stack levels required when called: 9
  4642 ;; This function calls:
  4643 ;;		_gpio_pin_write_logic
  4644 ;; This function is called by:
  4645 ;;		_main
  4646 ;; This function uses a non-reentrant model
  4647 ;;
  4648                           
  4649                           	psect	text15
  4650   00348E                     __ptext15:
  4651                           	callstack 0
  4652   00348E                     _ecu_dc_motor_stop:
  4653                           	callstack 21
  4654   00348E                     
  4655                           ;ECU_layer/DC_motor/ecu_DC_motor.c: 89:     if(((void*)0) == dc_motor)
  4656   00348E  0100               	movlb	0	; () banked
  4657   003490  51E2               	movf	ecu_dc_motor_stop@dc_motor& (0+255),w,b
  4658   003492  A4D8               	btfss	status,2,c
  4659   003494  EF4E  F01A         	goto	u7041
  4660   003498  EF50  F01A         	goto	u7040
  4661   00349C                     u7041:
  4662   00349C  EF52  F01A         	goto	l7792
  4663   0034A0                     u7040:
  4664   0034A0                     
  4665                           ; BSR set to: 0
  4666                           ;ECU_layer/DC_motor/ecu_DC_motor.c: 92:     }
  4667   0034A0  EF5F  F01A         	goto	l225
  4668   0034A4                     l7792:
  4669                           
  4670                           ; BSR set to: 0
  4671                           ;ECU_layer/DC_motor/ecu_DC_motor.c: 94:     {;ECU_layer/DC_motor/ecu_DC_motor.c: 95:    
      +                               gpio_pin_write_logic(&(dc_motor->dc_motor_pin[0]),LOW);
  4672   0034A4  C0E2  F0DA         	movff	ecu_dc_motor_stop@dc_motor,gpio_pin_write_logic@_pin_config
  4673   0034A8  0E00               	movlw	0
  4674   0034AA  6FDB               	movwf	gpio_pin_write_logic@logic& (0+255),b
  4675   0034AC  EC8F  F00F         	call	_gpio_pin_write_logic	;wreg free
  4676                           
  4677                           ;ECU_layer/DC_motor/ecu_DC_motor.c: 96:         gpio_pin_write_logic(&(dc_motor->dc_moto
      +                          r_pin[1]),LOW);
  4678   0034B0  0100               	movlb	0	; () banked
  4679   0034B2  29E2               	incf	ecu_dc_motor_stop@dc_motor& (0+255),w,b
  4680   0034B4  6FDA               	movwf	gpio_pin_write_logic@_pin_config& (0+255),b
  4681   0034B6  0E00               	movlw	0
  4682   0034B8  6FDB               	movwf	gpio_pin_write_logic@logic& (0+255),b
  4683   0034BA  EC8F  F00F         	call	_gpio_pin_write_logic	;wreg free
  4684   0034BE                     l225:
  4685   0034BE  0012               	return		;funcret
  4686   0034C0                     __end_of_ecu_dc_motor_stop:
  4687                           	callstack 0
  4688                           
  4689 ;; *************** function _ecu_dc_motor_move_left *****************
  4690 ;; Defined at:
  4691 ;;		line 64 in file "ECU_layer/DC_motor/ecu_DC_motor.c"
  4692 ;; Parameters:    Size  Location     Type
  4693 ;;  dc_motor        1    8[BANK0 ] PTR const struct .
  4694 ;;		 -> motor1(2), 
  4695 ;; Auto vars:     Size  Location     Type
  4696 ;;  ret             1    0        unsigned char 
  4697 ;; Return value:  Size  Location     Type
  4698 ;;                  1    wreg      unsigned char 
  4699 ;; Registers used:
  4700 ;;		wreg, fsr2l, fsr2h, status,2, status,0, prodl, prodh, cstack
  4701 ;; Tracked objects:
  4702 ;;		On entry : 0/0
  4703 ;;		On exit  : 0/0
  4704 ;;		Unchanged: 0/0
  4705 ;; Data sizes:     COMRAM   BANK0   BANK1   BANK2   BANK3   BANK4   BANK5   BANK6   BANK7   BANK8   BANK9  BANK10  BANK1
      +1  BANK12  BANK13  BANK14  BANK15
  4706 ;;      Params:         0       1       0       0       0       0       0       0       0       0       0       0       
      +0       0       0       0       0
  4707 ;;      Locals:         0       0       0       0       0       0       0       0       0       0       0       0       
      +0       0       0       0       0
  4708 ;;      Temps:          0       0       0       0       0       0       0       0       0       0       0       0       
      +0       0       0       0       0
  4709 ;;      Totals:         0       1       0       0       0       0       0       0       0       0       0       0       
      +0       0       0       0       0
  4710 ;;Total ram usage:        1 bytes
  4711 ;; Hardware stack levels used: 1
  4712 ;; Hardware stack levels required when called: 9
  4713 ;; This function calls:
  4714 ;;		_gpio_pin_write_logic
  4715 ;; This function is called by:
  4716 ;;		_main
  4717 ;; This function uses a non-reentrant model
  4718 ;;
  4719                           
  4720                           	psect	text16
  4721   0034C0                     __ptext16:
  4722                           	callstack 0
  4723   0034C0                     _ecu_dc_motor_move_left:
  4724                           	callstack 21
  4725   0034C0                     
  4726                           ;ECU_layer/DC_motor/ecu_DC_motor.c: 66:     if(((void*)0) == dc_motor)
  4727   0034C0  0100               	movlb	0	; () banked
  4728   0034C2  51E2               	movf	ecu_dc_motor_move_left@dc_motor& (0+255),w,b
  4729   0034C4  A4D8               	btfss	status,2,c
  4730   0034C6  EF67  F01A         	goto	u7031
  4731   0034CA  EF69  F01A         	goto	u7030
  4732   0034CE                     u7031:
  4733   0034CE  EF6B  F01A         	goto	l7784
  4734   0034D2                     u7030:
  4735   0034D2                     
  4736                           ; BSR set to: 0
  4737                           ;ECU_layer/DC_motor/ecu_DC_motor.c: 69:     }
  4738   0034D2  EF78  F01A         	goto	l220
  4739   0034D6                     l7784:
  4740                           
  4741                           ; BSR set to: 0
  4742                           ;ECU_layer/DC_motor/ecu_DC_motor.c: 71:     {;ECU_layer/DC_motor/ecu_DC_motor.c: 72:    
      +                               gpio_pin_write_logic(&(dc_motor->dc_motor_pin[0]),LOW);
  4743   0034D6  C0E2  F0DA         	movff	ecu_dc_motor_move_left@dc_motor,gpio_pin_write_logic@_pin_config
  4744   0034DA  0E00               	movlw	0
  4745   0034DC  6FDB               	movwf	gpio_pin_write_logic@logic& (0+255),b
  4746   0034DE  EC8F  F00F         	call	_gpio_pin_write_logic	;wreg free
  4747                           
  4748                           ;ECU_layer/DC_motor/ecu_DC_motor.c: 73:         gpio_pin_write_logic(&(dc_motor->dc_moto
      +                          r_pin[1]),HIGH);
  4749   0034E2  0100               	movlb	0	; () banked
  4750   0034E4  29E2               	incf	ecu_dc_motor_move_left@dc_motor& (0+255),w,b
  4751   0034E6  6FDA               	movwf	gpio_pin_write_logic@_pin_config& (0+255),b
  4752   0034E8  0E01               	movlw	1
  4753   0034EA  6FDB               	movwf	gpio_pin_write_logic@logic& (0+255),b
  4754   0034EC  EC8F  F00F         	call	_gpio_pin_write_logic	;wreg free
  4755   0034F0                     l220:
  4756   0034F0  0012               	return		;funcret
  4757   0034F2                     __end_of_ecu_dc_motor_move_left:
  4758                           	callstack 0
  4759                           
  4760 ;; *************** function _change_password *****************
  4761 ;; Defined at:
  4762 ;;		line 346 in file "Helper_functions/helper_fn.c"
  4763 ;; Parameters:    Size  Location     Type
  4764 ;;  pass_obj        1   32[BANK0 ] PTR struct .
  4765 ;;		 -> enterd_pass_obj(9), 
  4766 ;;  stored_pass_    1   33[BANK0 ] PTR struct .
  4767 ;;		 -> stored_pass_obj(9), 
  4768 ;;  enterd_pass_    1   34[BANK0 ] PTR struct .
  4769 ;;		 -> pass_obj(9), 
  4770 ;;  confirm_pass    1   35[BANK0 ] PTR struct .
  4771 ;;		 -> confirm_pass_obj(9), 
  4772 ;; Auto vars:     Size  Location     Type
  4773 ;;  counter         1    2[BANK1 ] unsigned char 
  4774 ;;  comparing_re    1    1[BANK1 ] unsigned char 
  4775 ;;  lcd_counter     1    0[BANK1 ] unsigned char 
  4776 ;; Return value:  Size  Location     Type
  4777 ;;                  1    wreg      void 
  4778 ;; Registers used:
  4779 ;;		wreg, fsr0l, fsr0h, fsr1l, fsr1h, fsr2l, fsr2h, status,2, status,0, tblptrl, tblptrh, tblptru, prodl, prodh, cstack
  4780 ;; Tracked objects:
  4781 ;;		On entry : 0/0
  4782 ;;		On exit  : 0/0
  4783 ;;		Unchanged: 0/0
  4784 ;; Data sizes:     COMRAM   BANK0   BANK1   BANK2   BANK3   BANK4   BANK5   BANK6   BANK7   BANK8   BANK9  BANK10  BANK1
      +1  BANK12  BANK13  BANK14  BANK15
  4785 ;;      Params:         0       4       0       0       0       0       0       0       0       0       0       0       
      +0       0       0       0       0
  4786 ;;      Locals:         0       0       3       0       0       0       0       0       0       0       0       0       
      +0       0       0       0       0
  4787 ;;      Temps:          0       2       0       0       0       0       0       0       0       0       0       0       
      +0       0       0       0       0
  4788 ;;      Totals:         0       6       3       0       0       0       0       0       0       0       0       0       
      +0       0       0       0       0
  4789 ;;Total ram usage:        9 bytes
  4790 ;; Hardware stack levels used: 1
  4791 ;; Hardware stack levels required when called: 14
  4792 ;; This function calls:
  4793 ;;		_check_entered_password
  4794 ;;		_ecu_keypad_get_value
  4795 ;;		_get_password
  4796 ;;		_lcd_4bit_send_char_data_pos
  4797 ;;		_lcd_4bit_send_command
  4798 ;;		_lcd_4bit_send_string_pos
  4799 ;;		_password_confirmation
  4800 ;; This function is called by:
  4801 ;;		_main
  4802 ;; This function uses a non-reentrant model
  4803 ;;
  4804                           
  4805                           	psect	text17
  4806   000AF2                     __ptext17:
  4807                           	callstack 0
  4808   000AF2                     _change_password:
  4809                           	callstack 16
  4810   000AF2                     
  4811                           ;Helper_functions/helper_fn.c: 346: void change_password(pass_t *pass_obj,pass_t *stored
      +                          _pass_obj,;Helper_functions/helper_fn.c: 347:                      pass_t *enterd_pass_o
      +                          bj,pass_t *confirm_pass_obj){;Helper_functions/helper_fn.c: 348:    keypad_value = 0;
  4812   000AF2  0E00               	movlw	0
  4813   000AF4  6E48               	movwf	_keypad_value^0,c
  4814                           
  4815                           ;Helper_functions/helper_fn.c: 349:    uint8 counter = 0;
  4816   000AF6  0E00               	movlw	0
  4817   000AF8  0101               	movlb	1	; () banked
  4818   000AFA  6F02               	movwf	change_password@counter& (0+255),b
  4819                           
  4820                           ;Helper_functions/helper_fn.c: 350:    uint8 comparing_result = 1;
  4821   000AFC  0E01               	movlw	1
  4822   000AFE  6F01               	movwf	change_password@comparing_result& (0+255),b
  4823                           
  4824                           ;Helper_functions/helper_fn.c: 351:    uint8 lcd_counter = 2;
  4825   000B00  0E02               	movlw	2
  4826   000B02  6F00               	movwf	change_password@lcd_counter& (0+255),b
  4827   000B04                     
  4828                           ; BSR set to: 1
  4829                           ;Helper_functions/helper_fn.c: 353:     lcd_4bit_send_command(&lcd1,0x01);
  4830   000B04  0E4D               	movlw	low _lcd1
  4831   000B06  0100               	movlb	0	; () banked
  4832   000B08  6FE5               	movwf	lcd_4bit_send_command@lcd& (0+255),b
  4833   000B0A  0E01               	movlw	1
  4834   000B0C  6FE6               	movwf	lcd_4bit_send_command@command& (0+255),b
  4835   000B0E  EC50  F017         	call	_lcd_4bit_send_command	;wreg free
  4836   000B12                     
  4837                           ;Helper_functions/helper_fn.c: 354:     _delay((unsigned long)((20)*(8000000ul/4000.0)))
      +                          ;
  4838   000B12  0E34               	movlw	52
  4839   000B14  0100               	movlb	0	; () banked
  4840   000B16  6FFE               	movwf	??_change_password& (0+255),b
  4841   000B18  0EF1               	movlw	241
  4842   000B1A                     u9287:
  4843   000B1A  2EE8               	decfsz	wreg,f,c
  4844   000B1C  D7FE               	bra	u9287
  4845   000B1E  2FFE               	decfsz	??_change_password& (0+255),f,b
  4846   000B20  D7FC               	bra	u9287
  4847   000B22  D000               	nop2	
  4848   000B24                     l9260:
  4849                           
  4850                           ;Helper_functions/helper_fn.c: 358:         lcd_4bit_send_string_pos(&lcd1,2,1,"the old 
      +                          password");
  4851   000B24  0E4D               	movlw	low _lcd1
  4852   000B26  0100               	movlb	0	; () banked
  4853   000B28  6FEE               	movwf	lcd_4bit_send_string_pos@lcd& (0+255),b
  4854   000B2A  0E02               	movlw	2
  4855   000B2C  6FEF               	movwf	lcd_4bit_send_string_pos@row& (0+255),b
  4856   000B2E  0E01               	movlw	1
  4857   000B30  6FF0               	movwf	lcd_4bit_send_string_pos@column& (0+255),b
  4858   000B32  0E8E               	movlw	low STR_51
  4859   000B34  6FF1               	movwf	lcd_4bit_send_string_pos@str& (0+255),b
  4860   000B36  0EFF               	movlw	high STR_51
  4861   000B38  6FF2               	movwf	(lcd_4bit_send_string_pos@str+1)& (0+255),b
  4862   000B3A  EC74  F014         	call	_lcd_4bit_send_string_pos	;wreg free
  4863   000B3E                     
  4864                           ;Helper_functions/helper_fn.c: 359:         lcd_4bit_send_string_pos(&lcd1,3,1,":");
  4865   000B3E  0E4D               	movlw	low _lcd1
  4866   000B40  0100               	movlb	0	; () banked
  4867   000B42  6FEE               	movwf	lcd_4bit_send_string_pos@lcd& (0+255),b
  4868   000B44  0E03               	movlw	3
  4869   000B46  6FEF               	movwf	lcd_4bit_send_string_pos@row& (0+255),b
  4870   000B48  0E01               	movlw	1
  4871   000B4A  6FF0               	movwf	lcd_4bit_send_string_pos@column& (0+255),b
  4872   000B4C  0EF9               	movlw	low STR_12
  4873   000B4E  6FF1               	movwf	lcd_4bit_send_string_pos@str& (0+255),b
  4874   000B50  0EFF               	movlw	high STR_12
  4875   000B52  6FF2               	movwf	(lcd_4bit_send_string_pos@str+1)& (0+255),b
  4876   000B54  EC74  F014         	call	_lcd_4bit_send_string_pos	;wreg free
  4877   000B58                     l9264:
  4878                           
  4879                           ;Helper_functions/helper_fn.c: 362:         ecu_keypad_get_value(&keypad,&keypad_value);
  4880   000B58  0EA1               	movlw	low _keypad
  4881   000B5A  0100               	movlb	0	; () banked
  4882   000B5C  6FE2               	movwf	ecu_keypad_get_value@keypad& (0+255),b
  4883   000B5E  0E48               	movlw	low _keypad_value
  4884   000B60  6FE3               	movwf	ecu_keypad_get_value@value& (0+255),b
  4885   000B62  EC22  F011         	call	_ecu_keypad_get_value	;wreg free
  4886   000B66                     
  4887                           ;Helper_functions/helper_fn.c: 363:         _delay((unsigned long)((110)*(8000000ul/4000
      +                          .0)));
  4888   000B66  0E02               	movlw	2
  4889   000B68  0100               	movlb	0	; () banked
  4890   000B6A  6FFF               	movwf	(??_change_password+1)& (0+255),b
  4891   000B6C  0E1E               	movlw	30
  4892   000B6E  6FFE               	movwf	??_change_password& (0+255),b
  4893   000B70  0EB3               	movlw	179
  4894   000B72                     u9297:
  4895   000B72  2EE8               	decfsz	wreg,f,c
  4896   000B74  D7FE               	bra	u9297
  4897   000B76  2FFE               	decfsz	??_change_password& (0+255),f,b
  4898   000B78  D7FC               	bra	u9297
  4899   000B7A  2FFF               	decfsz	(??_change_password+1)& (0+255),f,b
  4900   000B7C  D7FA               	bra	u9297
  4901   000B7E  D000               	nop2	
  4902   000B80                     
  4903                           ;Helper_functions/helper_fn.c: 364:         }while(keypad_value == 0 );
  4904   000B80  5048               	movf	_keypad_value^0,w,c
  4905   000B82  B4D8               	btfsc	status,2,c
  4906   000B84  EFC6  F005         	goto	u8721
  4907   000B88  EFC8  F005         	goto	u8720
  4908   000B8C                     u8721:
  4909   000B8C  EFAC  F005         	goto	l9264
  4910   000B90                     u8720:
  4911   000B90                     
  4912                           ;Helper_functions/helper_fn.c: 366:         if(keypad_value == '#' && pass_obj->password
      +                          [0] == '\0'){
  4913   000B90  0E23               	movlw	35
  4914   000B92  1848               	xorwf	_keypad_value^0,w,c
  4915   000B94  A4D8               	btfss	status,2,c
  4916   000B96  EFCF  F005         	goto	u8731
  4917   000B9A  EFD1  F005         	goto	u8730
  4918   000B9E                     u8731:
  4919   000B9E  EF14  F006         	goto	l9280
  4920   000BA2                     u8730:
  4921   000BA2  0100               	movlb	0	; () banked
  4922   000BA4  51FA               	movf	change_password@pass_obj& (0+255),w,b
  4923   000BA6  6ED9               	movwf	fsr2l,c
  4924   000BA8  6ADA               	clrf	fsr2h,c
  4925   000BAA  0E01               	movlw	1
  4926   000BAC  26D9               	addwf	fsr2l,f,c
  4927   000BAE  50DF               	movf	indf2,w,c
  4928   000BB0  A4D8               	btfss	status,2,c
  4929   000BB2  EFDD  F005         	goto	u8741
  4930   000BB6  EFDF  F005         	goto	u8740
  4931   000BBA                     u8741:
  4932   000BBA  EF14  F006         	goto	l9280
  4933   000BBE                     u8740:
  4934   000BBE                     
  4935                           ; BSR set to: 0
  4936                           ;Helper_functions/helper_fn.c: 367:             lcd_4bit_send_string_pos(&lcd1,4,1,"Unav
      +                          ailable process ");
  4937   000BBE  0E4D               	movlw	low _lcd1
  4938   000BC0  6FEE               	movwf	lcd_4bit_send_string_pos@lcd& (0+255),b
  4939   000BC2  0E04               	movlw	4
  4940   000BC4  6FEF               	movwf	lcd_4bit_send_string_pos@row& (0+255),b
  4941   000BC6  0E01               	movlw	1
  4942   000BC8  6FF0               	movwf	lcd_4bit_send_string_pos@column& (0+255),b
  4943   000BCA  0E40               	movlw	low STR_13
  4944   000BCC  6FF1               	movwf	lcd_4bit_send_string_pos@str& (0+255),b
  4945   000BCE  0EFF               	movlw	high STR_13
  4946   000BD0  6FF2               	movwf	(lcd_4bit_send_string_pos@str+1)& (0+255),b
  4947   000BD2  EC74  F014         	call	_lcd_4bit_send_string_pos	;wreg free
  4948   000BD6                     
  4949                           ;Helper_functions/helper_fn.c: 368:                  _delay((unsigned long)((300)*(80000
      +                          00ul/4000.0)));
  4950   000BD6  0E04               	movlw	4
  4951   000BD8  0100               	movlb	0	; () banked
  4952   000BDA  6FFF               	movwf	(??_change_password+1)& (0+255),b
  4953   000BDC  0E0C               	movlw	12
  4954   000BDE  6FFE               	movwf	??_change_password& (0+255),b
  4955   000BE0  0E33               	movlw	51
  4956   000BE2                     u9307:
  4957   000BE2  2EE8               	decfsz	wreg,f,c
  4958   000BE4  D7FE               	bra	u9307
  4959   000BE6  2FFE               	decfsz	??_change_password& (0+255),f,b
  4960   000BE8  D7FC               	bra	u9307
  4961   000BEA  2FFF               	decfsz	(??_change_password+1)& (0+255),f,b
  4962   000BEC  D7FA               	bra	u9307
  4963   000BEE  D000               	nop2	
  4964   000BF0                     
  4965                           ;Helper_functions/helper_fn.c: 369:                 lcd_4bit_send_string_pos(&lcd1,4,1,"
      +                                               ");
  4966   000BF0  0E4D               	movlw	low _lcd1
  4967   000BF2  0100               	movlb	0	; () banked
  4968   000BF4  6FEE               	movwf	lcd_4bit_send_string_pos@lcd& (0+255),b
  4969   000BF6  0E04               	movlw	4
  4970   000BF8  6FEF               	movwf	lcd_4bit_send_string_pos@row& (0+255),b
  4971   000BFA  0E01               	movlw	1
  4972   000BFC  6FF0               	movwf	lcd_4bit_send_string_pos@column& (0+255),b
  4973   000BFE  0EE9               	movlw	low STR_14
  4974   000C00  6FF1               	movwf	lcd_4bit_send_string_pos@str& (0+255),b
  4975   000C02  0EFE               	movlw	high STR_14
  4976   000C04  6FF2               	movwf	(lcd_4bit_send_string_pos@str+1)& (0+255),b
  4977   000C06  EC74  F014         	call	_lcd_4bit_send_string_pos	;wreg free
  4978                           
  4979                           ;Helper_functions/helper_fn.c: 370:                 _delay((unsigned long)((300)*(800000
      +                          0ul/4000.0)));
  4980   000C0A  0E04               	movlw	4
  4981   000C0C  0100               	movlb	0	; () banked
  4982   000C0E  6FFF               	movwf	(??_change_password+1)& (0+255),b
  4983   000C10  0E0C               	movlw	12
  4984   000C12  6FFE               	movwf	??_change_password& (0+255),b
  4985   000C14  0E33               	movlw	51
  4986   000C16                     u9317:
  4987   000C16  2EE8               	decfsz	wreg,f,c
  4988   000C18  D7FE               	bra	u9317
  4989   000C1A  2FFE               	decfsz	??_change_password& (0+255),f,b
  4990   000C1C  D7FC               	bra	u9317
  4991   000C1E  2FFF               	decfsz	(??_change_password+1)& (0+255),f,b
  4992   000C20  D7FA               	bra	u9317
  4993   000C22  D000               	nop2	
  4994                           
  4995                           ;Helper_functions/helper_fn.c: 371:         }
  4996   000C24  EF92  F005         	goto	l9260
  4997   000C28                     l9280:
  4998   000C28  0E23               	movlw	35
  4999   000C2A  1848               	xorwf	_keypad_value^0,w,c
  5000   000C2C  A4D8               	btfss	status,2,c
  5001   000C2E  EF1B  F006         	goto	u8751
  5002   000C32  EF1D  F006         	goto	u8750
  5003   000C36                     u8751:
  5004   000C36  EF3E  F006         	goto	l9292
  5005   000C3A                     u8750:
  5006   000C3A  0101               	movlb	1	; () banked
  5007   000C3C  5102               	movf	change_password@counter& (0+255),w,b
  5008   000C3E  B4D8               	btfsc	status,2,c
  5009   000C40  EF24  F006         	goto	u8761
  5010   000C44  EF26  F006         	goto	u8760
  5011   000C48                     u8761:
  5012   000C48  EF3E  F006         	goto	l9292
  5013   000C4C                     u8760:
  5014   000C4C                     
  5015                           ; BSR set to: 1
  5016                           ;Helper_functions/helper_fn.c: 373:                 counter--;
  5017   000C4C  0702               	decf	change_password@counter& (0+255),f,b
  5018   000C4E                     
  5019                           ; BSR set to: 1
  5020                           ;Helper_functions/helper_fn.c: 374:                 pass_obj->password[counter] = '\0';
  5021   000C4E  0100               	movlb	0	; () banked
  5022   000C50  51FA               	movf	change_password@pass_obj& (0+255),w,b
  5023   000C52  0101               	movlb	1	; () banked
  5024   000C54  2502               	addwf	change_password@counter& (0+255),w,b
  5025   000C56  6ED9               	movwf	fsr2l,c
  5026   000C58  6ADA               	clrf	fsr2h,c
  5027   000C5A  0E01               	movlw	1
  5028   000C5C  26D9               	addwf	fsr2l,f,c
  5029   000C5E  6ADF               	clrf	indf2,c
  5030   000C60                     
  5031                           ; BSR set to: 1
  5032                           ;Helper_functions/helper_fn.c: 375:                 lcd_counter--;
  5033   000C60  0700               	decf	change_password@lcd_counter& (0+255),f,b
  5034   000C62                     
  5035                           ; BSR set to: 1
  5036                           ;Helper_functions/helper_fn.c: 376:                 lcd_4bit_send_char_data_pos(&lcd1,3,
      +                          lcd_counter,' ');
  5037   000C62  0E4D               	movlw	low _lcd1
  5038   000C64  0100               	movlb	0	; () banked
  5039   000C66  6FEE               	movwf	lcd_4bit_send_char_data_pos@lcd& (0+255),b
  5040   000C68  0E03               	movlw	3
  5041   000C6A  6FEF               	movwf	lcd_4bit_send_char_data_pos@row& (0+255),b
  5042   000C6C  C100  F0F0         	movff	change_password@lcd_counter,lcd_4bit_send_char_data_pos@column
  5043   000C70  0E20               	movlw	32
  5044   000C72  6FF1               	movwf	lcd_4bit_send_char_data_pos@data& (0+255),b
  5045   000C74  ECD2  F019         	call	_lcd_4bit_send_char_data_pos	;wreg free
  5046                           
  5047                           ;Helper_functions/helper_fn.c: 377:             }
  5048   000C78  EF92  F005         	goto	l9260
  5049   000C7C                     l9292:
  5050   000C7C  0E3D               	movlw	61
  5051   000C7E  1848               	xorwf	_keypad_value^0,w,c
  5052   000C80  A4D8               	btfss	status,2,c
  5053   000C82  EF45  F006         	goto	u8771
  5054   000C86  EF47  F006         	goto	u8770
  5055   000C8A                     u8771:
  5056   000C8A  EFE1  F006         	goto	l9318
  5057   000C8E                     u8770:
  5058   000C8E                     
  5059                           ;Helper_functions/helper_fn.c: 379:                 if(counter <= 3){
  5060   000C8E  0E04               	movlw	4
  5061   000C90  0101               	movlb	1	; () banked
  5062   000C92  6102               	cpfslt	change_password@counter& (0+255),b
  5063   000C94  EF4E  F006         	goto	u8781
  5064   000C98  EF50  F006         	goto	u8780
  5065   000C9C                     u8781:
  5066   000C9C  EF86  F006         	goto	l9302
  5067   000CA0                     u8780:
  5068   000CA0                     
  5069                           ; BSR set to: 1
  5070                           ;Helper_functions/helper_fn.c: 380:                      lcd_4bit_send_string_pos(&lcd1,
      +                          4,1,"min 4 digits ");
  5071   000CA0  0E4D               	movlw	low _lcd1
  5072   000CA2  0100               	movlb	0	; () banked
  5073   000CA4  6FEE               	movwf	lcd_4bit_send_string_pos@lcd& (0+255),b
  5074   000CA6  0E04               	movlw	4
  5075   000CA8  6FEF               	movwf	lcd_4bit_send_string_pos@row& (0+255),b
  5076   000CAA  0E01               	movlw	1
  5077   000CAC  6FF0               	movwf	lcd_4bit_send_string_pos@column& (0+255),b
  5078   000CAE  0ECF               	movlw	low STR_15
  5079   000CB0  6FF1               	movwf	lcd_4bit_send_string_pos@str& (0+255),b
  5080   000CB2  0EFF               	movlw	high STR_15
  5081   000CB4  6FF2               	movwf	(lcd_4bit_send_string_pos@str+1)& (0+255),b
  5082   000CB6  EC74  F014         	call	_lcd_4bit_send_string_pos	;wreg free
  5083   000CBA                     
  5084                           ;Helper_functions/helper_fn.c: 381:                     _delay((unsigned long)((300)*(80
      +                          00000ul/4000.0)));
  5085   000CBA  0E04               	movlw	4
  5086   000CBC  0100               	movlb	0	; () banked
  5087   000CBE  6FFF               	movwf	(??_change_password+1)& (0+255),b
  5088   000CC0  0E0C               	movlw	12
  5089   000CC2  6FFE               	movwf	??_change_password& (0+255),b
  5090   000CC4  0E33               	movlw	51
  5091   000CC6                     u9327:
  5092   000CC6  2EE8               	decfsz	wreg,f,c
  5093   000CC8  D7FE               	bra	u9327
  5094   000CCA  2FFE               	decfsz	??_change_password& (0+255),f,b
  5095   000CCC  D7FC               	bra	u9327
  5096   000CCE  2FFF               	decfsz	(??_change_password+1)& (0+255),f,b
  5097   000CD0  D7FA               	bra	u9327
  5098   000CD2  D000               	nop2	
  5099   000CD4                     
  5100                           ;Helper_functions/helper_fn.c: 382:                     lcd_4bit_send_string_pos(&lcd1,4
      +                          ,1,"                     ");
  5101   000CD4  0E4D               	movlw	low _lcd1
  5102   000CD6  0100               	movlb	0	; () banked
  5103   000CD8  6FEE               	movwf	lcd_4bit_send_string_pos@lcd& (0+255),b
  5104   000CDA  0E04               	movlw	4
  5105   000CDC  6FEF               	movwf	lcd_4bit_send_string_pos@row& (0+255),b
  5106   000CDE  0E01               	movlw	1
  5107   000CE0  6FF0               	movwf	lcd_4bit_send_string_pos@column& (0+255),b
  5108   000CE2  0EE9               	movlw	low STR_14
  5109   000CE4  6FF1               	movwf	lcd_4bit_send_string_pos@str& (0+255),b
  5110   000CE6  0EFE               	movlw	high STR_14
  5111   000CE8  6FF2               	movwf	(lcd_4bit_send_string_pos@str+1)& (0+255),b
  5112   000CEA  EC74  F014         	call	_lcd_4bit_send_string_pos	;wreg free
  5113                           
  5114                           ;Helper_functions/helper_fn.c: 383:                     _delay((unsigned long)((300)*(80
      +                          00000ul/4000.0)));
  5115   000CEE  0E04               	movlw	4
  5116   000CF0  0100               	movlb	0	; () banked
  5117   000CF2  6FFF               	movwf	(??_change_password+1)& (0+255),b
  5118   000CF4  0E0C               	movlw	12
  5119   000CF6  6FFE               	movwf	??_change_password& (0+255),b
  5120   000CF8  0E33               	movlw	51
  5121   000CFA                     u9337:
  5122   000CFA  2EE8               	decfsz	wreg,f,c
  5123   000CFC  D7FE               	bra	u9337
  5124   000CFE  2FFE               	decfsz	??_change_password& (0+255),f,b
  5125   000D00  D7FC               	bra	u9337
  5126   000D02  2FFF               	decfsz	(??_change_password+1)& (0+255),f,b
  5127   000D04  D7FA               	bra	u9337
  5128   000D06  D000               	nop2	
  5129                           
  5130                           ;Helper_functions/helper_fn.c: 384:                 }
  5131   000D08  EF92  F005         	goto	l9260
  5132   000D0C                     l9302:
  5133                           
  5134                           ; BSR set to: 1
  5135                           ;Helper_functions/helper_fn.c: 386:                      pass_obj->pass_arr_num_digits =
      +                           counter;
  5136   000D0C  0100               	movlb	0	; () banked
  5137   000D0E  51FA               	movf	change_password@pass_obj& (0+255),w,b
  5138   000D10  6ED9               	movwf	fsr2l,c
  5139   000D12  6ADA               	clrf	fsr2h,c
  5140   000D14  C102  FFDF         	movff	change_password@counter,indf2
  5141   000D18                     
  5142                           ; BSR set to: 0
  5143                           ;Helper_functions/helper_fn.c: 387:                    check_entered_password(pass_obj,s
      +                          tored_pass_obj,&comparing_result);
  5144   000D18  C0FA  F0DD         	movff	change_password@pass_obj,check_entered_password@enterd_pass_obj
  5145   000D1C  C0FB  F0DE         	movff	change_password@stored_pass_obj,check_entered_password@stored_pass_obj
  5146   000D20  0E01               	movlw	low change_password@comparing_result
  5147   000D22  6FDF               	movwf	check_entered_password@result& (0+255),b
  5148   000D24  0E01               	movlw	high change_password@comparing_result
  5149   000D26  6FE0               	movwf	(check_entered_password@result+1)& (0+255),b
  5150   000D28  ECA0  F011         	call	_check_entered_password	;wreg free
  5151   000D2C                     
  5152                           ;Helper_functions/helper_fn.c: 388:                     if(comparing_result == 1){
  5153   000D2C  0101               	movlb	1	; () banked
  5154   000D2E  0501               	decf	change_password@comparing_result& (0+255),w,b
  5155   000D30  A4D8               	btfss	status,2,c
  5156   000D32  EF9D  F006         	goto	u8791
  5157   000D36  EF9F  F006         	goto	u8790
  5158   000D3A                     u8791:
  5159   000D3A  EFAB  F006         	goto	l9312
  5160   000D3E                     u8790:
  5161   000D3E                     
  5162                           ; BSR set to: 1
  5163                           ;Helper_functions/helper_fn.c: 389:                         get_password(enterd_pass_obj
      +                          );
  5164   000D3E  C0FC  F0F3         	movff	change_password@enterd_pass_obj,get_password@pass_obj
  5165   000D42  ECAC  F007         	call	_get_password	;wreg free
  5166                           
  5167                           ;Helper_functions/helper_fn.c: 390:                         password_confirmation(enterd
      +                          _pass_obj,confirm_pass_obj);
  5168   000D46  C0FC  F0F3         	movff	change_password@enterd_pass_obj,password_confirmation@pass_obj
  5169   000D4A  C0FD  F0F4         	movff	change_password@confirm_pass_obj,password_confirmation@confirm_pass_obj
  5170   000D4E  EC15  F003         	call	_password_confirmation	;wreg free
  5171                           
  5172                           ;Helper_functions/helper_fn.c: 391:                         break;
  5173   000D52  EFAB  F007         	goto	l509
  5174   000D56                     l9312:
  5175                           
  5176                           ; BSR set to: 1
  5177                           ;Helper_functions/helper_fn.c: 393:                          lcd_4bit_send_string_pos(&l
      +                          cd1,4,1,"wrong password ");
  5178   000D56  0E4D               	movlw	low _lcd1
  5179   000D58  0100               	movlb	0	; () banked
  5180   000D5A  6FEE               	movwf	lcd_4bit_send_string_pos@lcd& (0+255),b
  5181   000D5C  0E04               	movlw	4
  5182   000D5E  6FEF               	movwf	lcd_4bit_send_string_pos@row& (0+255),b
  5183   000D60  0E01               	movlw	1
  5184   000D62  6FF0               	movwf	lcd_4bit_send_string_pos@column& (0+255),b
  5185   000D64  0EB0               	movlw	low STR_29
  5186   000D66  6FF1               	movwf	lcd_4bit_send_string_pos@str& (0+255),b
  5187   000D68  0EFF               	movlw	high STR_29
  5188   000D6A  6FF2               	movwf	(lcd_4bit_send_string_pos@str+1)& (0+255),b
  5189   000D6C  EC74  F014         	call	_lcd_4bit_send_string_pos	;wreg free
  5190   000D70                     
  5191                           ;Helper_functions/helper_fn.c: 394:                          _delay((unsigned long)((300
      +                          )*(8000000ul/4000.0)));
  5192   000D70  0E04               	movlw	4
  5193   000D72  0100               	movlb	0	; () banked
  5194   000D74  6FFF               	movwf	(??_change_password+1)& (0+255),b
  5195   000D76  0E0C               	movlw	12
  5196   000D78  6FFE               	movwf	??_change_password& (0+255),b
  5197   000D7A  0E33               	movlw	51
  5198   000D7C                     u9347:
  5199   000D7C  2EE8               	decfsz	wreg,f,c
  5200   000D7E  D7FE               	bra	u9347
  5201   000D80  2FFE               	decfsz	??_change_password& (0+255),f,b
  5202   000D82  D7FC               	bra	u9347
  5203   000D84  2FFF               	decfsz	(??_change_password+1)& (0+255),f,b
  5204   000D86  D7FA               	bra	u9347
  5205   000D88  D000               	nop2	
  5206   000D8A                     
  5207                           ;Helper_functions/helper_fn.c: 395:                         lcd_4bit_send_string_pos(&lc
      +                          d1,4,1,"                     ");
  5208   000D8A  0E4D               	movlw	low _lcd1
  5209   000D8C  0100               	movlb	0	; () banked
  5210   000D8E  6FEE               	movwf	lcd_4bit_send_string_pos@lcd& (0+255),b
  5211   000D90  0E04               	movlw	4
  5212   000D92  6FEF               	movwf	lcd_4bit_send_string_pos@row& (0+255),b
  5213   000D94  0E01               	movlw	1
  5214   000D96  6FF0               	movwf	lcd_4bit_send_string_pos@column& (0+255),b
  5215   000D98  0EE9               	movlw	low STR_14
  5216   000D9A  6FF1               	movwf	lcd_4bit_send_string_pos@str& (0+255),b
  5217   000D9C  0EFE               	movlw	high STR_14
  5218   000D9E  6FF2               	movwf	(lcd_4bit_send_string_pos@str+1)& (0+255),b
  5219   000DA0  EC74  F014         	call	_lcd_4bit_send_string_pos	;wreg free
  5220                           
  5221                           ;Helper_functions/helper_fn.c: 396:                         _delay((unsigned long)((300)
      +                          *(8000000ul/4000.0)));
  5222   000DA4  0E04               	movlw	4
  5223   000DA6  0100               	movlb	0	; () banked
  5224   000DA8  6FFF               	movwf	(??_change_password+1)& (0+255),b
  5225   000DAA  0E0C               	movlw	12
  5226   000DAC  6FFE               	movwf	??_change_password& (0+255),b
  5227   000DAE  0E33               	movlw	51
  5228   000DB0                     u9357:
  5229   000DB0  2EE8               	decfsz	wreg,f,c
  5230   000DB2  D7FE               	bra	u9357
  5231   000DB4  2FFE               	decfsz	??_change_password& (0+255),f,b
  5232   000DB6  D7FC               	bra	u9357
  5233   000DB8  2FFF               	decfsz	(??_change_password+1)& (0+255),f,b
  5234   000DBA  D7FA               	bra	u9357
  5235   000DBC  D000               	nop2	
  5236   000DBE  EF92  F005         	goto	l9260
  5237   000DC2                     l9318:
  5238   000DC2  0E2F               	movlw	47
  5239   000DC4  1848               	xorwf	_keypad_value^0,w,c
  5240   000DC6  B4D8               	btfsc	status,2,c
  5241   000DC8  EFE8  F006         	goto	u8801
  5242   000DCC  EFEA  F006         	goto	u8800
  5243   000DD0                     u8801:
  5244   000DD0  EF05  F007         	goto	l9326
  5245   000DD4                     u8800:
  5246   000DD4  0E2A               	movlw	42
  5247   000DD6  1848               	xorwf	_keypad_value^0,w,c
  5248   000DD8  B4D8               	btfsc	status,2,c
  5249   000DDA  EFF1  F006         	goto	u8811
  5250   000DDE  EFF3  F006         	goto	u8810
  5251   000DE2                     u8811:
  5252   000DE2  EF05  F007         	goto	l9326
  5253   000DE6                     u8810:
  5254   000DE6  0E2B               	movlw	43
  5255   000DE8  1848               	xorwf	_keypad_value^0,w,c
  5256   000DEA  B4D8               	btfsc	status,2,c
  5257   000DEC  EFFA  F006         	goto	u8821
  5258   000DF0  EFFC  F006         	goto	u8820
  5259   000DF4                     u8821:
  5260   000DF4  EF05  F007         	goto	l9326
  5261   000DF8                     u8820:
  5262   000DF8  0E2D               	movlw	45
  5263   000DFA  1848               	xorwf	_keypad_value^0,w,c
  5264   000DFC  A4D8               	btfss	status,2,c
  5265   000DFE  EF03  F007         	goto	u8831
  5266   000E02  EF05  F007         	goto	u8830
  5267   000E06                     u8831:
  5268   000E06  EF3B  F007         	goto	l9332
  5269   000E0A                     u8830:
  5270   000E0A                     l9326:
  5271                           
  5272                           ;Helper_functions/helper_fn.c: 401:                     lcd_4bit_send_string_pos(&lcd1,4
      +                          ,1,"Unavailable process ");
  5273   000E0A  0E4D               	movlw	low _lcd1
  5274   000E0C  0100               	movlb	0	; () banked
  5275   000E0E  6FEE               	movwf	lcd_4bit_send_string_pos@lcd& (0+255),b
  5276   000E10  0E04               	movlw	4
  5277   000E12  6FEF               	movwf	lcd_4bit_send_string_pos@row& (0+255),b
  5278   000E14  0E01               	movlw	1
  5279   000E16  6FF0               	movwf	lcd_4bit_send_string_pos@column& (0+255),b
  5280   000E18  0E40               	movlw	low STR_13
  5281   000E1A  6FF1               	movwf	lcd_4bit_send_string_pos@str& (0+255),b
  5282   000E1C  0EFF               	movlw	high STR_13
  5283   000E1E  6FF2               	movwf	(lcd_4bit_send_string_pos@str+1)& (0+255),b
  5284   000E20  EC74  F014         	call	_lcd_4bit_send_string_pos	;wreg free
  5285   000E24                     
  5286                           ;Helper_functions/helper_fn.c: 402:                      _delay((unsigned long)((300)*(8
      +                          000000ul/4000.0)));
  5287   000E24  0E04               	movlw	4
  5288   000E26  0100               	movlb	0	; () banked
  5289   000E28  6FFF               	movwf	(??_change_password+1)& (0+255),b
  5290   000E2A  0E0C               	movlw	12
  5291   000E2C  6FFE               	movwf	??_change_password& (0+255),b
  5292   000E2E  0E33               	movlw	51
  5293   000E30                     u9367:
  5294   000E30  2EE8               	decfsz	wreg,f,c
  5295   000E32  D7FE               	bra	u9367
  5296   000E34  2FFE               	decfsz	??_change_password& (0+255),f,b
  5297   000E36  D7FC               	bra	u9367
  5298   000E38  2FFF               	decfsz	(??_change_password+1)& (0+255),f,b
  5299   000E3A  D7FA               	bra	u9367
  5300   000E3C  D000               	nop2	
  5301   000E3E                     
  5302                           ;Helper_functions/helper_fn.c: 403:                     lcd_4bit_send_string_pos(&lcd1,4
      +                          ,1,"                     ");
  5303   000E3E  0E4D               	movlw	low _lcd1
  5304   000E40  0100               	movlb	0	; () banked
  5305   000E42  6FEE               	movwf	lcd_4bit_send_string_pos@lcd& (0+255),b
  5306   000E44  0E04               	movlw	4
  5307   000E46  6FEF               	movwf	lcd_4bit_send_string_pos@row& (0+255),b
  5308   000E48  0E01               	movlw	1
  5309   000E4A  6FF0               	movwf	lcd_4bit_send_string_pos@column& (0+255),b
  5310   000E4C  0EE9               	movlw	low STR_14
  5311   000E4E  6FF1               	movwf	lcd_4bit_send_string_pos@str& (0+255),b
  5312   000E50  0EFE               	movlw	high STR_14
  5313   000E52  6FF2               	movwf	(lcd_4bit_send_string_pos@str+1)& (0+255),b
  5314   000E54  EC74  F014         	call	_lcd_4bit_send_string_pos	;wreg free
  5315                           
  5316                           ;Helper_functions/helper_fn.c: 404:                     _delay((unsigned long)((300)*(80
      +                          00000ul/4000.0)));
  5317   000E58  0E04               	movlw	4
  5318   000E5A  0100               	movlb	0	; () banked
  5319   000E5C  6FFF               	movwf	(??_change_password+1)& (0+255),b
  5320   000E5E  0E0C               	movlw	12
  5321   000E60  6FFE               	movwf	??_change_password& (0+255),b
  5322   000E62  0E33               	movlw	51
  5323   000E64                     u9377:
  5324   000E64  2EE8               	decfsz	wreg,f,c
  5325   000E66  D7FE               	bra	u9377
  5326   000E68  2FFE               	decfsz	??_change_password& (0+255),f,b
  5327   000E6A  D7FC               	bra	u9377
  5328   000E6C  2FFF               	decfsz	(??_change_password+1)& (0+255),f,b
  5329   000E6E  D7FA               	bra	u9377
  5330   000E70  D000               	nop2	
  5331                           
  5332                           ;Helper_functions/helper_fn.c: 405:                 }
  5333   000E72  EF92  F005         	goto	l9260
  5334   000E76                     l9332:
  5335                           
  5336                           ;Helper_functions/helper_fn.c: 407:             if(counter < 8){
  5337   000E76  0E08               	movlw	8
  5338   000E78  0101               	movlb	1	; () banked
  5339   000E7A  6102               	cpfslt	change_password@counter& (0+255),b
  5340   000E7C  EF42  F007         	goto	u8841
  5341   000E80  EF44  F007         	goto	u8840
  5342   000E84                     u8841:
  5343   000E84  EF75  F007         	goto	l9346
  5344   000E88                     u8840:
  5345   000E88                     
  5346                           ; BSR set to: 1
  5347                           ;Helper_functions/helper_fn.c: 408:                         pass_obj->password[counter] 
      +                          = keypad_value;
  5348   000E88  0100               	movlb	0	; () banked
  5349   000E8A  51FA               	movf	change_password@pass_obj& (0+255),w,b
  5350   000E8C  0101               	movlb	1	; () banked
  5351   000E8E  2502               	addwf	change_password@counter& (0+255),w,b
  5352   000E90  6ED9               	movwf	fsr2l,c
  5353   000E92  6ADA               	clrf	fsr2h,c
  5354   000E94  0E01               	movlw	1
  5355   000E96  26D9               	addwf	fsr2l,f,c
  5356   000E98  C048  FFDF         	movff	_keypad_value,indf2
  5357   000E9C                     
  5358                           ; BSR set to: 1
  5359                           ;Helper_functions/helper_fn.c: 409:                         lcd_4bit_send_char_data_pos(
      +                          &lcd1,3,lcd_counter,keypad_value);
  5360   000E9C  0E4D               	movlw	low _lcd1
  5361   000E9E  0100               	movlb	0	; () banked
  5362   000EA0  6FEE               	movwf	lcd_4bit_send_char_data_pos@lcd& (0+255),b
  5363   000EA2  0E03               	movlw	3
  5364   000EA4  6FEF               	movwf	lcd_4bit_send_char_data_pos@row& (0+255),b
  5365   000EA6  C100  F0F0         	movff	change_password@lcd_counter,lcd_4bit_send_char_data_pos@column
  5366   000EAA  C048  F0F1         	movff	_keypad_value,lcd_4bit_send_char_data_pos@data
  5367   000EAE  ECD2  F019         	call	_lcd_4bit_send_char_data_pos	;wreg free
  5368   000EB2                     
  5369                           ;Helper_functions/helper_fn.c: 410:                         _delay((unsigned long)((200)
      +                          *(8000000ul/4000.0)));
  5370   000EB2  0E03               	movlw	3
  5371   000EB4  0100               	movlb	0	; () banked
  5372   000EB6  6FFF               	movwf	(??_change_password+1)& (0+255),b
  5373   000EB8  0E08               	movlw	8
  5374   000EBA  6FFE               	movwf	??_change_password& (0+255),b
  5375   000EBC  0E77               	movlw	119
  5376   000EBE                     u9387:
  5377   000EBE  2EE8               	decfsz	wreg,f,c
  5378   000EC0  D7FE               	bra	u9387
  5379   000EC2  2FFE               	decfsz	??_change_password& (0+255),f,b
  5380   000EC4  D7FC               	bra	u9387
  5381   000EC6  2FFF               	decfsz	(??_change_password+1)& (0+255),f,b
  5382   000EC8  D7FA               	bra	u9387
  5383   000ECA                     
  5384                           ;Helper_functions/helper_fn.c: 411:                         lcd_4bit_send_char_data_pos(
      +                          &lcd1,3,lcd_counter,'*');
  5385   000ECA  0E4D               	movlw	low _lcd1
  5386   000ECC  0100               	movlb	0	; () banked
  5387   000ECE  6FEE               	movwf	lcd_4bit_send_char_data_pos@lcd& (0+255),b
  5388   000ED0  0E03               	movlw	3
  5389   000ED2  6FEF               	movwf	lcd_4bit_send_char_data_pos@row& (0+255),b
  5390   000ED4  C100  F0F0         	movff	change_password@lcd_counter,lcd_4bit_send_char_data_pos@column
  5391   000ED8  0E2A               	movlw	42
  5392   000EDA  6FF1               	movwf	lcd_4bit_send_char_data_pos@data& (0+255),b
  5393   000EDC  ECD2  F019         	call	_lcd_4bit_send_char_data_pos	;wreg free
  5394   000EE0                     
  5395                           ;Helper_functions/helper_fn.c: 412:                         counter++;
  5396   000EE0  0101               	movlb	1	; () banked
  5397   000EE2  2B02               	incf	change_password@counter& (0+255),f,b
  5398   000EE4                     
  5399                           ; BSR set to: 1
  5400                           ;Helper_functions/helper_fn.c: 413:                         lcd_counter++;
  5401   000EE4  2B00               	incf	change_password@lcd_counter& (0+255),f,b
  5402                           
  5403                           ;Helper_functions/helper_fn.c: 414:             }
  5404   000EE6  EF92  F005         	goto	l9260
  5405   000EEA                     l9346:
  5406                           
  5407                           ; BSR set to: 1
  5408                           ;Helper_functions/helper_fn.c: 416:                 lcd_4bit_send_string_pos(&lcd1,4,1,"
      +                          max 8 digits ");
  5409   000EEA  0E4D               	movlw	low _lcd1
  5410   000EEC  0100               	movlb	0	; () banked
  5411   000EEE  6FEE               	movwf	lcd_4bit_send_string_pos@lcd& (0+255),b
  5412   000EF0  0E04               	movlw	4
  5413   000EF2  6FEF               	movwf	lcd_4bit_send_string_pos@row& (0+255),b
  5414   000EF4  0E01               	movlw	1
  5415   000EF6  6FF0               	movwf	lcd_4bit_send_string_pos@column& (0+255),b
  5416   000EF8  0EDD               	movlw	low STR_19
  5417   000EFA  6FF1               	movwf	lcd_4bit_send_string_pos@str& (0+255),b
  5418   000EFC  0EFF               	movlw	high STR_19
  5419   000EFE  6FF2               	movwf	(lcd_4bit_send_string_pos@str+1)& (0+255),b
  5420   000F00  EC74  F014         	call	_lcd_4bit_send_string_pos	;wreg free
  5421   000F04                     
  5422                           ;Helper_functions/helper_fn.c: 417:                  _delay((unsigned long)((300)*(80000
      +                          00ul/4000.0)));
  5423   000F04  0E04               	movlw	4
  5424   000F06  0100               	movlb	0	; () banked
  5425   000F08  6FFF               	movwf	(??_change_password+1)& (0+255),b
  5426   000F0A  0E0C               	movlw	12
  5427   000F0C  6FFE               	movwf	??_change_password& (0+255),b
  5428   000F0E  0E33               	movlw	51
  5429   000F10                     u9397:
  5430   000F10  2EE8               	decfsz	wreg,f,c
  5431   000F12  D7FE               	bra	u9397
  5432   000F14  2FFE               	decfsz	??_change_password& (0+255),f,b
  5433   000F16  D7FC               	bra	u9397
  5434   000F18  2FFF               	decfsz	(??_change_password+1)& (0+255),f,b
  5435   000F1A  D7FA               	bra	u9397
  5436   000F1C  D000               	nop2	
  5437   000F1E                     
  5438                           ;Helper_functions/helper_fn.c: 418:                 lcd_4bit_send_string_pos(&lcd1,4,1,"
      +                                               ");
  5439   000F1E  0E4D               	movlw	low _lcd1
  5440   000F20  0100               	movlb	0	; () banked
  5441   000F22  6FEE               	movwf	lcd_4bit_send_string_pos@lcd& (0+255),b
  5442   000F24  0E04               	movlw	4
  5443   000F26  6FEF               	movwf	lcd_4bit_send_string_pos@row& (0+255),b
  5444   000F28  0E01               	movlw	1
  5445   000F2A  6FF0               	movwf	lcd_4bit_send_string_pos@column& (0+255),b
  5446   000F2C  0EE9               	movlw	low STR_14
  5447   000F2E  6FF1               	movwf	lcd_4bit_send_string_pos@str& (0+255),b
  5448   000F30  0EFE               	movlw	high STR_14
  5449   000F32  6FF2               	movwf	(lcd_4bit_send_string_pos@str+1)& (0+255),b
  5450   000F34  EC74  F014         	call	_lcd_4bit_send_string_pos	;wreg free
  5451                           
  5452                           ;Helper_functions/helper_fn.c: 419:                  _delay((unsigned long)((300)*(80000
      +                          00ul/4000.0)));
  5453   000F38  0E04               	movlw	4
  5454   000F3A  0100               	movlb	0	; () banked
  5455   000F3C  6FFF               	movwf	(??_change_password+1)& (0+255),b
  5456   000F3E  0E0C               	movlw	12
  5457   000F40  6FFE               	movwf	??_change_password& (0+255),b
  5458   000F42  0E33               	movlw	51
  5459   000F44                     u9407:
  5460   000F44  2EE8               	decfsz	wreg,f,c
  5461   000F46  D7FE               	bra	u9407
  5462   000F48  2FFE               	decfsz	??_change_password& (0+255),f,b
  5463   000F4A  D7FC               	bra	u9407
  5464   000F4C  2FFF               	decfsz	(??_change_password+1)& (0+255),f,b
  5465   000F4E  D7FA               	bra	u9407
  5466   000F50  D000               	nop2	
  5467   000F52  EF92  F005         	goto	l9260
  5468   000F56                     l509:
  5469   000F56  0012               	return		;funcret
  5470   000F58                     __end_of_change_password:
  5471                           	callstack 0
  5472                           
  5473 ;; *************** function _password_confirmation *****************
  5474 ;; Defined at:
  5475 ;;		line 127 in file "Helper_functions/helper_fn.c"
  5476 ;; Parameters:    Size  Location     Type
  5477 ;;  pass_obj        1   25[BANK0 ] PTR struct .
  5478 ;;		 -> pass_obj(9), 
  5479 ;;  confirm_pass    1   26[BANK0 ] PTR struct .
  5480 ;;		 -> confirm_pass_obj(9), 
  5481 ;; Auto vars:     Size  Location     Type
  5482 ;;  counter         1   31[BANK0 ] unsigned char 
  5483 ;;  comparing_re    1   30[BANK0 ] unsigned char 
  5484 ;;  lcd_counter     1   29[BANK0 ] unsigned char 
  5485 ;; Return value:  Size  Location     Type
  5486 ;;                  1    wreg      void 
  5487 ;; Registers used:
  5488 ;;		wreg, fsr0l, fsr0h, fsr1l, fsr1h, fsr2l, fsr2h, status,2, status,0, tblptrl, tblptrh, tblptru, prodl, prodh, cstack
  5489 ;; Tracked objects:
  5490 ;;		On entry : 0/0
  5491 ;;		On exit  : 0/0
  5492 ;;		Unchanged: 0/0
  5493 ;; Data sizes:     COMRAM   BANK0   BANK1   BANK2   BANK3   BANK4   BANK5   BANK6   BANK7   BANK8   BANK9  BANK10  BANK1
      +1  BANK12  BANK13  BANK14  BANK15
  5494 ;;      Params:         0       2       0       0       0       0       0       0       0       0       0       0       
      +0       0       0       0       0
  5495 ;;      Locals:         0       3       0       0       0       0       0       0       0       0       0       0       
      +0       0       0       0       0
  5496 ;;      Temps:          0       2       0       0       0       0       0       0       0       0       0       0       
      +0       0       0       0       0
  5497 ;;      Totals:         0       7       0       0       0       0       0       0       0       0       0       0       
      +0       0       0       0       0
  5498 ;;Total ram usage:        7 bytes
  5499 ;; Hardware stack levels used: 1
  5500 ;; Hardware stack levels required when called: 13
  5501 ;; This function calls:
  5502 ;;		_comparing_password
  5503 ;;		_ecu_keypad_get_value
  5504 ;;		_lcd_4bit_send_char_data_pos
  5505 ;;		_lcd_4bit_send_command
  5506 ;;		_lcd_4bit_send_string_pos
  5507 ;;		_save_password
  5508 ;; This function is called by:
  5509 ;;		_change_password
  5510 ;;		_main
  5511 ;; This function uses a non-reentrant model
  5512 ;;
  5513                           
  5514                           	psect	text18
  5515   00062A                     __ptext18:
  5516                           	callstack 0
  5517   00062A                     _password_confirmation:
  5518                           	callstack 17
  5519   00062A                     
  5520                           ;Helper_functions/helper_fn.c: 128:    keypad_value = 0;
  5521   00062A  0E00               	movlw	0
  5522   00062C  6E48               	movwf	_keypad_value^0,c
  5523                           
  5524                           ;Helper_functions/helper_fn.c: 129:    uint8 counter = 0;
  5525   00062E  0E00               	movlw	0
  5526   000630  0100               	movlb	0	; () banked
  5527   000632  6FF9               	movwf	password_confirmation@counter& (0+255),b
  5528                           
  5529                           ;Helper_functions/helper_fn.c: 130:    uint8 comparing_result = 1;
  5530   000634  0E01               	movlw	1
  5531   000636  6FF8               	movwf	password_confirmation@comparing_result& (0+255),b
  5532                           
  5533                           ;Helper_functions/helper_fn.c: 131:    uint8 lcd_counter = 2;
  5534   000638  0E02               	movlw	2
  5535   00063A  6FF7               	movwf	password_confirmation@lcd_counter& (0+255),b
  5536   00063C                     
  5537                           ; BSR set to: 0
  5538                           ;Helper_functions/helper_fn.c: 133:     lcd_4bit_send_command(&lcd1,0x01);
  5539   00063C  0E4D               	movlw	low _lcd1
  5540   00063E  6FE5               	movwf	lcd_4bit_send_command@lcd& (0+255),b
  5541   000640  0E01               	movlw	1
  5542   000642  6FE6               	movwf	lcd_4bit_send_command@command& (0+255),b
  5543   000644  EC50  F017         	call	_lcd_4bit_send_command	;wreg free
  5544   000648                     
  5545                           ;Helper_functions/helper_fn.c: 134:     _delay((unsigned long)((20)*(8000000ul/4000.0)))
      +                          ;
  5546   000648  0E34               	movlw	52
  5547   00064A  0100               	movlb	0	; () banked
  5548   00064C  6FF5               	movwf	??_password_confirmation& (0+255),b
  5549   00064E  0EF1               	movlw	241
  5550   000650                     u9417:
  5551   000650  2EE8               	decfsz	wreg,f,c
  5552   000652  D7FE               	bra	u9417
  5553   000654  2FF5               	decfsz	??_password_confirmation& (0+255),f,b
  5554   000656  D7FC               	bra	u9417
  5555   000658  D000               	nop2	
  5556   00065A                     l7608:
  5557                           
  5558                           ;Helper_functions/helper_fn.c: 138:         lcd_4bit_send_string_pos(&lcd1,2,1,"confirm 
      +                          The password ");
  5559   00065A  0E4D               	movlw	low _lcd1
  5560   00065C  0100               	movlb	0	; () banked
  5561   00065E  6FEE               	movwf	lcd_4bit_send_string_pos@lcd& (0+255),b
  5562   000660  0E02               	movlw	2
  5563   000662  6FEF               	movwf	lcd_4bit_send_string_pos@row& (0+255),b
  5564   000664  0E01               	movlw	1
  5565   000666  6FF0               	movwf	lcd_4bit_send_string_pos@column& (0+255),b
  5566   000668  0EFF               	movlw	low STR_21
  5567   00066A  6FF1               	movwf	lcd_4bit_send_string_pos@str& (0+255),b
  5568   00066C  0EFE               	movlw	high STR_21
  5569   00066E  6FF2               	movwf	(lcd_4bit_send_string_pos@str+1)& (0+255),b
  5570   000670  EC74  F014         	call	_lcd_4bit_send_string_pos	;wreg free
  5571   000674                     
  5572                           ;Helper_functions/helper_fn.c: 139:         lcd_4bit_send_string_pos(&lcd1,3,1,":");
  5573   000674  0E4D               	movlw	low _lcd1
  5574   000676  0100               	movlb	0	; () banked
  5575   000678  6FEE               	movwf	lcd_4bit_send_string_pos@lcd& (0+255),b
  5576   00067A  0E03               	movlw	3
  5577   00067C  6FEF               	movwf	lcd_4bit_send_string_pos@row& (0+255),b
  5578   00067E  0E01               	movlw	1
  5579   000680  6FF0               	movwf	lcd_4bit_send_string_pos@column& (0+255),b
  5580   000682  0EF9               	movlw	low STR_12
  5581   000684  6FF1               	movwf	lcd_4bit_send_string_pos@str& (0+255),b
  5582   000686  0EFF               	movlw	high STR_12
  5583   000688  6FF2               	movwf	(lcd_4bit_send_string_pos@str+1)& (0+255),b
  5584   00068A  EC74  F014         	call	_lcd_4bit_send_string_pos	;wreg free
  5585   00068E                     l7612:
  5586                           
  5587                           ;Helper_functions/helper_fn.c: 142:         ecu_keypad_get_value(&keypad,&keypad_value);
  5588   00068E  0EA1               	movlw	low _keypad
  5589   000690  0100               	movlb	0	; () banked
  5590   000692  6FE2               	movwf	ecu_keypad_get_value@keypad& (0+255),b
  5591   000694  0E48               	movlw	low _keypad_value
  5592   000696  6FE3               	movwf	ecu_keypad_get_value@value& (0+255),b
  5593   000698  EC22  F011         	call	_ecu_keypad_get_value	;wreg free
  5594   00069C                     
  5595                           ;Helper_functions/helper_fn.c: 143:         _delay((unsigned long)((110)*(8000000ul/4000
      +                          .0)));
  5596   00069C  0E02               	movlw	2
  5597   00069E  0100               	movlb	0	; () banked
  5598   0006A0  6FF6               	movwf	(??_password_confirmation+1)& (0+255),b
  5599   0006A2  0E1E               	movlw	30
  5600   0006A4  6FF5               	movwf	??_password_confirmation& (0+255),b
  5601   0006A6  0EB3               	movlw	179
  5602   0006A8                     u9427:
  5603   0006A8  2EE8               	decfsz	wreg,f,c
  5604   0006AA  D7FE               	bra	u9427
  5605   0006AC  2FF5               	decfsz	??_password_confirmation& (0+255),f,b
  5606   0006AE  D7FC               	bra	u9427
  5607   0006B0  2FF6               	decfsz	(??_password_confirmation+1)& (0+255),f,b
  5608   0006B2  D7FA               	bra	u9427
  5609   0006B4  D000               	nop2	
  5610   0006B6                     
  5611                           ;Helper_functions/helper_fn.c: 144:         }while(keypad_value == 0 );
  5612   0006B6  5048               	movf	_keypad_value^0,w,c
  5613   0006B8  B4D8               	btfsc	status,2,c
  5614   0006BA  EF61  F003         	goto	u6821
  5615   0006BE  EF63  F003         	goto	u6820
  5616   0006C2                     u6821:
  5617   0006C2  EF47  F003         	goto	l7612
  5618   0006C6                     u6820:
  5619   0006C6                     
  5620                           ;Helper_functions/helper_fn.c: 146:         if(keypad_value == '#' && (confirm_pass_obj-
      +                          >password[0]) == '\0'){
  5621   0006C6  0E23               	movlw	35
  5622   0006C8  1848               	xorwf	_keypad_value^0,w,c
  5623   0006CA  A4D8               	btfss	status,2,c
  5624   0006CC  EF6A  F003         	goto	u6831
  5625   0006D0  EF6C  F003         	goto	u6830
  5626   0006D4                     u6831:
  5627   0006D4  EFAF  F003         	goto	l7628
  5628   0006D8                     u6830:
  5629   0006D8  0100               	movlb	0	; () banked
  5630   0006DA  51F4               	movf	password_confirmation@confirm_pass_obj& (0+255),w,b
  5631   0006DC  6ED9               	movwf	fsr2l,c
  5632   0006DE  6ADA               	clrf	fsr2h,c
  5633   0006E0  0E01               	movlw	1
  5634   0006E2  26D9               	addwf	fsr2l,f,c
  5635   0006E4  50DF               	movf	indf2,w,c
  5636   0006E6  A4D8               	btfss	status,2,c
  5637   0006E8  EF78  F003         	goto	u6841
  5638   0006EC  EF7A  F003         	goto	u6840
  5639   0006F0                     u6841:
  5640   0006F0  EFAF  F003         	goto	l7628
  5641   0006F4                     u6840:
  5642   0006F4                     
  5643                           ; BSR set to: 0
  5644                           ;Helper_functions/helper_fn.c: 147:             lcd_4bit_send_string_pos(&lcd1,4,1,"Unav
      +                          ailable process ");
  5645   0006F4  0E4D               	movlw	low _lcd1
  5646   0006F6  6FEE               	movwf	lcd_4bit_send_string_pos@lcd& (0+255),b
  5647   0006F8  0E04               	movlw	4
  5648   0006FA  6FEF               	movwf	lcd_4bit_send_string_pos@row& (0+255),b
  5649   0006FC  0E01               	movlw	1
  5650   0006FE  6FF0               	movwf	lcd_4bit_send_string_pos@column& (0+255),b
  5651   000700  0E40               	movlw	low STR_13
  5652   000702  6FF1               	movwf	lcd_4bit_send_string_pos@str& (0+255),b
  5653   000704  0EFF               	movlw	high STR_13
  5654   000706  6FF2               	movwf	(lcd_4bit_send_string_pos@str+1)& (0+255),b
  5655   000708  EC74  F014         	call	_lcd_4bit_send_string_pos	;wreg free
  5656   00070C                     
  5657                           ;Helper_functions/helper_fn.c: 148:                  _delay((unsigned long)((300)*(80000
      +                          00ul/4000.0)));
  5658   00070C  0E04               	movlw	4
  5659   00070E  0100               	movlb	0	; () banked
  5660   000710  6FF6               	movwf	(??_password_confirmation+1)& (0+255),b
  5661   000712  0E0C               	movlw	12
  5662   000714  6FF5               	movwf	??_password_confirmation& (0+255),b
  5663   000716  0E33               	movlw	51
  5664   000718                     u9437:
  5665   000718  2EE8               	decfsz	wreg,f,c
  5666   00071A  D7FE               	bra	u9437
  5667   00071C  2FF5               	decfsz	??_password_confirmation& (0+255),f,b
  5668   00071E  D7FC               	bra	u9437
  5669   000720  2FF6               	decfsz	(??_password_confirmation+1)& (0+255),f,b
  5670   000722  D7FA               	bra	u9437
  5671   000724  D000               	nop2	
  5672   000726                     
  5673                           ;Helper_functions/helper_fn.c: 149:                 lcd_4bit_send_string_pos(&lcd1,4,1,"
      +                                               ");
  5674   000726  0E4D               	movlw	low _lcd1
  5675   000728  0100               	movlb	0	; () banked
  5676   00072A  6FEE               	movwf	lcd_4bit_send_string_pos@lcd& (0+255),b
  5677   00072C  0E04               	movlw	4
  5678   00072E  6FEF               	movwf	lcd_4bit_send_string_pos@row& (0+255),b
  5679   000730  0E01               	movlw	1
  5680   000732  6FF0               	movwf	lcd_4bit_send_string_pos@column& (0+255),b
  5681   000734  0EE9               	movlw	low STR_14
  5682   000736  6FF1               	movwf	lcd_4bit_send_string_pos@str& (0+255),b
  5683   000738  0EFE               	movlw	high STR_14
  5684   00073A  6FF2               	movwf	(lcd_4bit_send_string_pos@str+1)& (0+255),b
  5685   00073C  EC74  F014         	call	_lcd_4bit_send_string_pos	;wreg free
  5686                           
  5687                           ;Helper_functions/helper_fn.c: 150:                 _delay((unsigned long)((300)*(800000
      +                          0ul/4000.0)));
  5688   000740  0E04               	movlw	4
  5689   000742  0100               	movlb	0	; () banked
  5690   000744  6FF6               	movwf	(??_password_confirmation+1)& (0+255),b
  5691   000746  0E0C               	movlw	12
  5692   000748  6FF5               	movwf	??_password_confirmation& (0+255),b
  5693   00074A  0E33               	movlw	51
  5694   00074C                     u9447:
  5695   00074C  2EE8               	decfsz	wreg,f,c
  5696   00074E  D7FE               	bra	u9447
  5697   000750  2FF5               	decfsz	??_password_confirmation& (0+255),f,b
  5698   000752  D7FC               	bra	u9447
  5699   000754  2FF6               	decfsz	(??_password_confirmation+1)& (0+255),f,b
  5700   000756  D7FA               	bra	u9447
  5701   000758  D000               	nop2	
  5702                           
  5703                           ;Helper_functions/helper_fn.c: 151:         }
  5704   00075A  EF2D  F003         	goto	l7608
  5705   00075E                     l7628:
  5706   00075E  0E23               	movlw	35
  5707   000760  1848               	xorwf	_keypad_value^0,w,c
  5708   000762  A4D8               	btfss	status,2,c
  5709   000764  EFB6  F003         	goto	u6851
  5710   000768  EFB8  F003         	goto	u6850
  5711   00076C                     u6851:
  5712   00076C  EFD6  F003         	goto	l7640
  5713   000770                     u6850:
  5714   000770  0100               	movlb	0	; () banked
  5715   000772  51F9               	movf	password_confirmation@counter& (0+255),w,b
  5716   000774  B4D8               	btfsc	status,2,c
  5717   000776  EFBF  F003         	goto	u6861
  5718   00077A  EFC1  F003         	goto	u6860
  5719   00077E                     u6861:
  5720   00077E  EFD6  F003         	goto	l7640
  5721   000782                     u6860:
  5722   000782                     
  5723                           ; BSR set to: 0
  5724                           ;Helper_functions/helper_fn.c: 153:                 counter--;
  5725   000782  07F9               	decf	password_confirmation@counter& (0+255),f,b
  5726   000784                     
  5727                           ; BSR set to: 0
  5728                           ;Helper_functions/helper_fn.c: 154:                 (confirm_pass_obj->password[counter]
      +                          ) = '\0';
  5729   000784  51F4               	movf	password_confirmation@confirm_pass_obj& (0+255),w,b
  5730   000786  25F9               	addwf	password_confirmation@counter& (0+255),w,b
  5731   000788  6ED9               	movwf	fsr2l,c
  5732   00078A  6ADA               	clrf	fsr2h,c
  5733   00078C  0E01               	movlw	1
  5734   00078E  26D9               	addwf	fsr2l,f,c
  5735   000790  6ADF               	clrf	indf2,c
  5736   000792                     
  5737                           ; BSR set to: 0
  5738                           ;Helper_functions/helper_fn.c: 155:                 lcd_counter--;
  5739   000792  07F7               	decf	password_confirmation@lcd_counter& (0+255),f,b
  5740   000794                     
  5741                           ; BSR set to: 0
  5742                           ;Helper_functions/helper_fn.c: 156:                 lcd_4bit_send_char_data_pos(&lcd1,3,
      +                          lcd_counter,' ');
  5743   000794  0E4D               	movlw	low _lcd1
  5744   000796  6FEE               	movwf	lcd_4bit_send_char_data_pos@lcd& (0+255),b
  5745   000798  0E03               	movlw	3
  5746   00079A  6FEF               	movwf	lcd_4bit_send_char_data_pos@row& (0+255),b
  5747   00079C  C0F7  F0F0         	movff	password_confirmation@lcd_counter,lcd_4bit_send_char_data_pos@column
  5748   0007A0  0E20               	movlw	32
  5749   0007A2  6FF1               	movwf	lcd_4bit_send_char_data_pos@data& (0+255),b
  5750   0007A4  ECD2  F019         	call	_lcd_4bit_send_char_data_pos	;wreg free
  5751                           
  5752                           ;Helper_functions/helper_fn.c: 157:             }
  5753   0007A8  EF2D  F003         	goto	l7608
  5754   0007AC                     l7640:
  5755   0007AC  0E3D               	movlw	61
  5756   0007AE  1848               	xorwf	_keypad_value^0,w,c
  5757   0007B0  A4D8               	btfss	status,2,c
  5758   0007B2  EFDD  F003         	goto	u6871
  5759   0007B6  EFDF  F003         	goto	u6870
  5760   0007BA                     u6871:
  5761   0007BA  EFB2  F004         	goto	l7678
  5762   0007BE                     u6870:
  5763   0007BE                     
  5764                           ;Helper_functions/helper_fn.c: 159:                 if(counter <= 3){
  5765   0007BE  0E04               	movlw	4
  5766   0007C0  0100               	movlb	0	; () banked
  5767   0007C2  61F9               	cpfslt	password_confirmation@counter& (0+255),b
  5768   0007C4  EFE6  F003         	goto	u6881
  5769   0007C8  EFE8  F003         	goto	u6880
  5770   0007CC                     u6881:
  5771   0007CC  EF1D  F004         	goto	l7650
  5772   0007D0                     u6880:
  5773   0007D0                     
  5774                           ; BSR set to: 0
  5775                           ;Helper_functions/helper_fn.c: 160:                      lcd_4bit_send_string_pos(&lcd1,
      +                          4,1,"min 4 digits ");
  5776   0007D0  0E4D               	movlw	low _lcd1
  5777   0007D2  6FEE               	movwf	lcd_4bit_send_string_pos@lcd& (0+255),b
  5778   0007D4  0E04               	movlw	4
  5779   0007D6  6FEF               	movwf	lcd_4bit_send_string_pos@row& (0+255),b
  5780   0007D8  0E01               	movlw	1
  5781   0007DA  6FF0               	movwf	lcd_4bit_send_string_pos@column& (0+255),b
  5782   0007DC  0ECF               	movlw	low STR_15
  5783   0007DE  6FF1               	movwf	lcd_4bit_send_string_pos@str& (0+255),b
  5784   0007E0  0EFF               	movlw	high STR_15
  5785   0007E2  6FF2               	movwf	(lcd_4bit_send_string_pos@str+1)& (0+255),b
  5786   0007E4  EC74  F014         	call	_lcd_4bit_send_string_pos	;wreg free
  5787   0007E8                     
  5788                           ;Helper_functions/helper_fn.c: 161:                     _delay((unsigned long)((300)*(80
      +                          00000ul/4000.0)));
  5789   0007E8  0E04               	movlw	4
  5790   0007EA  0100               	movlb	0	; () banked
  5791   0007EC  6FF6               	movwf	(??_password_confirmation+1)& (0+255),b
  5792   0007EE  0E0C               	movlw	12
  5793   0007F0  6FF5               	movwf	??_password_confirmation& (0+255),b
  5794   0007F2  0E33               	movlw	51
  5795   0007F4                     u9457:
  5796   0007F4  2EE8               	decfsz	wreg,f,c
  5797   0007F6  D7FE               	bra	u9457
  5798   0007F8  2FF5               	decfsz	??_password_confirmation& (0+255),f,b
  5799   0007FA  D7FC               	bra	u9457
  5800   0007FC  2FF6               	decfsz	(??_password_confirmation+1)& (0+255),f,b
  5801   0007FE  D7FA               	bra	u9457
  5802   000800  D000               	nop2	
  5803   000802                     
  5804                           ;Helper_functions/helper_fn.c: 162:                     lcd_4bit_send_string_pos(&lcd1,4
      +                          ,1,"                     ");
  5805   000802  0E4D               	movlw	low _lcd1
  5806   000804  0100               	movlb	0	; () banked
  5807   000806  6FEE               	movwf	lcd_4bit_send_string_pos@lcd& (0+255),b
  5808   000808  0E04               	movlw	4
  5809   00080A  6FEF               	movwf	lcd_4bit_send_string_pos@row& (0+255),b
  5810   00080C  0E01               	movlw	1
  5811   00080E  6FF0               	movwf	lcd_4bit_send_string_pos@column& (0+255),b
  5812   000810  0EE9               	movlw	low STR_14
  5813   000812  6FF1               	movwf	lcd_4bit_send_string_pos@str& (0+255),b
  5814   000814  0EFE               	movlw	high STR_14
  5815   000816  6FF2               	movwf	(lcd_4bit_send_string_pos@str+1)& (0+255),b
  5816   000818  EC74  F014         	call	_lcd_4bit_send_string_pos	;wreg free
  5817                           
  5818                           ;Helper_functions/helper_fn.c: 163:                     _delay((unsigned long)((300)*(80
      +                          00000ul/4000.0)));
  5819   00081C  0E04               	movlw	4
  5820   00081E  0100               	movlb	0	; () banked
  5821   000820  6FF6               	movwf	(??_password_confirmation+1)& (0+255),b
  5822   000822  0E0C               	movlw	12
  5823   000824  6FF5               	movwf	??_password_confirmation& (0+255),b
  5824   000826  0E33               	movlw	51
  5825   000828                     u9467:
  5826   000828  2EE8               	decfsz	wreg,f,c
  5827   00082A  D7FE               	bra	u9467
  5828   00082C  2FF5               	decfsz	??_password_confirmation& (0+255),f,b
  5829   00082E  D7FC               	bra	u9467
  5830   000830  2FF6               	decfsz	(??_password_confirmation+1)& (0+255),f,b
  5831   000832  D7FA               	bra	u9467
  5832   000834  D000               	nop2	
  5833                           
  5834                           ;Helper_functions/helper_fn.c: 164:                 }
  5835   000836  EF2D  F003         	goto	l7608
  5836   00083A                     l7650:
  5837                           
  5838                           ; BSR set to: 0
  5839                           ;Helper_functions/helper_fn.c: 166:                      (confirm_pass_obj->pass_arr_num
      +                          _digits) = counter;
  5840   00083A  51F4               	movf	password_confirmation@confirm_pass_obj& (0+255),w,b
  5841   00083C  6ED9               	movwf	fsr2l,c
  5842   00083E  6ADA               	clrf	fsr2h,c
  5843   000840  C0F9  FFDF         	movff	password_confirmation@counter,indf2
  5844   000844                     
  5845                           ; BSR set to: 0
  5846                           ;Helper_functions/helper_fn.c: 167:                    comparing_password(pass_obj,confi
      +                          rm_pass_obj,&comparing_result);
  5847   000844  C0F3  F0DA         	movff	password_confirmation@pass_obj,comparing_password@pass_obj
  5848   000848  C0F4  F0DB         	movff	password_confirmation@confirm_pass_obj,comparing_password@confirm_pass_obj
  5849   00084C  0EF8               	movlw	low password_confirmation@comparing_result
  5850   00084E  6FDC               	movwf	comparing_password@result& (0+255),b
  5851   000850  EC04  F015         	call	_comparing_password	;wreg free
  5852   000854                     
  5853                           ;Helper_functions/helper_fn.c: 168:                     if(comparing_result == 1){
  5854   000854  0100               	movlb	0	; () banked
  5855   000856  05F8               	decf	password_confirmation@comparing_result& (0+255),w,b
  5856   000858  A4D8               	btfss	status,2,c
  5857   00085A  EF31  F004         	goto	u6891
  5858   00085E  EF33  F004         	goto	u6890
  5859   000862                     u6891:
  5860   000862  EF7D  F004         	goto	l7672
  5861   000866                     u6890:
  5862   000866                     
  5863                           ; BSR set to: 0
  5864                           ;Helper_functions/helper_fn.c: 169:                         save_password(pass_obj);
  5865   000866  C0F3  F0DE         	movff	password_confirmation@pass_obj,save_password@pass_obj
  5866   00086A  EC42  F019         	call	_save_password	;wreg free
  5867   00086E                     
  5868                           ;Helper_functions/helper_fn.c: 170:                         lcd_4bit_send_command(&lcd1,
      +                          0x01);
  5869   00086E  0E4D               	movlw	low _lcd1
  5870   000870  0100               	movlb	0	; () banked
  5871   000872  6FE5               	movwf	lcd_4bit_send_command@lcd& (0+255),b
  5872   000874  0E01               	movlw	1
  5873   000876  6FE6               	movwf	lcd_4bit_send_command@command& (0+255),b
  5874   000878  EC50  F017         	call	_lcd_4bit_send_command	;wreg free
  5875   00087C                     
  5876                           ;Helper_functions/helper_fn.c: 171:                         _delay((unsigned long)((20)*
      +                          (8000000ul/4000.0)));
  5877   00087C  0E34               	movlw	52
  5878   00087E  0100               	movlb	0	; () banked
  5879   000880  6FF5               	movwf	??_password_confirmation& (0+255),b
  5880   000882  0EF1               	movlw	241
  5881   000884                     u9477:
  5882   000884  2EE8               	decfsz	wreg,f,c
  5883   000886  D7FE               	bra	u9477
  5884   000888  2FF5               	decfsz	??_password_confirmation& (0+255),f,b
  5885   00088A  D7FC               	bra	u9477
  5886   00088C  D000               	nop2	
  5887   00088E                     
  5888                           ;Helper_functions/helper_fn.c: 172:                         lcd_4bit_send_string_pos(&lc
      +                          d1,2,4,"password saved");
  5889   00088E  0E4D               	movlw	low _lcd1
  5890   000890  0100               	movlb	0	; () banked
  5891   000892  6FEE               	movwf	lcd_4bit_send_string_pos@lcd& (0+255),b
  5892   000894  0E02               	movlw	2
  5893   000896  6FEF               	movwf	lcd_4bit_send_string_pos@row& (0+255),b
  5894   000898  0E04               	movlw	4
  5895   00089A  6FF0               	movwf	lcd_4bit_send_string_pos@column& (0+255),b
  5896   00089C  0EC0               	movlw	low STR_27
  5897   00089E  6FF1               	movwf	lcd_4bit_send_string_pos@str& (0+255),b
  5898   0008A0  0EFF               	movlw	high STR_27
  5899   0008A2  6FF2               	movwf	(lcd_4bit_send_string_pos@str+1)& (0+255),b
  5900   0008A4  EC74  F014         	call	_lcd_4bit_send_string_pos	;wreg free
  5901   0008A8                     
  5902                           ;Helper_functions/helper_fn.c: 173:                         _delay((unsigned long)((300)
      +                          *(8000000ul/4000.0)));
  5903   0008A8  0E04               	movlw	4
  5904   0008AA  0100               	movlb	0	; () banked
  5905   0008AC  6FF6               	movwf	(??_password_confirmation+1)& (0+255),b
  5906   0008AE  0E0C               	movlw	12
  5907   0008B0  6FF5               	movwf	??_password_confirmation& (0+255),b
  5908   0008B2  0E33               	movlw	51
  5909   0008B4                     u9487:
  5910   0008B4  2EE8               	decfsz	wreg,f,c
  5911   0008B6  D7FE               	bra	u9487
  5912   0008B8  2FF5               	decfsz	??_password_confirmation& (0+255),f,b
  5913   0008BA  D7FC               	bra	u9487
  5914   0008BC  2FF6               	decfsz	(??_password_confirmation+1)& (0+255),f,b
  5915   0008BE  D7FA               	bra	u9487
  5916   0008C0  D000               	nop2	
  5917   0008C2                     
  5918                           ;Helper_functions/helper_fn.c: 174:                         lcd_4bit_send_string_pos(&lc
      +                          d1,2,4,"                     ");
  5919   0008C2  0E4D               	movlw	low _lcd1
  5920   0008C4  0100               	movlb	0	; () banked
  5921   0008C6  6FEE               	movwf	lcd_4bit_send_string_pos@lcd& (0+255),b
  5922   0008C8  0E02               	movlw	2
  5923   0008CA  6FEF               	movwf	lcd_4bit_send_string_pos@row& (0+255),b
  5924   0008CC  0E04               	movlw	4
  5925   0008CE  6FF0               	movwf	lcd_4bit_send_string_pos@column& (0+255),b
  5926   0008D0  0EE9               	movlw	low STR_14
  5927   0008D2  6FF1               	movwf	lcd_4bit_send_string_pos@str& (0+255),b
  5928   0008D4  0EFE               	movlw	high STR_14
  5929   0008D6  6FF2               	movwf	(lcd_4bit_send_string_pos@str+1)& (0+255),b
  5930   0008D8  EC74  F014         	call	_lcd_4bit_send_string_pos	;wreg free
  5931   0008DC                     
  5932                           ;Helper_functions/helper_fn.c: 175:                         _delay((unsigned long)((300)
      +                          *(8000000ul/4000.0)));
  5933   0008DC  0E04               	movlw	4
  5934   0008DE  0100               	movlb	0	; () banked
  5935   0008E0  6FF6               	movwf	(??_password_confirmation+1)& (0+255),b
  5936   0008E2  0E0C               	movlw	12
  5937   0008E4  6FF5               	movwf	??_password_confirmation& (0+255),b
  5938   0008E6  0E33               	movlw	51
  5939   0008E8                     u9497:
  5940   0008E8  2EE8               	decfsz	wreg,f,c
  5941   0008EA  D7FE               	bra	u9497
  5942   0008EC  2FF5               	decfsz	??_password_confirmation& (0+255),f,b
  5943   0008EE  D7FC               	bra	u9497
  5944   0008F0  2FF6               	decfsz	(??_password_confirmation+1)& (0+255),f,b
  5945   0008F2  D7FA               	bra	u9497
  5946   0008F4  D000               	nop2	
  5947                           
  5948                           ;Helper_functions/helper_fn.c: 176:                         break;
  5949   0008F6  EF78  F005         	goto	l456
  5950   0008FA                     l7672:
  5951                           
  5952                           ; BSR set to: 0
  5953                           ;Helper_functions/helper_fn.c: 178:                          lcd_4bit_send_string_pos(&l
      +                          cd1,4,1,"wrong password ");
  5954   0008FA  0E4D               	movlw	low _lcd1
  5955   0008FC  6FEE               	movwf	lcd_4bit_send_string_pos@lcd& (0+255),b
  5956   0008FE  0E04               	movlw	4
  5957   000900  6FEF               	movwf	lcd_4bit_send_string_pos@row& (0+255),b
  5958   000902  0E01               	movlw	1
  5959   000904  6FF0               	movwf	lcd_4bit_send_string_pos@column& (0+255),b
  5960   000906  0EB0               	movlw	low STR_29
  5961   000908  6FF1               	movwf	lcd_4bit_send_string_pos@str& (0+255),b
  5962   00090A  0EFF               	movlw	high STR_29
  5963   00090C  6FF2               	movwf	(lcd_4bit_send_string_pos@str+1)& (0+255),b
  5964   00090E  EC74  F014         	call	_lcd_4bit_send_string_pos	;wreg free
  5965   000912                     
  5966                           ;Helper_functions/helper_fn.c: 179:                          _delay((unsigned long)((300
      +                          )*(8000000ul/4000.0)));
  5967   000912  0E04               	movlw	4
  5968   000914  0100               	movlb	0	; () banked
  5969   000916  6FF6               	movwf	(??_password_confirmation+1)& (0+255),b
  5970   000918  0E0C               	movlw	12
  5971   00091A  6FF5               	movwf	??_password_confirmation& (0+255),b
  5972   00091C  0E33               	movlw	51
  5973   00091E                     u9507:
  5974   00091E  2EE8               	decfsz	wreg,f,c
  5975   000920  D7FE               	bra	u9507
  5976   000922  2FF5               	decfsz	??_password_confirmation& (0+255),f,b
  5977   000924  D7FC               	bra	u9507
  5978   000926  2FF6               	decfsz	(??_password_confirmation+1)& (0+255),f,b
  5979   000928  D7FA               	bra	u9507
  5980   00092A  D000               	nop2	
  5981   00092C                     
  5982                           ;Helper_functions/helper_fn.c: 180:                         lcd_4bit_send_string_pos(&lc
      +                          d1,4,1,"                     ");
  5983   00092C  0E4D               	movlw	low _lcd1
  5984   00092E  0100               	movlb	0	; () banked
  5985   000930  6FEE               	movwf	lcd_4bit_send_string_pos@lcd& (0+255),b
  5986   000932  0E04               	movlw	4
  5987   000934  6FEF               	movwf	lcd_4bit_send_string_pos@row& (0+255),b
  5988   000936  0E01               	movlw	1
  5989   000938  6FF0               	movwf	lcd_4bit_send_string_pos@column& (0+255),b
  5990   00093A  0EE9               	movlw	low STR_14
  5991   00093C  6FF1               	movwf	lcd_4bit_send_string_pos@str& (0+255),b
  5992   00093E  0EFE               	movlw	high STR_14
  5993   000940  6FF2               	movwf	(lcd_4bit_send_string_pos@str+1)& (0+255),b
  5994   000942  EC74  F014         	call	_lcd_4bit_send_string_pos	;wreg free
  5995                           
  5996                           ;Helper_functions/helper_fn.c: 181:                         _delay((unsigned long)((300)
      +                          *(8000000ul/4000.0)));
  5997   000946  0E04               	movlw	4
  5998   000948  0100               	movlb	0	; () banked
  5999   00094A  6FF6               	movwf	(??_password_confirmation+1)& (0+255),b
  6000   00094C  0E0C               	movlw	12
  6001   00094E  6FF5               	movwf	??_password_confirmation& (0+255),b
  6002   000950  0E33               	movlw	51
  6003   000952                     u9517:
  6004   000952  2EE8               	decfsz	wreg,f,c
  6005   000954  D7FE               	bra	u9517
  6006   000956  2FF5               	decfsz	??_password_confirmation& (0+255),f,b
  6007   000958  D7FC               	bra	u9517
  6008   00095A  2FF6               	decfsz	(??_password_confirmation+1)& (0+255),f,b
  6009   00095C  D7FA               	bra	u9517
  6010   00095E  D000               	nop2	
  6011   000960  EF2D  F003         	goto	l7608
  6012   000964                     l7678:
  6013   000964  0E2F               	movlw	47
  6014   000966  1848               	xorwf	_keypad_value^0,w,c
  6015   000968  B4D8               	btfsc	status,2,c
  6016   00096A  EFB9  F004         	goto	u6901
  6017   00096E  EFBB  F004         	goto	u6900
  6018   000972                     u6901:
  6019   000972  EFD6  F004         	goto	l7686
  6020   000976                     u6900:
  6021   000976  0E2A               	movlw	42
  6022   000978  1848               	xorwf	_keypad_value^0,w,c
  6023   00097A  B4D8               	btfsc	status,2,c
  6024   00097C  EFC2  F004         	goto	u6911
  6025   000980  EFC4  F004         	goto	u6910
  6026   000984                     u6911:
  6027   000984  EFD6  F004         	goto	l7686
  6028   000988                     u6910:
  6029   000988  0E2B               	movlw	43
  6030   00098A  1848               	xorwf	_keypad_value^0,w,c
  6031   00098C  B4D8               	btfsc	status,2,c
  6032   00098E  EFCB  F004         	goto	u6921
  6033   000992  EFCD  F004         	goto	u6920
  6034   000996                     u6921:
  6035   000996  EFD6  F004         	goto	l7686
  6036   00099A                     u6920:
  6037   00099A  0E2D               	movlw	45
  6038   00099C  1848               	xorwf	_keypad_value^0,w,c
  6039   00099E  A4D8               	btfss	status,2,c
  6040   0009A0  EFD4  F004         	goto	u6931
  6041   0009A4  EFD6  F004         	goto	u6930
  6042   0009A8                     u6931:
  6043   0009A8  EF0C  F005         	goto	l7692
  6044   0009AC                     u6930:
  6045   0009AC                     l7686:
  6046                           
  6047                           ;Helper_functions/helper_fn.c: 186:                     lcd_4bit_send_string_pos(&lcd1,4
      +                          ,1,"Unavailable process ");
  6048   0009AC  0E4D               	movlw	low _lcd1
  6049   0009AE  0100               	movlb	0	; () banked
  6050   0009B0  6FEE               	movwf	lcd_4bit_send_string_pos@lcd& (0+255),b
  6051   0009B2  0E04               	movlw	4
  6052   0009B4  6FEF               	movwf	lcd_4bit_send_string_pos@row& (0+255),b
  6053   0009B6  0E01               	movlw	1
  6054   0009B8  6FF0               	movwf	lcd_4bit_send_string_pos@column& (0+255),b
  6055   0009BA  0E40               	movlw	low STR_13
  6056   0009BC  6FF1               	movwf	lcd_4bit_send_string_pos@str& (0+255),b
  6057   0009BE  0EFF               	movlw	high STR_13
  6058   0009C0  6FF2               	movwf	(lcd_4bit_send_string_pos@str+1)& (0+255),b
  6059   0009C2  EC74  F014         	call	_lcd_4bit_send_string_pos	;wreg free
  6060   0009C6                     
  6061                           ;Helper_functions/helper_fn.c: 187:                      _delay((unsigned long)((300)*(8
      +                          000000ul/4000.0)));
  6062   0009C6  0E04               	movlw	4
  6063   0009C8  0100               	movlb	0	; () banked
  6064   0009CA  6FF6               	movwf	(??_password_confirmation+1)& (0+255),b
  6065   0009CC  0E0C               	movlw	12
  6066   0009CE  6FF5               	movwf	??_password_confirmation& (0+255),b
  6067   0009D0  0E33               	movlw	51
  6068   0009D2                     u9527:
  6069   0009D2  2EE8               	decfsz	wreg,f,c
  6070   0009D4  D7FE               	bra	u9527
  6071   0009D6  2FF5               	decfsz	??_password_confirmation& (0+255),f,b
  6072   0009D8  D7FC               	bra	u9527
  6073   0009DA  2FF6               	decfsz	(??_password_confirmation+1)& (0+255),f,b
  6074   0009DC  D7FA               	bra	u9527
  6075   0009DE  D000               	nop2	
  6076   0009E0                     
  6077                           ;Helper_functions/helper_fn.c: 188:                     lcd_4bit_send_string_pos(&lcd1,4
      +                          ,1,"                     ");
  6078   0009E0  0E4D               	movlw	low _lcd1
  6079   0009E2  0100               	movlb	0	; () banked
  6080   0009E4  6FEE               	movwf	lcd_4bit_send_string_pos@lcd& (0+255),b
  6081   0009E6  0E04               	movlw	4
  6082   0009E8  6FEF               	movwf	lcd_4bit_send_string_pos@row& (0+255),b
  6083   0009EA  0E01               	movlw	1
  6084   0009EC  6FF0               	movwf	lcd_4bit_send_string_pos@column& (0+255),b
  6085   0009EE  0EE9               	movlw	low STR_14
  6086   0009F0  6FF1               	movwf	lcd_4bit_send_string_pos@str& (0+255),b
  6087   0009F2  0EFE               	movlw	high STR_14
  6088   0009F4  6FF2               	movwf	(lcd_4bit_send_string_pos@str+1)& (0+255),b
  6089   0009F6  EC74  F014         	call	_lcd_4bit_send_string_pos	;wreg free
  6090                           
  6091                           ;Helper_functions/helper_fn.c: 189:                     _delay((unsigned long)((300)*(80
      +                          00000ul/4000.0)));
  6092   0009FA  0E04               	movlw	4
  6093   0009FC  0100               	movlb	0	; () banked
  6094   0009FE  6FF6               	movwf	(??_password_confirmation+1)& (0+255),b
  6095   000A00  0E0C               	movlw	12
  6096   000A02  6FF5               	movwf	??_password_confirmation& (0+255),b
  6097   000A04  0E33               	movlw	51
  6098   000A06                     u9537:
  6099   000A06  2EE8               	decfsz	wreg,f,c
  6100   000A08  D7FE               	bra	u9537
  6101   000A0A  2FF5               	decfsz	??_password_confirmation& (0+255),f,b
  6102   000A0C  D7FC               	bra	u9537
  6103   000A0E  2FF6               	decfsz	(??_password_confirmation+1)& (0+255),f,b
  6104   000A10  D7FA               	bra	u9537
  6105   000A12  D000               	nop2	
  6106                           
  6107                           ;Helper_functions/helper_fn.c: 190:                 }
  6108   000A14  EF2D  F003         	goto	l7608
  6109   000A18                     l7692:
  6110                           
  6111                           ;Helper_functions/helper_fn.c: 192:             if(counter < 8){
  6112   000A18  0E08               	movlw	8
  6113   000A1A  0100               	movlb	0	; () banked
  6114   000A1C  61F9               	cpfslt	password_confirmation@counter& (0+255),b
  6115   000A1E  EF13  F005         	goto	u6941
  6116   000A22  EF15  F005         	goto	u6940
  6117   000A26                     u6941:
  6118   000A26  EF43  F005         	goto	l7706
  6119   000A2A                     u6940:
  6120   000A2A                     
  6121                           ; BSR set to: 0
  6122                           ;Helper_functions/helper_fn.c: 193:                         (confirm_pass_obj->password[
      +                          counter]) = keypad_value;
  6123   000A2A  51F4               	movf	password_confirmation@confirm_pass_obj& (0+255),w,b
  6124   000A2C  25F9               	addwf	password_confirmation@counter& (0+255),w,b
  6125   000A2E  6ED9               	movwf	fsr2l,c
  6126   000A30  6ADA               	clrf	fsr2h,c
  6127   000A32  0E01               	movlw	1
  6128   000A34  26D9               	addwf	fsr2l,f,c
  6129   000A36  C048  FFDF         	movff	_keypad_value,indf2
  6130   000A3A                     
  6131                           ; BSR set to: 0
  6132                           ;Helper_functions/helper_fn.c: 194:                         lcd_4bit_send_char_data_pos(
      +                          &lcd1,3,lcd_counter,keypad_value);
  6133   000A3A  0E4D               	movlw	low _lcd1
  6134   000A3C  6FEE               	movwf	lcd_4bit_send_char_data_pos@lcd& (0+255),b
  6135   000A3E  0E03               	movlw	3
  6136   000A40  6FEF               	movwf	lcd_4bit_send_char_data_pos@row& (0+255),b
  6137   000A42  C0F7  F0F0         	movff	password_confirmation@lcd_counter,lcd_4bit_send_char_data_pos@column
  6138   000A46  C048  F0F1         	movff	_keypad_value,lcd_4bit_send_char_data_pos@data
  6139   000A4A  ECD2  F019         	call	_lcd_4bit_send_char_data_pos	;wreg free
  6140   000A4E                     
  6141                           ;Helper_functions/helper_fn.c: 195:                         _delay((unsigned long)((200)
      +                          *(8000000ul/4000.0)));
  6142   000A4E  0E03               	movlw	3
  6143   000A50  0100               	movlb	0	; () banked
  6144   000A52  6FF6               	movwf	(??_password_confirmation+1)& (0+255),b
  6145   000A54  0E08               	movlw	8
  6146   000A56  6FF5               	movwf	??_password_confirmation& (0+255),b
  6147   000A58  0E77               	movlw	119
  6148   000A5A                     u9547:
  6149   000A5A  2EE8               	decfsz	wreg,f,c
  6150   000A5C  D7FE               	bra	u9547
  6151   000A5E  2FF5               	decfsz	??_password_confirmation& (0+255),f,b
  6152   000A60  D7FC               	bra	u9547
  6153   000A62  2FF6               	decfsz	(??_password_confirmation+1)& (0+255),f,b
  6154   000A64  D7FA               	bra	u9547
  6155   000A66                     
  6156                           ;Helper_functions/helper_fn.c: 196:                         lcd_4bit_send_char_data_pos(
      +                          &lcd1,3,lcd_counter,'*');
  6157   000A66  0E4D               	movlw	low _lcd1
  6158   000A68  0100               	movlb	0	; () banked
  6159   000A6A  6FEE               	movwf	lcd_4bit_send_char_data_pos@lcd& (0+255),b
  6160   000A6C  0E03               	movlw	3
  6161   000A6E  6FEF               	movwf	lcd_4bit_send_char_data_pos@row& (0+255),b
  6162   000A70  C0F7  F0F0         	movff	password_confirmation@lcd_counter,lcd_4bit_send_char_data_pos@column
  6163   000A74  0E2A               	movlw	42
  6164   000A76  6FF1               	movwf	lcd_4bit_send_char_data_pos@data& (0+255),b
  6165   000A78  ECD2  F019         	call	_lcd_4bit_send_char_data_pos	;wreg free
  6166   000A7C                     
  6167                           ;Helper_functions/helper_fn.c: 197:                         counter++;
  6168   000A7C  0100               	movlb	0	; () banked
  6169   000A7E  2BF9               	incf	password_confirmation@counter& (0+255),f,b
  6170   000A80                     
  6171                           ; BSR set to: 0
  6172                           ;Helper_functions/helper_fn.c: 198:                         lcd_counter++;
  6173   000A80  2BF7               	incf	password_confirmation@lcd_counter& (0+255),f,b
  6174                           
  6175                           ;Helper_functions/helper_fn.c: 199:             }
  6176   000A82  EF2D  F003         	goto	l7608
  6177   000A86                     l7706:
  6178                           
  6179                           ; BSR set to: 0
  6180                           ;Helper_functions/helper_fn.c: 201:                 lcd_4bit_send_string_pos(&lcd1,4,1,"
      +                          max 8 digits ");
  6181   000A86  0E4D               	movlw	low _lcd1
  6182   000A88  6FEE               	movwf	lcd_4bit_send_string_pos@lcd& (0+255),b
  6183   000A8A  0E04               	movlw	4
  6184   000A8C  6FEF               	movwf	lcd_4bit_send_string_pos@row& (0+255),b
  6185   000A8E  0E01               	movlw	1
  6186   000A90  6FF0               	movwf	lcd_4bit_send_string_pos@column& (0+255),b
  6187   000A92  0EDD               	movlw	low STR_19
  6188   000A94  6FF1               	movwf	lcd_4bit_send_string_pos@str& (0+255),b
  6189   000A96  0EFF               	movlw	high STR_19
  6190   000A98  6FF2               	movwf	(lcd_4bit_send_string_pos@str+1)& (0+255),b
  6191   000A9A  EC74  F014         	call	_lcd_4bit_send_string_pos	;wreg free
  6192   000A9E                     
  6193                           ;Helper_functions/helper_fn.c: 202:                  _delay((unsigned long)((300)*(80000
      +                          00ul/4000.0)));
  6194   000A9E  0E04               	movlw	4
  6195   000AA0  0100               	movlb	0	; () banked
  6196   000AA2  6FF6               	movwf	(??_password_confirmation+1)& (0+255),b
  6197   000AA4  0E0C               	movlw	12
  6198   000AA6  6FF5               	movwf	??_password_confirmation& (0+255),b
  6199   000AA8  0E33               	movlw	51
  6200   000AAA                     u9557:
  6201   000AAA  2EE8               	decfsz	wreg,f,c
  6202   000AAC  D7FE               	bra	u9557
  6203   000AAE  2FF5               	decfsz	??_password_confirmation& (0+255),f,b
  6204   000AB0  D7FC               	bra	u9557
  6205   000AB2  2FF6               	decfsz	(??_password_confirmation+1)& (0+255),f,b
  6206   000AB4  D7FA               	bra	u9557
  6207   000AB6  D000               	nop2	
  6208   000AB8                     
  6209                           ;Helper_functions/helper_fn.c: 203:                 lcd_4bit_send_string_pos(&lcd1,4,1,"
      +                                               ");
  6210   000AB8  0E4D               	movlw	low _lcd1
  6211   000ABA  0100               	movlb	0	; () banked
  6212   000ABC  6FEE               	movwf	lcd_4bit_send_string_pos@lcd& (0+255),b
  6213   000ABE  0E04               	movlw	4
  6214   000AC0  6FEF               	movwf	lcd_4bit_send_string_pos@row& (0+255),b
  6215   000AC2  0E01               	movlw	1
  6216   000AC4  6FF0               	movwf	lcd_4bit_send_string_pos@column& (0+255),b
  6217   000AC6  0EE9               	movlw	low STR_14
  6218   000AC8  6FF1               	movwf	lcd_4bit_send_string_pos@str& (0+255),b
  6219   000ACA  0EFE               	movlw	high STR_14
  6220   000ACC  6FF2               	movwf	(lcd_4bit_send_string_pos@str+1)& (0+255),b
  6221   000ACE  EC74  F014         	call	_lcd_4bit_send_string_pos	;wreg free
  6222                           
  6223                           ;Helper_functions/helper_fn.c: 204:                  _delay((unsigned long)((300)*(80000
      +                          00ul/4000.0)));
  6224   000AD2  0E04               	movlw	4
  6225   000AD4  0100               	movlb	0	; () banked
  6226   000AD6  6FF6               	movwf	(??_password_confirmation+1)& (0+255),b
  6227   000AD8  0E0C               	movlw	12
  6228   000ADA  6FF5               	movwf	??_password_confirmation& (0+255),b
  6229   000ADC  0E33               	movlw	51
  6230   000ADE                     u9567:
  6231   000ADE  2EE8               	decfsz	wreg,f,c
  6232   000AE0  D7FE               	bra	u9567
  6233   000AE2  2FF5               	decfsz	??_password_confirmation& (0+255),f,b
  6234   000AE4  D7FC               	bra	u9567
  6235   000AE6  2FF6               	decfsz	(??_password_confirmation+1)& (0+255),f,b
  6236   000AE8  D7FA               	bra	u9567
  6237   000AEA  D000               	nop2	
  6238   000AEC  EF2D  F003         	goto	l7608
  6239   000AF0                     l456:
  6240   000AF0  0012               	return		;funcret
  6241   000AF2                     __end_of_password_confirmation:
  6242                           	callstack 0
  6243                           
  6244 ;; *************** function _save_password *****************
  6245 ;; Defined at:
  6246 ;;		line 433 in file "Helper_functions/helper_fn.c"
  6247 ;; Parameters:    Size  Location     Type
  6248 ;;  pass_obj        1    4[BANK0 ] PTR struct .
  6249 ;;		 -> pass_obj(9), 
  6250 ;; Auto vars:     Size  Location     Type
  6251 ;;  counter         1    5[BANK0 ] unsigned char 
  6252 ;; Return value:  Size  Location     Type
  6253 ;;                  1    wreg      void 
  6254 ;; Registers used:
  6255 ;;		wreg, fsr2l, fsr2h, status,2, status,0, cstack
  6256 ;; Tracked objects:
  6257 ;;		On entry : 0/0
  6258 ;;		On exit  : 0/0
  6259 ;;		Unchanged: 0/0
  6260 ;; Data sizes:     COMRAM   BANK0   BANK1   BANK2   BANK3   BANK4   BANK5   BANK6   BANK7   BANK8   BANK9  BANK10  BANK1
      +1  BANK12  BANK13  BANK14  BANK15
  6261 ;;      Params:         0       1       0       0       0       0       0       0       0       0       0       0       
      +0       0       0       0       0
  6262 ;;      Locals:         0       1       0       0       0       0       0       0       0       0       0       0       
      +0       0       0       0       0
  6263 ;;      Temps:          0       0       0       0       0       0       0       0       0       0       0       0       
      +0       0       0       0       0
  6264 ;;      Totals:         0       2       0       0       0       0       0       0       0       0       0       0       
      +0       0       0       0       0
  6265 ;;Total ram usage:        2 bytes
  6266 ;; Hardware stack levels used: 1
  6267 ;; Hardware stack levels required when called: 9
  6268 ;; This function calls:
  6269 ;;		_Data_EEPROM_WriteByte
  6270 ;; This function is called by:
  6271 ;;		_password_confirmation
  6272 ;; This function uses a non-reentrant model
  6273 ;;
  6274                           
  6275                           	psect	text19
  6276   003284                     __ptext19:
  6277                           	callstack 0
  6278   003284                     _save_password:
  6279                           	callstack 20
  6280   003284                     
  6281                           ;Helper_functions/helper_fn.c: 434:     uint8 counter = 0;
  6282   003284  0E00               	movlw	0
  6283   003286  0100               	movlb	0	; () banked
  6284   003288  6FDF               	movwf	save_password@counter& (0+255),b
  6285                           
  6286                           ;Helper_functions/helper_fn.c: 435:     while(pass_obj->password[counter]){
  6287   00328A  EF59  F019         	goto	l7384
  6288   00328E                     l7380:
  6289                           
  6290                           ; BSR set to: 0
  6291                           ;Helper_functions/helper_fn.c: 436:         Data_EEPROM_WriteByte(0x03f8 + counter,(pass
      +                          _obj->password[counter]));
  6292   00328E  0EF8               	movlw	248
  6293   003290  25DF               	addwf	save_password@counter& (0+255),w,b
  6294   003292  6FDA               	movwf	Data_EEPROM_WriteByte@badd& (0+255),b
  6295   003294  6BDB               	clrf	(Data_EEPROM_WriteByte@badd+1)& (0+255),b
  6296   003296  0E03               	movlw	3
  6297   003298  23DB               	addwfc	(Data_EEPROM_WriteByte@badd+1)& (0+255),f,b
  6298   00329A  51DE               	movf	save_password@pass_obj& (0+255),w,b
  6299   00329C  25DF               	addwf	save_password@counter& (0+255),w,b
  6300   00329E  6ED9               	movwf	fsr2l,c
  6301   0032A0  6ADA               	clrf	fsr2h,c
  6302   0032A2  0E01               	movlw	1
  6303   0032A4  26D9               	addwf	fsr2l,f,c
  6304   0032A6  50DF               	movf	indf2,w,c
  6305   0032A8  6FDC               	movwf	Data_EEPROM_WriteByte@bData& (0+255),b
  6306   0032AA  EC68  F019         	call	_Data_EEPROM_WriteByte	;wreg free
  6307   0032AE                     
  6308                           ;Helper_functions/helper_fn.c: 437:         counter++;
  6309   0032AE  0100               	movlb	0	; () banked
  6310   0032B0  2BDF               	incf	save_password@counter& (0+255),f,b
  6311   0032B2                     l7384:
  6312                           
  6313                           ; BSR set to: 0
  6314                           ;Helper_functions/helper_fn.c: 435:     while(pass_obj->password[counter]){
  6315   0032B2  51DE               	movf	save_password@pass_obj& (0+255),w,b
  6316   0032B4  25DF               	addwf	save_password@counter& (0+255),w,b
  6317   0032B6  6ED9               	movwf	fsr2l,c
  6318   0032B8  6ADA               	clrf	fsr2h,c
  6319   0032BA  0E01               	movlw	1
  6320   0032BC  26D9               	addwf	fsr2l,f,c
  6321   0032BE  50DF               	movf	indf2,w,c
  6322   0032C0  A4D8               	btfss	status,2,c
  6323   0032C2  EF65  F019         	goto	u6591
  6324   0032C6  EF67  F019         	goto	u6590
  6325   0032CA                     u6591:
  6326   0032CA  EF47  F019         	goto	l7380
  6327   0032CE                     u6590:
  6328   0032CE                     
  6329                           ; BSR set to: 0
  6330   0032CE  0012               	return		;funcret
  6331   0032D0                     __end_of_save_password:
  6332                           	callstack 0
  6333                           
  6334 ;; *************** function _Data_EEPROM_WriteByte *****************
  6335 ;; Defined at:
  6336 ;;		line 10 in file "MCAL_layer/EEPROM/hal_eeprom.c"
  6337 ;; Parameters:    Size  Location     Type
  6338 ;;  badd            2    0[BANK0 ] unsigned short 
  6339 ;;  bData           1    2[BANK0 ] unsigned char 
  6340 ;; Auto vars:     Size  Location     Type
  6341 ;;  GLOBAL_INTER    1    3[BANK0 ] unsigned char 
  6342 ;;  ret             1    0        unsigned char 
  6343 ;; Return value:  Size  Location     Type
  6344 ;;                  1    wreg      unsigned char 
  6345 ;; Registers used:
  6346 ;;		wreg, status,2, status,0
  6347 ;; Tracked objects:
  6348 ;;		On entry : 0/0
  6349 ;;		On exit  : 0/0
  6350 ;;		Unchanged: 0/0
  6351 ;; Data sizes:     COMRAM   BANK0   BANK1   BANK2   BANK3   BANK4   BANK5   BANK6   BANK7   BANK8   BANK9  BANK10  BANK1
      +1  BANK12  BANK13  BANK14  BANK15
  6352 ;;      Params:         0       3       0       0       0       0       0       0       0       0       0       0       
      +0       0       0       0       0
  6353 ;;      Locals:         0       1       0       0       0       0       0       0       0       0       0       0       
      +0       0       0       0       0
  6354 ;;      Temps:          0       0       0       0       0       0       0       0       0       0       0       0       
      +0       0       0       0       0
  6355 ;;      Totals:         0       4       0       0       0       0       0       0       0       0       0       0       
      +0       0       0       0       0
  6356 ;;Total ram usage:        4 bytes
  6357 ;; Hardware stack levels used: 1
  6358 ;; Hardware stack levels required when called: 8
  6359 ;; This function calls:
  6360 ;;		Nothing
  6361 ;; This function is called by:
  6362 ;;		_save_password
  6363 ;; This function uses a non-reentrant model
  6364 ;;
  6365                           
  6366                           	psect	text20
  6367   0032D0                     __ptext20:
  6368                           	callstack 0
  6369   0032D0                     _Data_EEPROM_WriteByte:
  6370                           	callstack 20
  6371   0032D0                     
  6372                           ;MCAL_layer/EEPROM/hal_eeprom.c: 14:     uint8 GLOBAL_INTERRUPT_STATUS = INTCONbits.GIE;
  6373   0032D0  0E00               	movlw	0
  6374   0032D2  BEF2               	btfsc	242,7,c	;volatile
  6375   0032D4  0E01               	movlw	1
  6376   0032D6  0100               	movlb	0	; () banked
  6377   0032D8  6FDD               	movwf	Data_EEPROM_WriteByte@GLOBAL_INTERRUPT_STATUS& (0+255),b
  6378   0032DA                     
  6379                           ; BSR set to: 0
  6380                           ;MCAL_layer/EEPROM/hal_eeprom.c: 16:     EEADRH = (uint8)((badd >> 8) & 0x03) ;
  6381   0032DA  51DB               	movf	(Data_EEPROM_WriteByte@badd+1)& (0+255),w,b
  6382   0032DC  0B03               	andlw	3
  6383   0032DE  6EAA               	movwf	170,c	;volatile
  6384   0032E0                     
  6385                           ; BSR set to: 0
  6386                           ;MCAL_layer/EEPROM/hal_eeprom.c: 17:     EEADR = (uint8)(badd & 0xFF) ;
  6387   0032E0  C0DA  FFA9         	movff	Data_EEPROM_WriteByte@badd,4009	;volatile
  6388   0032E4                     
  6389                           ; BSR set to: 0
  6390                           ;MCAL_layer/EEPROM/hal_eeprom.c: 19:     EEDATA = bData;
  6391   0032E4  C0DC  FFA8         	movff	Data_EEPROM_WriteByte@bData,4008	;volatile
  6392   0032E8                     
  6393                           ; BSR set to: 0
  6394                           ;MCAL_layer/EEPROM/hal_eeprom.c: 21:     EECON1bits.EEPGD = 0;
  6395   0032E8  9EA6               	bcf	166,7,c	;volsfr
  6396   0032EA                     
  6397                           ; BSR set to: 0
  6398                           ;MCAL_layer/EEPROM/hal_eeprom.c: 22:     EECON1bits.CFGS = 0;
  6399   0032EA  9CA6               	bcf	166,6,c	;volsfr
  6400   0032EC                     
  6401                           ; BSR set to: 0
  6402                           ;MCAL_layer/EEPROM/hal_eeprom.c: 24:     EECON1bits.WREN = 1;
  6403   0032EC  84A6               	bsf	166,2,c	;volsfr
  6404   0032EE                     
  6405                           ; BSR set to: 0
  6406                           ;MCAL_layer/EEPROM/hal_eeprom.c: 26:     (INTCONbits.GIE = 0);
  6407   0032EE  9EF2               	bcf	242,7,c	;volatile
  6408   0032F0                     
  6409                           ; BSR set to: 0
  6410                           ;MCAL_layer/EEPROM/hal_eeprom.c: 28:     EECON2 = 0x55;
  6411   0032F0  0E55               	movlw	85
  6412   0032F2  6EA7               	movwf	167,c	;volsfr
  6413   0032F4                     
  6414                           ; BSR set to: 0
  6415                           ;MCAL_layer/EEPROM/hal_eeprom.c: 29:     EECON2 = 0xAA;
  6416   0032F4  0EAA               	movlw	170
  6417   0032F6  6EA7               	movwf	167,c	;volsfr
  6418   0032F8                     
  6419                           ; BSR set to: 0
  6420                           ;MCAL_layer/EEPROM/hal_eeprom.c: 31:     EECON1bits.WR = 1;
  6421   0032F8  82A6               	bsf	166,1,c	;volsfr
  6422   0032FA                     l557:
  6423                           
  6424                           ;MCAL_layer/EEPROM/hal_eeprom.c: 33:     while(EECON1bits.WR){
  6425   0032FA  B2A6               	btfsc	166,1,c	;volsfr
  6426   0032FC  EF82  F019         	goto	u6191
  6427   003300  EF84  F019         	goto	u6190
  6428   003304                     u6191:
  6429   003304  EF7D  F019         	goto	l557
  6430   003308                     u6190:
  6431   003308                     
  6432                           ;MCAL_layer/EEPROM/hal_eeprom.c: 37:     EECON1bits.WREN = 0;
  6433   003308  94A6               	bcf	166,2,c	;volsfr
  6434                           
  6435                           ;MCAL_layer/EEPROM/hal_eeprom.c: 39:     INTCONbits.GIE = GLOBAL_INTERRUPT_STATUS;
  6436   00330A  0100               	movlb	0	; () banked
  6437   00330C  B1DD               	btfsc	Data_EEPROM_WriteByte@GLOBAL_INTERRUPT_STATUS& (0+255),0,b
  6438   00330E  D002               	bra	u6205
  6439   003310  9EF2               	bcf	242,7,c	;volatile
  6440   003312  D001               	bra	u6206
  6441   003314                     u6205:
  6442   003314  8EF2               	bsf	242,7,c	;volatile
  6443   003316                     u6206:
  6444   003316  0012               	return		;funcret
  6445   003318                     __end_of_Data_EEPROM_WriteByte:
  6446                           	callstack 0
  6447                           
  6448 ;; *************** function _comparing_password *****************
  6449 ;; Defined at:
  6450 ;;		line 447 in file "Helper_functions/helper_fn.c"
  6451 ;; Parameters:    Size  Location     Type
  6452 ;;  pass_obj        1    0[BANK0 ] PTR struct .
  6453 ;;		 -> pass_obj(9), 
  6454 ;;  confirm_pass    1    1[BANK0 ] PTR struct .
  6455 ;;		 -> confirm_pass_obj(9), 
  6456 ;;  result          1    2[BANK0 ] PTR unsigned char 
  6457 ;;		 -> password_confirmation@comparing_result(1), 
  6458 ;; Auto vars:     Size  Location     Type
  6459 ;;  comparing_co    1    6[BANK0 ] unsigned char 
  6460 ;;  looping_coun    1    5[BANK0 ] unsigned char 
  6461 ;; Return value:  Size  Location     Type
  6462 ;;                  1    wreg      void 
  6463 ;; Registers used:
  6464 ;;		wreg, fsr1l, fsr1h, fsr2l, fsr2h, status,2, status,0
  6465 ;; Tracked objects:
  6466 ;;		On entry : 0/0
  6467 ;;		On exit  : 0/0
  6468 ;;		Unchanged: 0/0
  6469 ;; Data sizes:     COMRAM   BANK0   BANK1   BANK2   BANK3   BANK4   BANK5   BANK6   BANK7   BANK8   BANK9  BANK10  BANK1
      +1  BANK12  BANK13  BANK14  BANK15
  6470 ;;      Params:         0       3       0       0       0       0       0       0       0       0       0       0       
      +0       0       0       0       0
  6471 ;;      Locals:         0       2       0       0       0       0       0       0       0       0       0       0       
      +0       0       0       0       0
  6472 ;;      Temps:          0       2       0       0       0       0       0       0       0       0       0       0       
      +0       0       0       0       0
  6473 ;;      Totals:         0       7       0       0       0       0       0       0       0       0       0       0       
      +0       0       0       0       0
  6474 ;;Total ram usage:        7 bytes
  6475 ;; Hardware stack levels used: 1
  6476 ;; Hardware stack levels required when called: 8
  6477 ;; This function calls:
  6478 ;;		Nothing
  6479 ;; This function is called by:
  6480 ;;		_password_confirmation
  6481 ;; This function uses a non-reentrant model
  6482 ;;
  6483                           
  6484                           	psect	text21
  6485   002A08                     __ptext21:
  6486                           	callstack 0
  6487   002A08                     _comparing_password:
  6488                           	callstack 21
  6489   002A08                     
  6490                           ;Helper_functions/helper_fn.c: 448: uint8 comparing_counter = 0;
  6491   002A08  0E00               	movlw	0
  6492   002A0A  0100               	movlb	0	; () banked
  6493   002A0C  6FE0               	movwf	comparing_password@comparing_counter& (0+255),b
  6494   002A0E                     
  6495                           ; BSR set to: 0
  6496                           ;Helper_functions/helper_fn.c: 449: uint8 looping_counter = (pass_obj->pass_arr_num_digi
      +                          ts);
  6497   002A0E  51DA               	movf	comparing_password@pass_obj& (0+255),w,b
  6498   002A10  6ED9               	movwf	fsr2l,c
  6499   002A12  6ADA               	clrf	fsr2h,c
  6500   002A14  50DF               	movf	indf2,w,c
  6501   002A16  6FDF               	movwf	comparing_password@looping_counter& (0+255),b
  6502   002A18                     
  6503                           ; BSR set to: 0
  6504                           ;Helper_functions/helper_fn.c: 451: *result = 1;
  6505   002A18  51DC               	movf	comparing_password@result& (0+255),w,b
  6506   002A1A  6ED9               	movwf	fsr2l,c
  6507   002A1C  6ADA               	clrf	fsr2h,c
  6508   002A1E  0E01               	movlw	1
  6509   002A20  6EDF               	movwf	indf2,c
  6510   002A22                     
  6511                           ; BSR set to: 0
  6512                           ;Helper_functions/helper_fn.c: 453:     if(pass_obj->pass_arr_num_digits == confirm_pass
      +                          _obj->pass_arr_num_digits){
  6513   002A22  51DB               	movf	comparing_password@confirm_pass_obj& (0+255),w,b
  6514   002A24  6ED9               	movwf	fsr2l,c
  6515   002A26  6ADA               	clrf	fsr2h,c
  6516   002A28  51DA               	movf	comparing_password@pass_obj& (0+255),w,b
  6517   002A2A  6EE1               	movwf	fsr1l,c
  6518   002A2C  6AE2               	clrf	fsr1h,c
  6519   002A2E  50DE               	movf	postinc2,w,c
  6520   002A30  18E6               	xorwf	postinc1,w,c
  6521   002A32  A4D8               	btfss	status,2,c
  6522   002A34  EF1E  F015         	goto	u6561
  6523   002A38  EF20  F015         	goto	u6560
  6524   002A3C                     u6561:
  6525   002A3C  EF3A  F015         	goto	l7372
  6526   002A40                     u6560:
  6527   002A40  EF40  F015         	goto	l7374
  6528   002A44                     l7368:
  6529                           
  6530                           ; BSR set to: 0
  6531                           ;Helper_functions/helper_fn.c: 455:             if(pass_obj->password[comparing_counter]
      +                           == confirm_pass_obj->password[comparing_counter]){
  6532   002A44  51DB               	movf	comparing_password@confirm_pass_obj& (0+255),w,b
  6533   002A46  25E0               	addwf	comparing_password@comparing_counter& (0+255),w,b
  6534   002A48  6ED9               	movwf	fsr2l,c
  6535   002A4A  6ADA               	clrf	fsr2h,c
  6536   002A4C  0E01               	movlw	1
  6537   002A4E  26D9               	addwf	fsr2l,f,c
  6538   002A50  51DA               	movf	comparing_password@pass_obj& (0+255),w,b
  6539   002A52  25E0               	addwf	comparing_password@comparing_counter& (0+255),w,b
  6540   002A54  6EE1               	movwf	fsr1l,c
  6541   002A56  6AE2               	clrf	fsr1h,c
  6542   002A58  0E01               	movlw	1
  6543   002A5A  26E1               	addwf	fsr1l,f,c
  6544   002A5C  50DE               	movf	postinc2,w,c
  6545   002A5E  18E6               	xorwf	postinc1,w,c
  6546   002A60  A4D8               	btfss	status,2,c
  6547   002A62  EF35  F015         	goto	u6571
  6548   002A66  EF37  F015         	goto	u6570
  6549   002A6A                     u6571:
  6550   002A6A  EF3A  F015         	goto	l7372
  6551   002A6E                     u6570:
  6552   002A6E                     
  6553                           ; BSR set to: 0
  6554                           ;Helper_functions/helper_fn.c: 456:                 comparing_counter++;
  6555   002A6E  2BE0               	incf	comparing_password@comparing_counter& (0+255),f,b
  6556                           
  6557                           ;Helper_functions/helper_fn.c: 457:             }
  6558   002A70  EF40  F015         	goto	l7374
  6559   002A74                     l7372:
  6560                           
  6561                           ; BSR set to: 0
  6562                           ;Helper_functions/helper_fn.c: 459:                 *result = 0;
  6563   002A74  51DC               	movf	comparing_password@result& (0+255),w,b
  6564   002A76  6ED9               	movwf	fsr2l,c
  6565   002A78  6ADA               	clrf	fsr2h,c
  6566   002A7A  6ADF               	clrf	indf2,c
  6567                           
  6568                           ;Helper_functions/helper_fn.c: 460:                 break;
  6569   002A7C  EF49  F015         	goto	l525
  6570   002A80                     l7374:
  6571                           
  6572                           ; BSR set to: 0
  6573                           ;Helper_functions/helper_fn.c: 454:         while(looping_counter--){
  6574   002A80  07DF               	decf	comparing_password@looping_counter& (0+255),f,b
  6575   002A82  29DF               	incf	comparing_password@looping_counter& (0+255),w,b
  6576   002A84  A4D8               	btfss	status,2,c
  6577   002A86  EF47  F015         	goto	u6581
  6578   002A8A  EF49  F015         	goto	u6580
  6579   002A8E                     u6581:
  6580   002A8E  EF22  F015         	goto	l7368
  6581   002A92                     u6580:
  6582   002A92                     l525:
  6583                           
  6584                           ; BSR set to: 0
  6585   002A92  0012               	return		;funcret
  6586   002A94                     __end_of_comparing_password:
  6587                           	callstack 0
  6588                           
  6589 ;; *************** function _get_password *****************
  6590 ;; Defined at:
  6591 ;;		line 49 in file "Helper_functions/helper_fn.c"
  6592 ;; Parameters:    Size  Location     Type
  6593 ;;  pass_obj        1   25[BANK0 ] PTR struct .
  6594 ;;		 -> pass_obj(9), 
  6595 ;; Auto vars:     Size  Location     Type
  6596 ;;  counter         1   29[BANK0 ] unsigned char 
  6597 ;;  lcd_counter     1   28[BANK0 ] unsigned char 
  6598 ;; Return value:  Size  Location     Type
  6599 ;;                  1    wreg      void 
  6600 ;; Registers used:
  6601 ;;		wreg, fsr0l, fsr0h, fsr1l, fsr1h, fsr2l, fsr2h, status,2, status,0, tblptrl, tblptrh, tblptru, prodl, prodh, cstack
  6602 ;; Tracked objects:
  6603 ;;		On entry : 0/0
  6604 ;;		On exit  : 0/0
  6605 ;;		Unchanged: 0/0
  6606 ;; Data sizes:     COMRAM   BANK0   BANK1   BANK2   BANK3   BANK4   BANK5   BANK6   BANK7   BANK8   BANK9  BANK10  BANK1
      +1  BANK12  BANK13  BANK14  BANK15
  6607 ;;      Params:         0       1       0       0       0       0       0       0       0       0       0       0       
      +0       0       0       0       0
  6608 ;;      Locals:         0       2       0       0       0       0       0       0       0       0       0       0       
      +0       0       0       0       0
  6609 ;;      Temps:          0       2       0       0       0       0       0       0       0       0       0       0       
      +0       0       0       0       0
  6610 ;;      Totals:         0       5       0       0       0       0       0       0       0       0       0       0       
      +0       0       0       0       0
  6611 ;;Total ram usage:        5 bytes
  6612 ;; Hardware stack levels used: 1
  6613 ;; Hardware stack levels required when called: 13
  6614 ;; This function calls:
  6615 ;;		_ecu_keypad_get_value
  6616 ;;		_lcd_4bit_send_char_data_pos
  6617 ;;		_lcd_4bit_send_command
  6618 ;;		_lcd_4bit_send_string_pos
  6619 ;; This function is called by:
  6620 ;;		_change_password
  6621 ;;		_main
  6622 ;; This function uses a non-reentrant model
  6623 ;;
  6624                           
  6625                           	psect	text22
  6626   000F58                     __ptext22:
  6627                           	callstack 0
  6628   000F58                     _get_password:
  6629                           	callstack 17
  6630   000F58                     
  6631                           ;Helper_functions/helper_fn.c: 50:    keypad_value = 0;
  6632   000F58  0E00               	movlw	0
  6633   000F5A  6E48               	movwf	_keypad_value^0,c
  6634                           
  6635                           ;Helper_functions/helper_fn.c: 51:    uint8 counter = 0;
  6636   000F5C  0E00               	movlw	0
  6637   000F5E  0100               	movlb	0	; () banked
  6638   000F60  6FF7               	movwf	get_password@counter& (0+255),b
  6639                           
  6640                           ;Helper_functions/helper_fn.c: 52:    uint8 lcd_counter = 2;
  6641   000F62  0E02               	movlw	2
  6642   000F64  6FF6               	movwf	get_password@lcd_counter& (0+255),b
  6643   000F66                     
  6644                           ; BSR set to: 0
  6645                           ;Helper_functions/helper_fn.c: 54:     lcd_4bit_send_command(&lcd1,0x01);
  6646   000F66  0E4D               	movlw	low _lcd1
  6647   000F68  6FE5               	movwf	lcd_4bit_send_command@lcd& (0+255),b
  6648   000F6A  0E01               	movlw	1
  6649   000F6C  6FE6               	movwf	lcd_4bit_send_command@command& (0+255),b
  6650   000F6E  EC50  F017         	call	_lcd_4bit_send_command	;wreg free
  6651   000F72                     
  6652                           ;Helper_functions/helper_fn.c: 55:     _delay((unsigned long)((20)*(8000000ul/4000.0)));
  6653   000F72  0E34               	movlw	52
  6654   000F74  0100               	movlb	0	; () banked
  6655   000F76  6FF4               	movwf	??_get_password& (0+255),b
  6656   000F78  0EF1               	movlw	241
  6657   000F7A                     u9577:
  6658   000F7A  2EE8               	decfsz	wreg,f,c
  6659   000F7C  D7FE               	bra	u9577
  6660   000F7E  2FF4               	decfsz	??_get_password& (0+255),f,b
  6661   000F80  D7FC               	bra	u9577
  6662   000F82  D000               	nop2	
  6663   000F84                     l7518:
  6664                           
  6665                           ;Helper_functions/helper_fn.c: 59:         lcd_4bit_send_string_pos(&lcd1,2,1,"The passw
      +                          ord ");
  6666   000F84  0E4D               	movlw	low _lcd1
  6667   000F86  0100               	movlb	0	; () banked
  6668   000F88  6FEE               	movwf	lcd_4bit_send_string_pos@lcd& (0+255),b
  6669   000F8A  0E02               	movlw	2
  6670   000F8C  6FEF               	movwf	lcd_4bit_send_string_pos@row& (0+255),b
  6671   000F8E  0E01               	movlw	1
  6672   000F90  6FF0               	movwf	lcd_4bit_send_string_pos@column& (0+255),b
  6673   000F92  0E07               	movlw	low (STR_21+8)
  6674   000F94  6FF1               	movwf	lcd_4bit_send_string_pos@str& (0+255),b
  6675   000F96  0EFF               	movlw	high (STR_21+8)
  6676   000F98  6FF2               	movwf	(lcd_4bit_send_string_pos@str+1)& (0+255),b
  6677   000F9A  EC74  F014         	call	_lcd_4bit_send_string_pos	;wreg free
  6678   000F9E                     
  6679                           ;Helper_functions/helper_fn.c: 60:         lcd_4bit_send_string_pos(&lcd1,3,1,":");
  6680   000F9E  0E4D               	movlw	low _lcd1
  6681   000FA0  0100               	movlb	0	; () banked
  6682   000FA2  6FEE               	movwf	lcd_4bit_send_string_pos@lcd& (0+255),b
  6683   000FA4  0E03               	movlw	3
  6684   000FA6  6FEF               	movwf	lcd_4bit_send_string_pos@row& (0+255),b
  6685   000FA8  0E01               	movlw	1
  6686   000FAA  6FF0               	movwf	lcd_4bit_send_string_pos@column& (0+255),b
  6687   000FAC  0EF9               	movlw	low STR_12
  6688   000FAE  6FF1               	movwf	lcd_4bit_send_string_pos@str& (0+255),b
  6689   000FB0  0EFF               	movlw	high STR_12
  6690   000FB2  6FF2               	movwf	(lcd_4bit_send_string_pos@str+1)& (0+255),b
  6691   000FB4  EC74  F014         	call	_lcd_4bit_send_string_pos	;wreg free
  6692   000FB8                     l7522:
  6693                           
  6694                           ;Helper_functions/helper_fn.c: 63:         ecu_keypad_get_value(&keypad,&keypad_value);
  6695   000FB8  0EA1               	movlw	low _keypad
  6696   000FBA  0100               	movlb	0	; () banked
  6697   000FBC  6FE2               	movwf	ecu_keypad_get_value@keypad& (0+255),b
  6698   000FBE  0E48               	movlw	low _keypad_value
  6699   000FC0  6FE3               	movwf	ecu_keypad_get_value@value& (0+255),b
  6700   000FC2  EC22  F011         	call	_ecu_keypad_get_value	;wreg free
  6701   000FC6                     
  6702                           ;Helper_functions/helper_fn.c: 64:         _delay((unsigned long)((110)*(8000000ul/4000.
      +                          0)));
  6703   000FC6  0E02               	movlw	2
  6704   000FC8  0100               	movlb	0	; () banked
  6705   000FCA  6FF5               	movwf	(??_get_password+1)& (0+255),b
  6706   000FCC  0E1E               	movlw	30
  6707   000FCE  6FF4               	movwf	??_get_password& (0+255),b
  6708   000FD0  0EB3               	movlw	179
  6709   000FD2                     u9587:
  6710   000FD2  2EE8               	decfsz	wreg,f,c
  6711   000FD4  D7FE               	bra	u9587
  6712   000FD6  2FF4               	decfsz	??_get_password& (0+255),f,b
  6713   000FD8  D7FC               	bra	u9587
  6714   000FDA  2FF5               	decfsz	(??_get_password+1)& (0+255),f,b
  6715   000FDC  D7FA               	bra	u9587
  6716   000FDE  D000               	nop2	
  6717   000FE0                     
  6718                           ;Helper_functions/helper_fn.c: 65:         }while(keypad_value == 0 );
  6719   000FE0  5048               	movf	_keypad_value^0,w,c
  6720   000FE2  B4D8               	btfsc	status,2,c
  6721   000FE4  EFF6  F007         	goto	u6701
  6722   000FE8  EFF8  F007         	goto	u6700
  6723   000FEC                     u6701:
  6724   000FEC  EFDC  F007         	goto	l7522
  6725   000FF0                     u6700:
  6726   000FF0                     
  6727                           ;Helper_functions/helper_fn.c: 67:         if(keypad_value == '#' && (pass_obj->password
      +                          [0]) == '\0'){
  6728   000FF0  0E23               	movlw	35
  6729   000FF2  1848               	xorwf	_keypad_value^0,w,c
  6730   000FF4  A4D8               	btfss	status,2,c
  6731   000FF6  EFFF  F007         	goto	u6711
  6732   000FFA  EF01  F008         	goto	u6710
  6733   000FFE                     u6711:
  6734   000FFE  EF44  F008         	goto	l7538
  6735   001002                     u6710:
  6736   001002  0100               	movlb	0	; () banked
  6737   001004  51F3               	movf	get_password@pass_obj& (0+255),w,b
  6738   001006  6ED9               	movwf	fsr2l,c
  6739   001008  6ADA               	clrf	fsr2h,c
  6740   00100A  0E01               	movlw	1
  6741   00100C  26D9               	addwf	fsr2l,f,c
  6742   00100E  50DF               	movf	indf2,w,c
  6743   001010  A4D8               	btfss	status,2,c
  6744   001012  EF0D  F008         	goto	u6721
  6745   001016  EF0F  F008         	goto	u6720
  6746   00101A                     u6721:
  6747   00101A  EF44  F008         	goto	l7538
  6748   00101E                     u6720:
  6749   00101E                     
  6750                           ; BSR set to: 0
  6751                           ;Helper_functions/helper_fn.c: 68:             lcd_4bit_send_string_pos(&lcd1,4,1,"Unava
      +                          ilable process ");
  6752   00101E  0E4D               	movlw	low _lcd1
  6753   001020  6FEE               	movwf	lcd_4bit_send_string_pos@lcd& (0+255),b
  6754   001022  0E04               	movlw	4
  6755   001024  6FEF               	movwf	lcd_4bit_send_string_pos@row& (0+255),b
  6756   001026  0E01               	movlw	1
  6757   001028  6FF0               	movwf	lcd_4bit_send_string_pos@column& (0+255),b
  6758   00102A  0E40               	movlw	low STR_13
  6759   00102C  6FF1               	movwf	lcd_4bit_send_string_pos@str& (0+255),b
  6760   00102E  0EFF               	movlw	high STR_13
  6761   001030  6FF2               	movwf	(lcd_4bit_send_string_pos@str+1)& (0+255),b
  6762   001032  EC74  F014         	call	_lcd_4bit_send_string_pos	;wreg free
  6763   001036                     
  6764                           ;Helper_functions/helper_fn.c: 69:                  _delay((unsigned long)((300)*(800000
      +                          0ul/4000.0)));
  6765   001036  0E04               	movlw	4
  6766   001038  0100               	movlb	0	; () banked
  6767   00103A  6FF5               	movwf	(??_get_password+1)& (0+255),b
  6768   00103C  0E0C               	movlw	12
  6769   00103E  6FF4               	movwf	??_get_password& (0+255),b
  6770   001040  0E33               	movlw	51
  6771   001042                     u9597:
  6772   001042  2EE8               	decfsz	wreg,f,c
  6773   001044  D7FE               	bra	u9597
  6774   001046  2FF4               	decfsz	??_get_password& (0+255),f,b
  6775   001048  D7FC               	bra	u9597
  6776   00104A  2FF5               	decfsz	(??_get_password+1)& (0+255),f,b
  6777   00104C  D7FA               	bra	u9597
  6778   00104E  D000               	nop2	
  6779   001050                     
  6780                           ;Helper_functions/helper_fn.c: 70:                 lcd_4bit_send_string_pos(&lcd1,4,1," 
      +                                              ");
  6781   001050  0E4D               	movlw	low _lcd1
  6782   001052  0100               	movlb	0	; () banked
  6783   001054  6FEE               	movwf	lcd_4bit_send_string_pos@lcd& (0+255),b
  6784   001056  0E04               	movlw	4
  6785   001058  6FEF               	movwf	lcd_4bit_send_string_pos@row& (0+255),b
  6786   00105A  0E01               	movlw	1
  6787   00105C  6FF0               	movwf	lcd_4bit_send_string_pos@column& (0+255),b
  6788   00105E  0EE9               	movlw	low STR_14
  6789   001060  6FF1               	movwf	lcd_4bit_send_string_pos@str& (0+255),b
  6790   001062  0EFE               	movlw	high STR_14
  6791   001064  6FF2               	movwf	(lcd_4bit_send_string_pos@str+1)& (0+255),b
  6792   001066  EC74  F014         	call	_lcd_4bit_send_string_pos	;wreg free
  6793                           
  6794                           ;Helper_functions/helper_fn.c: 71:                 _delay((unsigned long)((300)*(8000000
      +                          ul/4000.0)));
  6795   00106A  0E04               	movlw	4
  6796   00106C  0100               	movlb	0	; () banked
  6797   00106E  6FF5               	movwf	(??_get_password+1)& (0+255),b
  6798   001070  0E0C               	movlw	12
  6799   001072  6FF4               	movwf	??_get_password& (0+255),b
  6800   001074  0E33               	movlw	51
  6801   001076                     u9607:
  6802   001076  2EE8               	decfsz	wreg,f,c
  6803   001078  D7FE               	bra	u9607
  6804   00107A  2FF4               	decfsz	??_get_password& (0+255),f,b
  6805   00107C  D7FC               	bra	u9607
  6806   00107E  2FF5               	decfsz	(??_get_password+1)& (0+255),f,b
  6807   001080  D7FA               	bra	u9607
  6808   001082  D000               	nop2	
  6809                           
  6810                           ;Helper_functions/helper_fn.c: 72:         }
  6811   001084  EFC2  F007         	goto	l7518
  6812   001088                     l7538:
  6813   001088  0E23               	movlw	35
  6814   00108A  1848               	xorwf	_keypad_value^0,w,c
  6815   00108C  A4D8               	btfss	status,2,c
  6816   00108E  EF4B  F008         	goto	u6731
  6817   001092  EF4D  F008         	goto	u6730
  6818   001096                     u6731:
  6819   001096  EF6B  F008         	goto	l7550
  6820   00109A                     u6730:
  6821   00109A  0100               	movlb	0	; () banked
  6822   00109C  51F7               	movf	get_password@counter& (0+255),w,b
  6823   00109E  B4D8               	btfsc	status,2,c
  6824   0010A0  EF54  F008         	goto	u6741
  6825   0010A4  EF56  F008         	goto	u6740
  6826   0010A8                     u6741:
  6827   0010A8  EF6B  F008         	goto	l7550
  6828   0010AC                     u6740:
  6829   0010AC                     
  6830                           ; BSR set to: 0
  6831                           ;Helper_functions/helper_fn.c: 74:                 counter--;
  6832   0010AC  07F7               	decf	get_password@counter& (0+255),f,b
  6833   0010AE                     
  6834                           ; BSR set to: 0
  6835                           ;Helper_functions/helper_fn.c: 75:                 (pass_obj->password[counter])= '\0';
  6836   0010AE  51F3               	movf	get_password@pass_obj& (0+255),w,b
  6837   0010B0  25F7               	addwf	get_password@counter& (0+255),w,b
  6838   0010B2  6ED9               	movwf	fsr2l,c
  6839   0010B4  6ADA               	clrf	fsr2h,c
  6840   0010B6  0E01               	movlw	1
  6841   0010B8  26D9               	addwf	fsr2l,f,c
  6842   0010BA  6ADF               	clrf	indf2,c
  6843   0010BC                     
  6844                           ; BSR set to: 0
  6845                           ;Helper_functions/helper_fn.c: 76:                 lcd_counter--;
  6846   0010BC  07F6               	decf	get_password@lcd_counter& (0+255),f,b
  6847   0010BE                     
  6848                           ; BSR set to: 0
  6849                           ;Helper_functions/helper_fn.c: 77:                 lcd_4bit_send_char_data_pos(&lcd1,3,l
      +                          cd_counter,' ');
  6850   0010BE  0E4D               	movlw	low _lcd1
  6851   0010C0  6FEE               	movwf	lcd_4bit_send_char_data_pos@lcd& (0+255),b
  6852   0010C2  0E03               	movlw	3
  6853   0010C4  6FEF               	movwf	lcd_4bit_send_char_data_pos@row& (0+255),b
  6854   0010C6  C0F6  F0F0         	movff	get_password@lcd_counter,lcd_4bit_send_char_data_pos@column
  6855   0010CA  0E20               	movlw	32
  6856   0010CC  6FF1               	movwf	lcd_4bit_send_char_data_pos@data& (0+255),b
  6857   0010CE  ECD2  F019         	call	_lcd_4bit_send_char_data_pos	;wreg free
  6858                           
  6859                           ;Helper_functions/helper_fn.c: 78:             }
  6860   0010D2  EFC2  F007         	goto	l7518
  6861   0010D6                     l7550:
  6862   0010D6  0E3D               	movlw	61
  6863   0010D8  1848               	xorwf	_keypad_value^0,w,c
  6864   0010DA  A4D8               	btfss	status,2,c
  6865   0010DC  EF72  F008         	goto	u6751
  6866   0010E0  EF74  F008         	goto	u6750
  6867   0010E4                     u6751:
  6868   0010E4  EFC8  F008         	goto	l7568
  6869   0010E8                     u6750:
  6870   0010E8                     
  6871                           ;Helper_functions/helper_fn.c: 80:                 if(counter <= 3){
  6872   0010E8  0E04               	movlw	4
  6873   0010EA  0100               	movlb	0	; () banked
  6874   0010EC  61F7               	cpfslt	get_password@counter& (0+255),b
  6875   0010EE  EF7B  F008         	goto	u6761
  6876   0010F2  EF7D  F008         	goto	u6760
  6877   0010F6                     u6761:
  6878   0010F6  EFB2  F008         	goto	l7560
  6879   0010FA                     u6760:
  6880   0010FA                     
  6881                           ; BSR set to: 0
  6882                           ;Helper_functions/helper_fn.c: 81:                      lcd_4bit_send_string_pos(&lcd1,4
      +                          ,1,"min 4 digits ");
  6883   0010FA  0E4D               	movlw	low _lcd1
  6884   0010FC  6FEE               	movwf	lcd_4bit_send_string_pos@lcd& (0+255),b
  6885   0010FE  0E04               	movlw	4
  6886   001100  6FEF               	movwf	lcd_4bit_send_string_pos@row& (0+255),b
  6887   001102  0E01               	movlw	1
  6888   001104  6FF0               	movwf	lcd_4bit_send_string_pos@column& (0+255),b
  6889   001106  0ECF               	movlw	low STR_15
  6890   001108  6FF1               	movwf	lcd_4bit_send_string_pos@str& (0+255),b
  6891   00110A  0EFF               	movlw	high STR_15
  6892   00110C  6FF2               	movwf	(lcd_4bit_send_string_pos@str+1)& (0+255),b
  6893   00110E  EC74  F014         	call	_lcd_4bit_send_string_pos	;wreg free
  6894   001112                     
  6895                           ;Helper_functions/helper_fn.c: 82:                     _delay((unsigned long)((300)*(800
      +                          0000ul/4000.0)));
  6896   001112  0E04               	movlw	4
  6897   001114  0100               	movlb	0	; () banked
  6898   001116  6FF5               	movwf	(??_get_password+1)& (0+255),b
  6899   001118  0E0C               	movlw	12
  6900   00111A  6FF4               	movwf	??_get_password& (0+255),b
  6901   00111C  0E33               	movlw	51
  6902   00111E                     u9617:
  6903   00111E  2EE8               	decfsz	wreg,f,c
  6904   001120  D7FE               	bra	u9617
  6905   001122  2FF4               	decfsz	??_get_password& (0+255),f,b
  6906   001124  D7FC               	bra	u9617
  6907   001126  2FF5               	decfsz	(??_get_password+1)& (0+255),f,b
  6908   001128  D7FA               	bra	u9617
  6909   00112A  D000               	nop2	
  6910   00112C                     
  6911                           ;Helper_functions/helper_fn.c: 83:                     lcd_4bit_send_string_pos(&lcd1,4,
      +                          1,"                     ");
  6912   00112C  0E4D               	movlw	low _lcd1
  6913   00112E  0100               	movlb	0	; () banked
  6914   001130  6FEE               	movwf	lcd_4bit_send_string_pos@lcd& (0+255),b
  6915   001132  0E04               	movlw	4
  6916   001134  6FEF               	movwf	lcd_4bit_send_string_pos@row& (0+255),b
  6917   001136  0E01               	movlw	1
  6918   001138  6FF0               	movwf	lcd_4bit_send_string_pos@column& (0+255),b
  6919   00113A  0EE9               	movlw	low STR_14
  6920   00113C  6FF1               	movwf	lcd_4bit_send_string_pos@str& (0+255),b
  6921   00113E  0EFE               	movlw	high STR_14
  6922   001140  6FF2               	movwf	(lcd_4bit_send_string_pos@str+1)& (0+255),b
  6923   001142  EC74  F014         	call	_lcd_4bit_send_string_pos	;wreg free
  6924                           
  6925                           ;Helper_functions/helper_fn.c: 84:                     _delay((unsigned long)((300)*(800
      +                          0000ul/4000.0)));
  6926   001146  0E04               	movlw	4
  6927   001148  0100               	movlb	0	; () banked
  6928   00114A  6FF5               	movwf	(??_get_password+1)& (0+255),b
  6929   00114C  0E0C               	movlw	12
  6930   00114E  6FF4               	movwf	??_get_password& (0+255),b
  6931   001150  0E33               	movlw	51
  6932   001152                     u9627:
  6933   001152  2EE8               	decfsz	wreg,f,c
  6934   001154  D7FE               	bra	u9627
  6935   001156  2FF4               	decfsz	??_get_password& (0+255),f,b
  6936   001158  D7FC               	bra	u9627
  6937   00115A  2FF5               	decfsz	(??_get_password+1)& (0+255),f,b
  6938   00115C  D7FA               	bra	u9627
  6939   00115E  D000               	nop2	
  6940                           
  6941                           ;Helper_functions/helper_fn.c: 85:                 }
  6942   001160  EFC2  F007         	goto	l7518
  6943   001164                     l7560:
  6944                           
  6945                           ; BSR set to: 0
  6946                           ;Helper_functions/helper_fn.c: 87:                    (pass_obj->pass_arr_num_digits) = 
      +                          counter;
  6947   001164  51F3               	movf	get_password@pass_obj& (0+255),w,b
  6948   001166  6ED9               	movwf	fsr2l,c
  6949   001168  6ADA               	clrf	fsr2h,c
  6950   00116A  C0F7  FFDF         	movff	get_password@counter,indf2
  6951   00116E                     
  6952                           ; BSR set to: 0
  6953                           ;Helper_functions/helper_fn.c: 88:                    lcd_4bit_send_command(&lcd1,0x01);
  6954   00116E  0E4D               	movlw	low _lcd1
  6955   001170  6FE5               	movwf	lcd_4bit_send_command@lcd& (0+255),b
  6956   001172  0E01               	movlw	1
  6957   001174  6FE6               	movwf	lcd_4bit_send_command@command& (0+255),b
  6958   001176  EC50  F017         	call	_lcd_4bit_send_command	;wreg free
  6959   00117A                     
  6960                           ;Helper_functions/helper_fn.c: 89:                     _delay((unsigned long)((20)*(8000
      +                          000ul/4000.0)));
  6961   00117A  0E34               	movlw	52
  6962   00117C  0100               	movlb	0	; () banked
  6963   00117E  6FF4               	movwf	??_get_password& (0+255),b
  6964   001180  0EF1               	movlw	241
  6965   001182                     u9637:
  6966   001182  2EE8               	decfsz	wreg,f,c
  6967   001184  D7FE               	bra	u9637
  6968   001186  2FF4               	decfsz	??_get_password& (0+255),f,b
  6969   001188  D7FC               	bra	u9637
  6970   00118A  D000               	nop2	
  6971   00118C  EF8E  F009         	goto	l423
  6972   001190                     l7568:
  6973   001190  0E2F               	movlw	47
  6974   001192  1848               	xorwf	_keypad_value^0,w,c
  6975   001194  B4D8               	btfsc	status,2,c
  6976   001196  EFCF  F008         	goto	u6771
  6977   00119A  EFD1  F008         	goto	u6770
  6978   00119E                     u6771:
  6979   00119E  EFEC  F008         	goto	l7576
  6980   0011A2                     u6770:
  6981   0011A2  0E2A               	movlw	42
  6982   0011A4  1848               	xorwf	_keypad_value^0,w,c
  6983   0011A6  B4D8               	btfsc	status,2,c
  6984   0011A8  EFD8  F008         	goto	u6781
  6985   0011AC  EFDA  F008         	goto	u6780
  6986   0011B0                     u6781:
  6987   0011B0  EFEC  F008         	goto	l7576
  6988   0011B4                     u6780:
  6989   0011B4  0E2B               	movlw	43
  6990   0011B6  1848               	xorwf	_keypad_value^0,w,c
  6991   0011B8  B4D8               	btfsc	status,2,c
  6992   0011BA  EFE1  F008         	goto	u6791
  6993   0011BE  EFE3  F008         	goto	u6790
  6994   0011C2                     u6791:
  6995   0011C2  EFEC  F008         	goto	l7576
  6996   0011C6                     u6790:
  6997   0011C6  0E2D               	movlw	45
  6998   0011C8  1848               	xorwf	_keypad_value^0,w,c
  6999   0011CA  A4D8               	btfss	status,2,c
  7000   0011CC  EFEA  F008         	goto	u6801
  7001   0011D0  EFEC  F008         	goto	u6800
  7002   0011D4                     u6801:
  7003   0011D4  EF22  F009         	goto	l7582
  7004   0011D8                     u6800:
  7005   0011D8                     l7576:
  7006                           
  7007                           ;Helper_functions/helper_fn.c: 94:                     lcd_4bit_send_string_pos(&lcd1,4,
      +                          1,"Unavailable process ");
  7008   0011D8  0E4D               	movlw	low _lcd1
  7009   0011DA  0100               	movlb	0	; () banked
  7010   0011DC  6FEE               	movwf	lcd_4bit_send_string_pos@lcd& (0+255),b
  7011   0011DE  0E04               	movlw	4
  7012   0011E0  6FEF               	movwf	lcd_4bit_send_string_pos@row& (0+255),b
  7013   0011E2  0E01               	movlw	1
  7014   0011E4  6FF0               	movwf	lcd_4bit_send_string_pos@column& (0+255),b
  7015   0011E6  0E40               	movlw	low STR_13
  7016   0011E8  6FF1               	movwf	lcd_4bit_send_string_pos@str& (0+255),b
  7017   0011EA  0EFF               	movlw	high STR_13
  7018   0011EC  6FF2               	movwf	(lcd_4bit_send_string_pos@str+1)& (0+255),b
  7019   0011EE  EC74  F014         	call	_lcd_4bit_send_string_pos	;wreg free
  7020   0011F2                     
  7021                           ;Helper_functions/helper_fn.c: 95:                      _delay((unsigned long)((300)*(80
      +                          00000ul/4000.0)));
  7022   0011F2  0E04               	movlw	4
  7023   0011F4  0100               	movlb	0	; () banked
  7024   0011F6  6FF5               	movwf	(??_get_password+1)& (0+255),b
  7025   0011F8  0E0C               	movlw	12
  7026   0011FA  6FF4               	movwf	??_get_password& (0+255),b
  7027   0011FC  0E33               	movlw	51
  7028   0011FE                     u9647:
  7029   0011FE  2EE8               	decfsz	wreg,f,c
  7030   001200  D7FE               	bra	u9647
  7031   001202  2FF4               	decfsz	??_get_password& (0+255),f,b
  7032   001204  D7FC               	bra	u9647
  7033   001206  2FF5               	decfsz	(??_get_password+1)& (0+255),f,b
  7034   001208  D7FA               	bra	u9647
  7035   00120A  D000               	nop2	
  7036   00120C                     
  7037                           ;Helper_functions/helper_fn.c: 96:                     lcd_4bit_send_string_pos(&lcd1,4,
      +                          1,"                     ");
  7038   00120C  0E4D               	movlw	low _lcd1
  7039   00120E  0100               	movlb	0	; () banked
  7040   001210  6FEE               	movwf	lcd_4bit_send_string_pos@lcd& (0+255),b
  7041   001212  0E04               	movlw	4
  7042   001214  6FEF               	movwf	lcd_4bit_send_string_pos@row& (0+255),b
  7043   001216  0E01               	movlw	1
  7044   001218  6FF0               	movwf	lcd_4bit_send_string_pos@column& (0+255),b
  7045   00121A  0EE9               	movlw	low STR_14
  7046   00121C  6FF1               	movwf	lcd_4bit_send_string_pos@str& (0+255),b
  7047   00121E  0EFE               	movlw	high STR_14
  7048   001220  6FF2               	movwf	(lcd_4bit_send_string_pos@str+1)& (0+255),b
  7049   001222  EC74  F014         	call	_lcd_4bit_send_string_pos	;wreg free
  7050                           
  7051                           ;Helper_functions/helper_fn.c: 97:                     _delay((unsigned long)((300)*(800
      +                          0000ul/4000.0)));
  7052   001226  0E04               	movlw	4
  7053   001228  0100               	movlb	0	; () banked
  7054   00122A  6FF5               	movwf	(??_get_password+1)& (0+255),b
  7055   00122C  0E0C               	movlw	12
  7056   00122E  6FF4               	movwf	??_get_password& (0+255),b
  7057   001230  0E33               	movlw	51
  7058   001232                     u9657:
  7059   001232  2EE8               	decfsz	wreg,f,c
  7060   001234  D7FE               	bra	u9657
  7061   001236  2FF4               	decfsz	??_get_password& (0+255),f,b
  7062   001238  D7FC               	bra	u9657
  7063   00123A  2FF5               	decfsz	(??_get_password+1)& (0+255),f,b
  7064   00123C  D7FA               	bra	u9657
  7065   00123E  D000               	nop2	
  7066                           
  7067                           ;Helper_functions/helper_fn.c: 98:                 }
  7068   001240  EFC2  F007         	goto	l7518
  7069   001244                     l7582:
  7070                           
  7071                           ;Helper_functions/helper_fn.c: 100:             if(counter < 8){
  7072   001244  0E08               	movlw	8
  7073   001246  0100               	movlb	0	; () banked
  7074   001248  61F7               	cpfslt	get_password@counter& (0+255),b
  7075   00124A  EF29  F009         	goto	u6811
  7076   00124E  EF2B  F009         	goto	u6810
  7077   001252                     u6811:
  7078   001252  EF59  F009         	goto	l7596
  7079   001256                     u6810:
  7080   001256                     
  7081                           ; BSR set to: 0
  7082                           ;Helper_functions/helper_fn.c: 101:                         (pass_obj->password[counter]
      +                          ) = keypad_value;
  7083   001256  51F3               	movf	get_password@pass_obj& (0+255),w,b
  7084   001258  25F7               	addwf	get_password@counter& (0+255),w,b
  7085   00125A  6ED9               	movwf	fsr2l,c
  7086   00125C  6ADA               	clrf	fsr2h,c
  7087   00125E  0E01               	movlw	1
  7088   001260  26D9               	addwf	fsr2l,f,c
  7089   001262  C048  FFDF         	movff	_keypad_value,indf2
  7090   001266                     
  7091                           ; BSR set to: 0
  7092                           ;Helper_functions/helper_fn.c: 102:                         lcd_4bit_send_char_data_pos(
      +                          &lcd1,3,lcd_counter,keypad_value);
  7093   001266  0E4D               	movlw	low _lcd1
  7094   001268  6FEE               	movwf	lcd_4bit_send_char_data_pos@lcd& (0+255),b
  7095   00126A  0E03               	movlw	3
  7096   00126C  6FEF               	movwf	lcd_4bit_send_char_data_pos@row& (0+255),b
  7097   00126E  C0F6  F0F0         	movff	get_password@lcd_counter,lcd_4bit_send_char_data_pos@column
  7098   001272  C048  F0F1         	movff	_keypad_value,lcd_4bit_send_char_data_pos@data
  7099   001276  ECD2  F019         	call	_lcd_4bit_send_char_data_pos	;wreg free
  7100   00127A                     
  7101                           ;Helper_functions/helper_fn.c: 103:                         _delay((unsigned long)((200)
      +                          *(8000000ul/4000.0)));
  7102   00127A  0E03               	movlw	3
  7103   00127C  0100               	movlb	0	; () banked
  7104   00127E  6FF5               	movwf	(??_get_password+1)& (0+255),b
  7105   001280  0E08               	movlw	8
  7106   001282  6FF4               	movwf	??_get_password& (0+255),b
  7107   001284  0E77               	movlw	119
  7108   001286                     u9667:
  7109   001286  2EE8               	decfsz	wreg,f,c
  7110   001288  D7FE               	bra	u9667
  7111   00128A  2FF4               	decfsz	??_get_password& (0+255),f,b
  7112   00128C  D7FC               	bra	u9667
  7113   00128E  2FF5               	decfsz	(??_get_password+1)& (0+255),f,b
  7114   001290  D7FA               	bra	u9667
  7115   001292                     
  7116                           ;Helper_functions/helper_fn.c: 104:                         lcd_4bit_send_char_data_pos(
      +                          &lcd1,3,lcd_counter,'*');
  7117   001292  0E4D               	movlw	low _lcd1
  7118   001294  0100               	movlb	0	; () banked
  7119   001296  6FEE               	movwf	lcd_4bit_send_char_data_pos@lcd& (0+255),b
  7120   001298  0E03               	movlw	3
  7121   00129A  6FEF               	movwf	lcd_4bit_send_char_data_pos@row& (0+255),b
  7122   00129C  C0F6  F0F0         	movff	get_password@lcd_counter,lcd_4bit_send_char_data_pos@column
  7123   0012A0  0E2A               	movlw	42
  7124   0012A2  6FF1               	movwf	lcd_4bit_send_char_data_pos@data& (0+255),b
  7125   0012A4  ECD2  F019         	call	_lcd_4bit_send_char_data_pos	;wreg free
  7126   0012A8                     
  7127                           ;Helper_functions/helper_fn.c: 105:                         counter++;
  7128   0012A8  0100               	movlb	0	; () banked
  7129   0012AA  2BF7               	incf	get_password@counter& (0+255),f,b
  7130   0012AC                     
  7131                           ; BSR set to: 0
  7132                           ;Helper_functions/helper_fn.c: 106:                         lcd_counter++;
  7133   0012AC  2BF6               	incf	get_password@lcd_counter& (0+255),f,b
  7134                           
  7135                           ;Helper_functions/helper_fn.c: 107:             }
  7136   0012AE  EFC2  F007         	goto	l7518
  7137   0012B2                     l7596:
  7138                           
  7139                           ; BSR set to: 0
  7140                           ;Helper_functions/helper_fn.c: 109:                 lcd_4bit_send_string_pos(&lcd1,4,1,"
      +                          max 8 digits ");
  7141   0012B2  0E4D               	movlw	low _lcd1
  7142   0012B4  6FEE               	movwf	lcd_4bit_send_string_pos@lcd& (0+255),b
  7143   0012B6  0E04               	movlw	4
  7144   0012B8  6FEF               	movwf	lcd_4bit_send_string_pos@row& (0+255),b
  7145   0012BA  0E01               	movlw	1
  7146   0012BC  6FF0               	movwf	lcd_4bit_send_string_pos@column& (0+255),b
  7147   0012BE  0EDD               	movlw	low STR_19
  7148   0012C0  6FF1               	movwf	lcd_4bit_send_string_pos@str& (0+255),b
  7149   0012C2  0EFF               	movlw	high STR_19
  7150   0012C4  6FF2               	movwf	(lcd_4bit_send_string_pos@str+1)& (0+255),b
  7151   0012C6  EC74  F014         	call	_lcd_4bit_send_string_pos	;wreg free
  7152   0012CA                     
  7153                           ;Helper_functions/helper_fn.c: 110:                  _delay((unsigned long)((300)*(80000
      +                          00ul/4000.0)));
  7154   0012CA  0E04               	movlw	4
  7155   0012CC  0100               	movlb	0	; () banked
  7156   0012CE  6FF5               	movwf	(??_get_password+1)& (0+255),b
  7157   0012D0  0E0C               	movlw	12
  7158   0012D2  6FF4               	movwf	??_get_password& (0+255),b
  7159   0012D4  0E33               	movlw	51
  7160   0012D6                     u9677:
  7161   0012D6  2EE8               	decfsz	wreg,f,c
  7162   0012D8  D7FE               	bra	u9677
  7163   0012DA  2FF4               	decfsz	??_get_password& (0+255),f,b
  7164   0012DC  D7FC               	bra	u9677
  7165   0012DE  2FF5               	decfsz	(??_get_password+1)& (0+255),f,b
  7166   0012E0  D7FA               	bra	u9677
  7167   0012E2  D000               	nop2	
  7168   0012E4                     
  7169                           ;Helper_functions/helper_fn.c: 111:                 lcd_4bit_send_string_pos(&lcd1,4,1,"
      +                                               ");
  7170   0012E4  0E4D               	movlw	low _lcd1
  7171   0012E6  0100               	movlb	0	; () banked
  7172   0012E8  6FEE               	movwf	lcd_4bit_send_string_pos@lcd& (0+255),b
  7173   0012EA  0E04               	movlw	4
  7174   0012EC  6FEF               	movwf	lcd_4bit_send_string_pos@row& (0+255),b
  7175   0012EE  0E01               	movlw	1
  7176   0012F0  6FF0               	movwf	lcd_4bit_send_string_pos@column& (0+255),b
  7177   0012F2  0EE9               	movlw	low STR_14
  7178   0012F4  6FF1               	movwf	lcd_4bit_send_string_pos@str& (0+255),b
  7179   0012F6  0EFE               	movlw	high STR_14
  7180   0012F8  6FF2               	movwf	(lcd_4bit_send_string_pos@str+1)& (0+255),b
  7181   0012FA  EC74  F014         	call	_lcd_4bit_send_string_pos	;wreg free
  7182                           
  7183                           ;Helper_functions/helper_fn.c: 112:                  _delay((unsigned long)((300)*(80000
      +                          00ul/4000.0)));
  7184   0012FE  0E04               	movlw	4
  7185   001300  0100               	movlb	0	; () banked
  7186   001302  6FF5               	movwf	(??_get_password+1)& (0+255),b
  7187   001304  0E0C               	movlw	12
  7188   001306  6FF4               	movwf	??_get_password& (0+255),b
  7189   001308  0E33               	movlw	51
  7190   00130A                     u9687:
  7191   00130A  2EE8               	decfsz	wreg,f,c
  7192   00130C  D7FE               	bra	u9687
  7193   00130E  2FF4               	decfsz	??_get_password& (0+255),f,b
  7194   001310  D7FC               	bra	u9687
  7195   001312  2FF5               	decfsz	(??_get_password+1)& (0+255),f,b
  7196   001314  D7FA               	bra	u9687
  7197   001316  D000               	nop2	
  7198   001318  EFC2  F007         	goto	l7518
  7199   00131C                     l423:
  7200   00131C  0012               	return		;funcret
  7201   00131E                     __end_of_get_password:
  7202                           	callstack 0
  7203                           
  7204 ;; *************** function _lcd_4bit_send_string_pos *****************
  7205 ;; Defined at:
  7206 ;;		line 172 in file "ECU_layer/chr_LCD/ecu_chr_LCD.c"
  7207 ;; Parameters:    Size  Location     Type
  7208 ;;  lcd             1   20[BANK0 ] PTR const struct .
  7209 ;;		 -> lcd1(6), 
  7210 ;;  row             1   21[BANK0 ] unsigned char 
  7211 ;;  column          1   22[BANK0 ] unsigned char 
  7212 ;;  str             2   23[BANK0 ] PTR unsigned char 
  7213 ;;		 -> STR_69(22), STR_68(21), STR_67(19), STR_66(18), 
  7214 ;;		 -> STR_65(22), STR_64(21), STR_63(20), STR_62(22), 
  7215 ;;		 -> STR_61(14), STR_60(22), STR_59(21), STR_58(22), 
  7216 ;;		 -> STR_57(16), STR_56(22), STR_55(14), STR_54(22), 
  7217 ;;		 -> STR_53(21), STR_52(2), STR_51(17), STR_50(22), 
  7218 ;;		 -> STR_49(14), STR_48(22), STR_47(21), STR_46(4), 
  7219 ;;		 -> STR_45(22), STR_44(3), entering_password@str(4), STR_43(16), 
  7220 ;;		 -> STR_42(22), STR_41(17), STR_40(22), STR_39(14), 
  7221 ;;		 -> STR_38(22), STR_37(21), STR_36(2), STR_35(21), 
  7222 ;;		 -> STR_34(22), STR_33(14), STR_32(22), STR_31(21), 
  7223 ;;		 -> STR_30(22), STR_29(16), STR_28(22), STR_27(15), 
  7224 ;;		 -> STR_26(22), STR_25(14), STR_24(22), STR_23(21), 
  7225 ;;		 -> STR_22(2), STR_21(22), STR_20(22), STR_19(14), 
  7226 ;;		 -> STR_18(22), STR_17(21), STR_16(22), STR_15(14), 
  7227 ;;		 -> STR_14(22), STR_13(21), STR_12(2), STR_11(14), 
  7228 ;;		 -> STR_10(8), STR_9(2), STR_8(2), STR_7(2), 
  7229 ;;		 -> STR_6(2), STR_5(2), STR_4(22), 
  7230 ;; Auto vars:     Size  Location     Type
  7231 ;;  ret             1    0        unsigned char 
  7232 ;; Return value:  Size  Location     Type
  7233 ;;                  1    wreg      unsigned char 
  7234 ;; Registers used:
  7235 ;;		wreg, fsr0l, fsr0h, fsr2l, fsr2h, status,2, status,0, tblptrl, tblptrh, tblptru, prodl, prodh, cstack
  7236 ;; Tracked objects:
  7237 ;;		On entry : 0/0
  7238 ;;		On exit  : 0/0
  7239 ;;		Unchanged: 0/0
  7240 ;; Data sizes:     COMRAM   BANK0   BANK1   BANK2   BANK3   BANK4   BANK5   BANK6   BANK7   BANK8   BANK9  BANK10  BANK1
      +1  BANK12  BANK13  BANK14  BANK15
  7241 ;;      Params:         0       5       0       0       0       0       0       0       0       0       0       0       
      +0       0       0       0       0
  7242 ;;      Locals:         0       0       0       0       0       0       0       0       0       0       0       0       
      +0       0       0       0       0
  7243 ;;      Temps:          0       0       0       0       0       0       0       0       0       0       0       0       
      +0       0       0       0       0
  7244 ;;      Totals:         0       5       0       0       0       0       0       0       0       0       0       0       
      +0       0       0       0       0
  7245 ;;Total ram usage:        5 bytes
  7246 ;; Hardware stack levels used: 1
  7247 ;; Hardware stack levels required when called: 12
  7248 ;; This function calls:
  7249 ;;		_lcd_4bit_send_char_data
  7250 ;;		_lcd_4bit_set_curser
  7251 ;; This function is called by:
  7252 ;;		_welcome_msg
  7253 ;;		_get_password
  7254 ;;		_password_confirmation
  7255 ;;		_entering_password
  7256 ;;		_change_password
  7257 ;;		_main
  7258 ;; This function uses a non-reentrant model
  7259 ;;
  7260                           
  7261                           	psect	text23
  7262   0028E8                     __ptext23:
  7263                           	callstack 0
  7264   0028E8                     _lcd_4bit_send_string_pos:
  7265                           	callstack 17
  7266   0028E8                     
  7267                           ;ECU_layer/chr_LCD/ecu_chr_LCD.c: 174:     if(((void*)0) == lcd)
  7268   0028E8  0100               	movlb	0	; () banked
  7269   0028EA  51EE               	movf	lcd_4bit_send_string_pos@lcd& (0+255),w,b
  7270   0028EC  A4D8               	btfss	status,2,c
  7271   0028EE  EF7B  F014         	goto	u6381
  7272   0028F2  EF7D  F014         	goto	u6380
  7273   0028F6                     u6381:
  7274   0028F6  EF7F  F014         	goto	l7214
  7275   0028FA                     u6380:
  7276   0028FA                     
  7277                           ; BSR set to: 0
  7278                           ;ECU_layer/chr_LCD/ecu_chr_LCD.c: 177:     }
  7279   0028FA  EFBC  F014         	goto	l101
  7280   0028FE                     l7214:
  7281                           
  7282                           ; BSR set to: 0
  7283   0028FE  C0EE  F0E8         	movff	lcd_4bit_send_string_pos@lcd,lcd_4bit_set_curser@lcd
  7284   002902  C0EF  F0E9         	movff	lcd_4bit_send_string_pos@row,lcd_4bit_set_curser@row
  7285   002906  C0F0  F0EA         	movff	lcd_4bit_send_string_pos@column,lcd_4bit_set_curser@column
  7286   00290A  EC37  F013         	call	_lcd_4bit_set_curser	;wreg free
  7287                           
  7288                           ;ECU_layer/chr_LCD/ecu_chr_LCD.c: 181:         while(*str)
  7289   00290E  EFA3  F014         	goto	l7220
  7290   002912                     l7216:
  7291   002912  C0EE  F0E5         	movff	lcd_4bit_send_string_pos@lcd,lcd_4bit_send_char_data@lcd
  7292   002916  C0F1  FFF6         	movff	lcd_4bit_send_string_pos@str,tblptrl
  7293   00291A  C0F2  FFF7         	movff	lcd_4bit_send_string_pos@str+1,tblptrh
  7294   00291E  0E00               	movlw	low (__mediumconst shr (0+16))
  7295   002920  6EF8               	movwf	tblptru,c
  7296   002922  0E0F               	movlw	(high __ramtop+-1)
  7297   002924  64F7               	cpfsgt	tblptrh,c
  7298   002926  D003               	bra	u6397
  7299   002928  0008               	tblrd		*
  7300   00292A  50F5               	movf	tablat,w,c
  7301   00292C  D005               	bra	u6390
  7302   00292E                     u6397:
  7303   00292E  CFF6 FFE9          	movff	tblptrl,fsr0l
  7304   002932  CFF7 FFEA          	movff	tblptrh,fsr0h
  7305   002936  50EF               	movf	indf0,w,c
  7306   002938                     u6390:
  7307   002938  0100               	movlb	0	; () banked
  7308   00293A  6FE6               	movwf	lcd_4bit_send_char_data@data& (0+255),b
  7309   00293C  EC1C  F017         	call	_lcd_4bit_send_char_data	;wreg free
  7310   002940  0100               	movlb	0	; () banked
  7311   002942  4BF1               	infsnz	lcd_4bit_send_string_pos@str& (0+255),f,b
  7312   002944  2BF2               	incf	(lcd_4bit_send_string_pos@str+1)& (0+255),f,b
  7313   002946                     l7220:
  7314                           
  7315                           ;ECU_layer/chr_LCD/ecu_chr_LCD.c: 181:         while(*str)
  7316   002946  C0F1  FFF6         	movff	lcd_4bit_send_string_pos@str,tblptrl
  7317   00294A  C0F2  FFF7         	movff	lcd_4bit_send_string_pos@str+1,tblptrh
  7318   00294E  0E00               	movlw	low (__mediumconst shr (0+16))
  7319   002950  6EF8               	movwf	tblptru,c
  7320   002952  0E0F               	movlw	(high __ramtop+-1)
  7321   002954  64F7               	cpfsgt	tblptrh,c
  7322   002956  D003               	bra	u6407
  7323   002958  0008               	tblrd		*
  7324   00295A  50F5               	movf	tablat,w,c
  7325   00295C  D005               	bra	u6400
  7326   00295E                     u6407:
  7327   00295E  CFF6 FFE9          	movff	tblptrl,fsr0l
  7328   002962  CFF7 FFEA          	movff	tblptrh,fsr0h
  7329   002966  50EF               	movf	indf0,w,c
  7330   002968                     u6400:
  7331   002968  0900               	iorlw	0
  7332   00296A  A4D8               	btfss	status,2,c
  7333   00296C  EFBA  F014         	goto	u6411
  7334   002970  EFBC  F014         	goto	u6410
  7335   002974                     u6411:
  7336   002974  EF89  F014         	goto	l7216
  7337   002978                     u6410:
  7338   002978                     l101:
  7339   002978  0012               	return		;funcret
  7340   00297A                     __end_of_lcd_4bit_send_string_pos:
  7341                           	callstack 0
  7342                           
  7343 ;; *************** function _lcd_4bit_send_char_data_pos *****************
  7344 ;; Defined at:
  7345 ;;		line 125 in file "ECU_layer/chr_LCD/ecu_chr_LCD.c"
  7346 ;; Parameters:    Size  Location     Type
  7347 ;;  lcd             1   20[BANK0 ] PTR const struct .
  7348 ;;		 -> lcd1(6), 
  7349 ;;  row             1   21[BANK0 ] unsigned char 
  7350 ;;  column          1   22[BANK0 ] unsigned char 
  7351 ;;  data            1   23[BANK0 ] unsigned char 
  7352 ;; Auto vars:     Size  Location     Type
  7353 ;;  ret             1   24[BANK0 ] unsigned char 
  7354 ;; Return value:  Size  Location     Type
  7355 ;;                  1    wreg      unsigned char 
  7356 ;; Registers used:
  7357 ;;		wreg, fsr2l, fsr2h, status,2, status,0, prodl, prodh, cstack
  7358 ;; Tracked objects:
  7359 ;;		On entry : 0/0
  7360 ;;		On exit  : 0/0
  7361 ;;		Unchanged: 0/0
  7362 ;; Data sizes:     COMRAM   BANK0   BANK1   BANK2   BANK3   BANK4   BANK5   BANK6   BANK7   BANK8   BANK9  BANK10  BANK1
      +1  BANK12  BANK13  BANK14  BANK15
  7363 ;;      Params:         0       4       0       0       0       0       0       0       0       0       0       0       
      +0       0       0       0       0
  7364 ;;      Locals:         0       1       0       0       0       0       0       0       0       0       0       0       
      +0       0       0       0       0
  7365 ;;      Temps:          0       0       0       0       0       0       0       0       0       0       0       0       
      +0       0       0       0       0
  7366 ;;      Totals:         0       5       0       0       0       0       0       0       0       0       0       0       
      +0       0       0       0       0
  7367 ;;Total ram usage:        5 bytes
  7368 ;; Hardware stack levels used: 1
  7369 ;; Hardware stack levels required when called: 12
  7370 ;; This function calls:
  7371 ;;		_lcd_4bit_send_char_data
  7372 ;;		_lcd_4bit_set_curser
  7373 ;; This function is called by:
  7374 ;;		_get_password
  7375 ;;		_password_confirmation
  7376 ;;		_entering_password
  7377 ;;		_change_password
  7378 ;;		_lcd_4bit_send_custome_char
  7379 ;; This function uses a non-reentrant model
  7380 ;;
  7381                           
  7382                           	psect	text24
  7383   0033A4                     __ptext24:
  7384                           	callstack 0
  7385   0033A4                     _lcd_4bit_send_char_data_pos:
  7386                           	callstack 17
  7387   0033A4                     
  7388                           ;ECU_layer/chr_LCD/ecu_chr_LCD.c: 127:     if(((void*)0) == lcd)
  7389   0033A4  0100               	movlb	0	; () banked
  7390   0033A6  51EE               	movf	lcd_4bit_send_char_data_pos@lcd& (0+255),w,b
  7391   0033A8  A4D8               	btfss	status,2,c
  7392   0033AA  EFD9  F019         	goto	u6371
  7393   0033AE  EFDB  F019         	goto	u6370
  7394   0033B2                     u6371:
  7395   0033B2  EFDF  F019         	goto	l7204
  7396   0033B6                     u6370:
  7397   0033B6                     
  7398                           ; BSR set to: 0
  7399                           ;ECU_layer/chr_LCD/ecu_chr_LCD.c: 128:     {;ECU_layer/chr_LCD/ecu_chr_LCD.c: 129:      
      +                             ret = (STD_ReturnType)0x00;
  7400   0033B6  0E00               	movlw	0
  7401   0033B8  6FF2               	movwf	lcd_4bit_send_char_data_pos@ret& (0+255),b
  7402                           
  7403                           ;ECU_layer/chr_LCD/ecu_chr_LCD.c: 130:     }
  7404   0033BA  EFF1  F019         	goto	l7206
  7405   0033BE                     l7204:
  7406                           
  7407                           ; BSR set to: 0
  7408                           ;ECU_layer/chr_LCD/ecu_chr_LCD.c: 132:     {;ECU_layer/chr_LCD/ecu_chr_LCD.c: 133:      
      +                             ret = lcd_4bit_set_curser(lcd,row,column);
  7409   0033BE  C0EE  F0E8         	movff	lcd_4bit_send_char_data_pos@lcd,lcd_4bit_set_curser@lcd
  7410   0033C2  C0EF  F0E9         	movff	lcd_4bit_send_char_data_pos@row,lcd_4bit_set_curser@row
  7411   0033C6  C0F0  F0EA         	movff	lcd_4bit_send_char_data_pos@column,lcd_4bit_set_curser@column
  7412   0033CA  EC37  F013         	call	_lcd_4bit_set_curser	;wreg free
  7413   0033CE  0100               	movlb	0	; () banked
  7414   0033D0  6FF2               	movwf	lcd_4bit_send_char_data_pos@ret& (0+255),b
  7415                           
  7416                           ;ECU_layer/chr_LCD/ecu_chr_LCD.c: 134:         ret = lcd_4bit_send_char_data(lcd,data);
  7417   0033D2  C0EE  F0E5         	movff	lcd_4bit_send_char_data_pos@lcd,lcd_4bit_send_char_data@lcd
  7418   0033D6  C0F1  F0E6         	movff	lcd_4bit_send_char_data_pos@data,lcd_4bit_send_char_data@data
  7419   0033DA  EC1C  F017         	call	_lcd_4bit_send_char_data	;wreg free
  7420   0033DE  0100               	movlb	0	; () banked
  7421   0033E0  6FF2               	movwf	lcd_4bit_send_char_data_pos@ret& (0+255),b
  7422   0033E2                     l7206:
  7423                           
  7424                           ; BSR set to: 0
  7425                           ;ECU_layer/chr_LCD/ecu_chr_LCD.c: 136:      return ret;
  7426   0033E2  51F2               	movf	lcd_4bit_send_char_data_pos@ret& (0+255),w,b
  7427   0033E4                     
  7428                           ; BSR set to: 0
  7429   0033E4  0012               	return		;funcret
  7430   0033E6                     __end_of_lcd_4bit_send_char_data_pos:
  7431                           	callstack 0
  7432                           
  7433 ;; *************** function _lcd_4bit_set_curser *****************
  7434 ;; Defined at:
  7435 ;;		line 568 in file "ECU_layer/chr_LCD/ecu_chr_LCD.c"
  7436 ;; Parameters:    Size  Location     Type
  7437 ;;  lcd             1   14[BANK0 ] PTR const struct .
  7438 ;;		 -> lcd1(6), 
  7439 ;;  row             1   15[BANK0 ] unsigned char 
  7440 ;;  column          1   16[BANK0 ] unsigned char 
  7441 ;; Auto vars:     Size  Location     Type
  7442 ;;  ret             1   19[BANK0 ] unsigned char 
  7443 ;; Return value:  Size  Location     Type
  7444 ;;                  1    wreg      unsigned char 
  7445 ;; Registers used:
  7446 ;;		wreg, fsr2l, fsr2h, status,2, status,0, prodl, prodh, cstack
  7447 ;; Tracked objects:
  7448 ;;		On entry : 0/0
  7449 ;;		On exit  : 0/0
  7450 ;;		Unchanged: 0/0
  7451 ;; Data sizes:     COMRAM   BANK0   BANK1   BANK2   BANK3   BANK4   BANK5   BANK6   BANK7   BANK8   BANK9  BANK10  BANK1
      +1  BANK12  BANK13  BANK14  BANK15
  7452 ;;      Params:         0       3       0       0       0       0       0       0       0       0       0       0       
      +0       0       0       0       0
  7453 ;;      Locals:         0       1       0       0       0       0       0       0       0       0       0       0       
      +0       0       0       0       0
  7454 ;;      Temps:          0       2       0       0       0       0       0       0       0       0       0       0       
      +0       0       0       0       0
  7455 ;;      Totals:         0       6       0       0       0       0       0       0       0       0       0       0       
      +0       0       0       0       0
  7456 ;;Total ram usage:        6 bytes
  7457 ;; Hardware stack levels used: 1
  7458 ;; Hardware stack levels required when called: 11
  7459 ;; This function calls:
  7460 ;;		_lcd_4bit_send_command
  7461 ;; This function is called by:
  7462 ;;		_lcd_4bit_send_char_data_pos
  7463 ;;		_lcd_4bit_send_string_pos
  7464 ;; This function uses a non-reentrant model
  7465 ;;
  7466                           
  7467                           	psect	text25
  7468   00266E                     __ptext25:
  7469                           	callstack 0
  7470   00266E                     _lcd_4bit_set_curser:
  7471                           	callstack 17
  7472   00266E                     
  7473                           ;ECU_layer/chr_LCD/ecu_chr_LCD.c: 569: STD_ReturnType ret = (STD_ReturnType)0x01;
  7474   00266E  0E01               	movlw	1
  7475   002670  0100               	movlb	0	; () banked
  7476   002672  6FED               	movwf	lcd_4bit_set_curser@ret& (0+255),b
  7477   002674                     
  7478                           ; BSR set to: 0
  7479                           ;ECU_layer/chr_LCD/ecu_chr_LCD.c: 570: column--;
  7480   002674  07EA               	decf	lcd_4bit_set_curser@column& (0+255),f,b
  7481                           
  7482                           ;ECU_layer/chr_LCD/ecu_chr_LCD.c: 571: switch(row){
  7483   002676  EF69  F013         	goto	l6956
  7484   00267A                     l6948:
  7485                           
  7486                           ; BSR set to: 0
  7487   00267A  C0E8  F0E5         	movff	lcd_4bit_set_curser@lcd,lcd_4bit_send_command@lcd
  7488   00267E  51EA               	movf	lcd_4bit_set_curser@column& (0+255),w,b
  7489   002680  0F80               	addlw	128
  7490   002682  6FE6               	movwf	lcd_4bit_send_command@command& (0+255),b
  7491   002684  EC50  F017         	call	_lcd_4bit_send_command	;wreg free
  7492   002688  0100               	movlb	0	; () banked
  7493   00268A  6FED               	movwf	lcd_4bit_set_curser@ret& (0+255),b
  7494   00268C  EF86  F013         	goto	l6958
  7495   002690                     l6950:
  7496                           
  7497                           ; BSR set to: 0
  7498   002690  C0E8  F0E5         	movff	lcd_4bit_set_curser@lcd,lcd_4bit_send_command@lcd
  7499   002694  51EA               	movf	lcd_4bit_set_curser@column& (0+255),w,b
  7500   002696  0FC0               	addlw	192
  7501   002698  6FE6               	movwf	lcd_4bit_send_command@command& (0+255),b
  7502   00269A  EC50  F017         	call	_lcd_4bit_send_command	;wreg free
  7503   00269E  0100               	movlb	0	; () banked
  7504   0026A0  6FED               	movwf	lcd_4bit_set_curser@ret& (0+255),b
  7505   0026A2  EF86  F013         	goto	l6958
  7506   0026A6                     l6952:
  7507                           
  7508                           ; BSR set to: 0
  7509   0026A6  C0E8  F0E5         	movff	lcd_4bit_set_curser@lcd,lcd_4bit_send_command@lcd
  7510   0026AA  51EA               	movf	lcd_4bit_set_curser@column& (0+255),w,b
  7511   0026AC  0F94               	addlw	148
  7512   0026AE  6FE6               	movwf	lcd_4bit_send_command@command& (0+255),b
  7513   0026B0  EC50  F017         	call	_lcd_4bit_send_command	;wreg free
  7514   0026B4  0100               	movlb	0	; () banked
  7515   0026B6  6FED               	movwf	lcd_4bit_set_curser@ret& (0+255),b
  7516   0026B8  EF86  F013         	goto	l6958
  7517   0026BC                     l6954:
  7518                           
  7519                           ; BSR set to: 0
  7520   0026BC  C0E8  F0E5         	movff	lcd_4bit_set_curser@lcd,lcd_4bit_send_command@lcd
  7521   0026C0  51EA               	movf	lcd_4bit_set_curser@column& (0+255),w,b
  7522   0026C2  0FD4               	addlw	212
  7523   0026C4  6FE6               	movwf	lcd_4bit_send_command@command& (0+255),b
  7524   0026C6  EC50  F017         	call	_lcd_4bit_send_command	;wreg free
  7525   0026CA  0100               	movlb	0	; () banked
  7526   0026CC  6FED               	movwf	lcd_4bit_set_curser@ret& (0+255),b
  7527   0026CE  EF86  F013         	goto	l6958
  7528   0026D2                     l6956:
  7529                           
  7530                           ; BSR set to: 0
  7531   0026D2  51E9               	movf	lcd_4bit_set_curser@row& (0+255),w,b
  7532   0026D4  6FEB               	movwf	??_lcd_4bit_set_curser& (0+255),b
  7533   0026D6  6BEC               	clrf	(??_lcd_4bit_set_curser+1)& (0+255),b
  7534                           
  7535                           ; Switch on 2 bytes has been partitioned into a top level switch of size 1, and 1 sub-sw
      +                          itches
  7536                           ; Switch size 1, requested type "simple"
  7537                           ; Number of cases is 1, Range of values is 0 to 0
  7538                           ; switch strategies available:
  7539                           ; Name         Instructions Cycles
  7540                           ; simple_byte            4     3 (average)
  7541                           ;	Chosen strategy is simple_byte
  7542   0026D8  51EC               	movf	(??_lcd_4bit_set_curser+1)& (0+255),w,b
  7543   0026DA  0A00               	xorlw	0	; case 0
  7544   0026DC  B4D8               	btfsc	status,2,c
  7545   0026DE  EF73  F013         	goto	l9694
  7546   0026E2  EF86  F013         	goto	l6958
  7547   0026E6                     l9694:
  7548                           
  7549                           ; BSR set to: 0
  7550                           ; Switch size 1, requested type "simple"
  7551                           ; Number of cases is 4, Range of values is 1 to 4
  7552                           ; switch strategies available:
  7553                           ; Name         Instructions Cycles
  7554                           ; simple_byte           13     7 (average)
  7555                           ;	Chosen strategy is simple_byte
  7556   0026E6  51EB               	movf	??_lcd_4bit_set_curser& (0+255),w,b
  7557   0026E8  0A01               	xorlw	1	; case 1
  7558   0026EA  B4D8               	btfsc	status,2,c
  7559   0026EC  EF3D  F013         	goto	l6948
  7560   0026F0  0A03               	xorlw	3	; case 2
  7561   0026F2  B4D8               	btfsc	status,2,c
  7562   0026F4  EF48  F013         	goto	l6950
  7563   0026F8  0A01               	xorlw	1	; case 3
  7564   0026FA  B4D8               	btfsc	status,2,c
  7565   0026FC  EF53  F013         	goto	l6952
  7566   002700  0A07               	xorlw	7	; case 4
  7567   002702  B4D8               	btfsc	status,2,c
  7568   002704  EF5E  F013         	goto	l6954
  7569   002708  EF86  F013         	goto	l6958
  7570   00270C                     l6958:
  7571                           
  7572                           ; BSR set to: 0
  7573                           ;ECU_layer/chr_LCD/ecu_chr_LCD.c: 583: return ret;
  7574   00270C  51ED               	movf	lcd_4bit_set_curser@ret& (0+255),w,b
  7575   00270E                     
  7576                           ; BSR set to: 0
  7577   00270E  0012               	return		;funcret
  7578   002710                     __end_of_lcd_4bit_set_curser:
  7579                           	callstack 0
  7580                           
  7581 ;; *************** function _lcd_4bit_send_char_data *****************
  7582 ;; Defined at:
  7583 ;;		line 94 in file "ECU_layer/chr_LCD/ecu_chr_LCD.c"
  7584 ;; Parameters:    Size  Location     Type
  7585 ;;  lcd             1   11[BANK0 ] PTR const struct .
  7586 ;;		 -> lcd1(6), 
  7587 ;;  data            1   12[BANK0 ] unsigned char 
  7588 ;; Auto vars:     Size  Location     Type
  7589 ;;  ret             1   13[BANK0 ] unsigned char 
  7590 ;; Return value:  Size  Location     Type
  7591 ;;                  1    wreg      unsigned char 
  7592 ;; Registers used:
  7593 ;;		wreg, fsr2l, fsr2h, status,2, status,0, prodl, prodh, cstack
  7594 ;; Tracked objects:
  7595 ;;		On entry : 0/0
  7596 ;;		On exit  : 0/0
  7597 ;;		Unchanged: 0/0
  7598 ;; Data sizes:     COMRAM   BANK0   BANK1   BANK2   BANK3   BANK4   BANK5   BANK6   BANK7   BANK8   BANK9  BANK10  BANK1
      +1  BANK12  BANK13  BANK14  BANK15
  7599 ;;      Params:         0       2       0       0       0       0       0       0       0       0       0       0       
      +0       0       0       0       0
  7600 ;;      Locals:         0       1       0       0       0       0       0       0       0       0       0       0       
      +0       0       0       0       0
  7601 ;;      Temps:          0       0       0       0       0       0       0       0       0       0       0       0       
      +0       0       0       0       0
  7602 ;;      Totals:         0       3       0       0       0       0       0       0       0       0       0       0       
      +0       0       0       0       0
  7603 ;;Total ram usage:        3 bytes
  7604 ;; Hardware stack levels used: 1
  7605 ;; Hardware stack levels required when called: 10
  7606 ;; This function calls:
  7607 ;;		_gpio_pin_write_logic
  7608 ;;		_lcd_4bit_send_enable_enable
  7609 ;;		_lcd_send_4bit
  7610 ;; This function is called by:
  7611 ;;		_lcd_4bit_send_char_data_pos
  7612 ;;		_lcd_4bit_send_string_pos
  7613 ;;		_lcd_4bit_send_string
  7614 ;;		_lcd_4bit_send_custome_char
  7615 ;; This function uses a non-reentrant model
  7616 ;;
  7617                           
  7618                           	psect	text26
  7619   002E38                     __ptext26:
  7620                           	callstack 0
  7621   002E38                     _lcd_4bit_send_char_data:
  7622                           	callstack 18
  7623   002E38                     
  7624                           ;ECU_layer/chr_LCD/ecu_chr_LCD.c: 97:     if(((void*)0) == lcd)
  7625   002E38  0100               	movlb	0	; () banked
  7626   002E3A  51E5               	movf	lcd_4bit_send_char_data@lcd& (0+255),w,b
  7627   002E3C  A4D8               	btfss	status,2,c
  7628   002E3E  EF23  F017         	goto	u6181
  7629   002E42  EF25  F017         	goto	u6180
  7630   002E46                     u6181:
  7631   002E46  EF29  F017         	goto	l6938
  7632   002E4A                     u6180:
  7633   002E4A                     
  7634                           ; BSR set to: 0
  7635                           ;ECU_layer/chr_LCD/ecu_chr_LCD.c: 98:     {;ECU_layer/chr_LCD/ecu_chr_LCD.c: 99:        
      +                           ret = (STD_ReturnType)0x00;
  7636   002E4A  0E00               	movlw	0
  7637   002E4C  6FE7               	movwf	lcd_4bit_send_char_data@ret& (0+255),b
  7638                           
  7639                           ;ECU_layer/chr_LCD/ecu_chr_LCD.c: 100:     }
  7640   002E4E  EF4E  F017         	goto	l6940
  7641   002E52                     l6938:
  7642                           
  7643                           ; BSR set to: 0
  7644                           ;ECU_layer/chr_LCD/ecu_chr_LCD.c: 102:     {;ECU_layer/chr_LCD/ecu_chr_LCD.c: 104:      
      +                             ret = gpio_pin_write_logic(&(lcd->rs),HIGH);
  7645   002E52  C0E5  F0DA         	movff	lcd_4bit_send_char_data@lcd,gpio_pin_write_logic@_pin_config
  7646   002E56  0E01               	movlw	1
  7647   002E58  6FDB               	movwf	gpio_pin_write_logic@logic& (0+255),b
  7648   002E5A  EC8F  F00F         	call	_gpio_pin_write_logic	;wreg free
  7649   002E5E  0100               	movlb	0	; () banked
  7650   002E60  6FE7               	movwf	lcd_4bit_send_char_data@ret& (0+255),b
  7651                           
  7652                           ;ECU_layer/chr_LCD/ecu_chr_LCD.c: 105:         ret = lcd_send_4bit(lcd,data >>4);
  7653   002E62  C0E5  F0E2         	movff	lcd_4bit_send_char_data@lcd,lcd_send_4bit@lcd
  7654   002E66  39E6               	swapf	lcd_4bit_send_char_data@data& (0+255),w,b
  7655   002E68  0B0F               	andlw	15
  7656   002E6A  6FE3               	movwf	lcd_send_4bit@command_data& (0+255),b
  7657   002E6C  EC71  F018         	call	_lcd_send_4bit	;wreg free
  7658   002E70  0100               	movlb	0	; () banked
  7659   002E72  6FE7               	movwf	lcd_4bit_send_char_data@ret& (0+255),b
  7660                           
  7661                           ;ECU_layer/chr_LCD/ecu_chr_LCD.c: 106:         ret = lcd_4bit_send_enable_enable(lcd);
  7662   002E74  C0E5  F0E2         	movff	lcd_4bit_send_char_data@lcd,lcd_4bit_send_enable_enable@lcd
  7663   002E78  ECED  F01A         	call	_lcd_4bit_send_enable_enable	;wreg free
  7664   002E7C  0100               	movlb	0	; () banked
  7665   002E7E  6FE7               	movwf	lcd_4bit_send_char_data@ret& (0+255),b
  7666                           
  7667                           ;ECU_layer/chr_LCD/ecu_chr_LCD.c: 107:         ret = lcd_send_4bit(lcd,data);
  7668   002E80  C0E5  F0E2         	movff	lcd_4bit_send_char_data@lcd,lcd_send_4bit@lcd
  7669   002E84  C0E6  F0E3         	movff	lcd_4bit_send_char_data@data,lcd_send_4bit@command_data
  7670   002E88  EC71  F018         	call	_lcd_send_4bit	;wreg free
  7671   002E8C  0100               	movlb	0	; () banked
  7672   002E8E  6FE7               	movwf	lcd_4bit_send_char_data@ret& (0+255),b
  7673                           
  7674                           ;ECU_layer/chr_LCD/ecu_chr_LCD.c: 108:         ret = lcd_4bit_send_enable_enable(lcd);
  7675   002E90  C0E5  F0E2         	movff	lcd_4bit_send_char_data@lcd,lcd_4bit_send_enable_enable@lcd
  7676   002E94  ECED  F01A         	call	_lcd_4bit_send_enable_enable	;wreg free
  7677   002E98  0100               	movlb	0	; () banked
  7678   002E9A  6FE7               	movwf	lcd_4bit_send_char_data@ret& (0+255),b
  7679   002E9C                     l6940:
  7680                           
  7681                           ; BSR set to: 0
  7682                           ;ECU_layer/chr_LCD/ecu_chr_LCD.c: 113:      return ret;
  7683   002E9C  51E7               	movf	lcd_4bit_send_char_data@ret& (0+255),w,b
  7684   002E9E                     
  7685                           ; BSR set to: 0
  7686   002E9E  0012               	return		;funcret
  7687   002EA0                     __end_of_lcd_4bit_send_char_data:
  7688                           	callstack 0
  7689                           
  7690 ;; *************** function _ecu_keypad_get_value *****************
  7691 ;; Defined at:
  7692 ;;		line 56 in file "ECU_layer/Keypad/ecu_keypad.c"
  7693 ;; Parameters:    Size  Location     Type
  7694 ;;  keypad          1    8[BANK0 ] PTR const struct .
  7695 ;;		 -> keypad(8), 
  7696 ;;  value           1    9[BANK0 ] PTR unsigned char 
  7697 ;;		 -> keypad_value(1), 
  7698 ;; Auto vars:     Size  Location     Type
  7699 ;;  columns         1   15[BANK0 ] unsigned char 
  7700 ;;  rows            1   14[BANK0 ] unsigned char 
  7701 ;;  clear_rows_c    1   13[BANK0 ] unsigned char 
  7702 ;;  column_val      1   12[BANK0 ] unsigned char 
  7703 ;;  ret             1    0        unsigned char 
  7704 ;; Return value:  Size  Location     Type
  7705 ;;                  1    wreg      unsigned char 
  7706 ;; Registers used:
  7707 ;;		wreg, fsr1l, fsr1h, fsr2l, fsr2h, status,2, status,0, prodl, prodh, cstack
  7708 ;; Tracked objects:
  7709 ;;		On entry : 0/0
  7710 ;;		On exit  : 0/0
  7711 ;;		Unchanged: 0/0
  7712 ;; Data sizes:     COMRAM   BANK0   BANK1   BANK2   BANK3   BANK4   BANK5   BANK6   BANK7   BANK8   BANK9  BANK10  BANK1
      +1  BANK12  BANK13  BANK14  BANK15
  7713 ;;      Params:         0       2       0       0       0       0       0       0       0       0       0       0       
      +0       0       0       0       0
  7714 ;;      Locals:         0       4       0       0       0       0       0       0       0       0       0       0       
      +0       0       0       0       0
  7715 ;;      Temps:          0       2       0       0       0       0       0       0       0       0       0       0       
      +0       0       0       0       0
  7716 ;;      Totals:         0       8       0       0       0       0       0       0       0       0       0       0       
      +0       0       0       0       0
  7717 ;;Total ram usage:        8 bytes
  7718 ;; Hardware stack levels used: 1
  7719 ;; Hardware stack levels required when called: 9
  7720 ;; This function calls:
  7721 ;;		_gpio_pin_read_logic
  7722 ;;		_gpio_pin_write_logic
  7723 ;; This function is called by:
  7724 ;;		_get_password
  7725 ;;		_password_confirmation
  7726 ;;		_entering_password
  7727 ;;		_change_password
  7728 ;;		_main
  7729 ;; This function uses a non-reentrant model
  7730 ;;
  7731                           
  7732                           	psect	text27
  7733   002244                     __ptext27:
  7734                           	callstack 0
  7735   002244                     _ecu_keypad_get_value:
  7736                           	callstack 20
  7737   002244                     
  7738                           ;ECU_layer/Keypad/ecu_keypad.c: 58: uint8 rows = 0,columns = 0,clear_rows_counter = 0;
  7739   002244  0E00               	movlw	0
  7740   002246  0100               	movlb	0	; () banked
  7741   002248  6FE8               	movwf	ecu_keypad_get_value@rows& (0+255),b
  7742   00224A  0E00               	movlw	0
  7743   00224C  6FE9               	movwf	ecu_keypad_get_value@columns& (0+255),b
  7744   00224E  0E00               	movlw	0
  7745   002250  6FE7               	movwf	ecu_keypad_get_value@clear_rows_counter& (0+255),b
  7746                           
  7747                           ;ECU_layer/Keypad/ecu_keypad.c: 59: uint8 column_val = 0;
  7748   002252  0E00               	movlw	0
  7749   002254  6FE6               	movwf	ecu_keypad_get_value@column_val& (0+255),b
  7750   002256                     
  7751                           ; BSR set to: 0
  7752                           ;ECU_layer/Keypad/ecu_keypad.c: 60: *value = 0;
  7753   002256  51E3               	movf	ecu_keypad_get_value@value& (0+255),w,b
  7754   002258  6ED9               	movwf	fsr2l,c
  7755   00225A  6ADA               	clrf	fsr2h,c
  7756   00225C  6ADF               	clrf	indf2,c
  7757   00225E                     
  7758                           ; BSR set to: 0
  7759                           ;ECU_layer/Keypad/ecu_keypad.c: 61:     if(((void*)0) == keypad || ((void*)0) == value)
  7760   00225E  51E2               	movf	ecu_keypad_get_value@keypad& (0+255),w,b
  7761   002260  B4D8               	btfsc	status,2,c
  7762   002262  EF35  F011         	goto	u6471
  7763   002266  EF37  F011         	goto	u6470
  7764   00226A                     u6471:
  7765   00226A  EF3F  F011         	goto	l7286
  7766   00226E                     u6470:
  7767   00226E                     
  7768                           ; BSR set to: 0
  7769   00226E  51E3               	movf	ecu_keypad_get_value@value& (0+255),w,b
  7770   002270  A4D8               	btfss	status,2,c
  7771   002272  EF3D  F011         	goto	u6481
  7772   002276  EF3F  F011         	goto	u6480
  7773   00227A                     u6481:
  7774   00227A  EF41  F011         	goto	l7288
  7775   00227E                     u6480:
  7776   00227E                     l7286:
  7777                           
  7778                           ; BSR set to: 0
  7779                           ;ECU_layer/Keypad/ecu_keypad.c: 64:     }
  7780   00227E  EF9F  F011         	goto	l260
  7781   002282                     l7288:
  7782                           
  7783                           ; BSR set to: 0
  7784                           ;ECU_layer/Keypad/ecu_keypad.c: 66:     {;ECU_layer/Keypad/ecu_keypad.c: 67:         for
      +                          (rows = 0;rows < 4 ;rows++)
  7785   002282  0E00               	movlw	0
  7786   002284  6FE8               	movwf	ecu_keypad_get_value@rows& (0+255),b
  7787   002286                     l7294:
  7788                           
  7789                           ; BSR set to: 0
  7790                           ;ECU_layer/Keypad/ecu_keypad.c: 68:         {;ECU_layer/Keypad/ecu_keypad.c: 69:        
      +                               for(clear_rows_counter = 0;clear_rows_counter < 4 ;clear_rows_counter++)
  7791   002286  0E00               	movlw	0
  7792   002288  6FE7               	movwf	ecu_keypad_get_value@clear_rows_counter& (0+255),b
  7793   00228A                     l7300:
  7794                           
  7795                           ; BSR set to: 0
  7796                           ;ECU_layer/Keypad/ecu_keypad.c: 70:             {;ECU_layer/Keypad/ecu_keypad.c: 71:    
      +                                       gpio_pin_write_logic(&(keypad->keypad_rows_pins[clear_rows_counter]),LOW);
  7797   00228A  51E2               	movf	ecu_keypad_get_value@keypad& (0+255),w,b
  7798   00228C  25E7               	addwf	ecu_keypad_get_value@clear_rows_counter& (0+255),w,b
  7799   00228E  6FDA               	movwf	gpio_pin_write_logic@_pin_config& (0+255),b
  7800   002290  0E00               	movlw	0
  7801   002292  6FDB               	movwf	gpio_pin_write_logic@logic& (0+255),b
  7802   002294  EC8F  F00F         	call	_gpio_pin_write_logic	;wreg free
  7803   002298                     
  7804                           ;ECU_layer/Keypad/ecu_keypad.c: 72:             }
  7805   002298  0100               	movlb	0	; () banked
  7806   00229A  2BE7               	incf	ecu_keypad_get_value@clear_rows_counter& (0+255),f,b
  7807   00229C                     
  7808                           ; BSR set to: 0
  7809   00229C  0E03               	movlw	3
  7810   00229E  65E7               	cpfsgt	ecu_keypad_get_value@clear_rows_counter& (0+255),b
  7811   0022A0  EF54  F011         	goto	u6491
  7812   0022A4  EF56  F011         	goto	u6490
  7813   0022A8                     u6491:
  7814   0022A8  EF45  F011         	goto	l7300
  7815   0022AC                     u6490:
  7816   0022AC                     
  7817                           ; BSR set to: 0
  7818                           ;ECU_layer/Keypad/ecu_keypad.c: 73:             gpio_pin_write_logic(&(keypad->keypad_ro
      +                          ws_pins[rows]),HIGH);
  7819   0022AC  51E2               	movf	ecu_keypad_get_value@keypad& (0+255),w,b
  7820   0022AE  25E8               	addwf	ecu_keypad_get_value@rows& (0+255),w,b
  7821   0022B0  6FDA               	movwf	gpio_pin_write_logic@_pin_config& (0+255),b
  7822   0022B2  0E01               	movlw	1
  7823   0022B4  6FDB               	movwf	gpio_pin_write_logic@logic& (0+255),b
  7824   0022B6  EC8F  F00F         	call	_gpio_pin_write_logic	;wreg free
  7825   0022BA                     
  7826                           ;ECU_layer/Keypad/ecu_keypad.c: 74:             _delay((unsigned long)((10)*(8000000ul/4
      +                          000.0)));
  7827   0022BA  0E1A               	movlw	26
  7828   0022BC  0100               	movlb	0	; () banked
  7829   0022BE  6FE4               	movwf	??_ecu_keypad_get_value& (0+255),b
  7830   0022C0  0EF8               	movlw	248
  7831   0022C2                     u9697:
  7832   0022C2  2EE8               	decfsz	wreg,f,c
  7833   0022C4  D7FE               	bra	u9697
  7834   0022C6  2FE4               	decfsz	??_ecu_keypad_get_value& (0+255),f,b
  7835   0022C8  D7FC               	bra	u9697
  7836   0022CA  0000               	nop	
  7837   0022CC                     
  7838                           ;ECU_layer/Keypad/ecu_keypad.c: 75:             for(columns = 0;columns < 4 ;columns++)
  7839   0022CC  0E00               	movlw	0
  7840   0022CE  0100               	movlb	0	; () banked
  7841   0022D0  6FE9               	movwf	ecu_keypad_get_value@columns& (0+255),b
  7842   0022D2                     l7316:
  7843                           
  7844                           ; BSR set to: 0
  7845                           ;ECU_layer/Keypad/ecu_keypad.c: 76:             {;ECU_layer/Keypad/ecu_keypad.c: 77:    
      +                                       gpio_pin_read_logic(&(keypad->keypad_columns_pins[columns]),&column_val);
  7846   0022D2  51E2               	movf	ecu_keypad_get_value@keypad& (0+255),w,b
  7847   0022D4  25E9               	addwf	ecu_keypad_get_value@columns& (0+255),w,b
  7848   0022D6  0F04               	addlw	4
  7849   0022D8  6FDA               	movwf	gpio_pin_read_logic@_pin_config& (0+255),b
  7850   0022DA  0EE6               	movlw	low ecu_keypad_get_value@column_val
  7851   0022DC  6FDB               	movwf	gpio_pin_read_logic@logic& (0+255),b
  7852   0022DE  ECD9  F013         	call	_gpio_pin_read_logic	;wreg free
  7853   0022E2                     
  7854                           ;ECU_layer/Keypad/ecu_keypad.c: 78:                 if(HIGH == column_val)
  7855   0022E2  0100               	movlb	0	; () banked
  7856   0022E4  05E6               	decf	ecu_keypad_get_value@column_val& (0+255),w,b
  7857   0022E6  A4D8               	btfss	status,2,c
  7858   0022E8  EF78  F011         	goto	u6501
  7859   0022EC  EF7A  F011         	goto	u6500
  7860   0022F0                     u6501:
  7861   0022F0  EF8D  F011         	goto	l7322
  7862   0022F4                     u6500:
  7863   0022F4                     
  7864                           ; BSR set to: 0
  7865                           ;ECU_layer/Keypad/ecu_keypad.c: 79:                 {;ECU_layer/Keypad/ecu_keypad.c: 80:
      +                                           *value = keypad_values[rows][columns];
  7866   0022F4  51E8               	movf	ecu_keypad_get_value@rows& (0+255),w,b
  7867   0022F6  0D04               	mullw	4
  7868   0022F8  0E41               	movlw	low _keypad_values
  7869   0022FA  24F3               	addwf	243,w,c
  7870   0022FC  6FE4               	movwf	??_ecu_keypad_get_value& (0+255),b
  7871   0022FE  0E01               	movlw	high _keypad_values
  7872   002300  20F4               	addwfc	prodh,w,c
  7873   002302  6FE5               	movwf	(??_ecu_keypad_get_value+1)& (0+255),b
  7874   002304  51E9               	movf	ecu_keypad_get_value@columns& (0+255),w,b
  7875   002306  25E4               	addwf	??_ecu_keypad_get_value& (0+255),w,b
  7876   002308  6ED9               	movwf	fsr2l,c
  7877   00230A  0E00               	movlw	0
  7878   00230C  21E5               	addwfc	(??_ecu_keypad_get_value+1)& (0+255),w,b
  7879   00230E  6EDA               	movwf	fsr2h,c
  7880   002310  51E3               	movf	ecu_keypad_get_value@value& (0+255),w,b
  7881   002312  6EE1               	movwf	fsr1l,c
  7882   002314  6AE2               	clrf	fsr1h,c
  7883   002316  CFDF FFE7          	movff	indf2,indf1
  7884   00231A                     l7322:
  7885                           
  7886                           ; BSR set to: 0
  7887                           ;ECU_layer/Keypad/ecu_keypad.c: 82:             }
  7888   00231A  2BE9               	incf	ecu_keypad_get_value@columns& (0+255),f,b
  7889   00231C                     
  7890                           ; BSR set to: 0
  7891   00231C  0E03               	movlw	3
  7892   00231E  65E9               	cpfsgt	ecu_keypad_get_value@columns& (0+255),b
  7893   002320  EF94  F011         	goto	u6511
  7894   002324  EF96  F011         	goto	u6510
  7895   002328                     u6511:
  7896   002328  EF69  F011         	goto	l7316
  7897   00232C                     u6510:
  7898   00232C                     
  7899                           ; BSR set to: 0
  7900                           ;ECU_layer/Keypad/ecu_keypad.c: 84:         }
  7901   00232C  2BE8               	incf	ecu_keypad_get_value@rows& (0+255),f,b
  7902   00232E                     
  7903                           ; BSR set to: 0
  7904   00232E  0E03               	movlw	3
  7905   002330  65E8               	cpfsgt	ecu_keypad_get_value@rows& (0+255),b
  7906   002332  EF9D  F011         	goto	u6521
  7907   002336  EF9F  F011         	goto	u6520
  7908   00233A                     u6521:
  7909   00233A  EF43  F011         	goto	l7294
  7910   00233E                     u6520:
  7911   00233E                     l260:
  7912                           
  7913                           ; BSR set to: 0
  7914   00233E  0012               	return		;funcret
  7915   002340                     __end_of_ecu_keypad_get_value:
  7916                           	callstack 0
  7917                           
  7918 ;; *************** function _gpio_pin_read_logic *****************
  7919 ;; Defined at:
  7920 ;;		line 117 in file "MCAL_layer/GPIO/hal_gpio.c"
  7921 ;; Parameters:    Size  Location     Type
  7922 ;;  _pin_config     1    0[BANK0 ] PTR const struct .
  7923 ;;		 -> keypad$keypad_columns_pins(4), keypad(8), 
  7924 ;;  logic           1    1[BANK0 ] PTR enum E2979
  7925 ;;		 -> ecu_keypad_get_value@column_val(1), ecu_button_read_state@btn_logic(1), 
  7926 ;; Auto vars:     Size  Location     Type
  7927 ;;  ret             1    0        unsigned char 
  7928 ;; Return value:  Size  Location     Type
  7929 ;;                  1    wreg      unsigned char 
  7930 ;; Registers used:
  7931 ;;		wreg, fsr1l, fsr1h, fsr2l, fsr2h, status,2, status,0, prodl, prodh
  7932 ;; Tracked objects:
  7933 ;;		On entry : 0/0
  7934 ;;		On exit  : 0/0
  7935 ;;		Unchanged: 0/0
  7936 ;; Data sizes:     COMRAM   BANK0   BANK1   BANK2   BANK3   BANK4   BANK5   BANK6   BANK7   BANK8   BANK9  BANK10  BANK1
      +1  BANK12  BANK13  BANK14  BANK15
  7937 ;;      Params:         0       2       0       0       0       0       0       0       0       0       0       0       
      +0       0       0       0       0
  7938 ;;      Locals:         0       0       0       0       0       0       0       0       0       0       0       0       
      +0       0       0       0       0
  7939 ;;      Temps:          0       4       0       0       0       0       0       0       0       0       0       0       
      +0       0       0       0       0
  7940 ;;      Totals:         0       6       0       0       0       0       0       0       0       0       0       0       
      +0       0       0       0       0
  7941 ;;Total ram usage:        6 bytes
  7942 ;; Hardware stack levels used: 1
  7943 ;; Hardware stack levels required when called: 8
  7944 ;; This function calls:
  7945 ;;		Nothing
  7946 ;; This function is called by:
  7947 ;;		_ecu_keypad_get_value
  7948 ;;		_ecu_button_read_state
  7949 ;; This function uses a non-reentrant model
  7950 ;;
  7951                           
  7952                           	psect	text28
  7953   0027B2                     __ptext28:
  7954                           	callstack 0
  7955   0027B2                     _gpio_pin_read_logic:
  7956                           	callstack 20
  7957   0027B2                     
  7958                           ;MCAL_layer/GPIO/hal_gpio.c: 120:     if(((void*)0) == _pin_config || ((void*)0) == logi
      +                          c || _pin_config->pin > 8 -1)
  7959   0027B2  0100               	movlb	0	; () banked
  7960   0027B4  51DA               	movf	gpio_pin_read_logic@_pin_config& (0+255),w,b
  7961   0027B6  B4D8               	btfsc	status,2,c
  7962   0027B8  EFE0  F013         	goto	u6141
  7963   0027BC  EFE2  F013         	goto	u6140
  7964   0027C0                     u6141:
  7965   0027C0  EFFA  F013         	goto	l6928
  7966   0027C4                     u6140:
  7967   0027C4                     
  7968                           ; BSR set to: 0
  7969   0027C4  51DB               	movf	gpio_pin_read_logic@logic& (0+255),w,b
  7970   0027C6  B4D8               	btfsc	status,2,c
  7971   0027C8  EFE8  F013         	goto	u6151
  7972   0027CC  EFEA  F013         	goto	u6150
  7973   0027D0                     u6151:
  7974   0027D0  EFFA  F013         	goto	l6928
  7975   0027D4                     u6150:
  7976   0027D4                     
  7977                           ; BSR set to: 0
  7978   0027D4  51DA               	movf	gpio_pin_read_logic@_pin_config& (0+255),w,b
  7979   0027D6  6ED9               	movwf	fsr2l,c
  7980   0027D8  6ADA               	clrf	fsr2h,c
  7981   0027DA  30DF               	rrcf	223,w,c
  7982   0027DC  32E8               	rrcf	wreg,f,c
  7983   0027DE  32E8               	rrcf	wreg,f,c
  7984   0027E0  0B07               	andlw	7
  7985   0027E2  6FDC               	movwf	??_gpio_pin_read_logic& (0+255),b
  7986   0027E4  0E07               	movlw	7
  7987   0027E6  65DC               	cpfsgt	??_gpio_pin_read_logic& (0+255),b
  7988   0027E8  EFF8  F013         	goto	u6161
  7989   0027EC  EFFA  F013         	goto	u6160
  7990   0027F0                     u6161:
  7991   0027F0  EFFC  F013         	goto	l6930
  7992   0027F4                     u6160:
  7993   0027F4                     l6928:
  7994                           
  7995                           ; BSR set to: 0
  7996                           ;MCAL_layer/GPIO/hal_gpio.c: 123:     }
  7997   0027F4  EF27  F014         	goto	l639
  7998   0027F8                     l6930:
  7999                           
  8000                           ; BSR set to: 0
  8001                           ;MCAL_layer/GPIO/hal_gpio.c: 125:     {;MCAL_layer/GPIO/hal_gpio.c: 126:          *logic
      +                           = ((*port_registers[_pin_config->port]>>_pin_config->pin) & (uint8)1);
  8002   0027F8  51DB               	movf	gpio_pin_read_logic@logic& (0+255),w,b
  8003   0027FA  6ED9               	movwf	fsr2l,c
  8004   0027FC  6ADA               	clrf	fsr2h,c
  8005   0027FE  51DA               	movf	gpio_pin_read_logic@_pin_config& (0+255),w,b
  8006   002800  6EE1               	movwf	fsr1l,c
  8007   002802  6AE2               	clrf	fsr1h,c
  8008   002804  30E7               	rrcf	231,w,c
  8009   002806  32E8               	rrcf	wreg,f,c
  8010   002808  32E8               	rrcf	wreg,f,c
  8011   00280A  0B07               	andlw	7
  8012   00280C  6FDC               	movwf	??_gpio_pin_read_logic& (0+255),b
  8013   00280E  51DA               	movf	gpio_pin_read_logic@_pin_config& (0+255),w,b
  8014   002810  6EE1               	movwf	fsr1l,c
  8015   002812  6AE2               	clrf	fsr1h,c
  8016   002814  50E7               	movf	231,w,c
  8017   002816  0B07               	andlw	7
  8018   002818  0D02               	mullw	2
  8019   00281A  50F3               	movf	243,w,c
  8020   00281C  0F80               	addlw	low _port_registers
  8021   00281E  6EE1               	movwf	fsr1l,c
  8022   002820  6AE2               	clrf	fsr1h,c
  8023   002822  CFE6 F0DD          	movff	postinc1,??_gpio_pin_read_logic+1
  8024   002826  CFE5 F0DE          	movff	postdec1,??_gpio_pin_read_logic+2
  8025   00282A  C0DD  FFE1         	movff	??_gpio_pin_read_logic+1,fsr1l
  8026   00282E  C0DE  FFE2         	movff	??_gpio_pin_read_logic+2,fsr1h
  8027   002832  50E7               	movf	indf1,w,c
  8028   002834  6FDF               	movwf	(??_gpio_pin_read_logic+3)& (0+255),b
  8029   002836  2BDC               	incf	??_gpio_pin_read_logic& (0+255),f,b
  8030   002838  EF20  F014         	goto	u6174
  8031   00283C                     u6175:
  8032   00283C  90D8               	bcf	status,0,c
  8033   00283E  33DF               	rrcf	(??_gpio_pin_read_logic+3)& (0+255),f,b
  8034   002840                     u6174:
  8035   002840  2FDC               	decfsz	??_gpio_pin_read_logic& (0+255),f,b
  8036   002842  EF1E  F014         	goto	u6175
  8037   002846  0100               	movlb	0	; () banked
  8038   002848  51DF               	movf	(??_gpio_pin_read_logic+3)& (0+255),w,b
  8039   00284A  0B01               	andlw	1
  8040   00284C  6EDF               	movwf	indf2,c
  8041   00284E                     l639:
  8042                           
  8043                           ; BSR set to: 0
  8044   00284E  0012               	return		;funcret
  8045   002850                     __end_of_gpio_pin_read_logic:
  8046                           	callstack 0
  8047                           
  8048 ;; *************** function _check_entered_password *****************
  8049 ;; Defined at:
  8050 ;;		line 476 in file "Helper_functions/helper_fn.c"
  8051 ;; Parameters:    Size  Location     Type
  8052 ;;  enterd_pass_    1    3[BANK0 ] PTR struct .
  8053 ;;		 -> enterd_pass_obj(9), 
  8054 ;;  stored_pass_    1    4[BANK0 ] PTR struct .
  8055 ;;		 -> stored_pass_obj(9), 
  8056 ;;  result          2    5[BANK0 ] PTR unsigned char 
  8057 ;;		 -> change_password@comparing_result(1), entering_password@comparing_result(1), 
  8058 ;; Auto vars:     Size  Location     Type
  8059 ;;  helper_count    1   10[BANK0 ] unsigned char 
  8060 ;;  comparing_co    1    9[BANK0 ] unsigned char 
  8061 ;; Return value:  Size  Location     Type
  8062 ;;                  1    wreg      void 
  8063 ;; Registers used:
  8064 ;;		wreg, fsr1l, fsr1h, fsr2l, fsr2h, status,2, status,0, cstack
  8065 ;; Tracked objects:
  8066 ;;		On entry : 0/0
  8067 ;;		On exit  : 0/0
  8068 ;;		Unchanged: 0/0
  8069 ;; Data sizes:     COMRAM   BANK0   BANK1   BANK2   BANK3   BANK4   BANK5   BANK6   BANK7   BANK8   BANK9  BANK10  BANK1
      +1  BANK12  BANK13  BANK14  BANK15
  8070 ;;      Params:         0       4       0       0       0       0       0       0       0       0       0       0       
      +0       0       0       0       0
  8071 ;;      Locals:         0       2       0       0       0       0       0       0       0       0       0       0       
      +0       0       0       0       0
  8072 ;;      Temps:          0       2       0       0       0       0       0       0       0       0       0       0       
      +0       0       0       0       0
  8073 ;;      Totals:         0       8       0       0       0       0       0       0       0       0       0       0       
      +0       0       0       0       0
  8074 ;;Total ram usage:        8 bytes
  8075 ;; Hardware stack levels used: 1
  8076 ;; Hardware stack levels required when called: 9
  8077 ;; This function calls:
  8078 ;;		_Data_EEPROM_ReadByte
  8079 ;; This function is called by:
  8080 ;;		_entering_password
  8081 ;;		_change_password
  8082 ;; This function uses a non-reentrant model
  8083 ;;
  8084                           
  8085                           	psect	text29
  8086   002340                     __ptext29:
  8087                           	callstack 0
  8088   002340                     _check_entered_password:
  8089                           	callstack 20
  8090   002340                     
  8091                           ;Helper_functions/helper_fn.c: 477: uint8 comparing_counter = 0;
  8092   002340  0E00               	movlw	0
  8093   002342  0100               	movlb	0	; () banked
  8094   002344  6FE3               	movwf	check_entered_password@comparing_counter& (0+255),b
  8095                           
  8096                           ;Helper_functions/helper_fn.c: 478: uint8 helper_counter = 0;
  8097   002346  0E00               	movlw	0
  8098   002348  6FE4               	movwf	check_entered_password@helper_counter& (0+255),b
  8099   00234A                     
  8100                           ; BSR set to: 0
  8101                           ;Helper_functions/helper_fn.c: 480: *result = 1;
  8102   00234A  C0DF  FFD9         	movff	check_entered_password@result,fsr2l
  8103   00234E  C0E0  FFDA         	movff	check_entered_password@result+1,fsr2h
  8104   002352  0E01               	movlw	1
  8105   002354  6EDF               	movwf	indf2,c
  8106   002356                     l9074:
  8107                           
  8108                           ; BSR set to: 0
  8109                           ;Helper_functions/helper_fn.c: 483:     Data_EEPROM_ReadByte((0x03f8 + helper_counter),&
      +                          (stored_pass_obj->password[helper_counter]));
  8110   002356  0EF8               	movlw	248
  8111   002358  25E4               	addwf	check_entered_password@helper_counter& (0+255),w,b
  8112   00235A  6FDA               	movwf	Data_EEPROM_ReadByte@badd& (0+255),b
  8113   00235C  6BDB               	clrf	(Data_EEPROM_ReadByte@badd+1)& (0+255),b
  8114   00235E  0E03               	movlw	3
  8115   002360  23DB               	addwfc	(Data_EEPROM_ReadByte@badd+1)& (0+255),f,b
  8116   002362  51DE               	movf	check_entered_password@stored_pass_obj& (0+255),w,b
  8117   002364  25E4               	addwf	check_entered_password@helper_counter& (0+255),w,b
  8118   002366  6FE1               	movwf	??_check_entered_password& (0+255),b
  8119   002368  29E1               	incf	??_check_entered_password& (0+255),w,b
  8120   00236A  6FDC               	movwf	Data_EEPROM_ReadByte@bData& (0+255),b
  8121   00236C  EC10  F01A         	call	_Data_EEPROM_ReadByte	;wreg free
  8122   002370                     
  8123                           ;Helper_functions/helper_fn.c: 484:     if(0xFF == stored_pass_obj->password[helper_coun
      +                          ter]){
  8124   002370  0100               	movlb	0	; () banked
  8125   002372  51DE               	movf	check_entered_password@stored_pass_obj& (0+255),w,b
  8126   002374  25E4               	addwf	check_entered_password@helper_counter& (0+255),w,b
  8127   002376  6ED9               	movwf	fsr2l,c
  8128   002378  6ADA               	clrf	fsr2h,c
  8129   00237A  0E01               	movlw	1
  8130   00237C  26D9               	addwf	fsr2l,f,c
  8131   00237E  28DE               	incf	postinc2,w,c
  8132   002380  A4D8               	btfss	status,2,c
  8133   002382  EFC5  F011         	goto	u8531
  8134   002386  EFC7  F011         	goto	u8530
  8135   00238A                     u8531:
  8136   00238A  EFD0  F011         	goto	l9082
  8137   00238E                     u8530:
  8138   00238E                     
  8139                           ; BSR set to: 0
  8140                           ;Helper_functions/helper_fn.c: 485:         stored_pass_obj->password[helper_counter] = 
      +                          '\0';
  8141   00238E  51DE               	movf	check_entered_password@stored_pass_obj& (0+255),w,b
  8142   002390  25E4               	addwf	check_entered_password@helper_counter& (0+255),w,b
  8143   002392  6ED9               	movwf	fsr2l,c
  8144   002394  6ADA               	clrf	fsr2h,c
  8145   002396  0E01               	movlw	1
  8146   002398  26D9               	addwf	fsr2l,f,c
  8147   00239A  6ADF               	clrf	indf2,c
  8148                           
  8149                           ;Helper_functions/helper_fn.c: 486:         break;
  8150   00239C  EFD3  F011         	goto	l9084
  8151   0023A0                     l9082:
  8152                           
  8153                           ; BSR set to: 0
  8154                           ;Helper_functions/helper_fn.c: 488:     helper_counter++;
  8155   0023A0  2BE4               	incf	check_entered_password@helper_counter& (0+255),f,b
  8156   0023A2  EFAB  F011         	goto	l9074
  8157   0023A6                     l9084:
  8158                           
  8159                           ; BSR set to: 0
  8160                           ;Helper_functions/helper_fn.c: 492: stored_pass_obj->pass_arr_num_digits = helper_counte
      +                          r;
  8161   0023A6  51DE               	movf	check_entered_password@stored_pass_obj& (0+255),w,b
  8162   0023A8  6ED9               	movwf	fsr2l,c
  8163   0023AA  6ADA               	clrf	fsr2h,c
  8164   0023AC  C0E4  FFDF         	movff	check_entered_password@helper_counter,indf2
  8165   0023B0                     
  8166                           ; BSR set to: 0
  8167                           ;Helper_functions/helper_fn.c: 495:     if((stored_pass_obj->pass_arr_num_digits) == ent
      +                          erd_pass_obj->pass_arr_num_digits){
  8168   0023B0  51DD               	movf	check_entered_password@enterd_pass_obj& (0+255),w,b
  8169   0023B2  6ED9               	movwf	fsr2l,c
  8170   0023B4  6ADA               	clrf	fsr2h,c
  8171   0023B6  51DE               	movf	check_entered_password@stored_pass_obj& (0+255),w,b
  8172   0023B8  6EE1               	movwf	fsr1l,c
  8173   0023BA  6AE2               	clrf	fsr1h,c
  8174   0023BC  50DE               	movf	postinc2,w,c
  8175   0023BE  18E6               	xorwf	postinc1,w,c
  8176   0023C0  A4D8               	btfss	status,2,c
  8177   0023C2  EFE5  F011         	goto	u8541
  8178   0023C6  EFE7  F011         	goto	u8540
  8179   0023CA                     u8541:
  8180   0023CA  EF01  F012         	goto	l9094
  8181   0023CE                     u8540:
  8182   0023CE  EF08  F012         	goto	l9096
  8183   0023D2                     l9090:
  8184                           
  8185                           ; BSR set to: 0
  8186                           ;Helper_functions/helper_fn.c: 497:             if(stored_pass_obj->password[comparing_c
      +                          ounter] == enterd_pass_obj->password[comparing_counter]){
  8187   0023D2  51DD               	movf	check_entered_password@enterd_pass_obj& (0+255),w,b
  8188   0023D4  25E3               	addwf	check_entered_password@comparing_counter& (0+255),w,b
  8189   0023D6  6ED9               	movwf	fsr2l,c
  8190   0023D8  6ADA               	clrf	fsr2h,c
  8191   0023DA  0E01               	movlw	1
  8192   0023DC  26D9               	addwf	fsr2l,f,c
  8193   0023DE  51DE               	movf	check_entered_password@stored_pass_obj& (0+255),w,b
  8194   0023E0  25E3               	addwf	check_entered_password@comparing_counter& (0+255),w,b
  8195   0023E2  6EE1               	movwf	fsr1l,c
  8196   0023E4  6AE2               	clrf	fsr1h,c
  8197   0023E6  0E01               	movlw	1
  8198   0023E8  26E1               	addwf	fsr1l,f,c
  8199   0023EA  50DE               	movf	postinc2,w,c
  8200   0023EC  18E6               	xorwf	postinc1,w,c
  8201   0023EE  A4D8               	btfss	status,2,c
  8202   0023F0  EFFC  F011         	goto	u8551
  8203   0023F4  EFFE  F011         	goto	u8550
  8204   0023F8                     u8551:
  8205   0023F8  EF01  F012         	goto	l9094
  8206   0023FC                     u8550:
  8207   0023FC                     
  8208                           ; BSR set to: 0
  8209                           ;Helper_functions/helper_fn.c: 498:                 comparing_counter++;
  8210   0023FC  2BE3               	incf	check_entered_password@comparing_counter& (0+255),f,b
  8211                           
  8212                           ;Helper_functions/helper_fn.c: 499:             }
  8213   0023FE  EF08  F012         	goto	l9096
  8214   002402                     l9094:
  8215                           
  8216                           ; BSR set to: 0
  8217                           ;Helper_functions/helper_fn.c: 501:                 *result = 0;
  8218   002402  C0DF  FFD9         	movff	check_entered_password@result,fsr2l
  8219   002406  C0E0  FFDA         	movff	check_entered_password@result+1,fsr2h
  8220   00240A  6ADF               	clrf	indf2,c
  8221                           
  8222                           ;Helper_functions/helper_fn.c: 502:                 break;
  8223   00240C  EF14  F012         	goto	l540
  8224   002410                     l9096:
  8225                           
  8226                           ; BSR set to: 0
  8227                           ;Helper_functions/helper_fn.c: 496:         while((stored_pass_obj->pass_arr_num_digits)
      +                          --){
  8228   002410  51DE               	movf	check_entered_password@stored_pass_obj& (0+255),w,b
  8229   002412  6ED9               	movwf	fsr2l,c
  8230   002414  6ADA               	clrf	fsr2h,c
  8231   002416  06DF               	decf	indf2,f,c
  8232   002418  28DE               	incf	postinc2,w,c
  8233   00241A  A4D8               	btfss	status,2,c
  8234   00241C  EF12  F012         	goto	u8561
  8235   002420  EF14  F012         	goto	u8560
  8236   002424                     u8561:
  8237   002424  EFE9  F011         	goto	l9090
  8238   002428                     u8560:
  8239   002428                     l540:
  8240                           
  8241                           ; BSR set to: 0
  8242   002428  0012               	return		;funcret
  8243   00242A                     __end_of_check_entered_password:
  8244                           	callstack 0
  8245                           
  8246 ;; *************** function _Data_EEPROM_ReadByte *****************
  8247 ;; Defined at:
  8248 ;;		line 45 in file "MCAL_layer/EEPROM/hal_eeprom.c"
  8249 ;; Parameters:    Size  Location     Type
  8250 ;;  badd            2    0[BANK0 ] unsigned short 
  8251 ;;  bData           1    2[BANK0 ] PTR unsigned char 
  8252 ;;		 -> pass_check(1), stored_pass_obj$password(8), stored_pass_obj(9), 
  8253 ;; Auto vars:     Size  Location     Type
  8254 ;;  ret             1    0        unsigned char 
  8255 ;; Return value:  Size  Location     Type
  8256 ;;                  1    wreg      unsigned char 
  8257 ;; Registers used:
  8258 ;;		wreg, fsr2l, fsr2h, status,2, status,0
  8259 ;; Tracked objects:
  8260 ;;		On entry : 0/0
  8261 ;;		On exit  : 0/0
  8262 ;;		Unchanged: 0/0
  8263 ;; Data sizes:     COMRAM   BANK0   BANK1   BANK2   BANK3   BANK4   BANK5   BANK6   BANK7   BANK8   BANK9  BANK10  BANK1
      +1  BANK12  BANK13  BANK14  BANK15
  8264 ;;      Params:         0       3       0       0       0       0       0       0       0       0       0       0       
      +0       0       0       0       0
  8265 ;;      Locals:         0       0       0       0       0       0       0       0       0       0       0       0       
      +0       0       0       0       0
  8266 ;;      Temps:          0       0       0       0       0       0       0       0       0       0       0       0       
      +0       0       0       0       0
  8267 ;;      Totals:         0       3       0       0       0       0       0       0       0       0       0       0       
      +0       0       0       0       0
  8268 ;;Total ram usage:        3 bytes
  8269 ;; Hardware stack levels used: 1
  8270 ;; Hardware stack levels required when called: 8
  8271 ;; This function calls:
  8272 ;;		Nothing
  8273 ;; This function is called by:
  8274 ;;		_check_entered_password
  8275 ;;		_main
  8276 ;; This function uses a non-reentrant model
  8277 ;;
  8278                           
  8279                           	psect	text30
  8280   003420                     __ptext30:
  8281                           	callstack 0
  8282   003420                     _Data_EEPROM_ReadByte:
  8283                           	callstack 20
  8284   003420                     
  8285                           ;MCAL_layer/EEPROM/hal_eeprom.c: 47:     if(((void*)0) == bData)
  8286   003420  0100               	movlb	0	; () banked
  8287   003422  51DC               	movf	Data_EEPROM_ReadByte@bData& (0+255),w,b
  8288   003424  A4D8               	btfss	status,2,c
  8289   003426  EF17  F01A         	goto	u6601
  8290   00342A  EF19  F01A         	goto	u6600
  8291   00342E                     u6601:
  8292   00342E  EF1B  F01A         	goto	l7390
  8293   003432                     u6600:
  8294   003432                     
  8295                           ; BSR set to: 0
  8296                           ;MCAL_layer/EEPROM/hal_eeprom.c: 50:     }
  8297   003432  EF2B  F01A         	goto	l565
  8298   003436                     l7390:
  8299                           
  8300                           ; BSR set to: 0
  8301                           ;MCAL_layer/EEPROM/hal_eeprom.c: 52:     {;MCAL_layer/EEPROM/hal_eeprom.c: 54:         E
      +                          EADRH = (uint8)((badd >> 8) & 0x03) ;
  8302   003436  51DB               	movf	(Data_EEPROM_ReadByte@badd+1)& (0+255),w,b
  8303   003438  0B03               	andlw	3
  8304   00343A  6EAA               	movwf	170,c	;volatile
  8305   00343C                     
  8306                           ; BSR set to: 0
  8307                           ;MCAL_layer/EEPROM/hal_eeprom.c: 55:         EEADR = (uint8)(badd & 0xFF) ;
  8308   00343C  C0DA  FFA9         	movff	Data_EEPROM_ReadByte@badd,4009	;volatile
  8309   003440                     
  8310                           ; BSR set to: 0
  8311                           ;MCAL_layer/EEPROM/hal_eeprom.c: 57:         EECON1bits.EEPGD = 0;
  8312   003440  9EA6               	bcf	166,7,c	;volsfr
  8313   003442                     
  8314                           ; BSR set to: 0
  8315                           ;MCAL_layer/EEPROM/hal_eeprom.c: 58:         EECON1bits.CFGS = 0;
  8316   003442  9CA6               	bcf	166,6,c	;volsfr
  8317   003444                     
  8318                           ; BSR set to: 0
  8319                           ;MCAL_layer/EEPROM/hal_eeprom.c: 60:          EECON1bits.RD = 1;
  8320   003444  80A6               	bsf	166,0,c	;volsfr
  8321   003446                     
  8322                           ; BSR set to: 0
  8323                           ;MCAL_layer/EEPROM/hal_eeprom.c: 61:          __nop();
  8324   003446  0000               	nop	
  8325   003448                     
  8326                           ;MCAL_layer/EEPROM/hal_eeprom.c: 62:          __nop();
  8327   003448  0000               	nop	
  8328   00344A                     
  8329                           ;MCAL_layer/EEPROM/hal_eeprom.c: 64:          *bData = EEDATA;
  8330   00344A  0100               	movlb	0	; () banked
  8331   00344C  51DC               	movf	Data_EEPROM_ReadByte@bData& (0+255),w,b
  8332   00344E  6ED9               	movwf	fsr2l,c
  8333   003450  6ADA               	clrf	fsr2h,c
  8334   003452  CFA8 FFDF          	movff	4008,indf2	;volatile
  8335   003456                     l565:
  8336                           
  8337                           ; BSR set to: 0
  8338   003456  0012               	return		;funcret
  8339   003458                     __end_of_Data_EEPROM_ReadByte:
  8340                           	callstack 0
  8341                           
  8342 ;; *************** function _Application_Initialization *****************
  8343 ;; Defined at:
  8344 ;;		line 110 in file "application.c"
  8345 ;; Parameters:    Size  Location     Type
  8346 ;;		None
  8347 ;; Auto vars:     Size  Location     Type
  8348 ;;		None
  8349 ;; Return value:  Size  Location     Type
  8350 ;;                  1    wreg      void 
  8351 ;; Registers used:
  8352 ;;		wreg, fsr2l, fsr2h, status,2, status,0, prodl, prodh, cstack
  8353 ;; Tracked objects:
  8354 ;;		On entry : 0/0
  8355 ;;		On exit  : 0/0
  8356 ;;		Unchanged: 0/0
  8357 ;; Data sizes:     COMRAM   BANK0   BANK1   BANK2   BANK3   BANK4   BANK5   BANK6   BANK7   BANK8   BANK9  BANK10  BANK1
      +1  BANK12  BANK13  BANK14  BANK15
  8358 ;;      Params:         0       0       0       0       0       0       0       0       0       0       0       0       
      +0       0       0       0       0
  8359 ;;      Locals:         0       0       0       0       0       0       0       0       0       0       0       0       
      +0       0       0       0       0
  8360 ;;      Temps:          0       0       0       0       0       0       0       0       0       0       0       0       
      +0       0       0       0       0
  8361 ;;      Totals:         0       0       0       0       0       0       0       0       0       0       0       0       
      +0       0       0       0       0
  8362 ;;Total ram usage:        0 bytes
  8363 ;; Hardware stack levels used: 1
  8364 ;; Hardware stack levels required when called: 13
  8365 ;; This function calls:
  8366 ;;		_ecu_layer_Initialization
  8367 ;; This function is called by:
  8368 ;;		_main
  8369 ;; This function uses a non-reentrant model
  8370 ;;
  8371                           
  8372                           	psect	text31
  8373   003744                     __ptext31:
  8374                           	callstack 0
  8375   003744                     _Application_Initialization:
  8376                           	callstack 17
  8377   003744                     
  8378                           ;application.c: 112: ecu_layer_Initialization();
  8379   003744  EC8C  F019         	call	_ecu_layer_Initialization	;wreg free
  8380   003748  0012               	return		;funcret
  8381   00374A                     __end_of_Application_Initialization:
  8382                           	callstack 0
  8383                           
  8384 ;; *************** function _ecu_layer_Initialization *****************
  8385 ;; Defined at:
  8386 ;;		line 128 in file "ECU_layer/ecu_layer_init.c"
  8387 ;; Parameters:    Size  Location     Type
  8388 ;;		None
  8389 ;; Auto vars:     Size  Location     Type
  8390 ;;		None
  8391 ;; Return value:  Size  Location     Type
  8392 ;;                  1    wreg      void 
  8393 ;; Registers used:
  8394 ;;		wreg, fsr2l, fsr2h, status,2, status,0, prodl, prodh, cstack
  8395 ;; Tracked objects:
  8396 ;;		On entry : 0/0
  8397 ;;		On exit  : 0/0
  8398 ;;		Unchanged: 0/0
  8399 ;; Data sizes:     COMRAM   BANK0   BANK1   BANK2   BANK3   BANK4   BANK5   BANK6   BANK7   BANK8   BANK9  BANK10  BANK1
      +1  BANK12  BANK13  BANK14  BANK15
  8400 ;;      Params:         0       0       0       0       0       0       0       0       0       0       0       0       
      +0       0       0       0       0
  8401 ;;      Locals:         0       0       0       0       0       0       0       0       0       0       0       0       
      +0       0       0       0       0
  8402 ;;      Temps:          0       0       0       0       0       0       0       0       0       0       0       0       
      +0       0       0       0       0
  8403 ;;      Totals:         0       0       0       0       0       0       0       0       0       0       0       0       
      +0       0       0       0       0
  8404 ;;Total ram usage:        0 bytes
  8405 ;; Hardware stack levels used: 1
  8406 ;; Hardware stack levels required when called: 12
  8407 ;; This function calls:
  8408 ;;		_Interrupt_INTx_Init
  8409 ;;		_ecu_dc_motor_initialize
  8410 ;;		_ecu_keypad_initialize
  8411 ;;		_ecu_led_initialize
  8412 ;;		_gpio_pin_initialize
  8413 ;;		_lcd_4bit_initialize
  8414 ;; This function is called by:
  8415 ;;		_Application_Initialization
  8416 ;; This function uses a non-reentrant model
  8417 ;;
  8418                           
  8419                           	psect	text32
  8420   003318                     __ptext32:
  8421                           	callstack 0
  8422   003318                     _ecu_layer_Initialization:
  8423                           	callstack 17
  8424   003318                     
  8425                           ;ECU_layer/ecu_layer_init.c: 130:     lcd_4bit_initialize(&lcd1);
  8426   003318  0E4D               	movlw	low _lcd1
  8427   00331A  0100               	movlb	0	; () banked
  8428   00331C  6FE8               	movwf	lcd_4bit_initialize@lcd& (0+255),b
  8429   00331E  ECA2  F010         	call	_lcd_4bit_initialize	;wreg free
  8430                           
  8431                           ;ECU_layer/ecu_layer_init.c: 131:     ecu_keypad_initialize(&keypad);
  8432   003322  0EA1               	movlw	low _keypad
  8433   003324  0100               	movlb	0	; () banked
  8434   003326  6FE5               	movwf	ecu_keypad_initialize@keypad& (0+255),b
  8435   003328  ECE6  F017         	call	_ecu_keypad_initialize	;wreg free
  8436                           
  8437                           ;ECU_layer/ecu_layer_init.c: 132:     ecu_led_initialize(&red_led);
  8438   00332C  0E57               	movlw	low _red_led
  8439   00332E  0100               	movlb	0	; () banked
  8440   003330  6FE5               	movwf	ecu_led_initialize@led& (0+255),b
  8441   003332  ECE7  F016         	call	_ecu_led_initialize	;wreg free
  8442                           
  8443                           ;ECU_layer/ecu_layer_init.c: 133:     ecu_led_initialize(&green_led);
  8444   003336  0E56               	movlw	low _green_led
  8445   003338  0100               	movlb	0	; () banked
  8446   00333A  6FE5               	movwf	ecu_led_initialize@led& (0+255),b
  8447   00333C  ECE7  F016         	call	_ecu_led_initialize	;wreg free
  8448                           
  8449                           ;ECU_layer/ecu_layer_init.c: 134:     ecu_dc_motor_initialize(&motor1);
  8450   003340  0E53               	movlw	low _motor1
  8451   003342  0100               	movlb	0	; () banked
  8452   003344  6FE5               	movwf	ecu_dc_motor_initialize@dc_motor& (0+255),b
  8453   003346  EC03  F01B         	call	_ecu_dc_motor_initialize	;wreg free
  8454                           
  8455                           ;ECU_layer/ecu_layer_init.c: 135:     gpio_pin_initialize(&buzzer);
  8456   00334A  0E55               	movlw	low _buzzer
  8457   00334C  0100               	movlb	0	; () banked
  8458   00334E  6FE2               	movwf	gpio_pin_initialize@_pin_config& (0+255),b
  8459   003350  EC84  F017         	call	_gpio_pin_initialize	;wreg free
  8460                           
  8461                           ;ECU_layer/ecu_layer_init.c: 136:     Interrupt_INTx_Init(&INT_obj);
  8462   003354  0EA9               	movlw	low _INT_obj
  8463   003356  0100               	movlb	0	; () banked
  8464   003358  6FE3               	movwf	Interrupt_INTx_Init@int_obj& (0+255),b
  8465   00335A  ECB6  F017         	call	_Interrupt_INTx_Init	;wreg free
  8466   00335E  0012               	return		;funcret
  8467   003360                     __end_of_ecu_layer_Initialization:
  8468                           	callstack 0
  8469                           
  8470 ;; *************** function _lcd_4bit_initialize *****************
  8471 ;; Defined at:
  8472 ;;		line 25 in file "ECU_layer/chr_LCD/ecu_chr_LCD.c"
  8473 ;; Parameters:    Size  Location     Type
  8474 ;;  lcd             1   14[BANK0 ] PTR const struct .
  8475 ;;		 -> lcd1(6), 
  8476 ;; Auto vars:     Size  Location     Type
  8477 ;;  ret             1   17[BANK0 ] unsigned char 
  8478 ;;  counter         1   16[BANK0 ] unsigned char 
  8479 ;; Return value:  Size  Location     Type
  8480 ;;                  1    wreg      unsigned char 
  8481 ;; Registers used:
  8482 ;;		wreg, fsr2l, fsr2h, status,2, status,0, prodl, prodh, cstack
  8483 ;; Tracked objects:
  8484 ;;		On entry : 0/0
  8485 ;;		On exit  : 0/0
  8486 ;;		Unchanged: 0/0
  8487 ;; Data sizes:     COMRAM   BANK0   BANK1   BANK2   BANK3   BANK4   BANK5   BANK6   BANK7   BANK8   BANK9  BANK10  BANK1
      +1  BANK12  BANK13  BANK14  BANK15
  8488 ;;      Params:         0       1       0       0       0       0       0       0       0       0       0       0       
      +0       0       0       0       0
  8489 ;;      Locals:         0       2       0       0       0       0       0       0       0       0       0       0       
      +0       0       0       0       0
  8490 ;;      Temps:          0       1       0       0       0       0       0       0       0       0       0       0       
      +0       0       0       0       0
  8491 ;;      Totals:         0       4       0       0       0       0       0       0       0       0       0       0       
      +0       0       0       0       0
  8492 ;;Total ram usage:        4 bytes
  8493 ;; Hardware stack levels used: 1
  8494 ;; Hardware stack levels required when called: 11
  8495 ;; This function calls:
  8496 ;;		_gpio_pin_initialize
  8497 ;;		_lcd_4bit_send_command
  8498 ;; This function is called by:
  8499 ;;		_ecu_layer_Initialization
  8500 ;; This function uses a non-reentrant model
  8501 ;;
  8502                           
  8503                           	psect	text33
  8504   002144                     __ptext33:
  8505                           	callstack 0
  8506   002144                     _lcd_4bit_initialize:
  8507                           	callstack 17
  8508   002144                     
  8509                           ;ECU_layer/chr_LCD/ecu_chr_LCD.c: 27: uint8 counter = 0 ;
  8510   002144  0E00               	movlw	0
  8511   002146  0100               	movlb	0	; () banked
  8512   002148  6FEA               	movwf	lcd_4bit_initialize@counter& (0+255),b
  8513                           
  8514                           ;ECU_layer/chr_LCD/ecu_chr_LCD.c: 28:     if(((void*)0) == lcd)
  8515   00214A  51E8               	movf	lcd_4bit_initialize@lcd& (0+255),w,b
  8516   00214C  A4D8               	btfss	status,2,c
  8517   00214E  EFAB  F010         	goto	u6351
  8518   002152  EFAD  F010         	goto	u6350
  8519   002156                     u6351:
  8520   002156  EFAF  F010         	goto	l7162
  8521   00215A                     u6350:
  8522   00215A                     
  8523                           ; BSR set to: 0
  8524                           ;ECU_layer/chr_LCD/ecu_chr_LCD.c: 31:     }
  8525   00215A  EF21  F011         	goto	l70
  8526   00215E                     l7162:
  8527                           
  8528                           ; BSR set to: 0
  8529                           ;ECU_layer/chr_LCD/ecu_chr_LCD.c: 33:     {;ECU_layer/chr_LCD/ecu_chr_LCD.c: 34:        
      +                           ret = gpio_pin_initialize(&(lcd->rs));
  8530   00215E  C0E8  F0E2         	movff	lcd_4bit_initialize@lcd,gpio_pin_initialize@_pin_config
  8531   002162  EC84  F017         	call	_gpio_pin_initialize	;wreg free
  8532   002166  0100               	movlb	0	; () banked
  8533   002168  6FEB               	movwf	lcd_4bit_initialize@ret& (0+255),b
  8534                           
  8535                           ;ECU_layer/chr_LCD/ecu_chr_LCD.c: 35:         ret = gpio_pin_initialize(&(lcd->en));
  8536   00216A  29E8               	incf	lcd_4bit_initialize@lcd& (0+255),w,b
  8537   00216C  6FE2               	movwf	gpio_pin_initialize@_pin_config& (0+255),b
  8538   00216E  EC84  F017         	call	_gpio_pin_initialize	;wreg free
  8539   002172  0100               	movlb	0	; () banked
  8540   002174  6FEB               	movwf	lcd_4bit_initialize@ret& (0+255),b
  8541   002176                     
  8542                           ; BSR set to: 0
  8543                           ;ECU_layer/chr_LCD/ecu_chr_LCD.c: 36:         for(counter=0 ;counter < 4 ;counter++)
  8544   002176  0E00               	movlw	0
  8545   002178  6FEA               	movwf	lcd_4bit_initialize@counter& (0+255),b
  8546   00217A                     l7170:
  8547                           
  8548                           ; BSR set to: 0
  8549   00217A  51E8               	movf	lcd_4bit_initialize@lcd& (0+255),w,b
  8550   00217C  25EA               	addwf	lcd_4bit_initialize@counter& (0+255),w,b
  8551   00217E  0F02               	addlw	2
  8552   002180  6FE2               	movwf	gpio_pin_initialize@_pin_config& (0+255),b
  8553   002182  EC84  F017         	call	_gpio_pin_initialize	;wreg free
  8554   002186                     
  8555                           ;ECU_layer/chr_LCD/ecu_chr_LCD.c: 39:         }
  8556   002186  0100               	movlb	0	; () banked
  8557   002188  2BEA               	incf	lcd_4bit_initialize@counter& (0+255),f,b
  8558   00218A                     
  8559                           ; BSR set to: 0
  8560   00218A  0E03               	movlw	3
  8561   00218C  65EA               	cpfsgt	lcd_4bit_initialize@counter& (0+255),b
  8562   00218E  EFCB  F010         	goto	u6361
  8563   002192  EFCD  F010         	goto	u6360
  8564   002196                     u6361:
  8565   002196  EFBD  F010         	goto	l7170
  8566   00219A                     u6360:
  8567   00219A                     
  8568                           ; BSR set to: 0
  8569                           ;ECU_layer/chr_LCD/ecu_chr_LCD.c: 40:          _delay((unsigned long)((20)*(8000000ul/40
      +                          00.0)));
  8570   00219A  0E34               	movlw	52
  8571   00219C  0100               	movlb	0	; () banked
  8572   00219E  6FE9               	movwf	??_lcd_4bit_initialize& (0+255),b
  8573   0021A0  0EF1               	movlw	241
  8574   0021A2                     u9707:
  8575   0021A2  2EE8               	decfsz	wreg,f,c
  8576   0021A4  D7FE               	bra	u9707
  8577   0021A6  2FE9               	decfsz	??_lcd_4bit_initialize& (0+255),f,b
  8578   0021A8  D7FC               	bra	u9707
  8579   0021AA  D000               	nop2	
  8580   0021AC  C0E8  F0E5         	movff	lcd_4bit_initialize@lcd,lcd_4bit_send_command@lcd
  8581   0021B0  0E38               	movlw	56
  8582   0021B2  0100               	movlb	0	; () banked
  8583   0021B4  6FE6               	movwf	lcd_4bit_send_command@command& (0+255),b
  8584   0021B6  EC50  F017         	call	_lcd_4bit_send_command	;wreg free
  8585   0021BA                     
  8586                           ;ECU_layer/chr_LCD/ecu_chr_LCD.c: 42:         _delay((unsigned long)((5)*(8000000ul/4000
      +                          .0)));
  8587   0021BA  0E0D               	movlw	13
  8588   0021BC  0100               	movlb	0	; () banked
  8589   0021BE  6FE9               	movwf	??_lcd_4bit_initialize& (0+255),b
  8590   0021C0  0EFB               	movlw	251
  8591   0021C2                     u9717:
  8592   0021C2  2EE8               	decfsz	wreg,f,c
  8593   0021C4  D7FE               	bra	u9717
  8594   0021C6  2FE9               	decfsz	??_lcd_4bit_initialize& (0+255),f,b
  8595   0021C8  D7FC               	bra	u9717
  8596   0021CA  D000               	nop2	
  8597   0021CC  C0E8  F0E5         	movff	lcd_4bit_initialize@lcd,lcd_4bit_send_command@lcd
  8598   0021D0  0E38               	movlw	56
  8599   0021D2  0100               	movlb	0	; () banked
  8600   0021D4  6FE6               	movwf	lcd_4bit_send_command@command& (0+255),b
  8601   0021D6  EC50  F017         	call	_lcd_4bit_send_command	;wreg free
  8602   0021DA                     
  8603                           ;ECU_layer/chr_LCD/ecu_chr_LCD.c: 44:         _delay((unsigned long)((150)*(8000000ul/40
      +                          00000.0)));
  8604   0021DA  0E64               	movlw	100
  8605   0021DC                     u9727:
  8606   0021DC  2EE8               	decfsz	wreg,f,c
  8607   0021DE  D7FE               	bra	u9727
  8608   0021E0  C0E8  F0E5         	movff	lcd_4bit_initialize@lcd,lcd_4bit_send_command@lcd
  8609   0021E4  0E38               	movlw	56
  8610   0021E6  0100               	movlb	0	; () banked
  8611   0021E8  6FE6               	movwf	lcd_4bit_send_command@command& (0+255),b
  8612   0021EA  EC50  F017         	call	_lcd_4bit_send_command	;wreg free
  8613   0021EE  C0E8  F0E5         	movff	lcd_4bit_initialize@lcd,lcd_4bit_send_command@lcd
  8614   0021F2  0E01               	movlw	1
  8615   0021F4  0100               	movlb	0	; () banked
  8616   0021F6  6FE6               	movwf	lcd_4bit_send_command@command& (0+255),b
  8617   0021F8  EC50  F017         	call	_lcd_4bit_send_command	;wreg free
  8618   0021FC  C0E8  F0E5         	movff	lcd_4bit_initialize@lcd,lcd_4bit_send_command@lcd
  8619   002200  0E02               	movlw	2
  8620   002202  0100               	movlb	0	; () banked
  8621   002204  6FE6               	movwf	lcd_4bit_send_command@command& (0+255),b
  8622   002206  EC50  F017         	call	_lcd_4bit_send_command	;wreg free
  8623   00220A  C0E8  F0E5         	movff	lcd_4bit_initialize@lcd,lcd_4bit_send_command@lcd
  8624   00220E  0E06               	movlw	6
  8625   002210  0100               	movlb	0	; () banked
  8626   002212  6FE6               	movwf	lcd_4bit_send_command@command& (0+255),b
  8627   002214  EC50  F017         	call	_lcd_4bit_send_command	;wreg free
  8628   002218  C0E8  F0E5         	movff	lcd_4bit_initialize@lcd,lcd_4bit_send_command@lcd
  8629   00221C  0E0C               	movlw	12
  8630   00221E  0100               	movlb	0	; () banked
  8631   002220  6FE6               	movwf	lcd_4bit_send_command@command& (0+255),b
  8632   002222  EC50  F017         	call	_lcd_4bit_send_command	;wreg free
  8633   002226  C0E8  F0E5         	movff	lcd_4bit_initialize@lcd,lcd_4bit_send_command@lcd
  8634   00222A  0E28               	movlw	40
  8635   00222C  0100               	movlb	0	; () banked
  8636   00222E  6FE6               	movwf	lcd_4bit_send_command@command& (0+255),b
  8637   002230  EC50  F017         	call	_lcd_4bit_send_command	;wreg free
  8638   002234  C0E8  F0E5         	movff	lcd_4bit_initialize@lcd,lcd_4bit_send_command@lcd
  8639   002238  0E80               	movlw	128
  8640   00223A  0100               	movlb	0	; () banked
  8641   00223C  6FE6               	movwf	lcd_4bit_send_command@command& (0+255),b
  8642   00223E  EC50  F017         	call	_lcd_4bit_send_command	;wreg free
  8643   002242                     l70:
  8644   002242  0012               	return		;funcret
  8645   002244                     __end_of_lcd_4bit_initialize:
  8646                           	callstack 0
  8647                           
  8648 ;; *************** function _lcd_4bit_send_command *****************
  8649 ;; Defined at:
  8650 ;;		line 65 in file "ECU_layer/chr_LCD/ecu_chr_LCD.c"
  8651 ;; Parameters:    Size  Location     Type
  8652 ;;  lcd             1   11[BANK0 ] PTR const struct .
  8653 ;;		 -> lcd1(6), 
  8654 ;;  command         1   12[BANK0 ] unsigned char 
  8655 ;; Auto vars:     Size  Location     Type
  8656 ;;  ret             1   13[BANK0 ] unsigned char 
  8657 ;; Return value:  Size  Location     Type
  8658 ;;                  1    wreg      unsigned char 
  8659 ;; Registers used:
  8660 ;;		wreg, fsr2l, fsr2h, status,2, status,0, prodl, prodh, cstack
  8661 ;; Tracked objects:
  8662 ;;		On entry : 0/0
  8663 ;;		On exit  : 0/0
  8664 ;;		Unchanged: 0/0
  8665 ;; Data sizes:     COMRAM   BANK0   BANK1   BANK2   BANK3   BANK4   BANK5   BANK6   BANK7   BANK8   BANK9  BANK10  BANK1
      +1  BANK12  BANK13  BANK14  BANK15
  8666 ;;      Params:         0       2       0       0       0       0       0       0       0       0       0       0       
      +0       0       0       0       0
  8667 ;;      Locals:         0       1       0       0       0       0       0       0       0       0       0       0       
      +0       0       0       0       0
  8668 ;;      Temps:          0       0       0       0       0       0       0       0       0       0       0       0       
      +0       0       0       0       0
  8669 ;;      Totals:         0       3       0       0       0       0       0       0       0       0       0       0       
      +0       0       0       0       0
  8670 ;;Total ram usage:        3 bytes
  8671 ;; Hardware stack levels used: 1
  8672 ;; Hardware stack levels required when called: 10
  8673 ;; This function calls:
  8674 ;;		_gpio_pin_write_logic
  8675 ;;		_lcd_4bit_send_enable_enable
  8676 ;;		_lcd_send_4bit
  8677 ;; This function is called by:
  8678 ;;		_lcd_4bit_initialize
  8679 ;;		_lcd_4bit_set_curser
  8680 ;;		_welcome_msg
  8681 ;;		_get_password
  8682 ;;		_password_confirmation
  8683 ;;		_entering_password
  8684 ;;		_change_password
  8685 ;;		_lcd_4bit_send_custome_char
  8686 ;; This function uses a non-reentrant model
  8687 ;;
  8688                           
  8689                           	psect	text34
  8690   002EA0                     __ptext34:
  8691                           	callstack 0
  8692   002EA0                     _lcd_4bit_send_command:
  8693                           	callstack 17
  8694   002EA0                     
  8695                           ;ECU_layer/chr_LCD/ecu_chr_LCD.c: 68:     if(((void*)0) == lcd)
  8696   002EA0  0100               	movlb	0	; () banked
  8697   002EA2  51E5               	movf	lcd_4bit_send_command@lcd& (0+255),w,b
  8698   002EA4  A4D8               	btfss	status,2,c
  8699   002EA6  EF57  F017         	goto	u5971
  8700   002EAA  EF59  F017         	goto	u5970
  8701   002EAE                     u5971:
  8702   002EAE  EF5D  F017         	goto	l6812
  8703   002EB2                     u5970:
  8704   002EB2                     
  8705                           ; BSR set to: 0
  8706                           ;ECU_layer/chr_LCD/ecu_chr_LCD.c: 69:     {;ECU_layer/chr_LCD/ecu_chr_LCD.c: 70:        
      +                           ret = (STD_ReturnType)0x00;
  8707   002EB2  0E00               	movlw	0
  8708   002EB4  6FE7               	movwf	lcd_4bit_send_command@ret& (0+255),b
  8709                           
  8710                           ;ECU_layer/chr_LCD/ecu_chr_LCD.c: 71:     }
  8711   002EB6  EF82  F017         	goto	l6814
  8712   002EBA                     l6812:
  8713                           
  8714                           ; BSR set to: 0
  8715                           ;ECU_layer/chr_LCD/ecu_chr_LCD.c: 73:     {;ECU_layer/chr_LCD/ecu_chr_LCD.c: 75:        
      +                           ret = gpio_pin_write_logic(&(lcd->rs),LOW);
  8716   002EBA  C0E5  F0DA         	movff	lcd_4bit_send_command@lcd,gpio_pin_write_logic@_pin_config
  8717   002EBE  0E00               	movlw	0
  8718   002EC0  6FDB               	movwf	gpio_pin_write_logic@logic& (0+255),b
  8719   002EC2  EC8F  F00F         	call	_gpio_pin_write_logic	;wreg free
  8720   002EC6  0100               	movlb	0	; () banked
  8721   002EC8  6FE7               	movwf	lcd_4bit_send_command@ret& (0+255),b
  8722                           
  8723                           ;ECU_layer/chr_LCD/ecu_chr_LCD.c: 76:         ret = lcd_send_4bit(lcd,command >>4);
  8724   002ECA  C0E5  F0E2         	movff	lcd_4bit_send_command@lcd,lcd_send_4bit@lcd
  8725   002ECE  39E6               	swapf	lcd_4bit_send_command@command& (0+255),w,b
  8726   002ED0  0B0F               	andlw	15
  8727   002ED2  6FE3               	movwf	lcd_send_4bit@command_data& (0+255),b
  8728   002ED4  EC71  F018         	call	_lcd_send_4bit	;wreg free
  8729   002ED8  0100               	movlb	0	; () banked
  8730   002EDA  6FE7               	movwf	lcd_4bit_send_command@ret& (0+255),b
  8731                           
  8732                           ;ECU_layer/chr_LCD/ecu_chr_LCD.c: 77:         ret = lcd_4bit_send_enable_enable(lcd);
  8733   002EDC  C0E5  F0E2         	movff	lcd_4bit_send_command@lcd,lcd_4bit_send_enable_enable@lcd
  8734   002EE0  ECED  F01A         	call	_lcd_4bit_send_enable_enable	;wreg free
  8735   002EE4  0100               	movlb	0	; () banked
  8736   002EE6  6FE7               	movwf	lcd_4bit_send_command@ret& (0+255),b
  8737                           
  8738                           ;ECU_layer/chr_LCD/ecu_chr_LCD.c: 78:         ret = lcd_send_4bit(lcd,command);
  8739   002EE8  C0E5  F0E2         	movff	lcd_4bit_send_command@lcd,lcd_send_4bit@lcd
  8740   002EEC  C0E6  F0E3         	movff	lcd_4bit_send_command@command,lcd_send_4bit@command_data
  8741   002EF0  EC71  F018         	call	_lcd_send_4bit	;wreg free
  8742   002EF4  0100               	movlb	0	; () banked
  8743   002EF6  6FE7               	movwf	lcd_4bit_send_command@ret& (0+255),b
  8744                           
  8745                           ;ECU_layer/chr_LCD/ecu_chr_LCD.c: 79:         ret = lcd_4bit_send_enable_enable(lcd);
  8746   002EF8  C0E5  F0E2         	movff	lcd_4bit_send_command@lcd,lcd_4bit_send_enable_enable@lcd
  8747   002EFC  ECED  F01A         	call	_lcd_4bit_send_enable_enable	;wreg free
  8748   002F00  0100               	movlb	0	; () banked
  8749   002F02  6FE7               	movwf	lcd_4bit_send_command@ret& (0+255),b
  8750   002F04                     l6814:
  8751                           
  8752                           ; BSR set to: 0
  8753                           ;ECU_layer/chr_LCD/ecu_chr_LCD.c: 84:      return ret;
  8754   002F04  51E7               	movf	lcd_4bit_send_command@ret& (0+255),w,b
  8755   002F06                     
  8756                           ; BSR set to: 0
  8757   002F06  0012               	return		;funcret
  8758   002F08                     __end_of_lcd_4bit_send_command:
  8759                           	callstack 0
  8760                           
  8761 ;; *************** function _lcd_send_4bit *****************
  8762 ;; Defined at:
  8763 ;;		line 493 in file "ECU_layer/chr_LCD/ecu_chr_LCD.c"
  8764 ;; Parameters:    Size  Location     Type
  8765 ;;  lcd             1    8[BANK0 ] PTR const struct .
  8766 ;;		 -> lcd1(6), 
  8767 ;;  command_data    1    9[BANK0 ] unsigned char 
  8768 ;; Auto vars:     Size  Location     Type
  8769 ;;  ret             1   10[BANK0 ] unsigned char 
  8770 ;; Return value:  Size  Location     Type
  8771 ;;                  1    wreg      unsigned char 
  8772 ;; Registers used:
  8773 ;;		wreg, fsr2l, fsr2h, status,2, status,0, prodl, prodh, cstack
  8774 ;; Tracked objects:
  8775 ;;		On entry : 0/0
  8776 ;;		On exit  : 0/0
  8777 ;;		Unchanged: 0/0
  8778 ;; Data sizes:     COMRAM   BANK0   BANK1   BANK2   BANK3   BANK4   BANK5   BANK6   BANK7   BANK8   BANK9  BANK10  BANK1
      +1  BANK12  BANK13  BANK14  BANK15
  8779 ;;      Params:         0       2       0       0       0       0       0       0       0       0       0       0       
      +0       0       0       0       0
  8780 ;;      Locals:         0       1       0       0       0       0       0       0       0       0       0       0       
      +0       0       0       0       0
  8781 ;;      Temps:          0       0       0       0       0       0       0       0       0       0       0       0       
      +0       0       0       0       0
  8782 ;;      Totals:         0       3       0       0       0       0       0       0       0       0       0       0       
      +0       0       0       0       0
  8783 ;;Total ram usage:        3 bytes
  8784 ;; Hardware stack levels used: 1
  8785 ;; Hardware stack levels required when called: 9
  8786 ;; This function calls:
  8787 ;;		_gpio_pin_write_logic
  8788 ;; This function is called by:
  8789 ;;		_lcd_4bit_send_command
  8790 ;;		_lcd_4bit_send_char_data
  8791 ;; This function uses a non-reentrant model
  8792 ;;
  8793                           
  8794                           	psect	text35
  8795   0030E2                     __ptext35:
  8796                           	callstack 0
  8797   0030E2                     _lcd_send_4bit:
  8798                           	callstack 17
  8799   0030E2  0100               	movlb	0	; () banked
  8800   0030E4  51E2               	movf	lcd_send_4bit@lcd& (0+255),w,b
  8801   0030E6  0F02               	addlw	2
  8802   0030E8  6FDA               	movwf	gpio_pin_write_logic@_pin_config& (0+255),b
  8803   0030EA  51E3               	movf	lcd_send_4bit@command_data& (0+255),w,b
  8804   0030EC  0B01               	andlw	1
  8805   0030EE  6FDB               	movwf	gpio_pin_write_logic@logic& (0+255),b
  8806   0030F0  EC8F  F00F         	call	_gpio_pin_write_logic	;wreg free
  8807   0030F4  0100               	movlb	0	; () banked
  8808   0030F6  51E2               	movf	lcd_send_4bit@lcd& (0+255),w,b
  8809   0030F8  0F03               	addlw	3
  8810   0030FA  6FDA               	movwf	gpio_pin_write_logic@_pin_config& (0+255),b
  8811   0030FC  90D8               	bcf	status,0,c
  8812   0030FE  31E3               	rrcf	lcd_send_4bit@command_data& (0+255),w,b
  8813   003100  0B01               	andlw	1
  8814   003102  6FDB               	movwf	gpio_pin_write_logic@logic& (0+255),b
  8815   003104  EC8F  F00F         	call	_gpio_pin_write_logic	;wreg free
  8816   003108  0100               	movlb	0	; () banked
  8817   00310A  51E2               	movf	lcd_send_4bit@lcd& (0+255),w,b
  8818   00310C  0F04               	addlw	4
  8819   00310E  6FDA               	movwf	gpio_pin_write_logic@_pin_config& (0+255),b
  8820   003110  41E3               	rrncf	lcd_send_4bit@command_data& (0+255),w,b
  8821   003112  42E8               	rrncf	wreg,f,c
  8822   003114  0B3F               	andlw	63
  8823   003116  0B01               	andlw	1
  8824   003118  6FDB               	movwf	gpio_pin_write_logic@logic& (0+255),b
  8825   00311A  EC8F  F00F         	call	_gpio_pin_write_logic	;wreg free
  8826   00311E                     
  8827                           ;ECU_layer/chr_LCD/ecu_chr_LCD.c: 498: ret = gpio_pin_write_logic(&(lcd->data[3]),(comma
      +                          nd_data >> 3) & 0x01);
  8828   00311E  0100               	movlb	0	; () banked
  8829   003120  51E2               	movf	lcd_send_4bit@lcd& (0+255),w,b
  8830   003122  0F05               	addlw	5
  8831   003124  6FDA               	movwf	gpio_pin_write_logic@_pin_config& (0+255),b
  8832   003126  39E3               	swapf	lcd_send_4bit@command_data& (0+255),w,b
  8833   003128  46E8               	rlncf	wreg,f,c
  8834   00312A  0B1F               	andlw	31
  8835   00312C  0B01               	andlw	1
  8836   00312E  6FDB               	movwf	gpio_pin_write_logic@logic& (0+255),b
  8837   003130  EC8F  F00F         	call	_gpio_pin_write_logic	;wreg free
  8838   003134  0100               	movlb	0	; () banked
  8839   003136  6FE4               	movwf	lcd_send_4bit@ret& (0+255),b
  8840                           
  8841                           ;ECU_layer/chr_LCD/ecu_chr_LCD.c: 500: return ret;
  8842   003138  51E4               	movf	lcd_send_4bit@ret& (0+255),w,b
  8843   00313A                     
  8844                           ; BSR set to: 0
  8845   00313A  0012               	return		;funcret
  8846   00313C                     __end_of_lcd_send_4bit:
  8847                           	callstack 0
  8848                           
  8849 ;; *************** function _lcd_4bit_send_enable_enable *****************
  8850 ;; Defined at:
  8851 ;;		line 509 in file "ECU_layer/chr_LCD/ecu_chr_LCD.c"
  8852 ;; Parameters:    Size  Location     Type
  8853 ;;  lcd             1    8[BANK0 ] PTR const struct .
  8854 ;;		 -> lcd1(6), 
  8855 ;; Auto vars:     Size  Location     Type
  8856 ;;  ret             1    9[BANK0 ] unsigned char 
  8857 ;; Return value:  Size  Location     Type
  8858 ;;                  1    wreg      unsigned char 
  8859 ;; Registers used:
  8860 ;;		wreg, fsr2l, fsr2h, status,2, status,0, prodl, prodh, cstack
  8861 ;; Tracked objects:
  8862 ;;		On entry : 0/0
  8863 ;;		On exit  : 0/0
  8864 ;;		Unchanged: 0/0
  8865 ;; Data sizes:     COMRAM   BANK0   BANK1   BANK2   BANK3   BANK4   BANK5   BANK6   BANK7   BANK8   BANK9  BANK10  BANK1
      +1  BANK12  BANK13  BANK14  BANK15
  8866 ;;      Params:         0       1       0       0       0       0       0       0       0       0       0       0       
      +0       0       0       0       0
  8867 ;;      Locals:         0       1       0       0       0       0       0       0       0       0       0       0       
      +0       0       0       0       0
  8868 ;;      Temps:          0       0       0       0       0       0       0       0       0       0       0       0       
      +0       0       0       0       0
  8869 ;;      Totals:         0       2       0       0       0       0       0       0       0       0       0       0       
      +0       0       0       0       0
  8870 ;;Total ram usage:        2 bytes
  8871 ;; Hardware stack levels used: 1
  8872 ;; Hardware stack levels required when called: 9
  8873 ;; This function calls:
  8874 ;;		_gpio_pin_write_logic
  8875 ;; This function is called by:
  8876 ;;		_lcd_4bit_send_command
  8877 ;;		_lcd_4bit_send_char_data
  8878 ;; This function uses a non-reentrant model
  8879 ;;
  8880                           
  8881                           	psect	text36
  8882   0035DA                     __ptext36:
  8883                           	callstack 0
  8884   0035DA                     _lcd_4bit_send_enable_enable:
  8885                           	callstack 17
  8886   0035DA  0100               	movlb	0	; () banked
  8887   0035DC  29E2               	incf	lcd_4bit_send_enable_enable@lcd& (0+255),w,b
  8888   0035DE  6FDA               	movwf	gpio_pin_write_logic@_pin_config& (0+255),b
  8889   0035E0  0E01               	movlw	1
  8890   0035E2  6FDB               	movwf	gpio_pin_write_logic@logic& (0+255),b
  8891   0035E4  EC8F  F00F         	call	_gpio_pin_write_logic	;wreg free
  8892   0035E8                     
  8893                           ;ECU_layer/chr_LCD/ecu_chr_LCD.c: 512: _delay((unsigned long)((5)*(8000000ul/4000000.0))
      +                          );
  8894   0035E8  0E03               	movlw	3
  8895   0035EA                     u9737:
  8896   0035EA  2EE8               	decfsz	wreg,f,c
  8897   0035EC  D7FE               	bra	u9737
  8898   0035EE  0000               	nop	
  8899   0035F0                     
  8900                           ;ECU_layer/chr_LCD/ecu_chr_LCD.c: 513: ret = gpio_pin_write_logic(&(lcd->en),LOW);
  8901   0035F0  0100               	movlb	0	; () banked
  8902   0035F2  29E2               	incf	lcd_4bit_send_enable_enable@lcd& (0+255),w,b
  8903   0035F4  6FDA               	movwf	gpio_pin_write_logic@_pin_config& (0+255),b
  8904   0035F6  0E00               	movlw	0
  8905   0035F8  6FDB               	movwf	gpio_pin_write_logic@logic& (0+255),b
  8906   0035FA  EC8F  F00F         	call	_gpio_pin_write_logic	;wreg free
  8907   0035FE  0100               	movlb	0	; () banked
  8908   003600  6FE3               	movwf	lcd_4bit_send_enable_enable@ret& (0+255),b
  8909   003602                     
  8910                           ; BSR set to: 0
  8911                           ;ECU_layer/chr_LCD/ecu_chr_LCD.c: 515: return ret;
  8912   003602  51E3               	movf	lcd_4bit_send_enable_enable@ret& (0+255),w,b
  8913   003604                     
  8914                           ; BSR set to: 0
  8915   003604  0012               	return		;funcret
  8916   003606                     __end_of_lcd_4bit_send_enable_enable:
  8917                           	callstack 0
  8918                           
  8919 ;; *************** function _ecu_led_initialize *****************
  8920 ;; Defined at:
  8921 ;;		line 16 in file "ECU_layer/LED/ecu_led.c"
  8922 ;; Parameters:    Size  Location     Type
  8923 ;;  led             1   11[BANK0 ] PTR const struct .
  8924 ;;		 -> green_led(1), red_led(1), 
  8925 ;; Auto vars:     Size  Location     Type
  8926 ;;  led_pin         1   13[BANK0 ] struct .
  8927 ;;  ret             1    0        unsigned char 
  8928 ;; Return value:  Size  Location     Type
  8929 ;;                  1    wreg      unsigned char 
  8930 ;; Registers used:
  8931 ;;		wreg, fsr2l, fsr2h, status,2, status,0, prodl, prodh, cstack
  8932 ;; Tracked objects:
  8933 ;;		On entry : 0/0
  8934 ;;		On exit  : 0/0
  8935 ;;		Unchanged: 0/0
  8936 ;; Data sizes:     COMRAM   BANK0   BANK1   BANK2   BANK3   BANK4   BANK5   BANK6   BANK7   BANK8   BANK9  BANK10  BANK1
      +1  BANK12  BANK13  BANK14  BANK15
  8937 ;;      Params:         0       1       0       0       0       0       0       0       0       0       0       0       
      +0       0       0       0       0
  8938 ;;      Locals:         0       1       0       0       0       0       0       0       0       0       0       0       
      +0       0       0       0       0
  8939 ;;      Temps:          0       1       0       0       0       0       0       0       0       0       0       0       
      +0       0       0       0       0
  8940 ;;      Totals:         0       3       0       0       0       0       0       0       0       0       0       0       
      +0       0       0       0       0
  8941 ;;Total ram usage:        3 bytes
  8942 ;; Hardware stack levels used: 1
  8943 ;; Hardware stack levels required when called: 10
  8944 ;; This function calls:
  8945 ;;		_gpio_pin_initialize
  8946 ;; This function is called by:
  8947 ;;		_ecu_layer_Initialization
  8948 ;; This function uses a non-reentrant model
  8949 ;;
  8950                           
  8951                           	psect	text37
  8952   002DCE                     __ptext37:
  8953                           	callstack 0
  8954   002DCE                     _ecu_led_initialize:
  8955                           	callstack 18
  8956   002DCE                     
  8957                           ;ECU_layer/LED/ecu_led.c: 18:     if(((void*)0) == led)
  8958   002DCE  0100               	movlb	0	; () banked
  8959   002DD0  51E5               	movf	ecu_led_initialize@led& (0+255),w,b
  8960   002DD2  A4D8               	btfss	status,2,c
  8961   002DD4  EFEE  F016         	goto	u6531
  8962   002DD8  EFF0  F016         	goto	u6530
  8963   002DDC                     u6531:
  8964   002DDC  EFF2  F016         	goto	l269
  8965   002DE0                     u6530:
  8966   002DE0                     
  8967                           ; BSR set to: 0
  8968                           ;ECU_layer/LED/ecu_led.c: 21:     }
  8969   002DE0  EF1B  F017         	goto	l273
  8970   002DE4                     l269:
  8971                           
  8972                           ; BSR set to: 0
  8973                           ;ECU_layer/LED/ecu_led.c: 23:     {;ECU_layer/LED/ecu_led.c: 24:         pin_config_t le
      +                          d_pin = {.port =led->port_name , .pin = led->pin ,
  8974   002DE4  C047  F0E7         	movff	ecu_led_initialize@F3059,ecu_led_initialize@led_pin
  8975   002DE8                     
  8976                           ; BSR set to: 0
  8977   002DE8  51E5               	movf	ecu_led_initialize@led& (0+255),w,b
  8978   002DEA  6ED9               	movwf	fsr2l,c
  8979   002DEC  6ADA               	clrf	fsr2h,c
  8980   002DEE  50DF               	movf	223,w,c
  8981   002DF0  0B0F               	andlw	15
  8982   002DF2  6FE6               	movwf	??_ecu_led_initialize& (0+255),b
  8983   002DF4  51E7               	movf	ecu_led_initialize@led_pin& (0+255),w,b
  8984   002DF6  19E6               	xorwf	??_ecu_led_initialize& (0+255),w,b
  8985   002DF8  0BF8               	andlw	-8
  8986   002DFA  19E6               	xorwf	??_ecu_led_initialize& (0+255),w,b
  8987   002DFC  6FE7               	movwf	ecu_led_initialize@led_pin& (0+255),b
  8988   002DFE  51E5               	movf	ecu_led_initialize@led& (0+255),w,b
  8989   002E00  6ED9               	movwf	fsr2l,c
  8990   002E02  6ADA               	clrf	fsr2h,c
  8991   002E04  38DF               	swapf	223,w,c
  8992   002E06  0B07               	andlw	7
  8993   002E08  6FE6               	movwf	??_ecu_led_initialize& (0+255),b
  8994   002E0A  47E6               	rlncf	??_ecu_led_initialize& (0+255),f,b
  8995   002E0C  47E6               	rlncf	??_ecu_led_initialize& (0+255),f,b
  8996   002E0E  47E6               	rlncf	??_ecu_led_initialize& (0+255),f,b
  8997   002E10  51E7               	movf	ecu_led_initialize@led_pin& (0+255),w,b
  8998   002E12  19E6               	xorwf	??_ecu_led_initialize& (0+255),w,b
  8999   002E14  0BC7               	andlw	-57
  9000   002E16  19E6               	xorwf	??_ecu_led_initialize& (0+255),w,b
  9001   002E18  6FE7               	movwf	ecu_led_initialize@led_pin& (0+255),b
  9002   002E1A                     
  9003                           ; BSR set to: 0
  9004   002E1A  9DE7               	bcf	ecu_led_initialize@led_pin& (0+255),6,b
  9005   002E1C                     
  9006                           ; BSR set to: 0
  9007   002E1C  51E5               	movf	ecu_led_initialize@led& (0+255),w,b
  9008   002E1E  6ED9               	movwf	fsr2l,c
  9009   002E20  6ADA               	clrf	fsr2h,c
  9010   002E22  AEDF               	btfss	indf2,7,c
  9011   002E24  D002               	bra	u6545
  9012   002E26  8FE7               	bsf	ecu_led_initialize@led_pin& (0+255),7,b
  9013   002E28  D002               	bra	u6547
  9014   002E2A                     u6545:
  9015   002E2A  0100               	movlb	0	; () banked
  9016   002E2C  9FE7               	bcf	ecu_led_initialize@led_pin& (0+255),7,b
  9017   002E2E                     u6547:
  9018   002E2E                     
  9019                           ; BSR set to: 0
  9020                           ;ECU_layer/LED/ecu_led.c: 26:         gpio_pin_initialize(&led_pin);
  9021   002E2E  0EE7               	movlw	low ecu_led_initialize@led_pin
  9022   002E30  6FE2               	movwf	gpio_pin_initialize@_pin_config& (0+255),b
  9023   002E32  EC84  F017         	call	_gpio_pin_initialize	;wreg free
  9024   002E36                     l273:
  9025   002E36  0012               	return		;funcret
  9026   002E38                     __end_of_ecu_led_initialize:
  9027                           	callstack 0
  9028                           
  9029 ;; *************** function _ecu_keypad_initialize *****************
  9030 ;; Defined at:
  9031 ;;		line 25 in file "ECU_layer/Keypad/ecu_keypad.c"
  9032 ;; Parameters:    Size  Location     Type
  9033 ;;  keypad          1   11[BANK0 ] PTR const struct .
  9034 ;;		 -> keypad(8), 
  9035 ;; Auto vars:     Size  Location     Type
  9036 ;;  columns         1   13[BANK0 ] unsigned char 
  9037 ;;  rows            1   12[BANK0 ] unsigned char 
  9038 ;;  ret             1    0        unsigned char 
  9039 ;; Return value:  Size  Location     Type
  9040 ;;                  1    wreg      unsigned char 
  9041 ;; Registers used:
  9042 ;;		wreg, fsr2l, fsr2h, status,2, status,0, prodl, prodh, cstack
  9043 ;; Tracked objects:
  9044 ;;		On entry : 0/0
  9045 ;;		On exit  : 0/0
  9046 ;;		Unchanged: 0/0
  9047 ;; Data sizes:     COMRAM   BANK0   BANK1   BANK2   BANK3   BANK4   BANK5   BANK6   BANK7   BANK8   BANK9  BANK10  BANK1
      +1  BANK12  BANK13  BANK14  BANK15
  9048 ;;      Params:         0       1       0       0       0       0       0       0       0       0       0       0       
      +0       0       0       0       0
  9049 ;;      Locals:         0       2       0       0       0       0       0       0       0       0       0       0       
      +0       0       0       0       0
  9050 ;;      Temps:          0       0       0       0       0       0       0       0       0       0       0       0       
      +0       0       0       0       0
  9051 ;;      Totals:         0       3       0       0       0       0       0       0       0       0       0       0       
      +0       0       0       0       0
  9052 ;;Total ram usage:        3 bytes
  9053 ;; Hardware stack levels used: 1
  9054 ;; Hardware stack levels required when called: 10
  9055 ;; This function calls:
  9056 ;;		_gpio_pin_direction_initialize
  9057 ;;		_gpio_pin_initialize
  9058 ;; This function is called by:
  9059 ;;		_ecu_layer_Initialization
  9060 ;; This function uses a non-reentrant model
  9061 ;;
  9062                           
  9063                           	psect	text38
  9064   002FCC                     __ptext38:
  9065                           	callstack 0
  9066   002FCC                     _ecu_keypad_initialize:
  9067                           	callstack 18
  9068   002FCC                     
  9069                           ;ECU_layer/Keypad/ecu_keypad.c: 27: uint8 rows,columns;;ECU_layer/Keypad/ecu_keypad.c: 2
      +                          8:     if(((void*)0) == keypad)
  9070   002FCC  0100               	movlb	0	; () banked
  9071   002FCE  51E5               	movf	ecu_keypad_initialize@keypad& (0+255),w,b
  9072   002FD0  A4D8               	btfss	status,2,c
  9073   002FD2  EFED  F017         	goto	u6441
  9074   002FD6  EFEF  F017         	goto	u6440
  9075   002FDA                     u6441:
  9076   002FDA  EFF1  F017         	goto	l7254
  9077   002FDE                     u6440:
  9078   002FDE                     
  9079                           ; BSR set to: 0
  9080                           ;ECU_layer/Keypad/ecu_keypad.c: 31:     }
  9081   002FDE  EF14  F018         	goto	l246
  9082   002FE2                     l7254:
  9083                           
  9084                           ; BSR set to: 0
  9085                           ;ECU_layer/Keypad/ecu_keypad.c: 33:     {;ECU_layer/Keypad/ecu_keypad.c: 34:         for
      +                          (rows = 0;rows < 4 ;rows++)
  9086   002FE2  0E00               	movlw	0
  9087   002FE4  6FE6               	movwf	ecu_keypad_initialize@rows& (0+255),b
  9088   002FE6                     l7260:
  9089                           
  9090                           ; BSR set to: 0
  9091                           ;ECU_layer/Keypad/ecu_keypad.c: 35:         {;ECU_layer/Keypad/ecu_keypad.c: 36:        
      +                               gpio_pin_initialize(&(keypad->keypad_rows_pins[rows]));
  9092   002FE6  51E5               	movf	ecu_keypad_initialize@keypad& (0+255),w,b
  9093   002FE8  25E6               	addwf	ecu_keypad_initialize@rows& (0+255),w,b
  9094   002FEA  6FE2               	movwf	gpio_pin_initialize@_pin_config& (0+255),b
  9095   002FEC  EC84  F017         	call	_gpio_pin_initialize	;wreg free
  9096   002FF0                     
  9097                           ;ECU_layer/Keypad/ecu_keypad.c: 38:         }
  9098   002FF0  0100               	movlb	0	; () banked
  9099   002FF2  2BE6               	incf	ecu_keypad_initialize@rows& (0+255),f,b
  9100   002FF4                     
  9101                           ; BSR set to: 0
  9102   002FF4  0E03               	movlw	3
  9103   002FF6  65E6               	cpfsgt	ecu_keypad_initialize@rows& (0+255),b
  9104   002FF8  EF00  F018         	goto	u6451
  9105   002FFC  EF02  F018         	goto	u6450
  9106   003000                     u6451:
  9107   003000  EFF3  F017         	goto	l7260
  9108   003004                     u6450:
  9109   003004                     
  9110                           ; BSR set to: 0
  9111                           ;ECU_layer/Keypad/ecu_keypad.c: 39:         for(columns = 0;columns < 4 ;columns++){
  9112   003004  0E00               	movlw	0
  9113   003006  6FE7               	movwf	ecu_keypad_initialize@columns& (0+255),b
  9114   003008                     l7272:
  9115                           
  9116                           ; BSR set to: 0
  9117                           ;ECU_layer/Keypad/ecu_keypad.c: 40:                 gpio_pin_direction_initialize(&(keyp
      +                          ad->keypad_columns_pins[columns]));
  9118   003008  51E5               	movf	ecu_keypad_initialize@keypad& (0+255),w,b
  9119   00300A  25E7               	addwf	ecu_keypad_initialize@columns& (0+255),w,b
  9120   00300C  0F04               	addlw	4
  9121   00300E  6FDA               	movwf	gpio_pin_direction_initialize@_pin_config& (0+255),b
  9122   003010  EC6A  F00E         	call	_gpio_pin_direction_initialize	;wreg free
  9123   003014                     
  9124                           ;ECU_layer/Keypad/ecu_keypad.c: 41:             }
  9125   003014  0100               	movlb	0	; () banked
  9126   003016  2BE7               	incf	ecu_keypad_initialize@columns& (0+255),f,b
  9127   003018                     
  9128                           ; BSR set to: 0
  9129   003018  0E03               	movlw	3
  9130   00301A  65E7               	cpfsgt	ecu_keypad_initialize@columns& (0+255),b
  9131   00301C  EF12  F018         	goto	u6461
  9132   003020  EF14  F018         	goto	u6460
  9133   003024                     u6461:
  9134   003024  EF04  F018         	goto	l7272
  9135   003028                     u6460:
  9136   003028                     l246:
  9137                           
  9138                           ; BSR set to: 0
  9139   003028  0012               	return		;funcret
  9140   00302A                     __end_of_ecu_keypad_initialize:
  9141                           	callstack 0
  9142                           
  9143 ;; *************** function _ecu_dc_motor_initialize *****************
  9144 ;; Defined at:
  9145 ;;		line 19 in file "ECU_layer/DC_motor/ecu_DC_motor.c"
  9146 ;; Parameters:    Size  Location     Type
  9147 ;;  dc_motor        1   11[BANK0 ] PTR const struct .
  9148 ;;		 -> motor1(2), 
  9149 ;; Auto vars:     Size  Location     Type
  9150 ;;  ret             1    0        unsigned char 
  9151 ;; Return value:  Size  Location     Type
  9152 ;;                  1    wreg      unsigned char 
  9153 ;; Registers used:
  9154 ;;		wreg, fsr2l, fsr2h, status,2, status,0, prodl, prodh, cstack
  9155 ;; Tracked objects:
  9156 ;;		On entry : 0/0
  9157 ;;		On exit  : 0/0
  9158 ;;		Unchanged: 0/0
  9159 ;; Data sizes:     COMRAM   BANK0   BANK1   BANK2   BANK3   BANK4   BANK5   BANK6   BANK7   BANK8   BANK9  BANK10  BANK1
      +1  BANK12  BANK13  BANK14  BANK15
  9160 ;;      Params:         0       1       0       0       0       0       0       0       0       0       0       0       
      +0       0       0       0       0
  9161 ;;      Locals:         0       0       0       0       0       0       0       0       0       0       0       0       
      +0       0       0       0       0
  9162 ;;      Temps:          0       0       0       0       0       0       0       0       0       0       0       0       
      +0       0       0       0       0
  9163 ;;      Totals:         0       1       0       0       0       0       0       0       0       0       0       0       
      +0       0       0       0       0
  9164 ;;Total ram usage:        1 bytes
  9165 ;; Hardware stack levels used: 1
  9166 ;; Hardware stack levels required when called: 10
  9167 ;; This function calls:
  9168 ;;		_gpio_pin_initialize
  9169 ;; This function is called by:
  9170 ;;		_ecu_layer_Initialization
  9171 ;; This function uses a non-reentrant model
  9172 ;;
  9173                           
  9174                           	psect	text39
  9175   003606                     __ptext39:
  9176                           	callstack 0
  9177   003606                     _ecu_dc_motor_initialize:
  9178                           	callstack 18
  9179   003606                     
  9180                           ;ECU_layer/DC_motor/ecu_DC_motor.c: 21:     if(((void*)0) == dc_motor)
  9181   003606  0100               	movlb	0	; () banked
  9182   003608  51E5               	movf	ecu_dc_motor_initialize@dc_motor& (0+255),w,b
  9183   00360A  A4D8               	btfss	status,2,c
  9184   00360C  EF0A  F01B         	goto	u6431
  9185   003610  EF0C  F01B         	goto	u6430
  9186   003614                     u6431:
  9187   003614  EF0E  F01B         	goto	l7246
  9188   003618                     u6430:
  9189   003618                     
  9190                           ; BSR set to: 0
  9191                           ;ECU_layer/DC_motor/ecu_DC_motor.c: 24:     }
  9192   003618  EF17  F01B         	goto	l210
  9193   00361C                     l7246:
  9194                           
  9195                           ; BSR set to: 0
  9196                           ;ECU_layer/DC_motor/ecu_DC_motor.c: 26:     {;ECU_layer/DC_motor/ecu_DC_motor.c: 28:    
      +                               gpio_pin_initialize(&(dc_motor->dc_motor_pin[0]));
  9197   00361C  C0E5  F0E2         	movff	ecu_dc_motor_initialize@dc_motor,gpio_pin_initialize@_pin_config
  9198   003620  EC84  F017         	call	_gpio_pin_initialize	;wreg free
  9199                           
  9200                           ;ECU_layer/DC_motor/ecu_DC_motor.c: 29:         gpio_pin_initialize(&(dc_motor->dc_motor
      +                          _pin[1]));
  9201   003624  0100               	movlb	0	; () banked
  9202   003626  29E5               	incf	ecu_dc_motor_initialize@dc_motor& (0+255),w,b
  9203   003628  6FE2               	movwf	gpio_pin_initialize@_pin_config& (0+255),b
  9204   00362A  EC84  F017         	call	_gpio_pin_initialize	;wreg free
  9205   00362E                     l210:
  9206   00362E  0012               	return		;funcret
  9207   003630                     __end_of_ecu_dc_motor_initialize:
  9208                           	callstack 0
  9209                           
  9210 ;; *************** function _gpio_pin_initialize *****************
  9211 ;; Defined at:
  9212 ;;		line 164 in file "MCAL_layer/GPIO/hal_gpio.c"
  9213 ;; Parameters:    Size  Location     Type
  9214 ;;  _pin_config     1    8[BANK0 ] PTR const struct .
  9215 ;;		 -> buzzer(1), keypad$keypad_rows_pins(4), keypad(8), lcd1$data(4), 
  9216 ;;		 -> motor1$dc_motor_pin(2), motor1(2), lcd1(6), ecu_relay_initialize@relay_pin(1), 
  9217 ;;		 -> ecu_led_initialize@led_pin(1), 
  9218 ;; Auto vars:     Size  Location     Type
  9219 ;;  ret             1   10[BANK0 ] unsigned char 
  9220 ;; Return value:  Size  Location     Type
  9221 ;;                  1    wreg      unsigned char 
  9222 ;; Registers used:
  9223 ;;		wreg, fsr2l, fsr2h, status,2, status,0, prodl, prodh, cstack
  9224 ;; Tracked objects:
  9225 ;;		On entry : 0/0
  9226 ;;		On exit  : 0/0
  9227 ;;		Unchanged: 0/0
  9228 ;; Data sizes:     COMRAM   BANK0   BANK1   BANK2   BANK3   BANK4   BANK5   BANK6   BANK7   BANK8   BANK9  BANK10  BANK1
      +1  BANK12  BANK13  BANK14  BANK15
  9229 ;;      Params:         0       1       0       0       0       0       0       0       0       0       0       0       
      +0       0       0       0       0
  9230 ;;      Locals:         0       1       0       0       0       0       0       0       0       0       0       0       
      +0       0       0       0       0
  9231 ;;      Temps:          0       1       0       0       0       0       0       0       0       0       0       0       
      +0       0       0       0       0
  9232 ;;      Totals:         0       3       0       0       0       0       0       0       0       0       0       0       
      +0       0       0       0       0
  9233 ;;Total ram usage:        3 bytes
  9234 ;; Hardware stack levels used: 1
  9235 ;; Hardware stack levels required when called: 9
  9236 ;; This function calls:
  9237 ;;		_gpio_pin_direction_initialize
  9238 ;;		_gpio_pin_write_logic
  9239 ;; This function is called by:
  9240 ;;		_lcd_4bit_initialize
  9241 ;;		_ecu_dc_motor_initialize
  9242 ;;		_ecu_keypad_initialize
  9243 ;;		_ecu_led_initialize
  9244 ;;		_ecu_layer_Initialization
  9245 ;;		_ecu_seven_segment_initialize
  9246 ;;		_lcd_8bit_initialize
  9247 ;;		_ecu_relay_initialize
  9248 ;; This function uses a non-reentrant model
  9249 ;;
  9250                           
  9251                           	psect	text40
  9252   002F08                     __ptext40:
  9253                           	callstack 0
  9254   002F08                     _gpio_pin_initialize:
  9255                           	callstack 18
  9256   002F08                     
  9257                           ;MCAL_layer/GPIO/hal_gpio.c: 167:     if(((void*)0) == _pin_config || _pin_config->pin >
      +                           8 -1)
  9258   002F08  0100               	movlb	0	; () banked
  9259   002F0A  51E2               	movf	gpio_pin_initialize@_pin_config& (0+255),w,b
  9260   002F0C  B4D8               	btfsc	status,2,c
  9261   002F0E  EF8B  F017         	goto	u6121
  9262   002F12  EF8D  F017         	goto	u6120
  9263   002F16                     u6121:
  9264   002F16  EF9D  F017         	goto	l6914
  9265   002F1A                     u6120:
  9266   002F1A                     
  9267                           ; BSR set to: 0
  9268   002F1A  51E2               	movf	gpio_pin_initialize@_pin_config& (0+255),w,b
  9269   002F1C  6ED9               	movwf	fsr2l,c
  9270   002F1E  6ADA               	clrf	fsr2h,c
  9271   002F20  30DF               	rrcf	223,w,c
  9272   002F22  32E8               	rrcf	wreg,f,c
  9273   002F24  32E8               	rrcf	wreg,f,c
  9274   002F26  0B07               	andlw	7
  9275   002F28  6FE3               	movwf	??_gpio_pin_initialize& (0+255),b
  9276   002F2A  0E07               	movlw	7
  9277   002F2C  65E3               	cpfsgt	??_gpio_pin_initialize& (0+255),b
  9278   002F2E  EF9B  F017         	goto	u6131
  9279   002F32  EF9D  F017         	goto	u6130
  9280   002F36                     u6131:
  9281   002F36  EFA1  F017         	goto	l6916
  9282   002F3A                     u6130:
  9283   002F3A                     l6914:
  9284                           
  9285                           ; BSR set to: 0
  9286                           ;MCAL_layer/GPIO/hal_gpio.c: 168:     {;MCAL_layer/GPIO/hal_gpio.c: 169:         ret = (
      +                          STD_ReturnType)0x00;
  9287   002F3A  0E00               	movlw	0
  9288   002F3C  6FE4               	movwf	gpio_pin_initialize@ret& (0+255),b
  9289                           
  9290                           ;MCAL_layer/GPIO/hal_gpio.c: 170:     }
  9291   002F3E  EFB4  F017         	goto	l6918
  9292   002F42                     l6916:
  9293                           
  9294                           ; BSR set to: 0
  9295                           ;MCAL_layer/GPIO/hal_gpio.c: 172:     {;MCAL_layer/GPIO/hal_gpio.c: 173:         ret = g
      +                          pio_pin_direction_initialize(_pin_config);
  9296   002F42  C0E2  F0DA         	movff	gpio_pin_initialize@_pin_config,gpio_pin_direction_initialize@_pin_config
  9297   002F46  EC6A  F00E         	call	_gpio_pin_direction_initialize	;wreg free
  9298   002F4A  0100               	movlb	0	; () banked
  9299   002F4C  6FE4               	movwf	gpio_pin_initialize@ret& (0+255),b
  9300                           
  9301                           ;MCAL_layer/GPIO/hal_gpio.c: 174:         ret = gpio_pin_write_logic(_pin_config, _pin_c
      +                          onfig->logic);
  9302   002F4E  C0E2  F0DA         	movff	gpio_pin_initialize@_pin_config,gpio_pin_write_logic@_pin_config
  9303   002F52  51E2               	movf	gpio_pin_initialize@_pin_config& (0+255),w,b
  9304   002F54  6ED9               	movwf	fsr2l,c
  9305   002F56  6ADA               	clrf	fsr2h,c
  9306   002F58  0E00               	movlw	0
  9307   002F5A  BEDF               	btfsc	indf2,7,c
  9308   002F5C  0E01               	movlw	1
  9309   002F5E  6FDB               	movwf	gpio_pin_write_logic@logic& (0+255),b
  9310   002F60  EC8F  F00F         	call	_gpio_pin_write_logic	;wreg free
  9311   002F64  0100               	movlb	0	; () banked
  9312   002F66  6FE4               	movwf	gpio_pin_initialize@ret& (0+255),b
  9313   002F68                     l6918:
  9314                           
  9315                           ; BSR set to: 0
  9316                           ;MCAL_layer/GPIO/hal_gpio.c: 177:      return ret;
  9317   002F68  51E4               	movf	gpio_pin_initialize@ret& (0+255),w,b
  9318   002F6A                     
  9319                           ; BSR set to: 0
  9320   002F6A  0012               	return		;funcret
  9321   002F6C                     __end_of_gpio_pin_initialize:
  9322                           	callstack 0
  9323                           
  9324 ;; *************** function _gpio_pin_write_logic *****************
  9325 ;; Defined at:
  9326 ;;		line 83 in file "MCAL_layer/GPIO/hal_gpio.c"
  9327 ;; Parameters:    Size  Location     Type
  9328 ;;  _pin_config     1    0[BANK0 ] PTR const struct .
  9329 ;;		 -> buzzer(1), keypad$keypad_rows_pins(4), keypad(8), lcd1$data(4), 
  9330 ;;		 -> motor1$dc_motor_pin(2), motor1(2), lcd1(6), ecu_relay_off@relay_pin(1), 
  9331 ;;		 -> ecu_relay_on@relay_pin(1), ecu_relay_initialize@relay_pin(1), ecu_led_turn_off@led_pin(1), ecu_led_turn_on@led_p
      +in(1), 
  9332 ;;		 -> ecu_led_initialize@led_pin(1), 
  9333 ;;  logic           1    1[BANK0 ] enum E2979
  9334 ;; Auto vars:     Size  Location     Type
  9335 ;;  ret             1    7[BANK0 ] unsigned char 
  9336 ;; Return value:  Size  Location     Type
  9337 ;;                  1    wreg      unsigned char 
  9338 ;; Registers used:
  9339 ;;		wreg, fsr2l, fsr2h, status,2, status,0, prodl, prodh
  9340 ;; Tracked objects:
  9341 ;;		On entry : 0/0
  9342 ;;		On exit  : 0/0
  9343 ;;		Unchanged: 0/0
  9344 ;; Data sizes:     COMRAM   BANK0   BANK1   BANK2   BANK3   BANK4   BANK5   BANK6   BANK7   BANK8   BANK9  BANK10  BANK1
      +1  BANK12  BANK13  BANK14  BANK15
  9345 ;;      Params:         0       2       0       0       0       0       0       0       0       0       0       0       
      +0       0       0       0       0
  9346 ;;      Locals:         0       1       0       0       0       0       0       0       0       0       0       0       
      +0       0       0       0       0
  9347 ;;      Temps:          0       5       0       0       0       0       0       0       0       0       0       0       
      +0       0       0       0       0
  9348 ;;      Totals:         0       8       0       0       0       0       0       0       0       0       0       0       
      +0       0       0       0       0
  9349 ;;Total ram usage:        8 bytes
  9350 ;; Hardware stack levels used: 1
  9351 ;; Hardware stack levels required when called: 8
  9352 ;; This function calls:
  9353 ;;		Nothing
  9354 ;; This function is called by:
  9355 ;;		_lcd_4bit_send_command
  9356 ;;		_lcd_4bit_send_char_data
  9357 ;;		_lcd_send_4bit
  9358 ;;		_lcd_4bit_send_enable_enable
  9359 ;;		_ecu_dc_motor_move_left
  9360 ;;		_ecu_dc_motor_stop
  9361 ;;		_ecu_keypad_get_value
  9362 ;;		_ecu_led_turn_on
  9363 ;;		_ecu_led_turn_off
  9364 ;;		_gpio_pin_initialize
  9365 ;;		_main
  9366 ;;		_ecu_seven_segment_write_number
  9367 ;;		_lcd_8bit_send_command
  9368 ;;		_lcd_8bit_send_char_data
  9369 ;;		_lcd_8bit_send_enable_enable
  9370 ;;		_ecu_dc_motor_move_right
  9371 ;;		_ecu_relay_on
  9372 ;;		_ecu_relay_off
  9373 ;; This function uses a non-reentrant model
  9374 ;;
  9375                           
  9376                           	psect	text41
  9377   001F1E                     __ptext41:
  9378                           	callstack 0
  9379   001F1E                     _gpio_pin_write_logic:
  9380                           	callstack 17
  9381   001F1E                     
  9382                           ;MCAL_layer/GPIO/hal_gpio.c: 83: STD_ReturnType gpio_pin_write_logic(const pin_config_t*
      +                           _pin_config, logic_t logic);MCAL_layer/GPIO/hal_gpio.c: 84: {;MCAL_layer/GPIO/hal_gpio.
      +                          c: 85:     STD_ReturnType ret = (STD_ReturnType)0x01;
  9383   001F1E  0E01               	movlw	1
  9384   001F20  0100               	movlb	0	; () banked
  9385   001F22  6FE1               	movwf	gpio_pin_write_logic@ret& (0+255),b
  9386                           
  9387                           ;MCAL_layer/GPIO/hal_gpio.c: 86:     if(((void*)0) == _pin_config || _pin_config->pin > 
      +                          8 -1)
  9388   001F24  51DA               	movf	gpio_pin_write_logic@_pin_config& (0+255),w,b
  9389   001F26  B4D8               	btfsc	status,2,c
  9390   001F28  EF98  F00F         	goto	u5661
  9391   001F2C  EF9A  F00F         	goto	u5660
  9392   001F30                     u5661:
  9393   001F30  EFAA  F00F         	goto	l6600
  9394   001F34                     u5660:
  9395   001F34                     
  9396                           ; BSR set to: 0
  9397   001F34  51DA               	movf	gpio_pin_write_logic@_pin_config& (0+255),w,b
  9398   001F36  6ED9               	movwf	fsr2l,c
  9399   001F38  6ADA               	clrf	fsr2h,c
  9400   001F3A  30DF               	rrcf	223,w,c
  9401   001F3C  32E8               	rrcf	wreg,f,c
  9402   001F3E  32E8               	rrcf	wreg,f,c
  9403   001F40  0B07               	andlw	7
  9404   001F42  6FDC               	movwf	??_gpio_pin_write_logic& (0+255),b
  9405   001F44  0E07               	movlw	7
  9406   001F46  65DC               	cpfsgt	??_gpio_pin_write_logic& (0+255),b
  9407   001F48  EFA8  F00F         	goto	u5671
  9408   001F4C  EFAA  F00F         	goto	u5670
  9409   001F50                     u5671:
  9410   001F50  EF03  F010         	goto	l6608
  9411   001F54                     u5670:
  9412   001F54                     l6600:
  9413                           
  9414                           ; BSR set to: 0
  9415                           ;MCAL_layer/GPIO/hal_gpio.c: 87:     {;MCAL_layer/GPIO/hal_gpio.c: 88:         ret = (ST
      +                          D_ReturnType)0x00;
  9416   001F54  0E00               	movlw	0
  9417   001F56  6FE1               	movwf	gpio_pin_write_logic@ret& (0+255),b
  9418                           
  9419                           ;MCAL_layer/GPIO/hal_gpio.c: 89:     }
  9420   001F58  EF18  F010         	goto	l6610
  9421   001F5C                     l6602:
  9422                           
  9423                           ; BSR set to: 0
  9424                           ;MCAL_layer/GPIO/hal_gpio.c: 95:             (*lat_registers[_pin_config->port] &= ~((ui
      +                          nt8)1 << _pin_config->pin));
  9425   001F5C  51DA               	movf	gpio_pin_write_logic@_pin_config& (0+255),w,b
  9426   001F5E  6ED9               	movwf	fsr2l,c
  9427   001F60  6ADA               	clrf	fsr2h,c
  9428   001F62  30DF               	rrcf	223,w,c
  9429   001F64  32E8               	rrcf	wreg,f,c
  9430   001F66  32E8               	rrcf	wreg,f,c
  9431   001F68  0B07               	andlw	7
  9432   001F6A  6FDC               	movwf	??_gpio_pin_write_logic& (0+255),b
  9433   001F6C  0E01               	movlw	1
  9434   001F6E  6FDD               	movwf	(??_gpio_pin_write_logic+1)& (0+255),b
  9435   001F70  2BDC               	incf	??_gpio_pin_write_logic& (0+255),f,b
  9436   001F72  EFBD  F00F         	goto	u5684
  9437   001F76                     u5685:
  9438   001F76  90D8               	bcf	status,0,c
  9439   001F78  37DD               	rlcf	(??_gpio_pin_write_logic+1)& (0+255),f,b
  9440   001F7A                     u5684:
  9441   001F7A  2FDC               	decfsz	??_gpio_pin_write_logic& (0+255),f,b
  9442   001F7C  EFBB  F00F         	goto	u5685
  9443   001F80  0100               	movlb	0	; () banked
  9444   001F82  51DD               	movf	(??_gpio_pin_write_logic+1)& (0+255),w,b
  9445   001F84  0AFF               	xorlw	255
  9446   001F86  6FDE               	movwf	(??_gpio_pin_write_logic+2)& (0+255),b
  9447   001F88  51DA               	movf	gpio_pin_write_logic@_pin_config& (0+255),w,b
  9448   001F8A  6ED9               	movwf	fsr2l,c
  9449   001F8C  6ADA               	clrf	fsr2h,c
  9450   001F8E  50DF               	movf	223,w,c
  9451   001F90  0B07               	andlw	7
  9452   001F92  0D02               	mullw	2
  9453   001F94  50F3               	movf	243,w,c
  9454   001F96  0F8A               	addlw	low _lat_registers
  9455   001F98  6ED9               	movwf	fsr2l,c
  9456   001F9A  6ADA               	clrf	fsr2h,c
  9457   001F9C  CFDE F0DF          	movff	postinc2,??_gpio_pin_write_logic+3
  9458   001FA0  CFDD F0E0          	movff	postdec2,??_gpio_pin_write_logic+4
  9459   001FA4  C0DF  FFD9         	movff	??_gpio_pin_write_logic+3,fsr2l
  9460   001FA8  C0E0  FFDA         	movff	??_gpio_pin_write_logic+4,fsr2h
  9461   001FAC  51DE               	movf	(??_gpio_pin_write_logic+2)& (0+255),w,b
  9462   001FAE  16DF               	andwf	indf2,f,c
  9463                           
  9464                           ;MCAL_layer/GPIO/hal_gpio.c: 96:             break;
  9465   001FB0  EF18  F010         	goto	l6610
  9466   001FB4                     l6604:
  9467                           
  9468                           ; BSR set to: 0
  9469                           ;MCAL_layer/GPIO/hal_gpio.c: 98:             (*lat_registers[_pin_config->port] |= ((uin
      +                          t8)1 << _pin_config->pin));
  9470   001FB4  51DA               	movf	gpio_pin_write_logic@_pin_config& (0+255),w,b
  9471   001FB6  6ED9               	movwf	fsr2l,c
  9472   001FB8  6ADA               	clrf	fsr2h,c
  9473   001FBA  30DF               	rrcf	223,w,c
  9474   001FBC  32E8               	rrcf	wreg,f,c
  9475   001FBE  32E8               	rrcf	wreg,f,c
  9476   001FC0  0B07               	andlw	7
  9477   001FC2  6FDC               	movwf	??_gpio_pin_write_logic& (0+255),b
  9478   001FC4  0E01               	movlw	1
  9479   001FC6  6FDD               	movwf	(??_gpio_pin_write_logic+1)& (0+255),b
  9480   001FC8  2BDC               	incf	??_gpio_pin_write_logic& (0+255),f,b
  9481   001FCA  EFE9  F00F         	goto	u5694
  9482   001FCE                     u5695:
  9483   001FCE  90D8               	bcf	status,0,c
  9484   001FD0  37DD               	rlcf	(??_gpio_pin_write_logic+1)& (0+255),f,b
  9485   001FD2                     u5694:
  9486   001FD2  2FDC               	decfsz	??_gpio_pin_write_logic& (0+255),f,b
  9487   001FD4  EFE7  F00F         	goto	u5695
  9488   001FD8  0100               	movlb	0	; () banked
  9489   001FDA  51DA               	movf	gpio_pin_write_logic@_pin_config& (0+255),w,b
  9490   001FDC  6ED9               	movwf	fsr2l,c
  9491   001FDE  6ADA               	clrf	fsr2h,c
  9492   001FE0  50DF               	movf	223,w,c
  9493   001FE2  0B07               	andlw	7
  9494   001FE4  0D02               	mullw	2
  9495   001FE6  50F3               	movf	243,w,c
  9496   001FE8  0F8A               	addlw	low _lat_registers
  9497   001FEA  6ED9               	movwf	fsr2l,c
  9498   001FEC  6ADA               	clrf	fsr2h,c
  9499   001FEE  CFDE F0DE          	movff	postinc2,??_gpio_pin_write_logic+2
  9500   001FF2  CFDD F0DF          	movff	postdec2,??_gpio_pin_write_logic+3
  9501   001FF6  C0DE  FFD9         	movff	??_gpio_pin_write_logic+2,fsr2l
  9502   001FFA  C0DF  FFDA         	movff	??_gpio_pin_write_logic+3,fsr2h
  9503   001FFE  51DD               	movf	(??_gpio_pin_write_logic+1)& (0+255),w,b
  9504   002000  12DF               	iorwf	indf2,f,c
  9505                           
  9506                           ;MCAL_layer/GPIO/hal_gpio.c: 99:             break;
  9507   002002  EF18  F010         	goto	l6610
  9508   002006                     l6608:
  9509                           
  9510                           ; BSR set to: 0
  9511   002006  51DB               	movf	gpio_pin_write_logic@logic& (0+255),w,b
  9512   002008  6FDC               	movwf	??_gpio_pin_write_logic& (0+255),b
  9513   00200A  6BDD               	clrf	(??_gpio_pin_write_logic+1)& (0+255),b
  9514                           
  9515                           ; Switch on 2 bytes has been partitioned into a top level switch of size 1, and 1 sub-sw
      +                          itches
  9516                           ; Switch size 1, requested type "simple"
  9517                           ; Number of cases is 1, Range of values is 0 to 0
  9518                           ; switch strategies available:
  9519                           ; Name         Instructions Cycles
  9520                           ; simple_byte            4     3 (average)
  9521                           ;	Chosen strategy is simple_byte
  9522   00200C  51DD               	movf	(??_gpio_pin_write_logic+1)& (0+255),w,b
  9523   00200E  0A00               	xorlw	0	; case 0
  9524   002010  B4D8               	btfsc	status,2,c
  9525   002012  EF0D  F010         	goto	l9696
  9526   002016  EFAA  F00F         	goto	l6600
  9527   00201A                     l9696:
  9528                           
  9529                           ; BSR set to: 0
  9530                           ; Switch size 1, requested type "simple"
  9531                           ; Number of cases is 2, Range of values is 0 to 1
  9532                           ; switch strategies available:
  9533                           ; Name         Instructions Cycles
  9534                           ; simple_byte            7     4 (average)
  9535                           ;	Chosen strategy is simple_byte
  9536   00201A  51DC               	movf	??_gpio_pin_write_logic& (0+255),w,b
  9537   00201C  0A00               	xorlw	0	; case 0
  9538   00201E  B4D8               	btfsc	status,2,c
  9539   002020  EFAE  F00F         	goto	l6602
  9540   002024  0A01               	xorlw	1	; case 1
  9541   002026  B4D8               	btfsc	status,2,c
  9542   002028  EFDA  F00F         	goto	l6604
  9543   00202C  EFAA  F00F         	goto	l6600
  9544   002030                     l6610:
  9545                           
  9546                           ; BSR set to: 0
  9547                           ;MCAL_layer/GPIO/hal_gpio.c: 104:      return ret;
  9548   002030  51E1               	movf	gpio_pin_write_logic@ret& (0+255),w,b
  9549   002032                     
  9550                           ; BSR set to: 0
  9551   002032  0012               	return		;funcret
  9552   002034                     __end_of_gpio_pin_write_logic:
  9553                           	callstack 0
  9554                           
  9555 ;; *************** function _Interrupt_INTx_Init *****************
  9556 ;; Defined at:
  9557 ;;		line 48 in file "MCAL_layer/Interrupt/mcal_external_interrupt.c"
  9558 ;; Parameters:    Size  Location     Type
  9559 ;;  int_obj         1    9[BANK0 ] PTR const struct .
  9560 ;;		 -> INT_obj(6), 
  9561 ;; Auto vars:     Size  Location     Type
  9562 ;;  ret             1   10[BANK0 ] unsigned char 
  9563 ;; Return value:  Size  Location     Type
  9564 ;;                  1    wreg      unsigned char 
  9565 ;; Registers used:
  9566 ;;		wreg, fsr2l, fsr2h, status,2, status,0, prodl, prodh, cstack
  9567 ;; Tracked objects:
  9568 ;;		On entry : 0/0
  9569 ;;		On exit  : 0/0
  9570 ;;		Unchanged: 0/0
  9571 ;; Data sizes:     COMRAM   BANK0   BANK1   BANK2   BANK3   BANK4   BANK5   BANK6   BANK7   BANK8   BANK9  BANK10  BANK1
      +1  BANK12  BANK13  BANK14  BANK15
  9572 ;;      Params:         0       1       0       0       0       0       0       0       0       0       0       0       
      +0       0       0       0       0
  9573 ;;      Locals:         0       1       0       0       0       0       0       0       0       0       0       0       
      +0       0       0       0       0
  9574 ;;      Temps:          0       0       0       0       0       0       0       0       0       0       0       0       
      +0       0       0       0       0
  9575 ;;      Totals:         0       2       0       0       0       0       0       0       0       0       0       0       
      +0       0       0       0       0
  9576 ;;Total ram usage:        2 bytes
  9577 ;; Hardware stack levels used: 1
  9578 ;; Hardware stack levels required when called: 10
  9579 ;; This function calls:
  9580 ;;		_INTERRUPT_INTx_clear_flag
  9581 ;;		_INTERRUPT_INTx_disable
  9582 ;;		_INTERRUPT_INTx_edge_int
  9583 ;;		_INTERRUPT_INTx_enable
  9584 ;;		_INTERRUPT_INTx_pin_int
  9585 ;;		_INTERRUPT_SET_INTERRUPT_HANDLER
  9586 ;; This function is called by:
  9587 ;;		_ecu_layer_Initialization
  9588 ;; This function uses a non-reentrant model
  9589 ;;
  9590                           
  9591                           	psect	text42
  9592   002F6C                     __ptext42:
  9593                           	callstack 0
  9594   002F6C                     _Interrupt_INTx_Init:
  9595                           	callstack 18
  9596   002F6C                     
  9597                           ;MCAL_layer/Interrupt/mcal_external_interrupt.c: 50:     if(((void*)0) == int_obj)
  9598   002F6C  0100               	movlb	0	; () banked
  9599   002F6E  51E3               	movf	Interrupt_INTx_Init@int_obj& (0+255),w,b
  9600   002F70  A4D8               	btfss	status,2,c
  9601   002F72  EFBD  F017         	goto	u6551
  9602   002F76  EFBF  F017         	goto	u6550
  9603   002F7A                     u6551:
  9604   002F7A  EFC1  F017         	goto	l7348
  9605   002F7E                     u6550:
  9606   002F7E                     
  9607                           ; BSR set to: 0
  9608                           ;MCAL_layer/Interrupt/mcal_external_interrupt.c: 53:     }
  9609   002F7E  EFE5  F017         	goto	l753
  9610   002F82                     l7348:
  9611                           
  9612                           ; BSR set to: 0
  9613                           ;MCAL_layer/Interrupt/mcal_external_interrupt.c: 55:     {;MCAL_layer/Interrupt/mcal_ext
      +                          ernal_interrupt.c: 57:         ret = INTERRUPT_INTx_disable(int_obj);
  9614   002F82  C0E3  F0DA         	movff	Interrupt_INTx_Init@int_obj,INTERRUPT_INTx_disable@int_obj
  9615   002F86  EC09  F016         	call	_INTERRUPT_INTx_disable	;wreg free
  9616   002F8A  0100               	movlb	0	; () banked
  9617   002F8C  6FE4               	movwf	Interrupt_INTx_Init@ret& (0+255),b
  9618                           
  9619                           ;MCAL_layer/Interrupt/mcal_external_interrupt.c: 59:         ret |= INTERRUPT_INTx_clear
      +                          _flag(int_obj);
  9620   002F8E  C0E3  F0DA         	movff	Interrupt_INTx_Init@int_obj,INTERRUPT_INTx_clear_flag@int_obj
  9621   002F92  EC41  F016         	call	_INTERRUPT_INTx_clear_flag	;wreg free
  9622   002F96  0100               	movlb	0	; () banked
  9623   002F98  13E4               	iorwf	Interrupt_INTx_Init@ret& (0+255),f,b
  9624                           
  9625                           ;MCAL_layer/Interrupt/mcal_external_interrupt.c: 61:         ret |= INTERRUPT_INTx_edge_
      +                          int(int_obj);
  9626   002F9A  C0E3  F0DA         	movff	Interrupt_INTx_Init@int_obj,INTERRUPT_INTx_edge_int@int_obj
  9627   002F9E  EC00  F00F         	call	_INTERRUPT_INTx_edge_int	;wreg free
  9628   002FA2  0100               	movlb	0	; () banked
  9629   002FA4  13E4               	iorwf	Interrupt_INTx_Init@ret& (0+255),f,b
  9630   002FA6                     
  9631                           ; BSR set to: 0
  9632                           ;MCAL_layer/Interrupt/mcal_external_interrupt.c: 67:         ret |= INTERRUPT_INTx_pin_i
      +                          nt(int_obj);
  9633   002FA6  C0E3  F0E1         	movff	Interrupt_INTx_Init@int_obj,INTERRUPT_INTx_pin_int@int_obj
  9634   002FAA  EC91  F01A         	call	_INTERRUPT_INTx_pin_int	;wreg free
  9635   002FAE  0100               	movlb	0	; () banked
  9636   002FB0  13E4               	iorwf	Interrupt_INTx_Init@ret& (0+255),f,b
  9637   002FB2                     
  9638                           ; BSR set to: 0
  9639                           ;MCAL_layer/Interrupt/mcal_external_interrupt.c: 69:         ret |= INTERRUPT_SET_INTERR
      +                          UPT_HANDLER(int_obj);
  9640   002FB2  C0E3  F0DC         	movff	Interrupt_INTx_Init@int_obj,INTERRUPT_SET_INTERRUPT_HANDLER@int_obj
  9641   002FB6  EC88  F013         	call	_INTERRUPT_SET_INTERRUPT_HANDLER	;wreg free
  9642   002FBA  0100               	movlb	0	; () banked
  9643   002FBC  13E4               	iorwf	Interrupt_INTx_Init@ret& (0+255),f,b
  9644   002FBE                     
  9645                           ; BSR set to: 0
  9646                           ;MCAL_layer/Interrupt/mcal_external_interrupt.c: 71:         ret |= INTERRUPT_INTx_enabl
      +                          e(int_obj);
  9647   002FBE  C0E3  F0DA         	movff	Interrupt_INTx_Init@int_obj,INTERRUPT_INTx_enable@int_obj
  9648   002FC2  EC90  F015         	call	_INTERRUPT_INTx_enable	;wreg free
  9649   002FC6  0100               	movlb	0	; () banked
  9650   002FC8  13E4               	iorwf	Interrupt_INTx_Init@ret& (0+255),f,b
  9651   002FCA                     l753:
  9652                           
  9653                           ; BSR set to: 0
  9654   002FCA  0012               	return		;funcret
  9655   002FCC                     __end_of_Interrupt_INTx_Init:
  9656                           	callstack 0
  9657                           
  9658 ;; *************** function _INTERRUPT_SET_INTERRUPT_HANDLER *****************
  9659 ;; Defined at:
  9660 ;;		line 616 in file "MCAL_layer/Interrupt/mcal_external_interrupt.c"
  9661 ;; Parameters:    Size  Location     Type
  9662 ;;  int_obj         1    2[BANK0 ] PTR const struct .
  9663 ;;		 -> INT_obj(6), 
  9664 ;; Auto vars:     Size  Location     Type
  9665 ;;  ret             1    5[BANK0 ] unsigned char 
  9666 ;; Return value:  Size  Location     Type
  9667 ;;                  1    wreg      unsigned char 
  9668 ;; Registers used:
  9669 ;;		wreg, fsr2l, fsr2h, status,2, status,0, cstack
  9670 ;; Tracked objects:
  9671 ;;		On entry : 0/0
  9672 ;;		On exit  : 0/0
  9673 ;;		Unchanged: 0/0
  9674 ;; Data sizes:     COMRAM   BANK0   BANK1   BANK2   BANK3   BANK4   BANK5   BANK6   BANK7   BANK8   BANK9  BANK10  BANK1
      +1  BANK12  BANK13  BANK14  BANK15
  9675 ;;      Params:         0       1       0       0       0       0       0       0       0       0       0       0       
      +0       0       0       0       0
  9676 ;;      Locals:         0       1       0       0       0       0       0       0       0       0       0       0       
      +0       0       0       0       0
  9677 ;;      Temps:          0       2       0       0       0       0       0       0       0       0       0       0       
      +0       0       0       0       0
  9678 ;;      Totals:         0       4       0       0       0       0       0       0       0       0       0       0       
      +0       0       0       0       0
  9679 ;;Total ram usage:        4 bytes
  9680 ;; Hardware stack levels used: 1
  9681 ;; Hardware stack levels required when called: 9
  9682 ;; This function calls:
  9683 ;;		_INT0_SET_INTERRUPT_HANDLER
  9684 ;;		_INT1_SET_INTERRUPT_HANDLER
  9685 ;;		_INT2_SET_INTERRUPT_HANDLER
  9686 ;; This function is called by:
  9687 ;;		_Interrupt_INTx_Init
  9688 ;; This function uses a non-reentrant model
  9689 ;;
  9690                           
  9691                           	psect	text43
  9692   002710                     __ptext43:
  9693                           	callstack 0
  9694   002710                     _INTERRUPT_SET_INTERRUPT_HANDLER:
  9695                           	callstack 18
  9696   002710                     
  9697                           ;MCAL_layer/Interrupt/mcal_external_interrupt.c: 617:     STD_ReturnType ret = (STD_Retu
      +                          rnType)0x01;
  9698   002710  0E01               	movlw	1
  9699   002712  0100               	movlb	0	; () banked
  9700   002714  6FDF               	movwf	INTERRUPT_SET_INTERRUPT_HANDLER@ret& (0+255),b
  9701                           
  9702                           ;MCAL_layer/Interrupt/mcal_external_interrupt.c: 618:     if(((void*)0) == int_obj)
  9703   002716  51DC               	movf	INTERRUPT_SET_INTERRUPT_HANDLER@int_obj& (0+255),w,b
  9704   002718  A4D8               	btfss	status,2,c
  9705   00271A  EF91  F013         	goto	u6311
  9706   00271E  EF93  F013         	goto	u6310
  9707   002722                     u6311:
  9708   002722  EFB8  F013         	goto	l7088
  9709   002726                     u6310:
  9710   002726                     l7078:
  9711                           
  9712                           ; BSR set to: 0
  9713                           ;MCAL_layer/Interrupt/mcal_external_interrupt.c: 619:     {;MCAL_layer/Interrupt/mcal_ex
      +                          ternal_interrupt.c: 620:         ret = (STD_ReturnType)0x00;
  9714   002726  0E00               	movlw	0
  9715   002728  6FDF               	movwf	INTERRUPT_SET_INTERRUPT_HANDLER@ret& (0+255),b
  9716                           
  9717                           ;MCAL_layer/Interrupt/mcal_external_interrupt.c: 621:     }
  9718   00272A  EFD6  F013         	goto	l7090
  9719   00272E                     l7080:
  9720                           
  9721                           ; BSR set to: 0
  9722   00272E  51DC               	movf	INTERRUPT_SET_INTERRUPT_HANDLER@int_obj& (0+255),w,b
  9723   002730  6ED9               	movwf	fsr2l,c
  9724   002732  6ADA               	clrf	fsr2h,c
  9725   002734  CFDE F0DA          	movff	postinc2,INT0_SET_INTERRUPT_HANDLER@INTERRUPT_HANDLER
  9726   002738  CFDD F0DB          	movff	postdec2,INT0_SET_INTERRUPT_HANDLER@INTERRUPT_HANDLER+1
  9727   00273C  EC4D  F01B         	call	_INT0_SET_INTERRUPT_HANDLER	;wreg free
  9728   002740  EFD6  F013         	goto	l7090
  9729   002744                     l7082:
  9730                           
  9731                           ; BSR set to: 0
  9732   002744  51DC               	movf	INTERRUPT_SET_INTERRUPT_HANDLER@int_obj& (0+255),w,b
  9733   002746  6ED9               	movwf	fsr2l,c
  9734   002748  6ADA               	clrf	fsr2h,c
  9735   00274A  CFDE F0DA          	movff	postinc2,INT1_SET_INTERRUPT_HANDLER@INTERRUPT_HANDLER
  9736   00274E  CFDD F0DB          	movff	postdec2,INT1_SET_INTERRUPT_HANDLER@INTERRUPT_HANDLER+1
  9737   002752  EC3C  F01B         	call	_INT1_SET_INTERRUPT_HANDLER	;wreg free
  9738   002756  EFD6  F013         	goto	l7090
  9739   00275A                     l7084:
  9740                           
  9741                           ; BSR set to: 0
  9742   00275A  51DC               	movf	INTERRUPT_SET_INTERRUPT_HANDLER@int_obj& (0+255),w,b
  9743   00275C  6ED9               	movwf	fsr2l,c
  9744   00275E  6ADA               	clrf	fsr2h,c
  9745   002760  CFDE F0DA          	movff	postinc2,INT2_SET_INTERRUPT_HANDLER@INTERRUPT_HANDLER
  9746   002764  CFDD F0DB          	movff	postdec2,INT2_SET_INTERRUPT_HANDLER@INTERRUPT_HANDLER+1
  9747   002768  EC2B  F01B         	call	_INT2_SET_INTERRUPT_HANDLER	;wreg free
  9748   00276C  EFD6  F013         	goto	l7090
  9749   002770                     l7088:
  9750                           
  9751                           ; BSR set to: 0
  9752   002770  51DC               	movf	INTERRUPT_SET_INTERRUPT_HANDLER@int_obj& (0+255),w,b
  9753   002772  6ED9               	movwf	fsr2l,c
  9754   002774  6ADA               	clrf	fsr2h,c
  9755   002776  0E04               	movlw	4
  9756   002778  26D9               	addwf	fsr2l,f,c
  9757   00277A  50DF               	movf	indf2,w,c
  9758   00277C  6FDD               	movwf	??_INTERRUPT_SET_INTERRUPT_HANDLER& (0+255),b
  9759   00277E  6BDE               	clrf	(??_INTERRUPT_SET_INTERRUPT_HANDLER+1)& (0+255),b
  9760                           
  9761                           ; Switch on 2 bytes has been partitioned into a top level switch of size 1, and 1 sub-sw
      +                          itches
  9762                           ; Switch size 1, requested type "simple"
  9763                           ; Number of cases is 1, Range of values is 0 to 0
  9764                           ; switch strategies available:
  9765                           ; Name         Instructions Cycles
  9766                           ; simple_byte            4     3 (average)
  9767                           ;	Chosen strategy is simple_byte
  9768   002780  51DE               	movf	(??_INTERRUPT_SET_INTERRUPT_HANDLER+1)& (0+255),w,b
  9769   002782  0A00               	xorlw	0	; case 0
  9770   002784  B4D8               	btfsc	status,2,c
  9771   002786  EFC7  F013         	goto	l9698
  9772   00278A  EF93  F013         	goto	l7078
  9773   00278E                     l9698:
  9774                           
  9775                           ; BSR set to: 0
  9776                           ; Switch size 1, requested type "simple"
  9777                           ; Number of cases is 3, Range of values is 0 to 2
  9778                           ; switch strategies available:
  9779                           ; Name         Instructions Cycles
  9780                           ; simple_byte           10     6 (average)
  9781                           ;	Chosen strategy is simple_byte
  9782   00278E  51DD               	movf	??_INTERRUPT_SET_INTERRUPT_HANDLER& (0+255),w,b
  9783   002790  0A00               	xorlw	0	; case 0
  9784   002792  B4D8               	btfsc	status,2,c
  9785   002794  EF97  F013         	goto	l7080
  9786   002798  0A01               	xorlw	1	; case 1
  9787   00279A  B4D8               	btfsc	status,2,c
  9788   00279C  EFA2  F013         	goto	l7082
  9789   0027A0  0A03               	xorlw	3	; case 2
  9790   0027A2  B4D8               	btfsc	status,2,c
  9791   0027A4  EFAD  F013         	goto	l7084
  9792   0027A8  EF93  F013         	goto	l7078
  9793   0027AC                     l7090:
  9794                           
  9795                           ;MCAL_layer/Interrupt/mcal_external_interrupt.c: 632:      return ret;
  9796   0027AC  0100               	movlb	0	; () banked
  9797   0027AE  51DF               	movf	INTERRUPT_SET_INTERRUPT_HANDLER@ret& (0+255),w,b
  9798   0027B0                     
  9799                           ; BSR set to: 0
  9800   0027B0  0012               	return		;funcret
  9801   0027B2                     __end_of_INTERRUPT_SET_INTERRUPT_HANDLER:
  9802                           	callstack 0
  9803                           
  9804 ;; *************** function _INT2_SET_INTERRUPT_HANDLER *****************
  9805 ;; Defined at:
  9806 ;;		line 596 in file "MCAL_layer/Interrupt/mcal_external_interrupt.c"
  9807 ;; Parameters:    Size  Location     Type
  9808 ;;  INTERRUPT_HA    2    0[BANK0 ] PTR FTN()void 
  9809 ;;		 -> INT0_app_ISR(1), 
  9810 ;; Auto vars:     Size  Location     Type
  9811 ;;  ret             1    0        unsigned char 
  9812 ;; Return value:  Size  Location     Type
  9813 ;;                  1    wreg      unsigned char 
  9814 ;; Registers used:
  9815 ;;		wreg, status,2, status,0
  9816 ;; Tracked objects:
  9817 ;;		On entry : 0/0
  9818 ;;		On exit  : 0/0
  9819 ;;		Unchanged: 0/0
  9820 ;; Data sizes:     COMRAM   BANK0   BANK1   BANK2   BANK3   BANK4   BANK5   BANK6   BANK7   BANK8   BANK9  BANK10  BANK1
      +1  BANK12  BANK13  BANK14  BANK15
  9821 ;;      Params:         0       2       0       0       0       0       0       0       0       0       0       0       
      +0       0       0       0       0
  9822 ;;      Locals:         0       0       0       0       0       0       0       0       0       0       0       0       
      +0       0       0       0       0
  9823 ;;      Temps:          0       0       0       0       0       0       0       0       0       0       0       0       
      +0       0       0       0       0
  9824 ;;      Totals:         0       2       0       0       0       0       0       0       0       0       0       0       
      +0       0       0       0       0
  9825 ;;Total ram usage:        2 bytes
  9826 ;; Hardware stack levels used: 1
  9827 ;; Hardware stack levels required when called: 8
  9828 ;; This function calls:
  9829 ;;		Nothing
  9830 ;; This function is called by:
  9831 ;;		_INTERRUPT_SET_INTERRUPT_HANDLER
  9832 ;; This function uses a non-reentrant model
  9833 ;;
  9834                           
  9835                           	psect	text44
  9836   003656                     __ptext44:
  9837                           	callstack 0
  9838   003656                     _INT2_SET_INTERRUPT_HANDLER:
  9839                           	callstack 18
  9840   003656                     
  9841                           ;MCAL_layer/Interrupt/mcal_external_interrupt.c: 598:     if(((void*)0) == INTERRUPT_HAN
      +                          DLER)
  9842   003656  0100               	movlb	0	; () banked
  9843   003658  51DA               	movf	INT2_SET_INTERRUPT_HANDLER@INTERRUPT_HANDLER& (0+255),w,b
  9844   00365A  11DB               	iorwf	(INT2_SET_INTERRUPT_HANDLER@INTERRUPT_HANDLER+1)& (0+255),w,b
  9845   00365C  A4D8               	btfss	status,2,c
  9846   00365E  EF33  F01B         	goto	u6001
  9847   003662  EF35  F01B         	goto	u6000
  9848   003666                     u6001:
  9849   003666  EF37  F01B         	goto	l6844
  9850   00366A                     u6000:
  9851   00366A                     
  9852                           ; BSR set to: 0
  9853                           ;MCAL_layer/Interrupt/mcal_external_interrupt.c: 601:     }
  9854   00366A  EF3B  F01B         	goto	l924
  9855   00366E                     l6844:
  9856                           
  9857                           ; BSR set to: 0
  9858                           ;MCAL_layer/Interrupt/mcal_external_interrupt.c: 603:     {;MCAL_layer/Interrupt/mcal_ex
      +                          ternal_interrupt.c: 604:        INT2_INTERRUPT_HANDLER = INTERRUPT_HANDLER;
  9859   00366E  C0DA  F03A         	movff	INT2_SET_INTERRUPT_HANDLER@INTERRUPT_HANDLER,_INT2_INTERRUPT_HANDLER
  9860   003672  C0DB  F03B         	movff	INT2_SET_INTERRUPT_HANDLER@INTERRUPT_HANDLER+1,_INT2_INTERRUPT_HANDLER+1
  9861   003676                     l924:
  9862                           
  9863                           ; BSR set to: 0
  9864   003676  0012               	return		;funcret
  9865   003678                     __end_of_INT2_SET_INTERRUPT_HANDLER:
  9866                           	callstack 0
  9867                           
  9868 ;; *************** function _INT1_SET_INTERRUPT_HANDLER *****************
  9869 ;; Defined at:
  9870 ;;		line 576 in file "MCAL_layer/Interrupt/mcal_external_interrupt.c"
  9871 ;; Parameters:    Size  Location     Type
  9872 ;;  INTERRUPT_HA    2    0[BANK0 ] PTR FTN()void 
  9873 ;;		 -> INT0_app_ISR(1), 
  9874 ;; Auto vars:     Size  Location     Type
  9875 ;;  ret             1    0        unsigned char 
  9876 ;; Return value:  Size  Location     Type
  9877 ;;                  1    wreg      unsigned char 
  9878 ;; Registers used:
  9879 ;;		wreg, status,2, status,0
  9880 ;; Tracked objects:
  9881 ;;		On entry : 0/0
  9882 ;;		On exit  : 0/0
  9883 ;;		Unchanged: 0/0
  9884 ;; Data sizes:     COMRAM   BANK0   BANK1   BANK2   BANK3   BANK4   BANK5   BANK6   BANK7   BANK8   BANK9  BANK10  BANK1
      +1  BANK12  BANK13  BANK14  BANK15
  9885 ;;      Params:         0       2       0       0       0       0       0       0       0       0       0       0       
      +0       0       0       0       0
  9886 ;;      Locals:         0       0       0       0       0       0       0       0       0       0       0       0       
      +0       0       0       0       0
  9887 ;;      Temps:          0       0       0       0       0       0       0       0       0       0       0       0       
      +0       0       0       0       0
  9888 ;;      Totals:         0       2       0       0       0       0       0       0       0       0       0       0       
      +0       0       0       0       0
  9889 ;;Total ram usage:        2 bytes
  9890 ;; Hardware stack levels used: 1
  9891 ;; Hardware stack levels required when called: 8
  9892 ;; This function calls:
  9893 ;;		Nothing
  9894 ;; This function is called by:
  9895 ;;		_INTERRUPT_SET_INTERRUPT_HANDLER
  9896 ;; This function uses a non-reentrant model
  9897 ;;
  9898                           
  9899                           	psect	text45
  9900   003678                     __ptext45:
  9901                           	callstack 0
  9902   003678                     _INT1_SET_INTERRUPT_HANDLER:
  9903                           	callstack 18
  9904   003678                     
  9905                           ;MCAL_layer/Interrupt/mcal_external_interrupt.c: 578:     if(((void*)0) == INTERRUPT_HAN
      +                          DLER)
  9906   003678  0100               	movlb	0	; () banked
  9907   00367A  51DA               	movf	INT1_SET_INTERRUPT_HANDLER@INTERRUPT_HANDLER& (0+255),w,b
  9908   00367C  11DB               	iorwf	(INT1_SET_INTERRUPT_HANDLER@INTERRUPT_HANDLER+1)& (0+255),w,b
  9909   00367E  A4D8               	btfss	status,2,c
  9910   003680  EF44  F01B         	goto	u5991
  9911   003684  EF46  F01B         	goto	u5990
  9912   003688                     u5991:
  9913   003688  EF48  F01B         	goto	l6834
  9914   00368C                     u5990:
  9915   00368C                     
  9916                           ; BSR set to: 0
  9917                           ;MCAL_layer/Interrupt/mcal_external_interrupt.c: 581:     }
  9918   00368C  EF4C  F01B         	goto	l919
  9919   003690                     l6834:
  9920                           
  9921                           ; BSR set to: 0
  9922                           ;MCAL_layer/Interrupt/mcal_external_interrupt.c: 583:     {;MCAL_layer/Interrupt/mcal_ex
      +                          ternal_interrupt.c: 584:        INT1_INTERRUPT_HANDLER = INTERRUPT_HANDLER;
  9923   003690  C0DA  F03C         	movff	INT1_SET_INTERRUPT_HANDLER@INTERRUPT_HANDLER,_INT1_INTERRUPT_HANDLER
  9924   003694  C0DB  F03D         	movff	INT1_SET_INTERRUPT_HANDLER@INTERRUPT_HANDLER+1,_INT1_INTERRUPT_HANDLER+1
  9925   003698                     l919:
  9926                           
  9927                           ; BSR set to: 0
  9928   003698  0012               	return		;funcret
  9929   00369A                     __end_of_INT1_SET_INTERRUPT_HANDLER:
  9930                           	callstack 0
  9931                           
  9932 ;; *************** function _INT0_SET_INTERRUPT_HANDLER *****************
  9933 ;; Defined at:
  9934 ;;		line 556 in file "MCAL_layer/Interrupt/mcal_external_interrupt.c"
  9935 ;; Parameters:    Size  Location     Type
  9936 ;;  INTERRUPT_HA    2    0[BANK0 ] PTR FTN()void 
  9937 ;;		 -> INT0_app_ISR(1), 
  9938 ;; Auto vars:     Size  Location     Type
  9939 ;;  ret             1    0        unsigned char 
  9940 ;; Return value:  Size  Location     Type
  9941 ;;                  1    wreg      unsigned char 
  9942 ;; Registers used:
  9943 ;;		wreg, status,2, status,0
  9944 ;; Tracked objects:
  9945 ;;		On entry : 0/0
  9946 ;;		On exit  : 0/0
  9947 ;;		Unchanged: 0/0
  9948 ;; Data sizes:     COMRAM   BANK0   BANK1   BANK2   BANK3   BANK4   BANK5   BANK6   BANK7   BANK8   BANK9  BANK10  BANK1
      +1  BANK12  BANK13  BANK14  BANK15
  9949 ;;      Params:         0       2       0       0       0       0       0       0       0       0       0       0       
      +0       0       0       0       0
  9950 ;;      Locals:         0       0       0       0       0       0       0       0       0       0       0       0       
      +0       0       0       0       0
  9951 ;;      Temps:          0       0       0       0       0       0       0       0       0       0       0       0       
      +0       0       0       0       0
  9952 ;;      Totals:         0       2       0       0       0       0       0       0       0       0       0       0       
      +0       0       0       0       0
  9953 ;;Total ram usage:        2 bytes
  9954 ;; Hardware stack levels used: 1
  9955 ;; Hardware stack levels required when called: 8
  9956 ;; This function calls:
  9957 ;;		Nothing
  9958 ;; This function is called by:
  9959 ;;		_INTERRUPT_SET_INTERRUPT_HANDLER
  9960 ;; This function uses a non-reentrant model
  9961 ;;
  9962                           
  9963                           	psect	text46
  9964   00369A                     __ptext46:
  9965                           	callstack 0
  9966   00369A                     _INT0_SET_INTERRUPT_HANDLER:
  9967                           	callstack 18
  9968   00369A                     
  9969                           ;MCAL_layer/Interrupt/mcal_external_interrupt.c: 558:     if(((void*)0) == INTERRUPT_HAN
      +                          DLER)
  9970   00369A  0100               	movlb	0	; () banked
  9971   00369C  51DA               	movf	INT0_SET_INTERRUPT_HANDLER@INTERRUPT_HANDLER& (0+255),w,b
  9972   00369E  11DB               	iorwf	(INT0_SET_INTERRUPT_HANDLER@INTERRUPT_HANDLER+1)& (0+255),w,b
  9973   0036A0  A4D8               	btfss	status,2,c
  9974   0036A2  EF55  F01B         	goto	u5981
  9975   0036A6  EF57  F01B         	goto	u5980
  9976   0036AA                     u5981:
  9977   0036AA  EF59  F01B         	goto	l6824
  9978   0036AE                     u5980:
  9979   0036AE                     
  9980                           ; BSR set to: 0
  9981                           ;MCAL_layer/Interrupt/mcal_external_interrupt.c: 561:     }
  9982   0036AE  EF5D  F01B         	goto	l914
  9983   0036B2                     l6824:
  9984                           
  9985                           ; BSR set to: 0
  9986                           ;MCAL_layer/Interrupt/mcal_external_interrupt.c: 563:     {;MCAL_layer/Interrupt/mcal_ex
      +                          ternal_interrupt.c: 564:        INT0_INTERRUPT_HANDLER = INTERRUPT_HANDLER;
  9987   0036B2  C0DA  F03E         	movff	INT0_SET_INTERRUPT_HANDLER@INTERRUPT_HANDLER,_INT0_INTERRUPT_HANDLER
  9988   0036B6  C0DB  F03F         	movff	INT0_SET_INTERRUPT_HANDLER@INTERRUPT_HANDLER+1,_INT0_INTERRUPT_HANDLER+1
  9989   0036BA                     l914:
  9990                           
  9991                           ; BSR set to: 0
  9992   0036BA  0012               	return		;funcret
  9993   0036BC                     __end_of_INT0_SET_INTERRUPT_HANDLER:
  9994                           	callstack 0
  9995                           
  9996 ;; *************** function _INTERRUPT_INTx_pin_int *****************
  9997 ;; Defined at:
  9998 ;;		line 510 in file "MCAL_layer/Interrupt/mcal_external_interrupt.c"
  9999 ;; Parameters:    Size  Location     Type
 10000 ;;  int_obj         1    7[BANK0 ] PTR const struct .
 10001 ;;		 -> INT_obj(6), 
 10002 ;; Auto vars:     Size  Location     Type
 10003 ;;  ret             1    8[BANK0 ] unsigned char 
 10004 ;; Return value:  Size  Location     Type
 10005 ;;                  1    wreg      unsigned char 
 10006 ;; Registers used:
 10007 ;;		wreg, fsr2l, fsr2h, status,2, status,0, prodl, prodh, cstack
 10008 ;; Tracked objects:
 10009 ;;		On entry : 0/0
 10010 ;;		On exit  : 0/0
 10011 ;;		Unchanged: 0/0
 10012 ;; Data sizes:     COMRAM   BANK0   BANK1   BANK2   BANK3   BANK4   BANK5   BANK6   BANK7   BANK8   BANK9  BANK10  BANK1
      +1  BANK12  BANK13  BANK14  BANK15
 10013 ;;      Params:         0       1       0       0       0       0       0       0       0       0       0       0       
      +0       0       0       0       0
 10014 ;;      Locals:         0       1       0       0       0       0       0       0       0       0       0       0       
      +0       0       0       0       0
 10015 ;;      Temps:          0       0       0       0       0       0       0       0       0       0       0       0       
      +0       0       0       0       0
 10016 ;;      Totals:         0       2       0       0       0       0       0       0       0       0       0       0       
      +0       0       0       0       0
 10017 ;;Total ram usage:        2 bytes
 10018 ;; Hardware stack levels used: 1
 10019 ;; Hardware stack levels required when called: 9
 10020 ;; This function calls:
 10021 ;;		_gpio_pin_direction_initialize
 10022 ;; This function is called by:
 10023 ;;		_Interrupt_INTx_Init
 10024 ;; This function uses a non-reentrant model
 10025 ;;
 10026                           
 10027                           	psect	text47
 10028   003522                     __ptext47:
 10029                           	callstack 0
 10030   003522                     _INTERRUPT_INTx_pin_int:
 10031                           	callstack 18
 10032   003522                     
 10033                           ;MCAL_layer/Interrupt/mcal_external_interrupt.c: 511:     STD_ReturnType ret = (STD_Retu
      +                          rnType)0x01;
 10034   003522  0E01               	movlw	1
 10035   003524  0100               	movlb	0	; () banked
 10036   003526  6FE2               	movwf	INTERRUPT_INTx_pin_int@ret& (0+255),b
 10037                           
 10038                           ;MCAL_layer/Interrupt/mcal_external_interrupt.c: 512:     if(((void*)0) == int_obj)
 10039   003528  51E1               	movf	INTERRUPT_INTx_pin_int@int_obj& (0+255),w,b
 10040   00352A  A4D8               	btfss	status,2,c
 10041   00352C  EF9A  F01A         	goto	u6301
 10042   003530  EF9C  F01A         	goto	u6300
 10043   003534                     u6301:
 10044   003534  EFA0  F01A         	goto	l7070
 10045   003538                     u6300:
 10046   003538                     
 10047                           ; BSR set to: 0
 10048                           ;MCAL_layer/Interrupt/mcal_external_interrupt.c: 513:     {;MCAL_layer/Interrupt/mcal_ex
      +                          ternal_interrupt.c: 514:         ret = (STD_ReturnType)0x00;
 10049   003538  0E00               	movlw	0
 10050   00353A  6FE2               	movwf	INTERRUPT_INTx_pin_int@ret& (0+255),b
 10051                           
 10052                           ;MCAL_layer/Interrupt/mcal_external_interrupt.c: 515:     }
 10053   00353C  EFA5  F01A         	goto	l7072
 10054   003540                     l7070:
 10055                           
 10056                           ; BSR set to: 0
 10057                           ;MCAL_layer/Interrupt/mcal_external_interrupt.c: 517:     {;MCAL_layer/Interrupt/mcal_ex
      +                          ternal_interrupt.c: 518:         gpio_pin_direction_initialize(&(int_obj->mcu_pin));
 10058   003540  51E1               	movf	INTERRUPT_INTx_pin_int@int_obj& (0+255),w,b
 10059   003542  0F02               	addlw	2
 10060   003544  6FDA               	movwf	gpio_pin_direction_initialize@_pin_config& (0+255),b
 10061   003546  EC6A  F00E         	call	_gpio_pin_direction_initialize	;wreg free
 10062   00354A                     l7072:
 10063                           
 10064                           ;MCAL_layer/Interrupt/mcal_external_interrupt.c: 521:      return ret;
 10065   00354A  0100               	movlb	0	; () banked
 10066   00354C  51E2               	movf	INTERRUPT_INTx_pin_int@ret& (0+255),w,b
 10067   00354E                     
 10068                           ; BSR set to: 0
 10069   00354E  0012               	return		;funcret
 10070   003550                     __end_of_INTERRUPT_INTx_pin_int:
 10071                           	callstack 0
 10072                           
 10073 ;; *************** function _gpio_pin_direction_initialize *****************
 10074 ;; Defined at:
 10075 ;;		line 24 in file "MCAL_layer/GPIO/hal_gpio.c"
 10076 ;; Parameters:    Size  Location     Type
 10077 ;;  _pin_config     1    0[BANK0 ] PTR const struct .
 10078 ;;		 -> buzzer(1), keypad$keypad_columns_pins(4), keypad$keypad_rows_pins(4), keypad(8), 
 10079 ;;		 -> lcd1$data(4), motor1$dc_motor_pin(2), motor1(2), INT_obj(6), 
 10080 ;;		 -> lcd1(6), ecu_relay_initialize@relay_pin(1), ecu_led_initialize@led_pin(1), 
 10081 ;; Auto vars:     Size  Location     Type
 10082 ;;  ret             1    6[BANK0 ] unsigned char 
 10083 ;; Return value:  Size  Location     Type
 10084 ;;                  1    wreg      unsigned char 
 10085 ;; Registers used:
 10086 ;;		wreg, fsr2l, fsr2h, status,2, status,0, prodl, prodh
 10087 ;; Tracked objects:
 10088 ;;		On entry : 0/0
 10089 ;;		On exit  : 0/0
 10090 ;;		Unchanged: 0/0
 10091 ;; Data sizes:     COMRAM   BANK0   BANK1   BANK2   BANK3   BANK4   BANK5   BANK6   BANK7   BANK8   BANK9  BANK10  BANK1
      +1  BANK12  BANK13  BANK14  BANK15
 10092 ;;      Params:         0       1       0       0       0       0       0       0       0       0       0       0       
      +0       0       0       0       0
 10093 ;;      Locals:         0       1       0       0       0       0       0       0       0       0       0       0       
      +0       0       0       0       0
 10094 ;;      Temps:          0       5       0       0       0       0       0       0       0       0       0       0       
      +0       0       0       0       0
 10095 ;;      Totals:         0       7       0       0       0       0       0       0       0       0       0       0       
      +0       0       0       0       0
 10096 ;;Total ram usage:        7 bytes
 10097 ;; Hardware stack levels used: 1
 10098 ;; Hardware stack levels required when called: 8
 10099 ;; This function calls:
 10100 ;;		Nothing
 10101 ;; This function is called by:
 10102 ;;		_ecu_keypad_initialize
 10103 ;;		_gpio_pin_initialize
 10104 ;;		_INTERRUPT_INTx_pin_int
 10105 ;;		_ecu_button_initialize
 10106 ;;		_INTERRUPT_RBx_pin_int
 10107 ;; This function uses a non-reentrant model
 10108 ;;
 10109                           
 10110                           	psect	text48
 10111   001CD4                     __ptext48:
 10112                           	callstack 0
 10113   001CD4                     _gpio_pin_direction_initialize:
 10114                           	callstack 18
 10115   001CD4                     
 10116                           ;MCAL_layer/GPIO/hal_gpio.c: 24: STD_ReturnType gpio_pin_direction_initialize(const pin_
      +                          config_t* _pin_config);MCAL_layer/GPIO/hal_gpio.c: 25: {;MCAL_layer/GPIO/hal_gpio.c: 26:
      +                               STD_ReturnType ret = (STD_ReturnType)0x01;
 10117   001CD4  0E01               	movlw	1
 10118   001CD6  0100               	movlb	0	; () banked
 10119   001CD8  6FE0               	movwf	gpio_pin_direction_initialize@ret& (0+255),b
 10120                           
 10121                           ;MCAL_layer/GPIO/hal_gpio.c: 27:     if(((void*)0) == _pin_config || _pin_config->pin > 
      +                          8 -1)
 10122   001CDA  51DA               	movf	gpio_pin_direction_initialize@_pin_config& (0+255),w,b
 10123   001CDC  B4D8               	btfsc	status,2,c
 10124   001CDE  EF73  F00E         	goto	u5911
 10125   001CE2  EF75  F00E         	goto	u5910
 10126   001CE6                     u5911:
 10127   001CE6  EF85  F00E         	goto	l6790
 10128   001CEA                     u5910:
 10129   001CEA                     
 10130                           ; BSR set to: 0
 10131   001CEA  51DA               	movf	gpio_pin_direction_initialize@_pin_config& (0+255),w,b
 10132   001CEC  6ED9               	movwf	fsr2l,c
 10133   001CEE  6ADA               	clrf	fsr2h,c
 10134   001CF0  30DF               	rrcf	223,w,c
 10135   001CF2  32E8               	rrcf	wreg,f,c
 10136   001CF4  32E8               	rrcf	wreg,f,c
 10137   001CF6  0B07               	andlw	7
 10138   001CF8  6FDB               	movwf	??_gpio_pin_direction_initialize& (0+255),b
 10139   001CFA  0E07               	movlw	7
 10140   001CFC  65DB               	cpfsgt	??_gpio_pin_direction_initialize& (0+255),b
 10141   001CFE  EF83  F00E         	goto	u5921
 10142   001D02  EF85  F00E         	goto	u5920
 10143   001D06                     u5921:
 10144   001D06  EFDE  F00E         	goto	l6798
 10145   001D0A                     u5920:
 10146   001D0A                     l6790:
 10147                           
 10148                           ; BSR set to: 0
 10149                           ;MCAL_layer/GPIO/hal_gpio.c: 28:     {;MCAL_layer/GPIO/hal_gpio.c: 29:         ret = (ST
      +                          D_ReturnType)0x00;
 10150   001D0A  0E00               	movlw	0
 10151   001D0C  6FE0               	movwf	gpio_pin_direction_initialize@ret& (0+255),b
 10152                           
 10153                           ;MCAL_layer/GPIO/hal_gpio.c: 30:     }
 10154   001D0E  EFFE  F00E         	goto	l6800
 10155   001D12                     l6792:
 10156                           
 10157                           ; BSR set to: 0
 10158                           ;MCAL_layer/GPIO/hal_gpio.c: 36:             (*tris_registers[_pin_config->port] &= ~((u
      +                          int8)1 << _pin_config->pin));
 10159   001D12  51DA               	movf	gpio_pin_direction_initialize@_pin_config& (0+255),w,b
 10160   001D14  6ED9               	movwf	fsr2l,c
 10161   001D16  6ADA               	clrf	fsr2h,c
 10162   001D18  30DF               	rrcf	223,w,c
 10163   001D1A  32E8               	rrcf	wreg,f,c
 10164   001D1C  32E8               	rrcf	wreg,f,c
 10165   001D1E  0B07               	andlw	7
 10166   001D20  6FDB               	movwf	??_gpio_pin_direction_initialize& (0+255),b
 10167   001D22  0E01               	movlw	1
 10168   001D24  6FDC               	movwf	(??_gpio_pin_direction_initialize+1)& (0+255),b
 10169   001D26  2BDB               	incf	??_gpio_pin_direction_initialize& (0+255),f,b
 10170   001D28  EF98  F00E         	goto	u5934
 10171   001D2C                     u5935:
 10172   001D2C  90D8               	bcf	status,0,c
 10173   001D2E  37DC               	rlcf	(??_gpio_pin_direction_initialize+1)& (0+255),f,b
 10174   001D30                     u5934:
 10175   001D30  2FDB               	decfsz	??_gpio_pin_direction_initialize& (0+255),f,b
 10176   001D32  EF96  F00E         	goto	u5935
 10177   001D36  0100               	movlb	0	; () banked
 10178   001D38  51DC               	movf	(??_gpio_pin_direction_initialize+1)& (0+255),w,b
 10179   001D3A  0AFF               	xorlw	255
 10180   001D3C  6FDD               	movwf	(??_gpio_pin_direction_initialize+2)& (0+255),b
 10181   001D3E  51DA               	movf	gpio_pin_direction_initialize@_pin_config& (0+255),w,b
 10182   001D40  6ED9               	movwf	fsr2l,c
 10183   001D42  6ADA               	clrf	fsr2h,c
 10184   001D44  50DF               	movf	223,w,c
 10185   001D46  0B07               	andlw	7
 10186   001D48  0D02               	mullw	2
 10187   001D4A  50F3               	movf	243,w,c
 10188   001D4C  0F94               	addlw	low _tris_registers
 10189   001D4E  6ED9               	movwf	fsr2l,c
 10190   001D50  6ADA               	clrf	fsr2h,c
 10191   001D52  CFDE F0DE          	movff	postinc2,??_gpio_pin_direction_initialize+3
 10192   001D56  CFDD F0DF          	movff	postdec2,??_gpio_pin_direction_initialize+4
 10193   001D5A  C0DE  FFD9         	movff	??_gpio_pin_direction_initialize+3,fsr2l
 10194   001D5E  C0DF  FFDA         	movff	??_gpio_pin_direction_initialize+4,fsr2h
 10195   001D62  51DD               	movf	(??_gpio_pin_direction_initialize+2)& (0+255),w,b
 10196   001D64  16DF               	andwf	indf2,f,c
 10197                           
 10198                           ;MCAL_layer/GPIO/hal_gpio.c: 37:             break;
 10199   001D66  EFFE  F00E         	goto	l6800
 10200   001D6A                     l6794:
 10201                           
 10202                           ; BSR set to: 0
 10203                           ;MCAL_layer/GPIO/hal_gpio.c: 39:             (*tris_registers[_pin_config->port] |= ((ui
      +                          nt8)1 << _pin_config->pin));
 10204   001D6A  51DA               	movf	gpio_pin_direction_initialize@_pin_config& (0+255),w,b
 10205   001D6C  6ED9               	movwf	fsr2l,c
 10206   001D6E  6ADA               	clrf	fsr2h,c
 10207   001D70  30DF               	rrcf	223,w,c
 10208   001D72  32E8               	rrcf	wreg,f,c
 10209   001D74  32E8               	rrcf	wreg,f,c
 10210   001D76  0B07               	andlw	7
 10211   001D78  6FDB               	movwf	??_gpio_pin_direction_initialize& (0+255),b
 10212   001D7A  0E01               	movlw	1
 10213   001D7C  6FDC               	movwf	(??_gpio_pin_direction_initialize+1)& (0+255),b
 10214   001D7E  2BDB               	incf	??_gpio_pin_direction_initialize& (0+255),f,b
 10215   001D80  EFC4  F00E         	goto	u5944
 10216   001D84                     u5945:
 10217   001D84  90D8               	bcf	status,0,c
 10218   001D86  37DC               	rlcf	(??_gpio_pin_direction_initialize+1)& (0+255),f,b
 10219   001D88                     u5944:
 10220   001D88  2FDB               	decfsz	??_gpio_pin_direction_initialize& (0+255),f,b
 10221   001D8A  EFC2  F00E         	goto	u5945
 10222   001D8E  0100               	movlb	0	; () banked
 10223   001D90  51DA               	movf	gpio_pin_direction_initialize@_pin_config& (0+255),w,b
 10224   001D92  6ED9               	movwf	fsr2l,c
 10225   001D94  6ADA               	clrf	fsr2h,c
 10226   001D96  50DF               	movf	223,w,c
 10227   001D98  0B07               	andlw	7
 10228   001D9A  0D02               	mullw	2
 10229   001D9C  50F3               	movf	243,w,c
 10230   001D9E  0F94               	addlw	low _tris_registers
 10231   001DA0  6ED9               	movwf	fsr2l,c
 10232   001DA2  6ADA               	clrf	fsr2h,c
 10233   001DA4  CFDE F0DD          	movff	postinc2,??_gpio_pin_direction_initialize+2
 10234   001DA8  CFDD F0DE          	movff	postdec2,??_gpio_pin_direction_initialize+3
 10235   001DAC  C0DD  FFD9         	movff	??_gpio_pin_direction_initialize+2,fsr2l
 10236   001DB0  C0DE  FFDA         	movff	??_gpio_pin_direction_initialize+3,fsr2h
 10237   001DB4  51DC               	movf	(??_gpio_pin_direction_initialize+1)& (0+255),w,b
 10238   001DB6  12DF               	iorwf	indf2,f,c
 10239                           
 10240                           ;MCAL_layer/GPIO/hal_gpio.c: 40:             break;
 10241   001DB8  EFFE  F00E         	goto	l6800
 10242   001DBC                     l6798:
 10243                           
 10244                           ; BSR set to: 0
 10245   001DBC  51DA               	movf	gpio_pin_direction_initialize@_pin_config& (0+255),w,b
 10246   001DBE  6ED9               	movwf	fsr2l,c
 10247   001DC0  6ADA               	clrf	fsr2h,c
 10248   001DC2  BCDF               	btfsc	indf2,6,c
 10249   001DC4  EFE6  F00E         	goto	u5951
 10250   001DC8  EFE9  F00E         	goto	u5950
 10251   001DCC                     u5951:
 10252   001DCC  0E01               	movlw	1
 10253   001DCE  EFEA  F00E         	goto	u5960
 10254   001DD2                     u5950:
 10255   001DD2  0E00               	movlw	0
 10256   001DD4                     u5960:
 10257   001DD4  6FDB               	movwf	??_gpio_pin_direction_initialize& (0+255),b
 10258   001DD6  6BDC               	clrf	(??_gpio_pin_direction_initialize+1)& (0+255),b
 10259                           
 10260                           ; Switch on 2 bytes has been partitioned into a top level switch of size 1, and 1 sub-sw
      +                          itches
 10261                           ; Switch size 1, requested type "simple"
 10262                           ; Number of cases is 1, Range of values is 0 to 0
 10263                           ; switch strategies available:
 10264                           ; Name         Instructions Cycles
 10265                           ; simple_byte            4     3 (average)
 10266                           ;	Chosen strategy is simple_byte
 10267   001DD8  51DC               	movf	(??_gpio_pin_direction_initialize+1)& (0+255),w,b
 10268   001DDA  0A00               	xorlw	0	; case 0
 10269   001DDC  B4D8               	btfsc	status,2,c
 10270   001DDE  EFF3  F00E         	goto	l9700
 10271   001DE2  EF85  F00E         	goto	l6790
 10272   001DE6                     l9700:
 10273                           
 10274                           ; BSR set to: 0
 10275                           ; Switch size 1, requested type "simple"
 10276                           ; Number of cases is 2, Range of values is 0 to 1
 10277                           ; switch strategies available:
 10278                           ; Name         Instructions Cycles
 10279                           ; simple_byte            7     4 (average)
 10280                           ;	Chosen strategy is simple_byte
 10281   001DE6  51DB               	movf	??_gpio_pin_direction_initialize& (0+255),w,b
 10282   001DE8  0A00               	xorlw	0	; case 0
 10283   001DEA  B4D8               	btfsc	status,2,c
 10284   001DEC  EF89  F00E         	goto	l6792
 10285   001DF0  0A01               	xorlw	1	; case 1
 10286   001DF2  B4D8               	btfsc	status,2,c
 10287   001DF4  EFB5  F00E         	goto	l6794
 10288   001DF8  EF85  F00E         	goto	l6790
 10289   001DFC                     l6800:
 10290                           
 10291                           ; BSR set to: 0
 10292                           ;MCAL_layer/GPIO/hal_gpio.c: 45:      return ret;
 10293   001DFC  51E0               	movf	gpio_pin_direction_initialize@ret& (0+255),w,b
 10294   001DFE                     
 10295                           ; BSR set to: 0
 10296   001DFE  0012               	return		;funcret
 10297   001E00                     __end_of_gpio_pin_direction_initialize:
 10298                           	callstack 0
 10299                           
 10300 ;; *************** function _INTERRUPT_INTx_enable *****************
 10301 ;; Defined at:
 10302 ;;		line 309 in file "MCAL_layer/Interrupt/mcal_external_interrupt.c"
 10303 ;; Parameters:    Size  Location     Type
 10304 ;;  int_obj         1    0[BANK0 ] PTR const struct .
 10305 ;;		 -> INT_obj(6), 
 10306 ;; Auto vars:     Size  Location     Type
 10307 ;;  ret             1    3[BANK0 ] unsigned char 
 10308 ;; Return value:  Size  Location     Type
 10309 ;;                  1    wreg      unsigned char 
 10310 ;; Registers used:
 10311 ;;		wreg, fsr2l, fsr2h, status,2, status,0
 10312 ;; Tracked objects:
 10313 ;;		On entry : 0/0
 10314 ;;		On exit  : 0/0
 10315 ;;		Unchanged: 0/0
 10316 ;; Data sizes:     COMRAM   BANK0   BANK1   BANK2   BANK3   BANK4   BANK5   BANK6   BANK7   BANK8   BANK9  BANK10  BANK1
      +1  BANK12  BANK13  BANK14  BANK15
 10317 ;;      Params:         0       1       0       0       0       0       0       0       0       0       0       0       
      +0       0       0       0       0
 10318 ;;      Locals:         0       1       0       0       0       0       0       0       0       0       0       0       
      +0       0       0       0       0
 10319 ;;      Temps:          0       2       0       0       0       0       0       0       0       0       0       0       
      +0       0       0       0       0
 10320 ;;      Totals:         0       4       0       0       0       0       0       0       0       0       0       0       
      +0       0       0       0       0
 10321 ;;Total ram usage:        4 bytes
 10322 ;; Hardware stack levels used: 1
 10323 ;; Hardware stack levels required when called: 8
 10324 ;; This function calls:
 10325 ;;		Nothing
 10326 ;; This function is called by:
 10327 ;;		_Interrupt_INTx_Init
 10328 ;; This function uses a non-reentrant model
 10329 ;;
 10330                           
 10331                           	psect	text49
 10332   002B20                     __ptext49:
 10333                           	callstack 0
 10334   002B20                     _INTERRUPT_INTx_enable:
 10335                           	callstack 19
 10336   002B20                     
 10337                           ;MCAL_layer/Interrupt/mcal_external_interrupt.c: 310:     STD_ReturnType ret = (STD_Retu
      +                          rnType)0x01;
 10338   002B20  0E01               	movlw	1
 10339   002B22  0100               	movlb	0	; () banked
 10340   002B24  6FDD               	movwf	INTERRUPT_INTx_enable@ret& (0+255),b
 10341                           
 10342                           ;MCAL_layer/Interrupt/mcal_external_interrupt.c: 311:     if(((void*)0) == int_obj)
 10343   002B26  51DA               	movf	INTERRUPT_INTx_enable@int_obj& (0+255),w,b
 10344   002B28  A4D8               	btfss	status,2,c
 10345   002B2A  EF99  F015         	goto	u6321
 10346   002B2E  EF9B  F015         	goto	u6320
 10347   002B32                     u6321:
 10348   002B32  EFAE  F015         	goto	l7104
 10349   002B36                     u6320:
 10350   002B36                     l7100:
 10351                           
 10352                           ; BSR set to: 0
 10353                           ;MCAL_layer/Interrupt/mcal_external_interrupt.c: 312:     {;MCAL_layer/Interrupt/mcal_ex
      +                          ternal_interrupt.c: 313:         ret = (STD_ReturnType)0x00;
 10354   002B36  0E00               	movlw	0
 10355   002B38  6FDD               	movwf	INTERRUPT_INTx_enable@ret& (0+255),b
 10356                           
 10357                           ;MCAL_layer/Interrupt/mcal_external_interrupt.c: 314:     }
 10358   002B3A  EFCC  F015         	goto	l7106
 10359   002B3E                     l836:
 10360                           
 10361                           ; BSR set to: 0
 10362                           ;MCAL_layer/Interrupt/mcal_external_interrupt.c: 322:                 (INTCONbits.GIE = 
      +                          1);
 10363   002B3E  8EF2               	bsf	242,7,c	;volatile
 10364                           
 10365                           ;MCAL_layer/Interrupt/mcal_external_interrupt.c: 323:                 (INTCONbits.PEIE =
      +                           1);
 10366   002B40  8CF2               	bsf	242,6,c	;volatile
 10367                           
 10368                           ;MCAL_layer/Interrupt/mcal_external_interrupt.c: 326:                 (INTCONbits.INT0IE
      +                           = 1);
 10369   002B42  88F2               	bsf	242,4,c	;volatile
 10370                           
 10371                           ;MCAL_layer/Interrupt/mcal_external_interrupt.c: 327:                 break;
 10372   002B44  EFCC  F015         	goto	l7106
 10373   002B48                     l838:
 10374                           
 10375                           ; BSR set to: 0
 10376                           ;MCAL_layer/Interrupt/mcal_external_interrupt.c: 342:                 (INTCONbits.GIE = 
      +                          1);
 10377   002B48  8EF2               	bsf	242,7,c	;volatile
 10378                           
 10379                           ;MCAL_layer/Interrupt/mcal_external_interrupt.c: 343:                 (INTCONbits.PEIE =
      +                           1);
 10380   002B4A  8CF2               	bsf	242,6,c	;volatile
 10381                           
 10382                           ;MCAL_layer/Interrupt/mcal_external_interrupt.c: 346:                 (INTCON3bits.INT1I
      +                          E = 1);
 10383   002B4C  86F0               	bsf	240,3,c	;volatile
 10384                           
 10385                           ;MCAL_layer/Interrupt/mcal_external_interrupt.c: 347:                 break;
 10386   002B4E  EFCC  F015         	goto	l7106
 10387   002B52                     l839:
 10388                           
 10389                           ; BSR set to: 0
 10390                           ;MCAL_layer/Interrupt/mcal_external_interrupt.c: 362:                 (INTCONbits.GIE = 
      +                          1);
 10391   002B52  8EF2               	bsf	242,7,c	;volatile
 10392                           
 10393                           ;MCAL_layer/Interrupt/mcal_external_interrupt.c: 363:                 (INTCONbits.PEIE =
      +                           1);
 10394   002B54  8CF2               	bsf	242,6,c	;volatile
 10395                           
 10396                           ;MCAL_layer/Interrupt/mcal_external_interrupt.c: 366:                 (INTCON3bits.INT2I
      +                          E = 1);
 10397   002B56  88F0               	bsf	240,4,c	;volatile
 10398                           
 10399                           ;MCAL_layer/Interrupt/mcal_external_interrupt.c: 367:                 break;
 10400   002B58  EFCC  F015         	goto	l7106
 10401   002B5C                     l7104:
 10402                           
 10403                           ; BSR set to: 0
 10404   002B5C  51DA               	movf	INTERRUPT_INTx_enable@int_obj& (0+255),w,b
 10405   002B5E  6ED9               	movwf	fsr2l,c
 10406   002B60  6ADA               	clrf	fsr2h,c
 10407   002B62  0E04               	movlw	4
 10408   002B64  26D9               	addwf	fsr2l,f,c
 10409   002B66  50DF               	movf	indf2,w,c
 10410   002B68  6FDB               	movwf	??_INTERRUPT_INTx_enable& (0+255),b
 10411   002B6A  6BDC               	clrf	(??_INTERRUPT_INTx_enable+1)& (0+255),b
 10412                           
 10413                           ; Switch on 2 bytes has been partitioned into a top level switch of size 1, and 1 sub-sw
      +                          itches
 10414                           ; Switch size 1, requested type "simple"
 10415                           ; Number of cases is 1, Range of values is 0 to 0
 10416                           ; switch strategies available:
 10417                           ; Name         Instructions Cycles
 10418                           ; simple_byte            4     3 (average)
 10419                           ;	Chosen strategy is simple_byte
 10420   002B6C  51DC               	movf	(??_INTERRUPT_INTx_enable+1)& (0+255),w,b
 10421   002B6E  0A00               	xorlw	0	; case 0
 10422   002B70  B4D8               	btfsc	status,2,c
 10423   002B72  EFBD  F015         	goto	l9702
 10424   002B76  EF9B  F015         	goto	l7100
 10425   002B7A                     l9702:
 10426                           
 10427                           ; BSR set to: 0
 10428                           ; Switch size 1, requested type "simple"
 10429                           ; Number of cases is 3, Range of values is 0 to 2
 10430                           ; switch strategies available:
 10431                           ; Name         Instructions Cycles
 10432                           ; simple_byte           10     6 (average)
 10433                           ;	Chosen strategy is simple_byte
 10434   002B7A  51DB               	movf	??_INTERRUPT_INTx_enable& (0+255),w,b
 10435   002B7C  0A00               	xorlw	0	; case 0
 10436   002B7E  B4D8               	btfsc	status,2,c
 10437   002B80  EF9F  F015         	goto	l836
 10438   002B84  0A01               	xorlw	1	; case 1
 10439   002B86  B4D8               	btfsc	status,2,c
 10440   002B88  EFA4  F015         	goto	l838
 10441   002B8C  0A03               	xorlw	3	; case 2
 10442   002B8E  B4D8               	btfsc	status,2,c
 10443   002B90  EFA9  F015         	goto	l839
 10444   002B94  EF9B  F015         	goto	l7100
 10445   002B98                     l7106:
 10446                           
 10447                           ; BSR set to: 0
 10448                           ;MCAL_layer/Interrupt/mcal_external_interrupt.c: 372:      return ret;
 10449   002B98  51DD               	movf	INTERRUPT_INTx_enable@ret& (0+255),w,b
 10450   002B9A                     
 10451                           ; BSR set to: 0
 10452   002B9A  0012               	return		;funcret
 10453   002B9C                     __end_of_INTERRUPT_INTx_enable:
 10454                           	callstack 0
 10455                           
 10456 ;; *************** function _INTERRUPT_INTx_edge_int *****************
 10457 ;; Defined at:
 10458 ;;		line 455 in file "MCAL_layer/Interrupt/mcal_external_interrupt.c"
 10459 ;; Parameters:    Size  Location     Type
 10460 ;;  int_obj         1    0[BANK0 ] PTR const struct .
 10461 ;;		 -> INT_obj(6), 
 10462 ;; Auto vars:     Size  Location     Type
 10463 ;;  ret             1    3[BANK0 ] unsigned char 
 10464 ;; Return value:  Size  Location     Type
 10465 ;;                  1    wreg      unsigned char 
 10466 ;; Registers used:
 10467 ;;		wreg, fsr2l, fsr2h, status,2, status,0
 10468 ;; Tracked objects:
 10469 ;;		On entry : 0/0
 10470 ;;		On exit  : 0/0
 10471 ;;		Unchanged: 0/0
 10472 ;; Data sizes:     COMRAM   BANK0   BANK1   BANK2   BANK3   BANK4   BANK5   BANK6   BANK7   BANK8   BANK9  BANK10  BANK1
      +1  BANK12  BANK13  BANK14  BANK15
 10473 ;;      Params:         0       1       0       0       0       0       0       0       0       0       0       0       
      +0       0       0       0       0
 10474 ;;      Locals:         0       1       0       0       0       0       0       0       0       0       0       0       
      +0       0       0       0       0
 10475 ;;      Temps:          0       2       0       0       0       0       0       0       0       0       0       0       
      +0       0       0       0       0
 10476 ;;      Totals:         0       4       0       0       0       0       0       0       0       0       0       0       
      +0       0       0       0       0
 10477 ;;Total ram usage:        4 bytes
 10478 ;; Hardware stack levels used: 1
 10479 ;; Hardware stack levels required when called: 8
 10480 ;; This function calls:
 10481 ;;		Nothing
 10482 ;; This function is called by:
 10483 ;;		_Interrupt_INTx_Init
 10484 ;; This function uses a non-reentrant model
 10485 ;;
 10486                           
 10487                           	psect	text50
 10488   001E00                     __ptext50:
 10489                           	callstack 0
 10490   001E00                     _INTERRUPT_INTx_edge_int:
 10491                           	callstack 19
 10492   001E00                     
 10493                           ;MCAL_layer/Interrupt/mcal_external_interrupt.c: 456:     STD_ReturnType ret = (STD_Retu
      +                          rnType)0x01;
 10494   001E00  0E01               	movlw	1
 10495   001E02  0100               	movlb	0	; () banked
 10496   001E04  6FDD               	movwf	INTERRUPT_INTx_edge_int@ret& (0+255),b
 10497                           
 10498                           ;MCAL_layer/Interrupt/mcal_external_interrupt.c: 457:     if(((void*)0) == int_obj)
 10499   001E06  51DA               	movf	INTERRUPT_INTx_edge_int@int_obj& (0+255),w,b
 10500   001E08  A4D8               	btfss	status,2,c
 10501   001E0A  EF09  F00F         	goto	u6231
 10502   001E0E  EF0B  F00F         	goto	u6230
 10503   001E12                     u6231:
 10504   001E12  EF6F  F00F         	goto	l7056
 10505   001E16                     u6230:
 10506   001E16                     l7028:
 10507                           
 10508                           ; BSR set to: 0
 10509                           ;MCAL_layer/Interrupt/mcal_external_interrupt.c: 458:     {;MCAL_layer/Interrupt/mcal_ex
      +                          ternal_interrupt.c: 459:         ret = (STD_ReturnType)0x00;
 10510   001E16  0E00               	movlw	0
 10511   001E18  6FDD               	movwf	INTERRUPT_INTx_edge_int@ret& (0+255),b
 10512                           
 10513                           ;MCAL_layer/Interrupt/mcal_external_interrupt.c: 460:     }
 10514   001E1A  EF8D  F00F         	goto	l7058
 10515   001E1E                     l7030:
 10516                           
 10517                           ; BSR set to: 0
 10518                           ;MCAL_layer/Interrupt/mcal_external_interrupt.c: 465:                if(int_obj->edge ==
      +                           INTERRUPT_FALLING_EDGE){
 10519   001E1E  51DA               	movf	INTERRUPT_INTx_edge_int@int_obj& (0+255),w,b
 10520   001E20  6ED9               	movwf	fsr2l,c
 10521   001E22  6ADA               	clrf	fsr2h,c
 10522   001E24  0E03               	movlw	3
 10523   001E26  26D9               	addwf	fsr2l,f,c
 10524   001E28  50DF               	movf	indf2,w,c
 10525   001E2A  A4D8               	btfss	status,2,c
 10526   001E2C  EF1A  F00F         	goto	u6241
 10527   001E30  EF1C  F00F         	goto	u6240
 10528   001E34                     u6241:
 10529   001E34  EF1F  F00F         	goto	l7034
 10530   001E38                     u6240:
 10531   001E38                     
 10532                           ; BSR set to: 0
 10533                           ;MCAL_layer/Interrupt/mcal_external_interrupt.c: 466:                  (INTCON2bits.INTE
      +                          DG0 = 0);
 10534   001E38  9CF1               	bcf	241,6,c	;volatile
 10535                           
 10536                           ;MCAL_layer/Interrupt/mcal_external_interrupt.c: 467:                 }
 10537   001E3A  EF8D  F00F         	goto	l7058
 10538   001E3E                     l7034:
 10539                           
 10540                           ; BSR set to: 0
 10541   001E3E  51DA               	movf	INTERRUPT_INTx_edge_int@int_obj& (0+255),w,b
 10542   001E40  6ED9               	movwf	fsr2l,c
 10543   001E42  6ADA               	clrf	fsr2h,c
 10544   001E44  0E03               	movlw	3
 10545   001E46  26D9               	addwf	fsr2l,f,c
 10546   001E48  04DE               	decf	postinc2,w,c
 10547   001E4A  A4D8               	btfss	status,2,c
 10548   001E4C  EF2A  F00F         	goto	u6251
 10549   001E50  EF2C  F00F         	goto	u6250
 10550   001E54                     u6251:
 10551   001E54  EF8D  F00F         	goto	l881
 10552   001E58                     u6250:
 10553   001E58                     
 10554                           ; BSR set to: 0
 10555                           ;MCAL_layer/Interrupt/mcal_external_interrupt.c: 469:                  (INTCON2bits.INTE
      +                          DG0 = 1);
 10556   001E58  8CF1               	bsf	241,6,c	;volatile
 10557                           
 10558                           ;MCAL_layer/Interrupt/mcal_external_interrupt.c: 470:                 }
 10559   001E5A  EF8D  F00F         	goto	l7058
 10560   001E5E                     l7038:
 10561                           
 10562                           ; BSR set to: 0
 10563                           ;MCAL_layer/Interrupt/mcal_external_interrupt.c: 476:                 if(int_obj->edge =
      +                          = INTERRUPT_FALLING_EDGE){
 10564   001E5E  51DA               	movf	INTERRUPT_INTx_edge_int@int_obj& (0+255),w,b
 10565   001E60  6ED9               	movwf	fsr2l,c
 10566   001E62  6ADA               	clrf	fsr2h,c
 10567   001E64  0E03               	movlw	3
 10568   001E66  26D9               	addwf	fsr2l,f,c
 10569   001E68  50DF               	movf	indf2,w,c
 10570   001E6A  A4D8               	btfss	status,2,c
 10571   001E6C  EF3A  F00F         	goto	u6261
 10572   001E70  EF3C  F00F         	goto	u6260
 10573   001E74                     u6261:
 10574   001E74  EF3F  F00F         	goto	l7042
 10575   001E78                     u6260:
 10576   001E78                     
 10577                           ; BSR set to: 0
 10578                           ;MCAL_layer/Interrupt/mcal_external_interrupt.c: 477:                 (INTCON2bits.INTED
      +                          G1 = 0);
 10579   001E78  9AF1               	bcf	241,5,c	;volatile
 10580                           
 10581                           ;MCAL_layer/Interrupt/mcal_external_interrupt.c: 478:                 }
 10582   001E7A  EF8D  F00F         	goto	l7058
 10583   001E7E                     l7042:
 10584                           
 10585                           ; BSR set to: 0
 10586   001E7E  51DA               	movf	INTERRUPT_INTx_edge_int@int_obj& (0+255),w,b
 10587   001E80  6ED9               	movwf	fsr2l,c
 10588   001E82  6ADA               	clrf	fsr2h,c
 10589   001E84  0E03               	movlw	3
 10590   001E86  26D9               	addwf	fsr2l,f,c
 10591   001E88  04DE               	decf	postinc2,w,c
 10592   001E8A  A4D8               	btfss	status,2,c
 10593   001E8C  EF4A  F00F         	goto	u6271
 10594   001E90  EF4C  F00F         	goto	u6270
 10595   001E94                     u6271:
 10596   001E94  EF8D  F00F         	goto	l7058
 10597   001E98                     u6270:
 10598   001E98                     
 10599                           ; BSR set to: 0
 10600                           ;MCAL_layer/Interrupt/mcal_external_interrupt.c: 480:                  (INTCON2bits.INTE
      +                          DG1 = 1);
 10601   001E98  8AF1               	bsf	241,5,c	;volatile
 10602                           
 10603                           ;MCAL_layer/Interrupt/mcal_external_interrupt.c: 481:                 }
 10604   001E9A  EF8D  F00F         	goto	l7058
 10605   001E9E                     l7046:
 10606                           
 10607                           ; BSR set to: 0
 10608                           ;MCAL_layer/Interrupt/mcal_external_interrupt.c: 487:                 if(int_obj->edge =
      +                          = INTERRUPT_FALLING_EDGE){
 10609   001E9E  51DA               	movf	INTERRUPT_INTx_edge_int@int_obj& (0+255),w,b
 10610   001EA0  6ED9               	movwf	fsr2l,c
 10611   001EA2  6ADA               	clrf	fsr2h,c
 10612   001EA4  0E03               	movlw	3
 10613   001EA6  26D9               	addwf	fsr2l,f,c
 10614   001EA8  50DF               	movf	indf2,w,c
 10615   001EAA  A4D8               	btfss	status,2,c
 10616   001EAC  EF5A  F00F         	goto	u6281
 10617   001EB0  EF5C  F00F         	goto	u6280
 10618   001EB4                     u6281:
 10619   001EB4  EF5F  F00F         	goto	l7050
 10620   001EB8                     u6280:
 10621   001EB8                     
 10622                           ; BSR set to: 0
 10623                           ;MCAL_layer/Interrupt/mcal_external_interrupt.c: 488:                  (INTCON2bits.INTE
      +                          DG2 = 0);
 10624   001EB8  98F1               	bcf	241,4,c	;volatile
 10625                           
 10626                           ;MCAL_layer/Interrupt/mcal_external_interrupt.c: 489:                 }
 10627   001EBA  EF8D  F00F         	goto	l7058
 10628   001EBE                     l7050:
 10629                           
 10630                           ; BSR set to: 0
 10631   001EBE  51DA               	movf	INTERRUPT_INTx_edge_int@int_obj& (0+255),w,b
 10632   001EC0  6ED9               	movwf	fsr2l,c
 10633   001EC2  6ADA               	clrf	fsr2h,c
 10634   001EC4  0E03               	movlw	3
 10635   001EC6  26D9               	addwf	fsr2l,f,c
 10636   001EC8  04DE               	decf	postinc2,w,c
 10637   001ECA  A4D8               	btfss	status,2,c
 10638   001ECC  EF6A  F00F         	goto	u6291
 10639   001ED0  EF6C  F00F         	goto	u6290
 10640   001ED4                     u6291:
 10641   001ED4  EF8D  F00F         	goto	l7058
 10642   001ED8                     u6290:
 10643   001ED8                     
 10644                           ; BSR set to: 0
 10645                           ;MCAL_layer/Interrupt/mcal_external_interrupt.c: 491:                  (INTCON2bits.INTE
      +                          DG2 = 1);
 10646   001ED8  88F1               	bsf	241,4,c	;volatile
 10647                           
 10648                           ;MCAL_layer/Interrupt/mcal_external_interrupt.c: 492:                 }
 10649   001EDA  EF8D  F00F         	goto	l7058
 10650   001EDE                     l7056:
 10651                           
 10652                           ; BSR set to: 0
 10653   001EDE  51DA               	movf	INTERRUPT_INTx_edge_int@int_obj& (0+255),w,b
 10654   001EE0  6ED9               	movwf	fsr2l,c
 10655   001EE2  6ADA               	clrf	fsr2h,c
 10656   001EE4  0E04               	movlw	4
 10657   001EE6  26D9               	addwf	fsr2l,f,c
 10658   001EE8  50DF               	movf	indf2,w,c
 10659   001EEA  6FDB               	movwf	??_INTERRUPT_INTx_edge_int& (0+255),b
 10660   001EEC  6BDC               	clrf	(??_INTERRUPT_INTx_edge_int+1)& (0+255),b
 10661                           
 10662                           ; Switch on 2 bytes has been partitioned into a top level switch of size 1, and 1 sub-sw
      +                          itches
 10663                           ; Switch size 1, requested type "simple"
 10664                           ; Number of cases is 1, Range of values is 0 to 0
 10665                           ; switch strategies available:
 10666                           ; Name         Instructions Cycles
 10667                           ; simple_byte            4     3 (average)
 10668                           ;	Chosen strategy is simple_byte
 10669   001EEE  51DC               	movf	(??_INTERRUPT_INTx_edge_int+1)& (0+255),w,b
 10670   001EF0  0A00               	xorlw	0	; case 0
 10671   001EF2  B4D8               	btfsc	status,2,c
 10672   001EF4  EF7E  F00F         	goto	l9704
 10673   001EF8  EF0B  F00F         	goto	l7028
 10674   001EFC                     l9704:
 10675                           
 10676                           ; BSR set to: 0
 10677                           ; Switch size 1, requested type "simple"
 10678                           ; Number of cases is 3, Range of values is 0 to 2
 10679                           ; switch strategies available:
 10680                           ; Name         Instructions Cycles
 10681                           ; simple_byte           10     6 (average)
 10682                           ;	Chosen strategy is simple_byte
 10683   001EFC  51DB               	movf	??_INTERRUPT_INTx_edge_int& (0+255),w,b
 10684   001EFE  0A00               	xorlw	0	; case 0
 10685   001F00  B4D8               	btfsc	status,2,c
 10686   001F02  EF0F  F00F         	goto	l7030
 10687   001F06  0A01               	xorlw	1	; case 1
 10688   001F08  B4D8               	btfsc	status,2,c
 10689   001F0A  EF2F  F00F         	goto	l7038
 10690   001F0E  0A03               	xorlw	3	; case 2
 10691   001F10  B4D8               	btfsc	status,2,c
 10692   001F12  EF4F  F00F         	goto	l7046
 10693   001F16  EF0B  F00F         	goto	l7028
 10694   001F1A                     l881:
 10695   001F1A                     l7058:
 10696                           
 10697                           ; BSR set to: 0
 10698                           ;MCAL_layer/Interrupt/mcal_external_interrupt.c: 500:      return ret;
 10699   001F1A  51DD               	movf	INTERRUPT_INTx_edge_int@ret& (0+255),w,b
 10700   001F1C                     
 10701                           ; BSR set to: 0
 10702   001F1C  0012               	return		;funcret
 10703   001F1E                     __end_of_INTERRUPT_INTx_edge_int:
 10704                           	callstack 0
 10705                           
 10706 ;; *************** function _INTERRUPT_INTx_disable *****************
 10707 ;; Defined at:
 10708 ;;		line 381 in file "MCAL_layer/Interrupt/mcal_external_interrupt.c"
 10709 ;; Parameters:    Size  Location     Type
 10710 ;;  int_obj         1    0[BANK0 ] PTR const struct .
 10711 ;;		 -> INT_obj(6), 
 10712 ;; Auto vars:     Size  Location     Type
 10713 ;;  ret             1    3[BANK0 ] unsigned char 
 10714 ;; Return value:  Size  Location     Type
 10715 ;;                  1    wreg      unsigned char 
 10716 ;; Registers used:
 10717 ;;		wreg, fsr2l, fsr2h, status,2, status,0
 10718 ;; Tracked objects:
 10719 ;;		On entry : 0/0
 10720 ;;		On exit  : 0/0
 10721 ;;		Unchanged: 0/0
 10722 ;; Data sizes:     COMRAM   BANK0   BANK1   BANK2   BANK3   BANK4   BANK5   BANK6   BANK7   BANK8   BANK9  BANK10  BANK1
      +1  BANK12  BANK13  BANK14  BANK15
 10723 ;;      Params:         0       1       0       0       0       0       0       0       0       0       0       0       
      +0       0       0       0       0
 10724 ;;      Locals:         0       1       0       0       0       0       0       0       0       0       0       0       
      +0       0       0       0       0
 10725 ;;      Temps:          0       2       0       0       0       0       0       0       0       0       0       0       
      +0       0       0       0       0
 10726 ;;      Totals:         0       4       0       0       0       0       0       0       0       0       0       0       
      +0       0       0       0       0
 10727 ;;Total ram usage:        4 bytes
 10728 ;; Hardware stack levels used: 1
 10729 ;; Hardware stack levels required when called: 8
 10730 ;; This function calls:
 10731 ;;		Nothing
 10732 ;; This function is called by:
 10733 ;;		_Interrupt_INTx_Init
 10734 ;;		_Interrupt_INTx_DeInit
 10735 ;; This function uses a non-reentrant model
 10736 ;;
 10737                           
 10738                           	psect	text51
 10739   002C12                     __ptext51:
 10740                           	callstack 0
 10741   002C12                     _INTERRUPT_INTx_disable:
 10742                           	callstack 19
 10743   002C12                     
 10744                           ;MCAL_layer/Interrupt/mcal_external_interrupt.c: 382:     STD_ReturnType ret = (STD_Retu
      +                          rnType)0x01;
 10745   002C12  0E01               	movlw	1
 10746   002C14  0100               	movlb	0	; () banked
 10747   002C16  6FDD               	movwf	INTERRUPT_INTx_disable@ret& (0+255),b
 10748                           
 10749                           ;MCAL_layer/Interrupt/mcal_external_interrupt.c: 383:     if(((void*)0) == int_obj)
 10750   002C18  51DA               	movf	INTERRUPT_INTx_disable@int_obj& (0+255),w,b
 10751   002C1A  A4D8               	btfss	status,2,c
 10752   002C1C  EF12  F016         	goto	u6211
 10753   002C20  EF14  F016         	goto	u6210
 10754   002C24                     u6211:
 10755   002C24  EF21  F016         	goto	l6996
 10756   002C28                     u6210:
 10757   002C28                     l6992:
 10758                           
 10759                           ; BSR set to: 0
 10760                           ;MCAL_layer/Interrupt/mcal_external_interrupt.c: 384:     {;MCAL_layer/Interrupt/mcal_ex
      +                          ternal_interrupt.c: 385:         ret = (STD_ReturnType)0x00;
 10761   002C28  0E00               	movlw	0
 10762   002C2A  6FDD               	movwf	INTERRUPT_INTx_disable@ret& (0+255),b
 10763                           
 10764                           ;MCAL_layer/Interrupt/mcal_external_interrupt.c: 386:     }
 10765   002C2C  EF3F  F016         	goto	l6998
 10766   002C30                     l847:
 10767                           
 10768                           ; BSR set to: 0
 10769   002C30  98F2               	bcf	242,4,c	;volatile
 10770   002C32  EF3F  F016         	goto	l6998
 10771   002C36                     l849:
 10772                           
 10773                           ; BSR set to: 0
 10774   002C36  96F0               	bcf	240,3,c	;volatile
 10775   002C38  EF3F  F016         	goto	l6998
 10776   002C3C                     l850:
 10777                           
 10778                           ; BSR set to: 0
 10779   002C3C  98F0               	bcf	240,4,c	;volatile
 10780   002C3E  EF3F  F016         	goto	l6998
 10781   002C42                     l6996:
 10782                           
 10783                           ; BSR set to: 0
 10784   002C42  51DA               	movf	INTERRUPT_INTx_disable@int_obj& (0+255),w,b
 10785   002C44  6ED9               	movwf	fsr2l,c
 10786   002C46  6ADA               	clrf	fsr2h,c
 10787   002C48  0E04               	movlw	4
 10788   002C4A  26D9               	addwf	fsr2l,f,c
 10789   002C4C  50DF               	movf	indf2,w,c
 10790   002C4E  6FDB               	movwf	??_INTERRUPT_INTx_disable& (0+255),b
 10791   002C50  6BDC               	clrf	(??_INTERRUPT_INTx_disable+1)& (0+255),b
 10792                           
 10793                           ; Switch on 2 bytes has been partitioned into a top level switch of size 1, and 1 sub-sw
      +                          itches
 10794                           ; Switch size 1, requested type "simple"
 10795                           ; Number of cases is 1, Range of values is 0 to 0
 10796                           ; switch strategies available:
 10797                           ; Name         Instructions Cycles
 10798                           ; simple_byte            4     3 (average)
 10799                           ;	Chosen strategy is simple_byte
 10800   002C52  51DC               	movf	(??_INTERRUPT_INTx_disable+1)& (0+255),w,b
 10801   002C54  0A00               	xorlw	0	; case 0
 10802   002C56  B4D8               	btfsc	status,2,c
 10803   002C58  EF30  F016         	goto	l9706
 10804   002C5C  EF14  F016         	goto	l6992
 10805   002C60                     l9706:
 10806                           
 10807                           ; BSR set to: 0
 10808                           ; Switch size 1, requested type "simple"
 10809                           ; Number of cases is 3, Range of values is 0 to 2
 10810                           ; switch strategies available:
 10811                           ; Name         Instructions Cycles
 10812                           ; simple_byte           10     6 (average)
 10813                           ;	Chosen strategy is simple_byte
 10814   002C60  51DB               	movf	??_INTERRUPT_INTx_disable& (0+255),w,b
 10815   002C62  0A00               	xorlw	0	; case 0
 10816   002C64  B4D8               	btfsc	status,2,c
 10817   002C66  EF18  F016         	goto	l847
 10818   002C6A  0A01               	xorlw	1	; case 1
 10819   002C6C  B4D8               	btfsc	status,2,c
 10820   002C6E  EF1B  F016         	goto	l849
 10821   002C72  0A03               	xorlw	3	; case 2
 10822   002C74  B4D8               	btfsc	status,2,c
 10823   002C76  EF1E  F016         	goto	l850
 10824   002C7A  EF14  F016         	goto	l6992
 10825   002C7E                     l6998:
 10826                           
 10827                           ; BSR set to: 0
 10828                           ;MCAL_layer/Interrupt/mcal_external_interrupt.c: 397:      return ret;
 10829   002C7E  51DD               	movf	INTERRUPT_INTx_disable@ret& (0+255),w,b
 10830   002C80                     
 10831                           ; BSR set to: 0
 10832   002C80  0012               	return		;funcret
 10833   002C82                     __end_of_INTERRUPT_INTx_disable:
 10834                           	callstack 0
 10835                           
 10836 ;; *************** function _INTERRUPT_INTx_clear_flag *****************
 10837 ;; Defined at:
 10838 ;;		line 530 in file "MCAL_layer/Interrupt/mcal_external_interrupt.c"
 10839 ;; Parameters:    Size  Location     Type
 10840 ;;  int_obj         1    0[BANK0 ] PTR const struct .
 10841 ;;		 -> INT_obj(6), 
 10842 ;; Auto vars:     Size  Location     Type
 10843 ;;  ret             1    3[BANK0 ] unsigned char 
 10844 ;; Return value:  Size  Location     Type
 10845 ;;                  1    wreg      unsigned char 
 10846 ;; Registers used:
 10847 ;;		wreg, fsr2l, fsr2h, status,2, status,0
 10848 ;; Tracked objects:
 10849 ;;		On entry : 0/0
 10850 ;;		On exit  : 0/0
 10851 ;;		Unchanged: 0/0
 10852 ;; Data sizes:     COMRAM   BANK0   BANK1   BANK2   BANK3   BANK4   BANK5   BANK6   BANK7   BANK8   BANK9  BANK10  BANK1
      +1  BANK12  BANK13  BANK14  BANK15
 10853 ;;      Params:         0       1       0       0       0       0       0       0       0       0       0       0       
      +0       0       0       0       0
 10854 ;;      Locals:         0       1       0       0       0       0       0       0       0       0       0       0       
      +0       0       0       0       0
 10855 ;;      Temps:          0       2       0       0       0       0       0       0       0       0       0       0       
      +0       0       0       0       0
 10856 ;;      Totals:         0       4       0       0       0       0       0       0       0       0       0       0       
      +0       0       0       0       0
 10857 ;;Total ram usage:        4 bytes
 10858 ;; Hardware stack levels used: 1
 10859 ;; Hardware stack levels required when called: 8
 10860 ;; This function calls:
 10861 ;;		Nothing
 10862 ;; This function is called by:
 10863 ;;		_Interrupt_INTx_Init
 10864 ;; This function uses a non-reentrant model
 10865 ;;
 10866                           
 10867                           	psect	text52
 10868   002C82                     __ptext52:
 10869                           	callstack 0
 10870   002C82                     _INTERRUPT_INTx_clear_flag:
 10871                           	callstack 19
 10872   002C82                     
 10873                           ;MCAL_layer/Interrupt/mcal_external_interrupt.c: 531:     STD_ReturnType ret = (STD_Retu
      +                          rnType)0x01;
 10874   002C82  0E01               	movlw	1
 10875   002C84  0100               	movlb	0	; () banked
 10876   002C86  6FDD               	movwf	INTERRUPT_INTx_clear_flag@ret& (0+255),b
 10877                           
 10878                           ;MCAL_layer/Interrupt/mcal_external_interrupt.c: 532:     if(((void*)0) == int_obj)
 10879   002C88  51DA               	movf	INTERRUPT_INTx_clear_flag@int_obj& (0+255),w,b
 10880   002C8A  A4D8               	btfss	status,2,c
 10881   002C8C  EF4A  F016         	goto	u6221
 10882   002C90  EF4C  F016         	goto	u6220
 10883   002C94                     u6221:
 10884   002C94  EF59  F016         	goto	l7014
 10885   002C98                     u6220:
 10886   002C98                     l7010:
 10887                           
 10888                           ; BSR set to: 0
 10889                           ;MCAL_layer/Interrupt/mcal_external_interrupt.c: 533:     {;MCAL_layer/Interrupt/mcal_ex
      +                          ternal_interrupt.c: 534:         ret = (STD_ReturnType)0x00;
 10890   002C98  0E00               	movlw	0
 10891   002C9A  6FDD               	movwf	INTERRUPT_INTx_clear_flag@ret& (0+255),b
 10892                           
 10893                           ;MCAL_layer/Interrupt/mcal_external_interrupt.c: 535:     }
 10894   002C9C  EF77  F016         	goto	l7016
 10895   002CA0                     l904:
 10896                           
 10897                           ; BSR set to: 0
 10898   002CA0  92F2               	bcf	242,1,c	;volatile
 10899   002CA2  EF77  F016         	goto	l7016
 10900   002CA6                     l906:
 10901                           
 10902                           ; BSR set to: 0
 10903   002CA6  90F0               	bcf	240,0,c	;volatile
 10904   002CA8  EF77  F016         	goto	l7016
 10905   002CAC                     l907:
 10906                           
 10907                           ; BSR set to: 0
 10908   002CAC  92F0               	bcf	240,1,c	;volatile
 10909   002CAE  EF77  F016         	goto	l7016
 10910   002CB2                     l7014:
 10911                           
 10912                           ; BSR set to: 0
 10913   002CB2  51DA               	movf	INTERRUPT_INTx_clear_flag@int_obj& (0+255),w,b
 10914   002CB4  6ED9               	movwf	fsr2l,c
 10915   002CB6  6ADA               	clrf	fsr2h,c
 10916   002CB8  0E04               	movlw	4
 10917   002CBA  26D9               	addwf	fsr2l,f,c
 10918   002CBC  50DF               	movf	indf2,w,c
 10919   002CBE  6FDB               	movwf	??_INTERRUPT_INTx_clear_flag& (0+255),b
 10920   002CC0  6BDC               	clrf	(??_INTERRUPT_INTx_clear_flag+1)& (0+255),b
 10921                           
 10922                           ; Switch on 2 bytes has been partitioned into a top level switch of size 1, and 1 sub-sw
      +                          itches
 10923                           ; Switch size 1, requested type "simple"
 10924                           ; Number of cases is 1, Range of values is 0 to 0
 10925                           ; switch strategies available:
 10926                           ; Name         Instructions Cycles
 10927                           ; simple_byte            4     3 (average)
 10928                           ;	Chosen strategy is simple_byte
 10929   002CC2  51DC               	movf	(??_INTERRUPT_INTx_clear_flag+1)& (0+255),w,b
 10930   002CC4  0A00               	xorlw	0	; case 0
 10931   002CC6  B4D8               	btfsc	status,2,c
 10932   002CC8  EF68  F016         	goto	l9708
 10933   002CCC  EF4C  F016         	goto	l7010
 10934   002CD0                     l9708:
 10935                           
 10936                           ; BSR set to: 0
 10937                           ; Switch size 1, requested type "simple"
 10938                           ; Number of cases is 3, Range of values is 0 to 2
 10939                           ; switch strategies available:
 10940                           ; Name         Instructions Cycles
 10941                           ; simple_byte           10     6 (average)
 10942                           ;	Chosen strategy is simple_byte
 10943   002CD0  51DB               	movf	??_INTERRUPT_INTx_clear_flag& (0+255),w,b
 10944   002CD2  0A00               	xorlw	0	; case 0
 10945   002CD4  B4D8               	btfsc	status,2,c
 10946   002CD6  EF50  F016         	goto	l904
 10947   002CDA  0A01               	xorlw	1	; case 1
 10948   002CDC  B4D8               	btfsc	status,2,c
 10949   002CDE  EF53  F016         	goto	l906
 10950   002CE2  0A03               	xorlw	3	; case 2
 10951   002CE4  B4D8               	btfsc	status,2,c
 10952   002CE6  EF56  F016         	goto	l907
 10953   002CEA  EF4C  F016         	goto	l7010
 10954   002CEE                     l7016:
 10955                           
 10956                           ; BSR set to: 0
 10957                           ;MCAL_layer/Interrupt/mcal_external_interrupt.c: 546:      return ret;
 10958   002CEE  51DD               	movf	INTERRUPT_INTx_clear_flag@ret& (0+255),w,b
 10959   002CF0                     
 10960                           ; BSR set to: 0
 10961   002CF0  0012               	return		;funcret
 10962   002CF2                     __end_of_INTERRUPT_INTx_clear_flag:
 10963                           	callstack 0
 10964                           
 10965 ;; *************** function _INTERRUPT_MANAGER_HIGH *****************
 10966 ;; Defined at:
 10967 ;;		line 40 in file "MCAL_layer/Interrupt/mcal_interrupt_manager.c"
 10968 ;; Parameters:    Size  Location     Type
 10969 ;;		None
 10970 ;; Auto vars:     Size  Location     Type
 10971 ;;		None
 10972 ;; Return value:  Size  Location     Type
 10973 ;;                  1    wreg      void 
 10974 ;; Registers used:
 10975 ;;		wreg, fsr0l, fsr0h, fsr2l, fsr2h, status,2, status,0, pcl, pclath, pclatu, tosl, tblptrl, tblptrh, tblptru, prodl, p
      +rodh, cstack
 10976 ;; Tracked objects:
 10977 ;;		On entry : 0/0
 10978 ;;		On exit  : 0/0
 10979 ;;		Unchanged: 0/0
 10980 ;; Data sizes:     COMRAM   BANK0   BANK1   BANK2   BANK3   BANK4   BANK5   BANK6   BANK7   BANK8   BANK9  BANK10  BANK1
      +1  BANK12  BANK13  BANK14  BANK15
 10981 ;;      Params:         0       0       0       0       0       0       0       0       0       0       0       0       
      +0       0       0       0       0
 10982 ;;      Locals:         0       0       0       0       0       0       0       0       0       0       0       0       
      +0       0       0       0       0
 10983 ;;      Temps:         12       0       0       0       0       0       0       0       0       0       0       0       
      +0       0       0       0       0
 10984 ;;      Totals:        12       0       0       0       0       0       0       0       0       0       0       0       
      +0       0       0       0       0
 10985 ;;Total ram usage:       12 bytes
 10986 ;; Hardware stack levels used: 1
 10987 ;; Hardware stack levels required when called: 7
 10988 ;; This function calls:
 10989 ;;		_INT0_ISR
 10990 ;;		_INT1_ISR
 10991 ;;		_INT2_ISR
 10992 ;;		_RB4_ISR
 10993 ;;		_RB5_ISR
 10994 ;;		_RB6_ISR
 10995 ;;		_RB7_ISR
 10996 ;; This function is called by:
 10997 ;;		Interrupt level 2
 10998 ;; This function uses a non-reentrant model
 10999 ;;
 11000                           
 11001                           	psect	intcode
 11002   000008                     __pintcode:
 11003                           	callstack 0
 11004   000008                     _INTERRUPT_MANAGER_HIGH:
 11005                           	callstack 16
 11006                           
 11007                           ; BSR set to: 0
 11008                           ;incstack = 0
 11009   000008  8258               	bsf	int$flags,1,c	;set compiler interrupt flag (level 2)
 11010   00000A  ED3A  F00B         	call	int_func,f	;refresh shadow registers
 11011                           
 11012                           	psect	intcode_body
 11013   001674                     __pintcode_body:
 11014                           	callstack 16
 11015   001674                     int_func:
 11016                           	callstack 16
 11017   001674  0006               	pop		; remove dummy address from shadow register refresh
 11018   001676  CFFA F01E          	movff	pclath,??_INTERRUPT_MANAGER_HIGH
 11019   00167A  CFFB F01F          	movff	pclatu,??_INTERRUPT_MANAGER_HIGH+1
 11020   00167E  CFE9 F020          	movff	fsr0l,??_INTERRUPT_MANAGER_HIGH+2
 11021   001682  CFEA F021          	movff	fsr0h,??_INTERRUPT_MANAGER_HIGH+3
 11022   001686  CFD9 F022          	movff	fsr2l,??_INTERRUPT_MANAGER_HIGH+4
 11023   00168A  CFDA F023          	movff	fsr2h,??_INTERRUPT_MANAGER_HIGH+5
 11024   00168E  CFF3 F024          	movff	prodl,??_INTERRUPT_MANAGER_HIGH+6
 11025   001692  CFF4 F025          	movff	prodh,??_INTERRUPT_MANAGER_HIGH+7
 11026   001696  CFF6 F026          	movff	tblptrl,??_INTERRUPT_MANAGER_HIGH+8
 11027   00169A  CFF7 F027          	movff	tblptrh,??_INTERRUPT_MANAGER_HIGH+9
 11028   00169E  CFF8 F028          	movff	tblptru,??_INTERRUPT_MANAGER_HIGH+10
 11029   0016A2  CFF5 F029          	movff	tablat,??_INTERRUPT_MANAGER_HIGH+11
 11030   0016A6                     
 11031                           ;MCAL_layer/Interrupt/mcal_interrupt_manager.c: 41: if((1 == INTCONbits.INT0IE) && (1 ==
      +                           INTCONbits.INT0IF)){
 11032   0016A6  A8F2               	btfss	242,4,c	;volatile
 11033   0016A8  EF58  F00B         	goto	i2u777_41
 11034   0016AC  EF5A  F00B         	goto	i2u777_40
 11035   0016B0                     i2u777_41:
 11036   0016B0  EF63  F00B         	goto	i2l993
 11037   0016B4                     i2u777_40:
 11038   0016B4  A2F2               	btfss	242,1,c	;volatile
 11039   0016B6  EF5F  F00B         	goto	i2u778_41
 11040   0016BA  EF61  F00B         	goto	i2u778_40
 11041   0016BE                     i2u778_41:
 11042   0016BE  EF63  F00B         	goto	i2l993
 11043   0016C2                     i2u778_40:
 11044   0016C2                     
 11045                           ;MCAL_layer/Interrupt/mcal_interrupt_manager.c: 42:     INT0_ISR();
 11046   0016C2  ECD6  F01A         	call	_INT0_ISR	;wreg free
 11047   0016C6                     i2l993:
 11048                           
 11049                           ;MCAL_layer/Interrupt/mcal_interrupt_manager.c: 45: if((1 == INTCON3bits.INT1IE) && (1 =
      +                          = INTCON3bits.INT1IF)){
 11050   0016C6  A6F0               	btfss	240,3,c	;volatile
 11051   0016C8  EF68  F00B         	goto	i2u779_41
 11052   0016CC  EF6A  F00B         	goto	i2u779_40
 11053   0016D0                     i2u779_41:
 11054   0016D0  EF73  F00B         	goto	i2l995
 11055   0016D4                     i2u779_40:
 11056   0016D4  A0F0               	btfss	240,0,c	;volatile
 11057   0016D6  EF6F  F00B         	goto	i2u780_41
 11058   0016DA  EF71  F00B         	goto	i2u780_40
 11059   0016DE                     i2u780_41:
 11060   0016DE  EF73  F00B         	goto	i2l995
 11061   0016E2                     i2u780_40:
 11062   0016E2                     
 11063                           ;MCAL_layer/Interrupt/mcal_interrupt_manager.c: 46:     INT1_ISR();
 11064   0016E2  ECBF  F01A         	call	_INT1_ISR	;wreg free
 11065   0016E6                     i2l995:
 11066                           
 11067                           ;MCAL_layer/Interrupt/mcal_interrupt_manager.c: 49: if((1 == INTCON3bits.INT2IE) && (1 =
      +                          = INTCON3bits.INT2IF)){
 11068   0016E6  A8F0               	btfss	240,4,c	;volatile
 11069   0016E8  EF78  F00B         	goto	i2u781_41
 11070   0016EC  EF7A  F00B         	goto	i2u781_40
 11071   0016F0                     i2u781_41:
 11072   0016F0  EF83  F00B         	goto	i2l997
 11073   0016F4                     i2u781_40:
 11074   0016F4  A2F0               	btfss	240,1,c	;volatile
 11075   0016F6  EF7F  F00B         	goto	i2u782_41
 11076   0016FA  EF81  F00B         	goto	i2u782_40
 11077   0016FE                     i2u782_41:
 11078   0016FE  EF83  F00B         	goto	i2l997
 11079   001702                     i2u782_40:
 11080   001702                     
 11081                           ;MCAL_layer/Interrupt/mcal_interrupt_manager.c: 50:     INT2_ISR();
 11082   001702  ECA8  F01A         	call	_INT2_ISR	;wreg free
 11083   001706                     i2l997:
 11084                           
 11085                           ;MCAL_layer/Interrupt/mcal_interrupt_manager.c: 54: if((1 == INTCONbits.RBIE) && (1 == I
      +                          NTCONbits.RBIF) &&
 11086   001706  A6F2               	btfss	242,3,c	;volatile
 11087   001708  EF88  F00B         	goto	i2u783_41
 11088   00170C  EF8A  F00B         	goto	i2u783_40
 11089   001710                     i2u783_41:
 11090   001710  EFA5  F00B         	goto	i2l999
 11091   001714                     i2u783_40:
 11092   001714  A0F2               	btfss	242,0,c	;volatile
 11093   001716  EF8F  F00B         	goto	i2u784_41
 11094   00171A  EF91  F00B         	goto	i2u784_40
 11095   00171E                     i2u784_41:
 11096   00171E  EFA5  F00B         	goto	i2l999
 11097   001722                     i2u784_40:
 11098   001722  A881               	btfss	129,4,c	;volatile
 11099   001724  EF96  F00B         	goto	i2u785_41
 11100   001728  EF98  F00B         	goto	i2u785_40
 11101   00172C                     i2u785_41:
 11102   00172C  EFA5  F00B         	goto	i2l999
 11103   001730                     i2u785_40:
 11104   001730  044C               	decf	_RB4_flag^0,w,c	;volatile
 11105   001732  A4D8               	btfss	status,2,c
 11106   001734  EF9E  F00B         	goto	i2u786_41
 11107   001738  EFA0  F00B         	goto	i2u786_40
 11108   00173C                     i2u786_41:
 11109   00173C  EFA5  F00B         	goto	i2l999
 11110   001740                     i2u786_40:
 11111   001740                     
 11112                           ;MCAL_layer/Interrupt/mcal_interrupt_manager.c: 55:     (PORTBbits.RB4 == 1)&& (1 == RB4
      +                          _flag)){;MCAL_layer/Interrupt/mcal_interrupt_manager.c: 56:     RB4_flag = 0;
 11113   001740  0E00               	movlw	0
 11114   001742  6E4C               	movwf	_RB4_flag^0,c	;volatile
 11115   001744                     
 11116                           ;MCAL_layer/Interrupt/mcal_interrupt_manager.c: 57:     RB4_ISR(1);
 11117   001744  0E01               	movlw	1
 11118   001746  EC85  F01B         	call	_RB4_ISR
 11119   00174A                     i2l999:
 11120                           
 11121                           ;MCAL_layer/Interrupt/mcal_interrupt_manager.c: 60: if((1 == INTCONbits.RBIE) && (1 == I
      +                          NTCONbits.RBIF)
 11122   00174A  A6F2               	btfss	242,3,c	;volatile
 11123   00174C  EFAA  F00B         	goto	i2u787_41
 11124   001750  EFAC  F00B         	goto	i2u787_40
 11125   001754                     i2u787_41:
 11126   001754  EFC7  F00B         	goto	i2l1001
 11127   001758                     i2u787_40:
 11128   001758  A0F2               	btfss	242,0,c	;volatile
 11129   00175A  EFB1  F00B         	goto	i2u788_41
 11130   00175E  EFB3  F00B         	goto	i2u788_40
 11131   001762                     i2u788_41:
 11132   001762  EFC7  F00B         	goto	i2l1001
 11133   001766                     i2u788_40:
 11134   001766  B881               	btfsc	129,4,c	;volatile
 11135   001768  EFB8  F00B         	goto	i2u789_41
 11136   00176C  EFBA  F00B         	goto	i2u789_40
 11137   001770                     i2u789_41:
 11138   001770  EFC7  F00B         	goto	i2l1001
 11139   001774                     i2u789_40:
 11140   001774  504C               	movf	_RB4_flag^0,w,c	;volatile
 11141   001776  A4D8               	btfss	status,2,c
 11142   001778  EFC0  F00B         	goto	i2u790_41
 11143   00177C  EFC2  F00B         	goto	i2u790_40
 11144   001780                     i2u790_41:
 11145   001780  EFC7  F00B         	goto	i2l1001
 11146   001784                     i2u790_40:
 11147   001784                     
 11148                           ;MCAL_layer/Interrupt/mcal_interrupt_manager.c: 61:     && (PORTBbits.RB4 == 0) && (0 ==
      +                           RB4_flag)){;MCAL_layer/Interrupt/mcal_interrupt_manager.c: 62:     RB4_flag = 1;
 11149   001784  0E01               	movlw	1
 11150   001786  6E4C               	movwf	_RB4_flag^0,c	;volatile
 11151   001788                     
 11152                           ;MCAL_layer/Interrupt/mcal_interrupt_manager.c: 63:     RB4_ISR(0);
 11153   001788  0E00               	movlw	0
 11154   00178A  EC85  F01B         	call	_RB4_ISR
 11155   00178E                     i2l1001:
 11156                           
 11157                           ;MCAL_layer/Interrupt/mcal_interrupt_manager.c: 69: if((1 == INTCONbits.RBIE) && (1 == I
      +                          NTCONbits.RBIF)
 11158   00178E  A6F2               	btfss	242,3,c	;volatile
 11159   001790  EFCC  F00B         	goto	i2u791_41
 11160   001794  EFCE  F00B         	goto	i2u791_40
 11161   001798                     i2u791_41:
 11162   001798  EFE9  F00B         	goto	i2l1003
 11163   00179C                     i2u791_40:
 11164   00179C  A0F2               	btfss	242,0,c	;volatile
 11165   00179E  EFD3  F00B         	goto	i2u792_41
 11166   0017A2  EFD5  F00B         	goto	i2u792_40
 11167   0017A6                     i2u792_41:
 11168   0017A6  EFE9  F00B         	goto	i2l1003
 11169   0017AA                     i2u792_40:
 11170   0017AA  AA81               	btfss	129,5,c	;volatile
 11171   0017AC  EFDA  F00B         	goto	i2u793_41
 11172   0017B0  EFDC  F00B         	goto	i2u793_40
 11173   0017B4                     i2u793_41:
 11174   0017B4  EFE9  F00B         	goto	i2l1003
 11175   0017B8                     i2u793_40:
 11176   0017B8  044B               	decf	_RB5_flag^0,w,c	;volatile
 11177   0017BA  A4D8               	btfss	status,2,c
 11178   0017BC  EFE2  F00B         	goto	i2u794_41
 11179   0017C0  EFE4  F00B         	goto	i2u794_40
 11180   0017C4                     i2u794_41:
 11181   0017C4  EFE9  F00B         	goto	i2l1003
 11182   0017C8                     i2u794_40:
 11183   0017C8                     
 11184                           ;MCAL_layer/Interrupt/mcal_interrupt_manager.c: 70:    && (PORTBbits.RB5 == 1)&& (1 == R
      +                          B5_flag)){;MCAL_layer/Interrupt/mcal_interrupt_manager.c: 71:     RB5_flag = 0;
 11185   0017C8  0E00               	movlw	0
 11186   0017CA  6E4B               	movwf	_RB5_flag^0,c	;volatile
 11187   0017CC                     
 11188                           ;MCAL_layer/Interrupt/mcal_interrupt_manager.c: 72:     RB5_ISR(1);
 11189   0017CC  0E01               	movlw	1
 11190   0017CE  EC78  F01B         	call	_RB5_ISR
 11191   0017D2                     i2l1003:
 11192                           
 11193                           ;MCAL_layer/Interrupt/mcal_interrupt_manager.c: 75: if((1 == INTCONbits.RBIE) && (1 == I
      +                          NTCONbits.RBIF)
 11194   0017D2  A6F2               	btfss	242,3,c	;volatile
 11195   0017D4  EFEE  F00B         	goto	i2u795_41
 11196   0017D8  EFF0  F00B         	goto	i2u795_40
 11197   0017DC                     i2u795_41:
 11198   0017DC  EF0B  F00C         	goto	i2l1005
 11199   0017E0                     i2u795_40:
 11200   0017E0  A0F2               	btfss	242,0,c	;volatile
 11201   0017E2  EFF5  F00B         	goto	i2u796_41
 11202   0017E6  EFF7  F00B         	goto	i2u796_40
 11203   0017EA                     i2u796_41:
 11204   0017EA  EF0B  F00C         	goto	i2l1005
 11205   0017EE                     i2u796_40:
 11206   0017EE  BA81               	btfsc	129,5,c	;volatile
 11207   0017F0  EFFC  F00B         	goto	i2u797_41
 11208   0017F4  EFFE  F00B         	goto	i2u797_40
 11209   0017F8                     i2u797_41:
 11210   0017F8  EF0B  F00C         	goto	i2l1005
 11211   0017FC                     i2u797_40:
 11212   0017FC  504B               	movf	_RB5_flag^0,w,c	;volatile
 11213   0017FE  A4D8               	btfss	status,2,c
 11214   001800  EF04  F00C         	goto	i2u798_41
 11215   001804  EF06  F00C         	goto	i2u798_40
 11216   001808                     i2u798_41:
 11217   001808  EF0B  F00C         	goto	i2l1005
 11218   00180C                     i2u798_40:
 11219   00180C                     
 11220                           ;MCAL_layer/Interrupt/mcal_interrupt_manager.c: 76:    && (PORTBbits.RB5 == 0)&& (0 == R
      +                          B5_flag)){;MCAL_layer/Interrupt/mcal_interrupt_manager.c: 77:     RB5_flag = 1;
 11221   00180C  0E01               	movlw	1
 11222   00180E  6E4B               	movwf	_RB5_flag^0,c	;volatile
 11223   001810                     
 11224                           ;MCAL_layer/Interrupt/mcal_interrupt_manager.c: 78:     RB5_ISR(0);
 11225   001810  0E00               	movlw	0
 11226   001812  EC78  F01B         	call	_RB5_ISR
 11227   001816                     i2l1005:
 11228                           
 11229                           ;MCAL_layer/Interrupt/mcal_interrupt_manager.c: 84: if((1 == INTCONbits.RBIE) && (1 == I
      +                          NTCONbits.RBIF)
 11230   001816  A6F2               	btfss	242,3,c	;volatile
 11231   001818  EF10  F00C         	goto	i2u799_41
 11232   00181C  EF12  F00C         	goto	i2u799_40
 11233   001820                     i2u799_41:
 11234   001820  EF2D  F00C         	goto	i2l1007
 11235   001824                     i2u799_40:
 11236   001824  A0F2               	btfss	242,0,c	;volatile
 11237   001826  EF17  F00C         	goto	i2u800_41
 11238   00182A  EF19  F00C         	goto	i2u800_40
 11239   00182E                     i2u800_41:
 11240   00182E  EF2D  F00C         	goto	i2l1007
 11241   001832                     i2u800_40:
 11242   001832  AC81               	btfss	129,6,c	;volatile
 11243   001834  EF1E  F00C         	goto	i2u801_41
 11244   001838  EF20  F00C         	goto	i2u801_40
 11245   00183C                     i2u801_41:
 11246   00183C  EF2D  F00C         	goto	i2l1007
 11247   001840                     i2u801_40:
 11248   001840  044A               	decf	_RB6_flag^0,w,c	;volatile
 11249   001842  A4D8               	btfss	status,2,c
 11250   001844  EF26  F00C         	goto	i2u802_41
 11251   001848  EF28  F00C         	goto	i2u802_40
 11252   00184C                     i2u802_41:
 11253   00184C  EF2D  F00C         	goto	i2l1007
 11254   001850                     i2u802_40:
 11255   001850                     
 11256                           ;MCAL_layer/Interrupt/mcal_interrupt_manager.c: 85:    && (PORTBbits.RB6 == 1)&& (1 == R
      +                          B6_flag)){;MCAL_layer/Interrupt/mcal_interrupt_manager.c: 86:     RB6_flag = 0;
 11257   001850  0E00               	movlw	0
 11258   001852  6E4A               	movwf	_RB6_flag^0,c	;volatile
 11259   001854                     
 11260                           ;MCAL_layer/Interrupt/mcal_interrupt_manager.c: 87:     RB6_ISR(1);
 11261   001854  0E01               	movlw	1
 11262   001856  EC6B  F01B         	call	_RB6_ISR
 11263   00185A                     i2l1007:
 11264                           
 11265                           ;MCAL_layer/Interrupt/mcal_interrupt_manager.c: 90: if((1 == INTCONbits.RBIE) && (1 == I
      +                          NTCONbits.RBIF)
 11266   00185A  A6F2               	btfss	242,3,c	;volatile
 11267   00185C  EF32  F00C         	goto	i2u803_41
 11268   001860  EF34  F00C         	goto	i2u803_40
 11269   001864                     i2u803_41:
 11270   001864  EF4F  F00C         	goto	i2l1009
 11271   001868                     i2u803_40:
 11272   001868  A0F2               	btfss	242,0,c	;volatile
 11273   00186A  EF39  F00C         	goto	i2u804_41
 11274   00186E  EF3B  F00C         	goto	i2u804_40
 11275   001872                     i2u804_41:
 11276   001872  EF4F  F00C         	goto	i2l1009
 11277   001876                     i2u804_40:
 11278   001876  BC81               	btfsc	129,6,c	;volatile
 11279   001878  EF40  F00C         	goto	i2u805_41
 11280   00187C  EF42  F00C         	goto	i2u805_40
 11281   001880                     i2u805_41:
 11282   001880  EF4F  F00C         	goto	i2l1009
 11283   001884                     i2u805_40:
 11284   001884  504A               	movf	_RB6_flag^0,w,c	;volatile
 11285   001886  A4D8               	btfss	status,2,c
 11286   001888  EF48  F00C         	goto	i2u806_41
 11287   00188C  EF4A  F00C         	goto	i2u806_40
 11288   001890                     i2u806_41:
 11289   001890  EF4F  F00C         	goto	i2l1009
 11290   001894                     i2u806_40:
 11291   001894                     
 11292                           ;MCAL_layer/Interrupt/mcal_interrupt_manager.c: 91:    && (PORTBbits.RB6 == 0)&& (0 == R
      +                          B6_flag)){;MCAL_layer/Interrupt/mcal_interrupt_manager.c: 92:     RB6_flag = 1;
 11293   001894  0E01               	movlw	1
 11294   001896  6E4A               	movwf	_RB6_flag^0,c	;volatile
 11295   001898                     
 11296                           ;MCAL_layer/Interrupt/mcal_interrupt_manager.c: 93:     RB6_ISR(0);
 11297   001898  0E00               	movlw	0
 11298   00189A  EC6B  F01B         	call	_RB6_ISR
 11299   00189E                     i2l1009:
 11300                           
 11301                           ;MCAL_layer/Interrupt/mcal_interrupt_manager.c: 99: if((1 == INTCONbits.RBIE) && (1 == I
      +                          NTCONbits.RBIF)
 11302   00189E  A6F2               	btfss	242,3,c	;volatile
 11303   0018A0  EF54  F00C         	goto	i2u807_41
 11304   0018A4  EF56  F00C         	goto	i2u807_40
 11305   0018A8                     i2u807_41:
 11306   0018A8  EF71  F00C         	goto	i2l1011
 11307   0018AC                     i2u807_40:
 11308   0018AC  A0F2               	btfss	242,0,c	;volatile
 11309   0018AE  EF5B  F00C         	goto	i2u808_41
 11310   0018B2  EF5D  F00C         	goto	i2u808_40
 11311   0018B6                     i2u808_41:
 11312   0018B6  EF71  F00C         	goto	i2l1011
 11313   0018BA                     i2u808_40:
 11314   0018BA  AE81               	btfss	129,7,c	;volatile
 11315   0018BC  EF62  F00C         	goto	i2u809_41
 11316   0018C0  EF64  F00C         	goto	i2u809_40
 11317   0018C4                     i2u809_41:
 11318   0018C4  EF71  F00C         	goto	i2l1011
 11319   0018C8                     i2u809_40:
 11320   0018C8  0449               	decf	_RB7_flag^0,w,c	;volatile
 11321   0018CA  A4D8               	btfss	status,2,c
 11322   0018CC  EF6A  F00C         	goto	i2u810_41
 11323   0018D0  EF6C  F00C         	goto	i2u810_40
 11324   0018D4                     i2u810_41:
 11325   0018D4  EF71  F00C         	goto	i2l1011
 11326   0018D8                     i2u810_40:
 11327   0018D8                     
 11328                           ;MCAL_layer/Interrupt/mcal_interrupt_manager.c: 100:    && (PORTBbits.RB7 == 1)&& (1 == 
      +                          RB7_flag)){;MCAL_layer/Interrupt/mcal_interrupt_manager.c: 101:     RB7_flag = 0;
 11329   0018D8  0E00               	movlw	0
 11330   0018DA  6E49               	movwf	_RB7_flag^0,c	;volatile
 11331   0018DC                     
 11332                           ;MCAL_layer/Interrupt/mcal_interrupt_manager.c: 102:     RB7_ISR(1);
 11333   0018DC  0E01               	movlw	1
 11334   0018DE  EC5E  F01B         	call	_RB7_ISR
 11335   0018E2                     i2l1011:
 11336                           
 11337                           ;MCAL_layer/Interrupt/mcal_interrupt_manager.c: 105: if((1 == INTCONbits.RBIE) && (1 == 
      +                          INTCONbits.RBIF)
 11338   0018E2  A6F2               	btfss	242,3,c	;volatile
 11339   0018E4  EF76  F00C         	goto	i2u811_41
 11340   0018E8  EF78  F00C         	goto	i2u811_40
 11341   0018EC                     i2u811_41:
 11342   0018EC  EF93  F00C         	goto	i2l1014
 11343   0018F0                     i2u811_40:
 11344   0018F0  A0F2               	btfss	242,0,c	;volatile
 11345   0018F2  EF7D  F00C         	goto	i2u812_41
 11346   0018F6  EF7F  F00C         	goto	i2u812_40
 11347   0018FA                     i2u812_41:
 11348   0018FA  EF93  F00C         	goto	i2l1014
 11349   0018FE                     i2u812_40:
 11350   0018FE  BE81               	btfsc	129,7,c	;volatile
 11351   001900  EF84  F00C         	goto	i2u813_41
 11352   001904  EF86  F00C         	goto	i2u813_40
 11353   001908                     i2u813_41:
 11354   001908  EF93  F00C         	goto	i2l1014
 11355   00190C                     i2u813_40:
 11356   00190C  5049               	movf	_RB7_flag^0,w,c	;volatile
 11357   00190E  A4D8               	btfss	status,2,c
 11358   001910  EF8C  F00C         	goto	i2u814_41
 11359   001914  EF8E  F00C         	goto	i2u814_40
 11360   001918                     i2u814_41:
 11361   001918  EF93  F00C         	goto	i2l1014
 11362   00191C                     i2u814_40:
 11363   00191C                     
 11364                           ;MCAL_layer/Interrupt/mcal_interrupt_manager.c: 106:    && (PORTBbits.RB7 == 0)&& (0 == 
      +                          RB7_flag)){;MCAL_layer/Interrupt/mcal_interrupt_manager.c: 107:     RB7_flag = 1;
 11365   00191C  0E01               	movlw	1
 11366   00191E  6E49               	movwf	_RB7_flag^0,c	;volatile
 11367   001920                     
 11368                           ;MCAL_layer/Interrupt/mcal_interrupt_manager.c: 108:     RB7_ISR(0);
 11369   001920  0E00               	movlw	0
 11370   001922  EC5E  F01B         	call	_RB7_ISR
 11371   001926                     i2l1014:
 11372   001926  C029  FFF5         	movff	??_INTERRUPT_MANAGER_HIGH+11,tablat
 11373   00192A  C028  FFF8         	movff	??_INTERRUPT_MANAGER_HIGH+10,tblptru
 11374   00192E  C027  FFF7         	movff	??_INTERRUPT_MANAGER_HIGH+9,tblptrh
 11375   001932  C026  FFF6         	movff	??_INTERRUPT_MANAGER_HIGH+8,tblptrl
 11376   001936  C025  FFF4         	movff	??_INTERRUPT_MANAGER_HIGH+7,prodh
 11377   00193A  C024  FFF3         	movff	??_INTERRUPT_MANAGER_HIGH+6,prodl
 11378   00193E  C023  FFDA         	movff	??_INTERRUPT_MANAGER_HIGH+5,fsr2h
 11379   001942  C022  FFD9         	movff	??_INTERRUPT_MANAGER_HIGH+4,fsr2l
 11380   001946  C021  FFEA         	movff	??_INTERRUPT_MANAGER_HIGH+3,fsr0h
 11381   00194A  C020  FFE9         	movff	??_INTERRUPT_MANAGER_HIGH+2,fsr0l
 11382   00194E  C01F  FFFB         	movff	??_INTERRUPT_MANAGER_HIGH+1,pclatu
 11383   001952  C01E  FFFA         	movff	??_INTERRUPT_MANAGER_HIGH,pclath
 11384   001956  9258               	bcf	int$flags,1,c	;clear compiler interrupt flag (level 2)
 11385   001958  0011               	retfie		f
 11386   00195A                     __end_of_INTERRUPT_MANAGER_HIGH:
 11387                           	callstack 0
 11388                           
 11389 ;; *************** function _RB7_ISR *****************
 11390 ;; Defined at:
 11391 ;;		line 186 in file "MCAL_layer/Interrupt/mcal_external_interrupt.c"
 11392 ;; Parameters:    Size  Location     Type
 11393 ;;  RB7_source      1    wreg     unsigned char 
 11394 ;; Auto vars:     Size  Location     Type
 11395 ;;  RB7_source      1    0[COMRAM] unsigned char 
 11396 ;; Return value:  Size  Location     Type
 11397 ;;                  1    wreg      void 
 11398 ;; Registers used:
 11399 ;;		wreg, status,2, status,0
 11400 ;; Tracked objects:
 11401 ;;		On entry : 0/0
 11402 ;;		On exit  : 0/0
 11403 ;;		Unchanged: 0/0
 11404 ;; Data sizes:     COMRAM   BANK0   BANK1   BANK2   BANK3   BANK4   BANK5   BANK6   BANK7   BANK8   BANK9  BANK10  BANK1
      +1  BANK12  BANK13  BANK14  BANK15
 11405 ;;      Params:         0       0       0       0       0       0       0       0       0       0       0       0       
      +0       0       0       0       0
 11406 ;;      Locals:         1       0       0       0       0       0       0       0       0       0       0       0       
      +0       0       0       0       0
 11407 ;;      Temps:          0       0       0       0       0       0       0       0       0       0       0       0       
      +0       0       0       0       0
 11408 ;;      Totals:         1       0       0       0       0       0       0       0       0       0       0       0       
      +0       0       0       0       0
 11409 ;;Total ram usage:        1 bytes
 11410 ;; Hardware stack levels used: 1
 11411 ;; This function calls:
 11412 ;;		Nothing
 11413 ;; This function is called by:
 11414 ;;		_INTERRUPT_MANAGER_HIGH
 11415 ;; This function uses a non-reentrant model
 11416 ;;
 11417                           
 11418                           	psect	text54
 11419   0036BC                     __ptext54:
 11420                           	callstack 0
 11421   0036BC                     _RB7_ISR:
 11422                           	callstack 22
 11423                           
 11424                           ;incstack = 0
 11425                           ;RB7_ISR@RB7_source stored from wreg
 11426   0036BC  6E01               	movwf	RB7_ISR@RB7_source^0,c
 11427   0036BE                     
 11428                           ;MCAL_layer/Interrupt/mcal_external_interrupt.c: 188:     (INTCONbits.RBIF = 0);
 11429   0036BE  90F2               	bcf	242,0,c	;volatile
 11430   0036C0                     
 11431                           ;MCAL_layer/Interrupt/mcal_external_interrupt.c: 192:     if(1 == RB7_source){
 11432   0036C0  0401               	decf	RB7_ISR@RB7_source^0,w,c
 11433   0036C2  A4D8               	btfss	status,2,c
 11434   0036C4  EF66  F01B         	goto	i2u183_41
 11435   0036C8  EF68  F01B         	goto	i2u183_40
 11436   0036CC                     i2u183_41:
 11437   0036CC  EF6A  F01B         	goto	i2l3472
 11438   0036D0                     i2u183_40:
 11439   0036D0  EF6A  F01B         	goto	i2l809
 11440   0036D4                     i2l3472:
 11441   0036D4                     i2l809:
 11442   0036D4  0012               	return		;funcret
 11443   0036D6                     __end_of_RB7_ISR:
 11444                           	callstack 0
 11445                           
 11446 ;; *************** function _RB6_ISR *****************
 11447 ;; Defined at:
 11448 ;;		line 163 in file "MCAL_layer/Interrupt/mcal_external_interrupt.c"
 11449 ;; Parameters:    Size  Location     Type
 11450 ;;  RB6_source      1    wreg     unsigned char 
 11451 ;; Auto vars:     Size  Location     Type
 11452 ;;  RB6_source      1    0[COMRAM] unsigned char 
 11453 ;; Return value:  Size  Location     Type
 11454 ;;                  1    wreg      void 
 11455 ;; Registers used:
 11456 ;;		wreg, status,2, status,0
 11457 ;; Tracked objects:
 11458 ;;		On entry : 0/0
 11459 ;;		On exit  : 0/0
 11460 ;;		Unchanged: 0/0
 11461 ;; Data sizes:     COMRAM   BANK0   BANK1   BANK2   BANK3   BANK4   BANK5   BANK6   BANK7   BANK8   BANK9  BANK10  BANK1
      +1  BANK12  BANK13  BANK14  BANK15
 11462 ;;      Params:         0       0       0       0       0       0       0       0       0       0       0       0       
      +0       0       0       0       0
 11463 ;;      Locals:         1       0       0       0       0       0       0       0       0       0       0       0       
      +0       0       0       0       0
 11464 ;;      Temps:          0       0       0       0       0       0       0       0       0       0       0       0       
      +0       0       0       0       0
 11465 ;;      Totals:         1       0       0       0       0       0       0       0       0       0       0       0       
      +0       0       0       0       0
 11466 ;;Total ram usage:        1 bytes
 11467 ;; Hardware stack levels used: 1
 11468 ;; This function calls:
 11469 ;;		Nothing
 11470 ;; This function is called by:
 11471 ;;		_INTERRUPT_MANAGER_HIGH
 11472 ;; This function uses a non-reentrant model
 11473 ;;
 11474                           
 11475                           	psect	text55
 11476   0036D6                     __ptext55:
 11477                           	callstack 0
 11478   0036D6                     _RB6_ISR:
 11479                           	callstack 22
 11480                           
 11481                           ;incstack = 0
 11482                           ;RB6_ISR@RB6_source stored from wreg
 11483   0036D6  6E01               	movwf	RB6_ISR@RB6_source^0,c
 11484   0036D8                     
 11485                           ;MCAL_layer/Interrupt/mcal_external_interrupt.c: 165:     (INTCONbits.RBIF = 0);
 11486   0036D8  90F2               	bcf	242,0,c	;volatile
 11487   0036DA                     
 11488                           ;MCAL_layer/Interrupt/mcal_external_interrupt.c: 169:     if(1 == RB6_source){
 11489   0036DA  0401               	decf	RB6_ISR@RB6_source^0,w,c
 11490   0036DC  A4D8               	btfss	status,2,c
 11491   0036DE  EF73  F01B         	goto	i2u182_41
 11492   0036E2  EF75  F01B         	goto	i2u182_40
 11493   0036E6                     i2u182_41:
 11494   0036E6  EF77  F01B         	goto	i2l3458
 11495   0036EA                     i2u182_40:
 11496   0036EA  EF77  F01B         	goto	i2l798
 11497   0036EE                     i2l3458:
 11498   0036EE                     i2l798:
 11499   0036EE  0012               	return		;funcret
 11500   0036F0                     __end_of_RB6_ISR:
 11501                           	callstack 0
 11502                           
 11503 ;; *************** function _RB5_ISR *****************
 11504 ;; Defined at:
 11505 ;;		line 140 in file "MCAL_layer/Interrupt/mcal_external_interrupt.c"
 11506 ;; Parameters:    Size  Location     Type
 11507 ;;  RB5_source      1    wreg     unsigned char 
 11508 ;; Auto vars:     Size  Location     Type
 11509 ;;  RB5_source      1    0[COMRAM] unsigned char 
 11510 ;; Return value:  Size  Location     Type
 11511 ;;                  1    wreg      void 
 11512 ;; Registers used:
 11513 ;;		wreg, status,2, status,0
 11514 ;; Tracked objects:
 11515 ;;		On entry : 0/0
 11516 ;;		On exit  : 0/0
 11517 ;;		Unchanged: 0/0
 11518 ;; Data sizes:     COMRAM   BANK0   BANK1   BANK2   BANK3   BANK4   BANK5   BANK6   BANK7   BANK8   BANK9  BANK10  BANK1
      +1  BANK12  BANK13  BANK14  BANK15
 11519 ;;      Params:         0       0       0       0       0       0       0       0       0       0       0       0       
      +0       0       0       0       0
 11520 ;;      Locals:         1       0       0       0       0       0       0       0       0       0       0       0       
      +0       0       0       0       0
 11521 ;;      Temps:          0       0       0       0       0       0       0       0       0       0       0       0       
      +0       0       0       0       0
 11522 ;;      Totals:         1       0       0       0       0       0       0       0       0       0       0       0       
      +0       0       0       0       0
 11523 ;;Total ram usage:        1 bytes
 11524 ;; Hardware stack levels used: 1
 11525 ;; This function calls:
 11526 ;;		Nothing
 11527 ;; This function is called by:
 11528 ;;		_INTERRUPT_MANAGER_HIGH
 11529 ;; This function uses a non-reentrant model
 11530 ;;
 11531                           
 11532                           	psect	text56
 11533   0036F0                     __ptext56:
 11534                           	callstack 0
 11535   0036F0                     _RB5_ISR:
 11536                           	callstack 22
 11537                           
 11538                           ;incstack = 0
 11539                           ;RB5_ISR@RB5_source stored from wreg
 11540   0036F0  6E01               	movwf	RB5_ISR@RB5_source^0,c
 11541   0036F2                     
 11542                           ;MCAL_layer/Interrupt/mcal_external_interrupt.c: 142:     (INTCONbits.RBIF = 0);
 11543   0036F2  90F2               	bcf	242,0,c	;volatile
 11544   0036F4                     
 11545                           ;MCAL_layer/Interrupt/mcal_external_interrupt.c: 146:     if(1 == RB5_source){
 11546   0036F4  0401               	decf	RB5_ISR@RB5_source^0,w,c
 11547   0036F6  A4D8               	btfss	status,2,c
 11548   0036F8  EF80  F01B         	goto	i2u181_41
 11549   0036FC  EF82  F01B         	goto	i2u181_40
 11550   003700                     i2u181_41:
 11551   003700  EF84  F01B         	goto	i2l3444
 11552   003704                     i2u181_40:
 11553   003704  EF84  F01B         	goto	i2l787
 11554   003708                     i2l3444:
 11555   003708                     i2l787:
 11556   003708  0012               	return		;funcret
 11557   00370A                     __end_of_RB5_ISR:
 11558                           	callstack 0
 11559                           
 11560 ;; *************** function _RB4_ISR *****************
 11561 ;; Defined at:
 11562 ;;		line 117 in file "MCAL_layer/Interrupt/mcal_external_interrupt.c"
 11563 ;; Parameters:    Size  Location     Type
 11564 ;;  RB4_source      1    wreg     unsigned char 
 11565 ;; Auto vars:     Size  Location     Type
 11566 ;;  RB4_source      1    0[COMRAM] unsigned char 
 11567 ;; Return value:  Size  Location     Type
 11568 ;;                  1    wreg      void 
 11569 ;; Registers used:
 11570 ;;		wreg, status,2, status,0
 11571 ;; Tracked objects:
 11572 ;;		On entry : 0/0
 11573 ;;		On exit  : 0/0
 11574 ;;		Unchanged: 0/0
 11575 ;; Data sizes:     COMRAM   BANK0   BANK1   BANK2   BANK3   BANK4   BANK5   BANK6   BANK7   BANK8   BANK9  BANK10  BANK1
      +1  BANK12  BANK13  BANK14  BANK15
 11576 ;;      Params:         0       0       0       0       0       0       0       0       0       0       0       0       
      +0       0       0       0       0
 11577 ;;      Locals:         1       0       0       0       0       0       0       0       0       0       0       0       
      +0       0       0       0       0
 11578 ;;      Temps:          0       0       0       0       0       0       0       0       0       0       0       0       
      +0       0       0       0       0
 11579 ;;      Totals:         1       0       0       0       0       0       0       0       0       0       0       0       
      +0       0       0       0       0
 11580 ;;Total ram usage:        1 bytes
 11581 ;; Hardware stack levels used: 1
 11582 ;; This function calls:
 11583 ;;		Nothing
 11584 ;; This function is called by:
 11585 ;;		_INTERRUPT_MANAGER_HIGH
 11586 ;; This function uses a non-reentrant model
 11587 ;;
 11588                           
 11589                           	psect	text57
 11590   00370A                     __ptext57:
 11591                           	callstack 0
 11592   00370A                     _RB4_ISR:
 11593                           	callstack 22
 11594                           
 11595                           ;incstack = 0
 11596                           ;RB4_ISR@RB4_source stored from wreg
 11597   00370A  6E01               	movwf	RB4_ISR@RB4_source^0,c
 11598   00370C                     
 11599                           ;MCAL_layer/Interrupt/mcal_external_interrupt.c: 119:     (INTCONbits.RBIF = 0);
 11600   00370C  90F2               	bcf	242,0,c	;volatile
 11601   00370E                     
 11602                           ;MCAL_layer/Interrupt/mcal_external_interrupt.c: 123:     if(1 == RB4_source){
 11603   00370E  0401               	decf	RB4_ISR@RB4_source^0,w,c
 11604   003710  A4D8               	btfss	status,2,c
 11605   003712  EF8D  F01B         	goto	i2u180_41
 11606   003716  EF8F  F01B         	goto	i2u180_40
 11607   00371A                     i2u180_41:
 11608   00371A  EF91  F01B         	goto	i2l3430
 11609   00371E                     i2u180_40:
 11610   00371E  EF91  F01B         	goto	i2l776
 11611   003722                     i2l3430:
 11612   003722                     i2l776:
 11613   003722  0012               	return		;funcret
 11614   003724                     __end_of_RB4_ISR:
 11615                           	callstack 0
 11616                           
 11617 ;; *************** function _INT2_ISR *****************
 11618 ;; Defined at:
 11619 ;;		line 104 in file "MCAL_layer/Interrupt/mcal_external_interrupt.c"
 11620 ;; Parameters:    Size  Location     Type
 11621 ;;		None
 11622 ;; Auto vars:     Size  Location     Type
 11623 ;;		None
 11624 ;; Return value:  Size  Location     Type
 11625 ;;                  1    wreg      void 
 11626 ;; Registers used:
 11627 ;;		wreg, fsr0l, fsr0h, fsr2l, fsr2h, status,2, status,0, pcl, pclath, pclatu, tosl, tblptrl, tblptrh, tblptru, prodl, p
      +rodh, cstack
 11628 ;; Tracked objects:
 11629 ;;		On entry : 0/0
 11630 ;;		On exit  : 0/0
 11631 ;;		Unchanged: 0/0
 11632 ;; Data sizes:     COMRAM   BANK0   BANK1   BANK2   BANK3   BANK4   BANK5   BANK6   BANK7   BANK8   BANK9  BANK10  BANK1
      +1  BANK12  BANK13  BANK14  BANK15
 11633 ;;      Params:         0       0       0       0       0       0       0       0       0       0       0       0       
      +0       0       0       0       0
 11634 ;;      Locals:         0       0       0       0       0       0       0       0       0       0       0       0       
      +0       0       0       0       0
 11635 ;;      Temps:          0       0       0       0       0       0       0       0       0       0       0       0       
      +0       0       0       0       0
 11636 ;;      Totals:         0       0       0       0       0       0       0       0       0       0       0       0       
      +0       0       0       0       0
 11637 ;;Total ram usage:        0 bytes
 11638 ;; Hardware stack levels used: 1
 11639 ;; Hardware stack levels required when called: 6
 11640 ;; This function calls:
 11641 ;;		NULL
 11642 ;;		_INT0_app_ISR
 11643 ;; This function is called by:
 11644 ;;		_INTERRUPT_MANAGER_HIGH
 11645 ;; This function uses a non-reentrant model
 11646 ;;
 11647                           
 11648                           	psect	text58
 11649   003550                     __ptext58:
 11650                           	callstack 0
 11651   003550                     _INT2_ISR:
 11652                           	callstack 16
 11653   003550                     
 11654                           ;MCAL_layer/Interrupt/mcal_external_interrupt.c: 106:     (INTCON3bits.INT2IF = 0);
 11655   003550  92F0               	bcf	240,1,c	;volatile
 11656   003552                     
 11657                           ;MCAL_layer/Interrupt/mcal_external_interrupt.c: 110:     if(INT2_INTERRUPT_HANDLER){INT
      +                          2_INTERRUPT_HANDLER();}
 11658   003552  503A               	movf	_INT2_INTERRUPT_HANDLER^0,w,c
 11659   003554  103B               	iorwf	(_INT2_INTERRUPT_HANDLER+1)^0,w,c
 11660   003556  B4D8               	btfsc	status,2,c
 11661   003558  EFB0  F01A         	goto	i2u741_41
 11662   00355C  EFB2  F01A         	goto	i2u741_40
 11663   003560                     i2u741_41:
 11664   003560  EFBE  F01A         	goto	i2l765
 11665   003564                     i2u741_40:
 11666   003564  D802               	call	i2u742_48
 11667   003566  EFBE  F01A         	goto	i2u742_49
 11668   00356A                     i2u742_48:
 11669   00356A  0005               	push	
 11670   00356C  6EFA               	movwf	pclath,c
 11671   00356E  503A               	movf	_INT2_INTERRUPT_HANDLER^0,w,c
 11672   003570  6EFD               	movwf	tosl,c
 11673   003572  503B               	movf	(_INT2_INTERRUPT_HANDLER+1)^0,w,c
 11674   003574  6EFE               	movwf	tosh,c
 11675   003576  6AFF               	clrf	tosu,c
 11676   003578  50FA               	movf	pclath,w,c
 11677   00357A  0012               	return		;indir
 11678   00357C                     i2u742_49:
 11679   00357C                     i2l765:
 11680   00357C  0012               	return		;funcret
 11681   00357E                     __end_of_INT2_ISR:
 11682                           	callstack 0
 11683                           
 11684 ;; *************** function _INT1_ISR *****************
 11685 ;; Defined at:
 11686 ;;		line 92 in file "MCAL_layer/Interrupt/mcal_external_interrupt.c"
 11687 ;; Parameters:    Size  Location     Type
 11688 ;;		None
 11689 ;; Auto vars:     Size  Location     Type
 11690 ;;		None
 11691 ;; Return value:  Size  Location     Type
 11692 ;;                  1    wreg      void 
 11693 ;; Registers used:
 11694 ;;		wreg, fsr0l, fsr0h, fsr2l, fsr2h, status,2, status,0, pcl, pclath, pclatu, tosl, tblptrl, tblptrh, tblptru, prodl, p
      +rodh, cstack
 11695 ;; Tracked objects:
 11696 ;;		On entry : 0/0
 11697 ;;		On exit  : 0/0
 11698 ;;		Unchanged: 0/0
 11699 ;; Data sizes:     COMRAM   BANK0   BANK1   BANK2   BANK3   BANK4   BANK5   BANK6   BANK7   BANK8   BANK9  BANK10  BANK1
      +1  BANK12  BANK13  BANK14  BANK15
 11700 ;;      Params:         0       0       0       0       0       0       0       0       0       0       0       0       
      +0       0       0       0       0
 11701 ;;      Locals:         0       0       0       0       0       0       0       0       0       0       0       0       
      +0       0       0       0       0
 11702 ;;      Temps:          0       0       0       0       0       0       0       0       0       0       0       0       
      +0       0       0       0       0
 11703 ;;      Totals:         0       0       0       0       0       0       0       0       0       0       0       0       
      +0       0       0       0       0
 11704 ;;Total ram usage:        0 bytes
 11705 ;; Hardware stack levels used: 1
 11706 ;; Hardware stack levels required when called: 6
 11707 ;; This function calls:
 11708 ;;		NULL
 11709 ;;		_INT0_app_ISR
 11710 ;; This function is called by:
 11711 ;;		_INTERRUPT_MANAGER_HIGH
 11712 ;; This function uses a non-reentrant model
 11713 ;;
 11714                           
 11715                           	psect	text59
 11716   00357E                     __ptext59:
 11717                           	callstack 0
 11718   00357E                     _INT1_ISR:
 11719                           	callstack 16
 11720   00357E                     
 11721                           ;MCAL_layer/Interrupt/mcal_external_interrupt.c: 94:     (INTCON3bits.INT1IF = 0);
 11722   00357E  90F0               	bcf	240,0,c	;volatile
 11723   003580                     
 11724                           ;MCAL_layer/Interrupt/mcal_external_interrupt.c: 98:     if(INT1_INTERRUPT_HANDLER){INT1
      +                          _INTERRUPT_HANDLER();}
 11725   003580  503C               	movf	_INT1_INTERRUPT_HANDLER^0,w,c
 11726   003582  103D               	iorwf	(_INT1_INTERRUPT_HANDLER+1)^0,w,c
 11727   003584  B4D8               	btfsc	status,2,c
 11728   003586  EFC7  F01A         	goto	i2u739_41
 11729   00358A  EFC9  F01A         	goto	i2u739_40
 11730   00358E                     i2u739_41:
 11731   00358E  EFD5  F01A         	goto	i2l761
 11732   003592                     i2u739_40:
 11733   003592  D802               	call	i2u740_48
 11734   003594  EFD5  F01A         	goto	i2u740_49
 11735   003598                     i2u740_48:
 11736   003598  0005               	push	
 11737   00359A  6EFA               	movwf	pclath,c
 11738   00359C  503C               	movf	_INT1_INTERRUPT_HANDLER^0,w,c
 11739   00359E  6EFD               	movwf	tosl,c
 11740   0035A0  503D               	movf	(_INT1_INTERRUPT_HANDLER+1)^0,w,c
 11741   0035A2  6EFE               	movwf	tosh,c
 11742   0035A4  6AFF               	clrf	tosu,c
 11743   0035A6  50FA               	movf	pclath,w,c
 11744   0035A8  0012               	return		;indir
 11745   0035AA                     i2u740_49:
 11746   0035AA                     i2l761:
 11747   0035AA  0012               	return		;funcret
 11748   0035AC                     __end_of_INT1_ISR:
 11749                           	callstack 0
 11750                           
 11751 ;; *************** function _INT0_ISR *****************
 11752 ;; Defined at:
 11753 ;;		line 80 in file "MCAL_layer/Interrupt/mcal_external_interrupt.c"
 11754 ;; Parameters:    Size  Location     Type
 11755 ;;		None
 11756 ;; Auto vars:     Size  Location     Type
 11757 ;;		None
 11758 ;; Return value:  Size  Location     Type
 11759 ;;                  1    wreg      void 
 11760 ;; Registers used:
 11761 ;;		wreg, fsr0l, fsr0h, fsr2l, fsr2h, status,2, status,0, pcl, pclath, pclatu, tosl, tblptrl, tblptrh, tblptru, prodl, p
      +rodh, cstack
 11762 ;; Tracked objects:
 11763 ;;		On entry : 0/0
 11764 ;;		On exit  : 0/0
 11765 ;;		Unchanged: 0/0
 11766 ;; Data sizes:     COMRAM   BANK0   BANK1   BANK2   BANK3   BANK4   BANK5   BANK6   BANK7   BANK8   BANK9  BANK10  BANK1
      +1  BANK12  BANK13  BANK14  BANK15
 11767 ;;      Params:         0       0       0       0       0       0       0       0       0       0       0       0       
      +0       0       0       0       0
 11768 ;;      Locals:         0       0       0       0       0       0       0       0       0       0       0       0       
      +0       0       0       0       0
 11769 ;;      Temps:          0       0       0       0       0       0       0       0       0       0       0       0       
      +0       0       0       0       0
 11770 ;;      Totals:         0       0       0       0       0       0       0       0       0       0       0       0       
      +0       0       0       0       0
 11771 ;;Total ram usage:        0 bytes
 11772 ;; Hardware stack levels used: 1
 11773 ;; Hardware stack levels required when called: 6
 11774 ;; This function calls:
 11775 ;;		NULL
 11776 ;;		_INT0_app_ISR
 11777 ;; This function is called by:
 11778 ;;		_INTERRUPT_MANAGER_HIGH
 11779 ;; This function uses a non-reentrant model
 11780 ;;
 11781                           
 11782                           	psect	text60
 11783   0035AC                     __ptext60:
 11784                           	callstack 0
 11785   0035AC                     _INT0_ISR:
 11786                           	callstack 16
 11787   0035AC                     
 11788                           ;MCAL_layer/Interrupt/mcal_external_interrupt.c: 82:     (INTCONbits.INT0IF = 0);
 11789   0035AC  92F2               	bcf	242,1,c	;volatile
 11790   0035AE                     
 11791                           ;MCAL_layer/Interrupt/mcal_external_interrupt.c: 86:     if(INT0_INTERRUPT_HANDLER){INT0
      +                          _INTERRUPT_HANDLER();}
 11792   0035AE  503E               	movf	_INT0_INTERRUPT_HANDLER^0,w,c
 11793   0035B0  103F               	iorwf	(_INT0_INTERRUPT_HANDLER+1)^0,w,c
 11794   0035B2  B4D8               	btfsc	status,2,c
 11795   0035B4  EFDE  F01A         	goto	i2u737_41
 11796   0035B8  EFE0  F01A         	goto	i2u737_40
 11797   0035BC                     i2u737_41:
 11798   0035BC  EFEC  F01A         	goto	i2l757
 11799   0035C0                     i2u737_40:
 11800   0035C0  D802               	call	i2u738_48
 11801   0035C2  EFEC  F01A         	goto	i2u738_49
 11802   0035C6                     i2u738_48:
 11803   0035C6  0005               	push	
 11804   0035C8  6EFA               	movwf	pclath,c
 11805   0035CA  503E               	movf	_INT0_INTERRUPT_HANDLER^0,w,c
 11806   0035CC  6EFD               	movwf	tosl,c
 11807   0035CE  503F               	movf	(_INT0_INTERRUPT_HANDLER+1)^0,w,c
 11808   0035D0  6EFE               	movwf	tosh,c
 11809   0035D2  6AFF               	clrf	tosu,c
 11810   0035D4  50FA               	movf	pclath,w,c
 11811   0035D6  0012               	return		;indir
 11812   0035D8                     i2u738_49:
 11813   0035D8                     i2l757:
 11814   0035D8  0012               	return		;funcret
 11815   0035DA                     __end_of_INT0_ISR:
 11816                           	callstack 0
 11817                           
 11818 ;; *************** function _INT0_app_ISR *****************
 11819 ;; Defined at:
 11820 ;;		line 14 in file "ECU_layer/ecu_layer_init.c"
 11821 ;; Parameters:    Size  Location     Type
 11822 ;;		None
 11823 ;; Auto vars:     Size  Location     Type
 11824 ;;  i               2   27[COMRAM] int 
 11825 ;; Return value:  Size  Location     Type
 11826 ;;                  1    wreg      void 
 11827 ;; Registers used:
 11828 ;;		wreg, fsr0l, fsr0h, fsr2l, fsr2h, status,2, status,0, tblptrl, tblptrh, tblptru, prodl, prodh, cstack
 11829 ;; Tracked objects:
 11830 ;;		On entry : 0/0
 11831 ;;		On exit  : 0/0
 11832 ;;		Unchanged: 0/0
 11833 ;; Data sizes:     COMRAM   BANK0   BANK1   BANK2   BANK3   BANK4   BANK5   BANK6   BANK7   BANK8   BANK9  BANK10  BANK1
      +1  BANK12  BANK13  BANK14  BANK15
 11834 ;;      Params:         0       0       0       0       0       0       0       0       0       0       0       0       
      +0       0       0       0       0
 11835 ;;      Locals:         2       0       0       0       0       0       0       0       0       0       0       0       
      +0       0       0       0       0
 11836 ;;      Temps:          2       0       0       0       0       0       0       0       0       0       0       0       
      +0       0       0       0       0
 11837 ;;      Totals:         4       0       0       0       0       0       0       0       0       0       0       0       
      +0       0       0       0       0
 11838 ;;Total ram usage:        4 bytes
 11839 ;; Hardware stack levels used: 1
 11840 ;; Hardware stack levels required when called: 5
 11841 ;; This function calls:
 11842 ;;		i2_Data_EEPROM_WriteByte
 11843 ;;		i2_lcd_4bit_send_command
 11844 ;;		i2_lcd_4bit_send_string_pos
 11845 ;; This function is called by:
 11846 ;;		_INT0_ISR
 11847 ;;		_INT1_ISR
 11848 ;;		_INT2_ISR
 11849 ;; This function uses a non-reentrant model
 11850 ;;
 11851                           
 11852                           	psect	text61
 11853   001B64                     __ptext61:
 11854                           	callstack 0
 11855   001B64                     _INT0_app_ISR:
 11856                           	callstack 16
 11857   001B64                     
 11858                           ;ECU_layer/ecu_layer_init.c: 15:     for(int i = 0;i <= 7;i++){
 11859   001B64  0E00               	movlw	0
 11860   001B66  6E1D               	movwf	(INT0_app_ISR@i+1)^0,c
 11861   001B68  0E00               	movlw	0
 11862   001B6A  6E1C               	movwf	INT0_app_ISR@i^0,c
 11863   001B6C                     i2l7476:
 11864                           
 11865                           ;ECU_layer/ecu_layer_init.c: 16:         Data_EEPROM_WriteByte(0x03f8 + i,0xFF);
 11866   001B6C  0EF8               	movlw	248
 11867   001B6E  241C               	addwf	INT0_app_ISR@i^0,w,c
 11868   001B70  6E01               	movwf	i2Data_EEPROM_WriteByte@badd^0,c
 11869   001B72  0E03               	movlw	3
 11870   001B74  201D               	addwfc	(INT0_app_ISR@i+1)^0,w,c
 11871   001B76  6E02               	movwf	(i2Data_EEPROM_WriteByte@badd+1)^0,c
 11872   001B78  0EFF               	movlw	255
 11873   001B7A  6E03               	movwf	i2Data_EEPROM_WriteByte@bData^0,c
 11874   001B7C  ECB0  F019         	call	i2_Data_EEPROM_WriteByte	;wreg free
 11875   001B80                     
 11876                           ;ECU_layer/ecu_layer_init.c: 17:     }
 11877   001B80  4A1C               	infsnz	INT0_app_ISR@i^0,f,c
 11878   001B82  2A1D               	incf	(INT0_app_ISR@i+1)^0,f,c
 11879   001B84  BE1D               	btfsc	(INT0_app_ISR@i+1)^0,7,c
 11880   001B86  EFCE  F00D         	goto	i2u669_41
 11881   001B8A  501D               	movf	(INT0_app_ISR@i+1)^0,w,c
 11882   001B8C  E109               	bnz	i2u669_40
 11883   001B8E  0E08               	movlw	8
 11884   001B90  5C1C               	subwf	INT0_app_ISR@i^0,w,c
 11885   001B92  A0D8               	btfss	status,0,c
 11886   001B94  EFCE  F00D         	goto	i2u669_41
 11887   001B98  EFD0  F00D         	goto	i2u669_40
 11888   001B9C                     i2u669_41:
 11889   001B9C  EFB6  F00D         	goto	i2l7476
 11890   001BA0                     i2u669_40:
 11891   001BA0                     
 11892                           ;ECU_layer/ecu_layer_init.c: 18:     lcd_4bit_send_command(&lcd1,0x01);
 11893   001BA0  0E4D               	movlw	low _lcd1
 11894   001BA2  6E0C               	movwf	i2lcd_4bit_send_command@lcd^0,c
 11895   001BA4  0E01               	movlw	1
 11896   001BA6  6E0D               	movwf	i2lcd_4bit_send_command@command^0,c
 11897   001BA8  EC15  F018         	call	i2_lcd_4bit_send_command	;wreg free
 11898   001BAC                     
 11899                           ;ECU_layer/ecu_layer_init.c: 19:     _delay((unsigned long)((20)*(8000000ul/4000.0)));
 11900   001BAC  0E34               	movlw	52
 11901   001BAE  6E1A               	movwf	??_INT0_app_ISR^0,c
 11902   001BB0  0EF2               	movlw	242
 11903   001BB2                     i2u974_47:
 11904   001BB2  2EE8               	decfsz	wreg,f,c
 11905   001BB4  D7FE               	bra	i2u974_47
 11906   001BB6  2E1A               	decfsz	??_INT0_app_ISR^0,f,c
 11907   001BB8  D7FC               	bra	i2u974_47
 11908   001BBA                     
 11909                           ;ECU_layer/ecu_layer_init.c: 20:     lcd_4bit_send_string_pos(&lcd1,2,1,"system will clo
      +                          se in ");
 11910   001BBA  0E4D               	movlw	low _lcd1
 11911   001BBC  6E15               	movwf	i2lcd_4bit_send_string_pos@lcd^0,c
 11912   001BBE  0E02               	movlw	2
 11913   001BC0  6E16               	movwf	i2lcd_4bit_send_string_pos@row^0,c
 11914   001BC2  0E01               	movlw	1
 11915   001BC4  6E17               	movwf	i2lcd_4bit_send_string_pos@column^0,c
 11916   001BC6  0E15               	movlw	low STR_4
 11917   001BC8  6E18               	movwf	i2lcd_4bit_send_string_pos@str^0,c
 11918   001BCA  0EFF               	movlw	high STR_4
 11919   001BCC  6E19               	movwf	(i2lcd_4bit_send_string_pos@str+1)^0,c
 11920   001BCE  EC4A  F015         	call	i2_lcd_4bit_send_string_pos	;wreg free
 11921   001BD2                     
 11922                           ;ECU_layer/ecu_layer_init.c: 21:     lcd_4bit_send_string_pos(&lcd1,3,1,"3");
 11923   001BD2  0E4D               	movlw	low _lcd1
 11924   001BD4  6E15               	movwf	i2lcd_4bit_send_string_pos@lcd^0,c
 11925   001BD6  0E03               	movlw	3
 11926   001BD8  6E16               	movwf	i2lcd_4bit_send_string_pos@row^0,c
 11927   001BDA  0E01               	movlw	1
 11928   001BDC  6E17               	movwf	i2lcd_4bit_send_string_pos@column^0,c
 11929   001BDE  0EF4               	movlw	low (STR_44+1)
 11930   001BE0  6E18               	movwf	i2lcd_4bit_send_string_pos@str^0,c
 11931   001BE2  0EFF               	movlw	high (STR_44+1)
 11932   001BE4  6E19               	movwf	(i2lcd_4bit_send_string_pos@str+1)^0,c
 11933   001BE6  EC4A  F015         	call	i2_lcd_4bit_send_string_pos	;wreg free
 11934   001BEA                     
 11935                           ;ECU_layer/ecu_layer_init.c: 22:     _delay((unsigned long)((500)*(8000000ul/4000.0)));
 11936   001BEA  0E06               	movlw	6
 11937   001BEC  6E1B               	movwf	(??_INT0_app_ISR+1)^0,c
 11938   001BEE  0E13               	movlw	19
 11939   001BF0  6E1A               	movwf	??_INT0_app_ISR^0,c
 11940   001BF2  0EAE               	movlw	174
 11941   001BF4                     i2u975_47:
 11942   001BF4  2EE8               	decfsz	wreg,f,c
 11943   001BF6  D7FE               	bra	i2u975_47
 11944   001BF8  2E1A               	decfsz	??_INT0_app_ISR^0,f,c
 11945   001BFA  D7FC               	bra	i2u975_47
 11946   001BFC  2E1B               	decfsz	(??_INT0_app_ISR+1)^0,f,c
 11947   001BFE  D7FA               	bra	i2u975_47
 11948   001C00                     
 11949                           ;ECU_layer/ecu_layer_init.c: 23:     lcd_4bit_send_string_pos(&lcd1,3,1," ");
 11950   001C00  0E4D               	movlw	low _lcd1
 11951   001C02  6E15               	movwf	i2lcd_4bit_send_string_pos@lcd^0,c
 11952   001C04  0E03               	movlw	3
 11953   001C06  6E16               	movwf	i2lcd_4bit_send_string_pos@row^0,c
 11954   001C08  0E01               	movlw	1
 11955   001C0A  6E17               	movwf	i2lcd_4bit_send_string_pos@column^0,c
 11956   001C0C  0EFD               	movlw	low (STR_14+20)
 11957   001C0E  6E18               	movwf	i2lcd_4bit_send_string_pos@str^0,c
 11958   001C10  0EFE               	movlw	high (STR_14+20)
 11959   001C12  6E19               	movwf	(i2lcd_4bit_send_string_pos@str+1)^0,c
 11960   001C14  EC4A  F015         	call	i2_lcd_4bit_send_string_pos	;wreg free
 11961   001C18                     
 11962                           ;ECU_layer/ecu_layer_init.c: 24:     _delay((unsigned long)((500)*(8000000ul/4000.0)));
 11963   001C18  0E06               	movlw	6
 11964   001C1A  6E1B               	movwf	(??_INT0_app_ISR+1)^0,c
 11965   001C1C  0E13               	movlw	19
 11966   001C1E  6E1A               	movwf	??_INT0_app_ISR^0,c
 11967   001C20  0EAE               	movlw	174
 11968   001C22                     i2u976_47:
 11969   001C22  2EE8               	decfsz	wreg,f,c
 11970   001C24  D7FE               	bra	i2u976_47
 11971   001C26  2E1A               	decfsz	??_INT0_app_ISR^0,f,c
 11972   001C28  D7FC               	bra	i2u976_47
 11973   001C2A  2E1B               	decfsz	(??_INT0_app_ISR+1)^0,f,c
 11974   001C2C  D7FA               	bra	i2u976_47
 11975   001C2E                     
 11976                           ;ECU_layer/ecu_layer_init.c: 25:     lcd_4bit_send_string_pos(&lcd1,3,1,"2");
 11977   001C2E  0E4D               	movlw	low _lcd1
 11978   001C30  6E15               	movwf	i2lcd_4bit_send_string_pos@lcd^0,c
 11979   001C32  0E03               	movlw	3
 11980   001C34  6E16               	movwf	i2lcd_4bit_send_string_pos@row^0,c
 11981   001C36  0E01               	movlw	1
 11982   001C38  6E17               	movwf	i2lcd_4bit_send_string_pos@column^0,c
 11983   001C3A  0EFD               	movlw	low STR_7
 11984   001C3C  6E18               	movwf	i2lcd_4bit_send_string_pos@str^0,c
 11985   001C3E  0EFF               	movlw	high STR_7
 11986   001C40  6E19               	movwf	(i2lcd_4bit_send_string_pos@str+1)^0,c
 11987   001C42  EC4A  F015         	call	i2_lcd_4bit_send_string_pos	;wreg free
 11988   001C46                     
 11989                           ;ECU_layer/ecu_layer_init.c: 26:     _delay((unsigned long)((500)*(8000000ul/4000.0)));
 11990   001C46  0E06               	movlw	6
 11991   001C48  6E1B               	movwf	(??_INT0_app_ISR+1)^0,c
 11992   001C4A  0E13               	movlw	19
 11993   001C4C  6E1A               	movwf	??_INT0_app_ISR^0,c
 11994   001C4E  0EAE               	movlw	174
 11995   001C50                     i2u977_47:
 11996   001C50  2EE8               	decfsz	wreg,f,c
 11997   001C52  D7FE               	bra	i2u977_47
 11998   001C54  2E1A               	decfsz	??_INT0_app_ISR^0,f,c
 11999   001C56  D7FC               	bra	i2u977_47
 12000   001C58  2E1B               	decfsz	(??_INT0_app_ISR+1)^0,f,c
 12001   001C5A  D7FA               	bra	i2u977_47
 12002   001C5C                     
 12003                           ;ECU_layer/ecu_layer_init.c: 27:     lcd_4bit_send_string_pos(&lcd1,3,1," ");
 12004   001C5C  0E4D               	movlw	low _lcd1
 12005   001C5E  6E15               	movwf	i2lcd_4bit_send_string_pos@lcd^0,c
 12006   001C60  0E03               	movlw	3
 12007   001C62  6E16               	movwf	i2lcd_4bit_send_string_pos@row^0,c
 12008   001C64  0E01               	movlw	1
 12009   001C66  6E17               	movwf	i2lcd_4bit_send_string_pos@column^0,c
 12010   001C68  0EFD               	movlw	low (STR_14+20)
 12011   001C6A  6E18               	movwf	i2lcd_4bit_send_string_pos@str^0,c
 12012   001C6C  0EFE               	movlw	high (STR_14+20)
 12013   001C6E  6E19               	movwf	(i2lcd_4bit_send_string_pos@str+1)^0,c
 12014   001C70  EC4A  F015         	call	i2_lcd_4bit_send_string_pos	;wreg free
 12015   001C74                     
 12016                           ;ECU_layer/ecu_layer_init.c: 28:     _delay((unsigned long)((500)*(8000000ul/4000.0)));
 12017   001C74  0E06               	movlw	6
 12018   001C76  6E1B               	movwf	(??_INT0_app_ISR+1)^0,c
 12019   001C78  0E13               	movlw	19
 12020   001C7A  6E1A               	movwf	??_INT0_app_ISR^0,c
 12021   001C7C  0EAE               	movlw	174
 12022   001C7E                     i2u978_47:
 12023   001C7E  2EE8               	decfsz	wreg,f,c
 12024   001C80  D7FE               	bra	i2u978_47
 12025   001C82  2E1A               	decfsz	??_INT0_app_ISR^0,f,c
 12026   001C84  D7FC               	bra	i2u978_47
 12027   001C86  2E1B               	decfsz	(??_INT0_app_ISR+1)^0,f,c
 12028   001C88  D7FA               	bra	i2u978_47
 12029   001C8A                     
 12030                           ;ECU_layer/ecu_layer_init.c: 29:     lcd_4bit_send_string_pos(&lcd1,3,1,"1");
 12031   001C8A  0E4D               	movlw	low _lcd1
 12032   001C8C  6E15               	movwf	i2lcd_4bit_send_string_pos@lcd^0,c
 12033   001C8E  0E03               	movlw	3
 12034   001C90  6E16               	movwf	i2lcd_4bit_send_string_pos@row^0,c
 12035   001C92  0E01               	movlw	1
 12036   001C94  6E17               	movwf	i2lcd_4bit_send_string_pos@column^0,c
 12037   001C96  0EFB               	movlw	low STR_9
 12038   001C98  6E18               	movwf	i2lcd_4bit_send_string_pos@str^0,c
 12039   001C9A  0EFF               	movlw	high STR_9
 12040   001C9C  6E19               	movwf	(i2lcd_4bit_send_string_pos@str+1)^0,c
 12041   001C9E  EC4A  F015         	call	i2_lcd_4bit_send_string_pos	;wreg free
 12042   001CA2                     
 12043                           ;ECU_layer/ecu_layer_init.c: 30:     _delay((unsigned long)((500)*(8000000ul/4000.0)));
 12044   001CA2  0E06               	movlw	6
 12045   001CA4  6E1B               	movwf	(??_INT0_app_ISR+1)^0,c
 12046   001CA6  0E13               	movlw	19
 12047   001CA8  6E1A               	movwf	??_INT0_app_ISR^0,c
 12048   001CAA  0EAE               	movlw	174
 12049   001CAC                     i2u979_47:
 12050   001CAC  2EE8               	decfsz	wreg,f,c
 12051   001CAE  D7FE               	bra	i2u979_47
 12052   001CB0  2E1A               	decfsz	??_INT0_app_ISR^0,f,c
 12053   001CB2  D7FC               	bra	i2u979_47
 12054   001CB4  2E1B               	decfsz	(??_INT0_app_ISR+1)^0,f,c
 12055   001CB6  D7FA               	bra	i2u979_47
 12056                           
 12057                           ;ECU_layer/ecu_layer_init.c: 31:     lcd_4bit_send_command(&lcd1,0x01);
 12058   001CB8  0E4D               	movlw	low _lcd1
 12059   001CBA  6E0C               	movwf	i2lcd_4bit_send_command@lcd^0,c
 12060   001CBC  0E01               	movlw	1
 12061   001CBE  6E0D               	movwf	i2lcd_4bit_send_command@command^0,c
 12062   001CC0  EC15  F018         	call	i2_lcd_4bit_send_command	;wreg free
 12063   001CC4                     
 12064                           ;ECU_layer/ecu_layer_init.c: 32:     _delay((unsigned long)((20)*(8000000ul/4000.0)));
 12065   001CC4  0E34               	movlw	52
 12066   001CC6  6E1A               	movwf	??_INT0_app_ISR^0,c
 12067   001CC8  0EF2               	movlw	242
 12068   001CCA                     i2u980_47:
 12069   001CCA  2EE8               	decfsz	wreg,f,c
 12070   001CCC  D7FE               	bra	i2u980_47
 12071   001CCE  2E1A               	decfsz	??_INT0_app_ISR^0,f,c
 12072   001CD0  D7FC               	bra	i2u980_47
 12073   001CD2  0012               	return		;funcret
 12074   001CD4                     __end_of_INT0_app_ISR:
 12075                           	callstack 0
 12076                           
 12077 ;; *************** function i2_lcd_4bit_send_string_pos *****************
 12078 ;; Defined at:
 12079 ;;		line 172 in file "ECU_layer/chr_LCD/ecu_chr_LCD.c"
 12080 ;; Parameters:    Size  Location     Type
 12081 ;;  lcd             1   20[COMRAM] PTR const struct .
 12082 ;;		 -> lcd1(6), 
 12083 ;;  row             1   21[COMRAM] unsigned char 
 12084 ;;  column          1   22[COMRAM] unsigned char 
 12085 ;;  str             2   23[COMRAM] PTR unsigned char 
 12086 ;;		 -> STR_69(22), STR_68(21), STR_67(19), STR_66(18), 
 12087 ;;		 -> STR_65(22), STR_64(21), STR_63(20), STR_62(22), 
 12088 ;;		 -> STR_61(14), STR_60(22), STR_59(21), STR_58(22), 
 12089 ;;		 -> STR_57(16), STR_56(22), STR_55(14), STR_54(22), 
 12090 ;;		 -> STR_53(21), STR_52(2), STR_51(17), STR_50(22), 
 12091 ;;		 -> STR_49(14), STR_48(22), STR_47(21), STR_46(4), 
 12092 ;;		 -> STR_45(22), STR_44(3), entering_password@str(4), STR_43(16), 
 12093 ;;		 -> STR_42(22), STR_41(17), STR_40(22), STR_39(14), 
 12094 ;;		 -> STR_38(22), STR_37(21), STR_36(2), STR_35(21), 
 12095 ;;		 -> STR_34(22), STR_33(14), STR_32(22), STR_31(21), 
 12096 ;;		 -> STR_30(22), STR_29(16), STR_28(22), STR_27(15), 
 12097 ;;		 -> STR_26(22), STR_25(14), STR_24(22), STR_23(21), 
 12098 ;;		 -> STR_22(2), STR_21(22), STR_20(22), STR_19(14), 
 12099 ;;		 -> STR_18(22), STR_17(21), STR_16(22), STR_15(14), 
 12100 ;;		 -> STR_14(22), STR_13(21), STR_12(2), STR_11(14), 
 12101 ;;		 -> STR_10(8), STR_9(2), STR_8(2), STR_7(2), 
 12102 ;;		 -> STR_6(2), STR_5(2), STR_4(22), 
 12103 ;; Auto vars:     Size  Location     Type
 12104 ;;  ret             1    0        unsigned char 
 12105 ;; Return value:  Size  Location     Type
 12106 ;;                  1    wreg      unsigned char 
 12107 ;; Registers used:
 12108 ;;		wreg, fsr0l, fsr0h, fsr2l, fsr2h, status,2, status,0, tblptrl, tblptrh, tblptru, prodl, prodh, cstack
 12109 ;; Tracked objects:
 12110 ;;		On entry : 0/0
 12111 ;;		On exit  : 0/0
 12112 ;;		Unchanged: 0/0
 12113 ;; Data sizes:     COMRAM   BANK0   BANK1   BANK2   BANK3   BANK4   BANK5   BANK6   BANK7   BANK8   BANK9  BANK10  BANK1
      +1  BANK12  BANK13  BANK14  BANK15
 12114 ;;      Params:         5       0       0       0       0       0       0       0       0       0       0       0       
      +0       0       0       0       0
 12115 ;;      Locals:         0       0       0       0       0       0       0       0       0       0       0       0       
      +0       0       0       0       0
 12116 ;;      Temps:          0       0       0       0       0       0       0       0       0       0       0       0       
      +0       0       0       0       0
 12117 ;;      Totals:         5       0       0       0       0       0       0       0       0       0       0       0       
      +0       0       0       0       0
 12118 ;;Total ram usage:        5 bytes
 12119 ;; Hardware stack levels used: 1
 12120 ;; Hardware stack levels required when called: 4
 12121 ;; This function calls:
 12122 ;;		i2_lcd_4bit_send_char_data
 12123 ;;		i2_lcd_4bit_set_curser
 12124 ;; This function is called by:
 12125 ;;		_INT0_app_ISR
 12126 ;; This function uses a non-reentrant model
 12127 ;;
 12128                           
 12129                           	psect	text62
 12130   002A94                     __ptext62:
 12131                           	callstack 0
 12132   002A94                     i2_lcd_4bit_send_string_pos:
 12133                           	callstack 16
 12134   002A94                     
 12135                           ;ECU_layer/chr_LCD/ecu_chr_LCD.c: 174:     if(((void*)0) == lcd)
 12136   002A94  5015               	movf	i2lcd_4bit_send_string_pos@lcd^0,w,c
 12137   002A96  A4D8               	btfss	status,2,c
 12138   002A98  EF50  F015         	goto	i2u661_41
 12139   002A9C  EF52  F015         	goto	i2u661_40
 12140   002AA0                     i2u661_41:
 12141   002AA0  EF54  F015         	goto	i2l7412
 12142   002AA4                     i2u661_40:
 12143   002AA4                     
 12144                           ;ECU_layer/chr_LCD/ecu_chr_LCD.c: 177:     }
 12145   002AA4  EF8F  F015         	goto	i2l101
 12146   002AA8                     i2l7412:
 12147   002AA8  C015  F00F         	movff	i2lcd_4bit_send_string_pos@lcd,i2lcd_4bit_set_curser@lcd
 12148   002AAC  C016  F010         	movff	i2lcd_4bit_send_string_pos@row,i2lcd_4bit_set_curser@row
 12149   002AB0  C017  F011         	movff	i2lcd_4bit_send_string_pos@column,i2lcd_4bit_set_curser@column
 12150   002AB4  EC28  F014         	call	i2_lcd_4bit_set_curser	;wreg free
 12151                           
 12152                           ;ECU_layer/chr_LCD/ecu_chr_LCD.c: 181:         while(*str)
 12153   002AB8  EF76  F015         	goto	i2l7418
 12154   002ABC                     i2l7414:
 12155   002ABC  C015  F00C         	movff	i2lcd_4bit_send_string_pos@lcd,i2lcd_4bit_send_char_data@lcd
 12156   002AC0  C018  FFF6         	movff	i2lcd_4bit_send_string_pos@str,tblptrl
 12157   002AC4  C019  FFF7         	movff	i2lcd_4bit_send_string_pos@str+1,tblptrh
 12158   002AC8  0E00               	movlw	low (__mediumconst shr (0+16))
 12159   002ACA  6EF8               	movwf	tblptru,c
 12160   002ACC  0E0F               	movlw	(high __ramtop+-1)
 12161   002ACE  64F7               	cpfsgt	tblptrh,c
 12162   002AD0  D003               	bra	i2u662_47
 12163   002AD2  0008               	tblrd		*
 12164   002AD4  50F5               	movf	tablat,w,c
 12165   002AD6  D005               	bra	i2u662_40
 12166   002AD8                     i2u662_47:
 12167   002AD8  CFF6 FFE9          	movff	tblptrl,fsr0l
 12168   002ADC  CFF7 FFEA          	movff	tblptrh,fsr0h
 12169   002AE0  50EF               	movf	indf0,w,c
 12170   002AE2                     i2u662_40:
 12171   002AE2  6E0D               	movwf	i2lcd_4bit_send_char_data@data^0,c
 12172   002AE4  EC43  F018         	call	i2_lcd_4bit_send_char_data	;wreg free
 12173   002AE8  4A18               	infsnz	i2lcd_4bit_send_string_pos@str^0,f,c
 12174   002AEA  2A19               	incf	(i2lcd_4bit_send_string_pos@str+1)^0,f,c
 12175   002AEC                     i2l7418:
 12176                           
 12177                           ;ECU_layer/chr_LCD/ecu_chr_LCD.c: 181:         while(*str)
 12178   002AEC  C018  FFF6         	movff	i2lcd_4bit_send_string_pos@str,tblptrl
 12179   002AF0  C019  FFF7         	movff	i2lcd_4bit_send_string_pos@str+1,tblptrh
 12180   002AF4  0E00               	movlw	low (__mediumconst shr (0+16))
 12181   002AF6  6EF8               	movwf	tblptru,c
 12182   002AF8  0E0F               	movlw	(high __ramtop+-1)
 12183   002AFA  64F7               	cpfsgt	tblptrh,c
 12184   002AFC  D003               	bra	i2u663_47
 12185   002AFE  0008               	tblrd		*
 12186   002B00  50F5               	movf	tablat,w,c
 12187   002B02  D005               	bra	i2u663_40
 12188   002B04                     i2u663_47:
 12189   002B04  CFF6 FFE9          	movff	tblptrl,fsr0l
 12190   002B08  CFF7 FFEA          	movff	tblptrh,fsr0h
 12191   002B0C  50EF               	movf	indf0,w,c
 12192   002B0E                     i2u663_40:
 12193   002B0E  0900               	iorlw	0
 12194   002B10  A4D8               	btfss	status,2,c
 12195   002B12  EF8D  F015         	goto	i2u664_41
 12196   002B16  EF8F  F015         	goto	i2u664_40
 12197   002B1A                     i2u664_41:
 12198   002B1A  EF5E  F015         	goto	i2l7414
 12199   002B1E                     i2u664_40:
 12200   002B1E                     i2l101:
 12201   002B1E  0012               	return		;funcret
 12202   002B20                     __end_ofi2_lcd_4bit_send_string_pos:
 12203                           	callstack 0
 12204                           
 12205 ;; *************** function i2_lcd_4bit_set_curser *****************
 12206 ;; Defined at:
 12207 ;;		line 568 in file "ECU_layer/chr_LCD/ecu_chr_LCD.c"
 12208 ;; Parameters:    Size  Location     Type
 12209 ;;  lcd             1   14[COMRAM] PTR const struct .
 12210 ;;		 -> lcd1(6), 
 12211 ;;  row             1   15[COMRAM] unsigned char 
 12212 ;;  column          1   16[COMRAM] unsigned char 
 12213 ;; Auto vars:     Size  Location     Type
 12214 ;;  ret             1   19[COMRAM] unsigned char 
 12215 ;; Return value:  Size  Location     Type
 12216 ;;                  1    wreg      unsigned char 
 12217 ;; Registers used:
 12218 ;;		wreg, fsr2l, fsr2h, status,2, status,0, prodl, prodh, cstack
 12219 ;; Tracked objects:
 12220 ;;		On entry : 0/0
 12221 ;;		On exit  : 0/0
 12222 ;;		Unchanged: 0/0
 12223 ;; Data sizes:     COMRAM   BANK0   BANK1   BANK2   BANK3   BANK4   BANK5   BANK6   BANK7   BANK8   BANK9  BANK10  BANK1
      +1  BANK12  BANK13  BANK14  BANK15
 12224 ;;      Params:         3       0       0       0       0       0       0       0       0       0       0       0       
      +0       0       0       0       0
 12225 ;;      Locals:         1       0       0       0       0       0       0       0       0       0       0       0       
      +0       0       0       0       0
 12226 ;;      Temps:          2       0       0       0       0       0       0       0       0       0       0       0       
      +0       0       0       0       0
 12227 ;;      Totals:         6       0       0       0       0       0       0       0       0       0       0       0       
      +0       0       0       0       0
 12228 ;;Total ram usage:        6 bytes
 12229 ;; Hardware stack levels used: 1
 12230 ;; Hardware stack levels required when called: 3
 12231 ;; This function calls:
 12232 ;;		i2_lcd_4bit_send_command
 12233 ;; This function is called by:
 12234 ;;		i2_lcd_4bit_send_string_pos
 12235 ;; This function uses a non-reentrant model
 12236 ;;
 12237                           
 12238                           	psect	text63
 12239   002850                     __ptext63:
 12240                           	callstack 0
 12241   002850                     i2_lcd_4bit_set_curser:
 12242                           	callstack 16
 12243   002850                     
 12244                           ;ECU_layer/chr_LCD/ecu_chr_LCD.c: 569: STD_ReturnType ret = (STD_ReturnType)0x01;
 12245   002850  0E01               	movlw	1
 12246   002852  6E14               	movwf	i2lcd_4bit_set_curser@ret^0,c
 12247   002854                     
 12248                           ;ECU_layer/chr_LCD/ecu_chr_LCD.c: 570: column--;
 12249   002854  0611               	decf	i2lcd_4bit_set_curser@column^0,f,c
 12250                           
 12251                           ;ECU_layer/chr_LCD/ecu_chr_LCD.c: 571: switch(row){
 12252   002856  EF55  F014         	goto	i2l7148
 12253   00285A                     i2l7140:
 12254   00285A  C00F  F00C         	movff	i2lcd_4bit_set_curser@lcd,i2lcd_4bit_send_command@lcd
 12255   00285E  5011               	movf	i2lcd_4bit_set_curser@column^0,w,c
 12256   002860  0F80               	addlw	128
 12257   002862  6E0D               	movwf	i2lcd_4bit_send_command@command^0,c
 12258   002864  EC15  F018         	call	i2_lcd_4bit_send_command	;wreg free
 12259   002868  6E14               	movwf	i2lcd_4bit_set_curser@ret^0,c
 12260   00286A  EF72  F014         	goto	i2l7150
 12261   00286E                     i2l7142:
 12262   00286E  C00F  F00C         	movff	i2lcd_4bit_set_curser@lcd,i2lcd_4bit_send_command@lcd
 12263   002872  5011               	movf	i2lcd_4bit_set_curser@column^0,w,c
 12264   002874  0FC0               	addlw	192
 12265   002876  6E0D               	movwf	i2lcd_4bit_send_command@command^0,c
 12266   002878  EC15  F018         	call	i2_lcd_4bit_send_command	;wreg free
 12267   00287C  6E14               	movwf	i2lcd_4bit_set_curser@ret^0,c
 12268   00287E  EF72  F014         	goto	i2l7150
 12269   002882                     i2l7144:
 12270   002882  C00F  F00C         	movff	i2lcd_4bit_set_curser@lcd,i2lcd_4bit_send_command@lcd
 12271   002886  5011               	movf	i2lcd_4bit_set_curser@column^0,w,c
 12272   002888  0F94               	addlw	148
 12273   00288A  6E0D               	movwf	i2lcd_4bit_send_command@command^0,c
 12274   00288C  EC15  F018         	call	i2_lcd_4bit_send_command	;wreg free
 12275   002890  6E14               	movwf	i2lcd_4bit_set_curser@ret^0,c
 12276   002892  EF72  F014         	goto	i2l7150
 12277   002896                     i2l7146:
 12278   002896  C00F  F00C         	movff	i2lcd_4bit_set_curser@lcd,i2lcd_4bit_send_command@lcd
 12279   00289A  5011               	movf	i2lcd_4bit_set_curser@column^0,w,c
 12280   00289C  0FD4               	addlw	212
 12281   00289E  6E0D               	movwf	i2lcd_4bit_send_command@command^0,c
 12282   0028A0  EC15  F018         	call	i2_lcd_4bit_send_command	;wreg free
 12283   0028A4  6E14               	movwf	i2lcd_4bit_set_curser@ret^0,c
 12284   0028A6  EF72  F014         	goto	i2l7150
 12285   0028AA                     i2l7148:
 12286   0028AA  5010               	movf	i2lcd_4bit_set_curser@row^0,w,c
 12287   0028AC  6E12               	movwf	??i2_lcd_4bit_set_curser^0,c
 12288   0028AE  6A13               	clrf	(??i2_lcd_4bit_set_curser+1)^0,c
 12289                           
 12290                           ; Switch on 2 bytes has been partitioned into a top level switch of size 1, and 1 sub-sw
      +                          itches
 12291                           ; Switch size 1, requested type "simple"
 12292                           ; Number of cases is 1, Range of values is 0 to 0
 12293                           ; switch strategies available:
 12294                           ; Name         Instructions Cycles
 12295                           ; simple_byte            4     3 (average)
 12296                           ;	Chosen strategy is simple_byte
 12297   0028B0  5013               	movf	(??i2_lcd_4bit_set_curser+1)^0,w,c
 12298   0028B2  0A00               	xorlw	0	; case 0
 12299   0028B4  B4D8               	btfsc	status,2,c
 12300   0028B6  EF5F  F014         	goto	i2l9710
 12301   0028BA  EF72  F014         	goto	i2l7150
 12302   0028BE                     i2l9710:
 12303                           
 12304                           ; Switch size 1, requested type "simple"
 12305                           ; Number of cases is 4, Range of values is 1 to 4
 12306                           ; switch strategies available:
 12307                           ; Name         Instructions Cycles
 12308                           ; simple_byte           13     7 (average)
 12309                           ;	Chosen strategy is simple_byte
 12310   0028BE  5012               	movf	??i2_lcd_4bit_set_curser^0,w,c
 12311   0028C0  0A01               	xorlw	1	; case 1
 12312   0028C2  B4D8               	btfsc	status,2,c
 12313   0028C4  EF2D  F014         	goto	i2l7140
 12314   0028C8  0A03               	xorlw	3	; case 2
 12315   0028CA  B4D8               	btfsc	status,2,c
 12316   0028CC  EF37  F014         	goto	i2l7142
 12317   0028D0  0A01               	xorlw	1	; case 3
 12318   0028D2  B4D8               	btfsc	status,2,c
 12319   0028D4  EF41  F014         	goto	i2l7144
 12320   0028D8  0A07               	xorlw	7	; case 4
 12321   0028DA  B4D8               	btfsc	status,2,c
 12322   0028DC  EF4B  F014         	goto	i2l7146
 12323   0028E0  EF72  F014         	goto	i2l7150
 12324   0028E4                     i2l7150:
 12325                           
 12326                           ;ECU_layer/chr_LCD/ecu_chr_LCD.c: 583: return ret;
 12327   0028E4  5014               	movf	i2lcd_4bit_set_curser@ret^0,w,c
 12328   0028E6  0012               	return		;funcret
 12329   0028E8                     __end_ofi2_lcd_4bit_set_curser:
 12330                           	callstack 0
 12331                           
 12332 ;; *************** function i2_lcd_4bit_send_command *****************
 12333 ;; Defined at:
 12334 ;;		line 65 in file "ECU_layer/chr_LCD/ecu_chr_LCD.c"
 12335 ;; Parameters:    Size  Location     Type
 12336 ;;  lcd             1   11[COMRAM] PTR const struct .
 12337 ;;		 -> lcd1(6), 
 12338 ;;  command         1   12[COMRAM] unsigned char 
 12339 ;; Auto vars:     Size  Location     Type
 12340 ;;  ret             1   13[COMRAM] unsigned char 
 12341 ;; Return value:  Size  Location     Type
 12342 ;;                  1    wreg      unsigned char 
 12343 ;; Registers used:
 12344 ;;		wreg, fsr2l, fsr2h, status,2, status,0, prodl, prodh, cstack
 12345 ;; Tracked objects:
 12346 ;;		On entry : 0/0
 12347 ;;		On exit  : 0/0
 12348 ;;		Unchanged: 0/0
 12349 ;; Data sizes:     COMRAM   BANK0   BANK1   BANK2   BANK3   BANK4   BANK5   BANK6   BANK7   BANK8   BANK9  BANK10  BANK1
      +1  BANK12  BANK13  BANK14  BANK15
 12350 ;;      Params:         2       0       0       0       0       0       0       0       0       0       0       0       
      +0       0       0       0       0
 12351 ;;      Locals:         1       0       0       0       0       0       0       0       0       0       0       0       
      +0       0       0       0       0
 12352 ;;      Temps:          0       0       0       0       0       0       0       0       0       0       0       0       
      +0       0       0       0       0
 12353 ;;      Totals:         3       0       0       0       0       0       0       0       0       0       0       0       
      +0       0       0       0       0
 12354 ;;Total ram usage:        3 bytes
 12355 ;; Hardware stack levels used: 1
 12356 ;; Hardware stack levels required when called: 2
 12357 ;; This function calls:
 12358 ;;		i2_gpio_pin_write_logic
 12359 ;;		i2_lcd_4bit_send_enable_enable
 12360 ;;		i2_lcd_send_4bit
 12361 ;; This function is called by:
 12362 ;;		_INT0_app_ISR
 12363 ;;		i2_lcd_4bit_set_curser
 12364 ;; This function uses a non-reentrant model
 12365 ;;
 12366                           
 12367                           	psect	text64
 12368   00302A                     __ptext64:
 12369                           	callstack 0
 12370   00302A                     i2_lcd_4bit_send_command:
 12371                           	callstack 16
 12372   00302A                     
 12373                           ;ECU_layer/chr_LCD/ecu_chr_LCD.c: 68:     if(((void*)0) == lcd)
 12374   00302A  500C               	movf	i2lcd_4bit_send_command@lcd^0,w,c
 12375   00302C  A4D8               	btfss	status,2,c
 12376   00302E  EF1B  F018         	goto	i2u611_41
 12377   003032  EF1D  F018         	goto	i2u611_40
 12378   003036                     i2u611_41:
 12379   003036  EF21  F018         	goto	i2l6904
 12380   00303A                     i2u611_40:
 12381   00303A                     
 12382                           ;ECU_layer/chr_LCD/ecu_chr_LCD.c: 69:     {;ECU_layer/chr_LCD/ecu_chr_LCD.c: 70:        
      +                           ret = (STD_ReturnType)0x00;
 12383   00303A  0E00               	movlw	0
 12384   00303C  6E0E               	movwf	i2lcd_4bit_send_command@ret^0,c
 12385                           
 12386                           ;ECU_layer/chr_LCD/ecu_chr_LCD.c: 71:     }
 12387   00303E  EF41  F018         	goto	i2l6906
 12388   003042                     i2l6904:
 12389                           
 12390                           ;ECU_layer/chr_LCD/ecu_chr_LCD.c: 73:     {;ECU_layer/chr_LCD/ecu_chr_LCD.c: 75:        
      +                           ret = gpio_pin_write_logic(&(lcd->rs),LOW);
 12391   003042  C00C  F001         	movff	i2lcd_4bit_send_command@lcd,i2gpio_pin_write_logic@_pin_config
 12392   003046  0E00               	movlw	0
 12393   003048  6E02               	movwf	i2gpio_pin_write_logic@logic^0,c
 12394   00304A  EC1A  F010         	call	i2_gpio_pin_write_logic	;wreg free
 12395   00304E  6E0E               	movwf	i2lcd_4bit_send_command@ret^0,c
 12396                           
 12397                           ;ECU_layer/chr_LCD/ecu_chr_LCD.c: 76:         ret = lcd_send_4bit(lcd,command >>4);
 12398   003050  C00C  F009         	movff	i2lcd_4bit_send_command@lcd,i2lcd_send_4bit@lcd
 12399   003054  380D               	swapf	i2lcd_4bit_send_command@command^0,w,c
 12400   003056  0B0F               	andlw	15
 12401   003058  6E0A               	movwf	i2lcd_send_4bit@command_data^0,c
 12402   00305A  EC1A  F019         	call	i2_lcd_send_4bit	;wreg free
 12403   00305E  6E0E               	movwf	i2lcd_4bit_send_command@ret^0,c
 12404                           
 12405                           ;ECU_layer/chr_LCD/ecu_chr_LCD.c: 77:         ret = lcd_4bit_send_enable_enable(lcd);
 12406   003060  C00C  F009         	movff	i2lcd_4bit_send_command@lcd,i2lcd_4bit_send_enable_enable@lcd
 12407   003064  EC18  F01B         	call	i2_lcd_4bit_send_enable_enable	;wreg free
 12408   003068  6E0E               	movwf	i2lcd_4bit_send_command@ret^0,c
 12409                           
 12410                           ;ECU_layer/chr_LCD/ecu_chr_LCD.c: 78:         ret = lcd_send_4bit(lcd,command);
 12411   00306A  C00C  F009         	movff	i2lcd_4bit_send_command@lcd,i2lcd_send_4bit@lcd
 12412   00306E  C00D  F00A         	movff	i2lcd_4bit_send_command@command,i2lcd_send_4bit@command_data
 12413   003072  EC1A  F019         	call	i2_lcd_send_4bit	;wreg free
 12414   003076  6E0E               	movwf	i2lcd_4bit_send_command@ret^0,c
 12415                           
 12416                           ;ECU_layer/chr_LCD/ecu_chr_LCD.c: 79:         ret = lcd_4bit_send_enable_enable(lcd);
 12417   003078  C00C  F009         	movff	i2lcd_4bit_send_command@lcd,i2lcd_4bit_send_enable_enable@lcd
 12418   00307C  EC18  F01B         	call	i2_lcd_4bit_send_enable_enable	;wreg free
 12419   003080  6E0E               	movwf	i2lcd_4bit_send_command@ret^0,c
 12420   003082                     i2l6906:
 12421                           
 12422                           ;ECU_layer/chr_LCD/ecu_chr_LCD.c: 84:      return ret;
 12423   003082  500E               	movf	i2lcd_4bit_send_command@ret^0,w,c
 12424   003084  0012               	return		;funcret
 12425   003086                     __end_ofi2_lcd_4bit_send_command:
 12426                           	callstack 0
 12427                           
 12428 ;; *************** function i2_lcd_4bit_send_char_data *****************
 12429 ;; Defined at:
 12430 ;;		line 94 in file "ECU_layer/chr_LCD/ecu_chr_LCD.c"
 12431 ;; Parameters:    Size  Location     Type
 12432 ;;  lcd             1   11[COMRAM] PTR const struct .
 12433 ;;		 -> lcd1(6), 
 12434 ;;  data            1   12[COMRAM] unsigned char 
 12435 ;; Auto vars:     Size  Location     Type
 12436 ;;  ret             1   13[COMRAM] unsigned char 
 12437 ;; Return value:  Size  Location     Type
 12438 ;;                  1    wreg      unsigned char 
 12439 ;; Registers used:
 12440 ;;		wreg, fsr2l, fsr2h, status,2, status,0, prodl, prodh, cstack
 12441 ;; Tracked objects:
 12442 ;;		On entry : 0/0
 12443 ;;		On exit  : 0/0
 12444 ;;		Unchanged: 0/0
 12445 ;; Data sizes:     COMRAM   BANK0   BANK1   BANK2   BANK3   BANK4   BANK5   BANK6   BANK7   BANK8   BANK9  BANK10  BANK1
      +1  BANK12  BANK13  BANK14  BANK15
 12446 ;;      Params:         2       0       0       0       0       0       0       0       0       0       0       0       
      +0       0       0       0       0
 12447 ;;      Locals:         1       0       0       0       0       0       0       0       0       0       0       0       
      +0       0       0       0       0
 12448 ;;      Temps:          0       0       0       0       0       0       0       0       0       0       0       0       
      +0       0       0       0       0
 12449 ;;      Totals:         3       0       0       0       0       0       0       0       0       0       0       0       
      +0       0       0       0       0
 12450 ;;Total ram usage:        3 bytes
 12451 ;; Hardware stack levels used: 1
 12452 ;; Hardware stack levels required when called: 2
 12453 ;; This function calls:
 12454 ;;		i2_gpio_pin_write_logic
 12455 ;;		i2_lcd_4bit_send_enable_enable
 12456 ;;		i2_lcd_send_4bit
 12457 ;; This function is called by:
 12458 ;;		i2_lcd_4bit_send_string_pos
 12459 ;; This function uses a non-reentrant model
 12460 ;;
 12461                           
 12462                           	psect	text65
 12463   003086                     __ptext65:
 12464                           	callstack 0
 12465   003086                     i2_lcd_4bit_send_char_data:
 12466                           	callstack 17
 12467   003086                     
 12468                           ;ECU_layer/chr_LCD/ecu_chr_LCD.c: 97:     if(((void*)0) == lcd)
 12469   003086  500C               	movf	i2lcd_4bit_send_char_data@lcd^0,w,c
 12470   003088  A4D8               	btfss	status,2,c
 12471   00308A  EF49  F018         	goto	i2u634_41
 12472   00308E  EF4B  F018         	goto	i2u634_40
 12473   003092                     i2u634_41:
 12474   003092  EF4F  F018         	goto	i2l7130
 12475   003096                     i2u634_40:
 12476   003096                     
 12477                           ;ECU_layer/chr_LCD/ecu_chr_LCD.c: 98:     {;ECU_layer/chr_LCD/ecu_chr_LCD.c: 99:        
      +                           ret = (STD_ReturnType)0x00;
 12478   003096  0E00               	movlw	0
 12479   003098  6E0E               	movwf	i2lcd_4bit_send_char_data@ret^0,c
 12480                           
 12481                           ;ECU_layer/chr_LCD/ecu_chr_LCD.c: 100:     }
 12482   00309A  EF6F  F018         	goto	i2l7132
 12483   00309E                     i2l7130:
 12484                           
 12485                           ;ECU_layer/chr_LCD/ecu_chr_LCD.c: 102:     {;ECU_layer/chr_LCD/ecu_chr_LCD.c: 104:      
      +                             ret = gpio_pin_write_logic(&(lcd->rs),HIGH);
 12486   00309E  C00C  F001         	movff	i2lcd_4bit_send_char_data@lcd,i2gpio_pin_write_logic@_pin_config
 12487   0030A2  0E01               	movlw	1
 12488   0030A4  6E02               	movwf	i2gpio_pin_write_logic@logic^0,c
 12489   0030A6  EC1A  F010         	call	i2_gpio_pin_write_logic	;wreg free
 12490   0030AA  6E0E               	movwf	i2lcd_4bit_send_char_data@ret^0,c
 12491                           
 12492                           ;ECU_layer/chr_LCD/ecu_chr_LCD.c: 105:         ret = lcd_send_4bit(lcd,data >>4);
 12493   0030AC  C00C  F009         	movff	i2lcd_4bit_send_char_data@lcd,i2lcd_send_4bit@lcd
 12494   0030B0  380D               	swapf	i2lcd_4bit_send_char_data@data^0,w,c
 12495   0030B2  0B0F               	andlw	15
 12496   0030B4  6E0A               	movwf	i2lcd_send_4bit@command_data^0,c
 12497   0030B6  EC1A  F019         	call	i2_lcd_send_4bit	;wreg free
 12498   0030BA  6E0E               	movwf	i2lcd_4bit_send_char_data@ret^0,c
 12499                           
 12500                           ;ECU_layer/chr_LCD/ecu_chr_LCD.c: 106:         ret = lcd_4bit_send_enable_enable(lcd);
 12501   0030BC  C00C  F009         	movff	i2lcd_4bit_send_char_data@lcd,i2lcd_4bit_send_enable_enable@lcd
 12502   0030C0  EC18  F01B         	call	i2_lcd_4bit_send_enable_enable	;wreg free
 12503   0030C4  6E0E               	movwf	i2lcd_4bit_send_char_data@ret^0,c
 12504                           
 12505                           ;ECU_layer/chr_LCD/ecu_chr_LCD.c: 107:         ret = lcd_send_4bit(lcd,data);
 12506   0030C6  C00C  F009         	movff	i2lcd_4bit_send_char_data@lcd,i2lcd_send_4bit@lcd
 12507   0030CA  C00D  F00A         	movff	i2lcd_4bit_send_char_data@data,i2lcd_send_4bit@command_data
 12508   0030CE  EC1A  F019         	call	i2_lcd_send_4bit	;wreg free
 12509   0030D2  6E0E               	movwf	i2lcd_4bit_send_char_data@ret^0,c
 12510                           
 12511                           ;ECU_layer/chr_LCD/ecu_chr_LCD.c: 108:         ret = lcd_4bit_send_enable_enable(lcd);
 12512   0030D4  C00C  F009         	movff	i2lcd_4bit_send_char_data@lcd,i2lcd_4bit_send_enable_enable@lcd
 12513   0030D8  EC18  F01B         	call	i2_lcd_4bit_send_enable_enable	;wreg free
 12514   0030DC  6E0E               	movwf	i2lcd_4bit_send_char_data@ret^0,c
 12515   0030DE                     i2l7132:
 12516                           
 12517                           ;ECU_layer/chr_LCD/ecu_chr_LCD.c: 113:      return ret;
 12518   0030DE  500E               	movf	i2lcd_4bit_send_char_data@ret^0,w,c
 12519   0030E0  0012               	return		;funcret
 12520   0030E2                     __end_ofi2_lcd_4bit_send_char_data:
 12521                           	callstack 0
 12522                           
 12523 ;; *************** function i2_lcd_send_4bit *****************
 12524 ;; Defined at:
 12525 ;;		line 493 in file "ECU_layer/chr_LCD/ecu_chr_LCD.c"
 12526 ;; Parameters:    Size  Location     Type
 12527 ;;  lcd             1    8[COMRAM] PTR const struct .
 12528 ;;		 -> lcd1(6), 
 12529 ;;  command_data    1    9[COMRAM] unsigned char 
 12530 ;; Auto vars:     Size  Location     Type
 12531 ;;  ret             1   10[COMRAM] unsigned char 
 12532 ;; Return value:  Size  Location     Type
 12533 ;;                  1    wreg      unsigned char 
 12534 ;; Registers used:
 12535 ;;		wreg, fsr2l, fsr2h, status,2, status,0, prodl, prodh, cstack
 12536 ;; Tracked objects:
 12537 ;;		On entry : 0/0
 12538 ;;		On exit  : 0/0
 12539 ;;		Unchanged: 0/0
 12540 ;; Data sizes:     COMRAM   BANK0   BANK1   BANK2   BANK3   BANK4   BANK5   BANK6   BANK7   BANK8   BANK9  BANK10  BANK1
      +1  BANK12  BANK13  BANK14  BANK15
 12541 ;;      Params:         2       0       0       0       0       0       0       0       0       0       0       0       
      +0       0       0       0       0
 12542 ;;      Locals:         1       0       0       0       0       0       0       0       0       0       0       0       
      +0       0       0       0       0
 12543 ;;      Temps:          0       0       0       0       0       0       0       0       0       0       0       0       
      +0       0       0       0       0
 12544 ;;      Totals:         3       0       0       0       0       0       0       0       0       0       0       0       
      +0       0       0       0       0
 12545 ;;Total ram usage:        3 bytes
 12546 ;; Hardware stack levels used: 1
 12547 ;; Hardware stack levels required when called: 1
 12548 ;; This function calls:
 12549 ;;		i2_gpio_pin_write_logic
 12550 ;; This function is called by:
 12551 ;;		i2_lcd_4bit_send_command
 12552 ;;		i2_lcd_4bit_send_char_data
 12553 ;; This function uses a non-reentrant model
 12554 ;;
 12555                           
 12556                           	psect	text66
 12557   003234                     __ptext66:
 12558                           	callstack 0
 12559   003234                     i2_lcd_send_4bit:
 12560                           	callstack 16
 12561   003234  5009               	movf	i2lcd_send_4bit@lcd^0,w,c
 12562   003236  0F02               	addlw	2
 12563   003238  6E01               	movwf	i2gpio_pin_write_logic@_pin_config^0,c
 12564   00323A  500A               	movf	i2lcd_send_4bit@command_data^0,w,c
 12565   00323C  0B01               	andlw	1
 12566   00323E  6E02               	movwf	i2gpio_pin_write_logic@logic^0,c
 12567   003240  EC1A  F010         	call	i2_gpio_pin_write_logic	;wreg free
 12568   003244  5009               	movf	i2lcd_send_4bit@lcd^0,w,c
 12569   003246  0F03               	addlw	3
 12570   003248  6E01               	movwf	i2gpio_pin_write_logic@_pin_config^0,c
 12571   00324A  90D8               	bcf	status,0,c
 12572   00324C  300A               	rrcf	i2lcd_send_4bit@command_data^0,w,c
 12573   00324E  0B01               	andlw	1
 12574   003250  6E02               	movwf	i2gpio_pin_write_logic@logic^0,c
 12575   003252  EC1A  F010         	call	i2_gpio_pin_write_logic	;wreg free
 12576   003256  5009               	movf	i2lcd_send_4bit@lcd^0,w,c
 12577   003258  0F04               	addlw	4
 12578   00325A  6E01               	movwf	i2gpio_pin_write_logic@_pin_config^0,c
 12579   00325C  400A               	rrncf	i2lcd_send_4bit@command_data^0,w,c
 12580   00325E  42E8               	rrncf	wreg,f,c
 12581   003260  0B3F               	andlw	63
 12582   003262  0B01               	andlw	1
 12583   003264  6E02               	movwf	i2gpio_pin_write_logic@logic^0,c
 12584   003266  EC1A  F010         	call	i2_gpio_pin_write_logic	;wreg free
 12585   00326A                     
 12586                           ;ECU_layer/chr_LCD/ecu_chr_LCD.c: 498: ret = gpio_pin_write_logic(&(lcd->data[3]),(comma
      +                          nd_data >> 3) & 0x01);
 12587   00326A  5009               	movf	i2lcd_send_4bit@lcd^0,w,c
 12588   00326C  0F05               	addlw	5
 12589   00326E  6E01               	movwf	i2gpio_pin_write_logic@_pin_config^0,c
 12590   003270  380A               	swapf	i2lcd_send_4bit@command_data^0,w,c
 12591   003272  46E8               	rlncf	wreg,f,c
 12592   003274  0B1F               	andlw	31
 12593   003276  0B01               	andlw	1
 12594   003278  6E02               	movwf	i2gpio_pin_write_logic@logic^0,c
 12595   00327A  EC1A  F010         	call	i2_gpio_pin_write_logic	;wreg free
 12596   00327E  6E0B               	movwf	i2lcd_send_4bit@ret^0,c
 12597                           
 12598                           ;ECU_layer/chr_LCD/ecu_chr_LCD.c: 500: return ret;
 12599   003280  500B               	movf	i2lcd_send_4bit@ret^0,w,c
 12600   003282  0012               	return		;funcret
 12601   003284                     __end_ofi2_lcd_send_4bit:
 12602                           	callstack 0
 12603                           
 12604 ;; *************** function i2_lcd_4bit_send_enable_enable *****************
 12605 ;; Defined at:
 12606 ;;		line 509 in file "ECU_layer/chr_LCD/ecu_chr_LCD.c"
 12607 ;; Parameters:    Size  Location     Type
 12608 ;;  lcd             1    8[COMRAM] PTR const struct .
 12609 ;;		 -> lcd1(6), 
 12610 ;; Auto vars:     Size  Location     Type
 12611 ;;  ret             1    9[COMRAM] unsigned char 
 12612 ;; Return value:  Size  Location     Type
 12613 ;;                  1    wreg      unsigned char 
 12614 ;; Registers used:
 12615 ;;		wreg, fsr2l, fsr2h, status,2, status,0, prodl, prodh, cstack
 12616 ;; Tracked objects:
 12617 ;;		On entry : 0/0
 12618 ;;		On exit  : 0/0
 12619 ;;		Unchanged: 0/0
 12620 ;; Data sizes:     COMRAM   BANK0   BANK1   BANK2   BANK3   BANK4   BANK5   BANK6   BANK7   BANK8   BANK9  BANK10  BANK1
      +1  BANK12  BANK13  BANK14  BANK15
 12621 ;;      Params:         1       0       0       0       0       0       0       0       0       0       0       0       
      +0       0       0       0       0
 12622 ;;      Locals:         1       0       0       0       0       0       0       0       0       0       0       0       
      +0       0       0       0       0
 12623 ;;      Temps:          0       0       0       0       0       0       0       0       0       0       0       0       
      +0       0       0       0       0
 12624 ;;      Totals:         2       0       0       0       0       0       0       0       0       0       0       0       
      +0       0       0       0       0
 12625 ;;Total ram usage:        2 bytes
 12626 ;; Hardware stack levels used: 1
 12627 ;; Hardware stack levels required when called: 1
 12628 ;; This function calls:
 12629 ;;		i2_gpio_pin_write_logic
 12630 ;; This function is called by:
 12631 ;;		i2_lcd_4bit_send_command
 12632 ;;		i2_lcd_4bit_send_char_data
 12633 ;; This function uses a non-reentrant model
 12634 ;;
 12635                           
 12636                           	psect	text67
 12637   003630                     __ptext67:
 12638                           	callstack 0
 12639   003630                     i2_lcd_4bit_send_enable_enable:
 12640                           	callstack 16
 12641   003630  2809               	incf	i2lcd_4bit_send_enable_enable@lcd^0,w,c
 12642   003632  6E01               	movwf	i2gpio_pin_write_logic@_pin_config^0,c
 12643   003634  0E01               	movlw	1
 12644   003636  6E02               	movwf	i2gpio_pin_write_logic@logic^0,c
 12645   003638  EC1A  F010         	call	i2_gpio_pin_write_logic	;wreg free
 12646   00363C                     
 12647                           ;ECU_layer/chr_LCD/ecu_chr_LCD.c: 512: _delay((unsigned long)((5)*(8000000ul/4000000.0))
      +                          );
 12648   00363C  0E03               	movlw	3
 12649   00363E                     i2u981_47:
 12650   00363E  2EE8               	decfsz	wreg,f,c
 12651   003640  D7FE               	bra	i2u981_47
 12652   003642  0000               	nop	
 12653   003644                     
 12654                           ;ECU_layer/chr_LCD/ecu_chr_LCD.c: 513: ret = gpio_pin_write_logic(&(lcd->en),LOW);
 12655   003644  2809               	incf	i2lcd_4bit_send_enable_enable@lcd^0,w,c
 12656   003646  6E01               	movwf	i2gpio_pin_write_logic@_pin_config^0,c
 12657   003648  0E00               	movlw	0
 12658   00364A  6E02               	movwf	i2gpio_pin_write_logic@logic^0,c
 12659   00364C  EC1A  F010         	call	i2_gpio_pin_write_logic	;wreg free
 12660   003650  6E0A               	movwf	i2lcd_4bit_send_enable_enable@ret^0,c
 12661   003652                     
 12662                           ;ECU_layer/chr_LCD/ecu_chr_LCD.c: 515: return ret;
 12663   003652  500A               	movf	i2lcd_4bit_send_enable_enable@ret^0,w,c
 12664   003654  0012               	return		;funcret
 12665   003656                     __end_ofi2_lcd_4bit_send_enable_enable:
 12666                           	callstack 0
 12667                           
 12668 ;; *************** function i2_gpio_pin_write_logic *****************
 12669 ;; Defined at:
 12670 ;;		line 83 in file "MCAL_layer/GPIO/hal_gpio.c"
 12671 ;; Parameters:    Size  Location     Type
 12672 ;;  _pin_config     1    0[COMRAM] PTR const struct .
 12673 ;;		 -> buzzer(1), keypad(8), lcd1$data(4), motor1(2), 
 12674 ;;		 -> lcd1(6), ecu_relay_off@relay_pin(1), ecu_relay_on@relay_pin(1), ecu_relay_initialize@relay_pin(1), 
 12675 ;;		 -> ecu_led_turn_off@led_pin(1), ecu_led_turn_on@led_pin(1), ecu_led_initialize@led_pin(1), 
 12676 ;;  logic           1    1[COMRAM] enum E2979
 12677 ;; Auto vars:     Size  Location     Type
 12678 ;;  ret             1    7[COMRAM] unsigned char 
 12679 ;; Return value:  Size  Location     Type
 12680 ;;                  1    wreg      unsigned char 
 12681 ;; Registers used:
 12682 ;;		wreg, fsr2l, fsr2h, status,2, status,0, prodl, prodh
 12683 ;; Tracked objects:
 12684 ;;		On entry : 0/0
 12685 ;;		On exit  : 0/0
 12686 ;;		Unchanged: 0/0
 12687 ;; Data sizes:     COMRAM   BANK0   BANK1   BANK2   BANK3   BANK4   BANK5   BANK6   BANK7   BANK8   BANK9  BANK10  BANK1
      +1  BANK12  BANK13  BANK14  BANK15
 12688 ;;      Params:         2       0       0       0       0       0       0       0       0       0       0       0       
      +0       0       0       0       0
 12689 ;;      Locals:         1       0       0       0       0       0       0       0       0       0       0       0       
      +0       0       0       0       0
 12690 ;;      Temps:          5       0       0       0       0       0       0       0       0       0       0       0       
      +0       0       0       0       0
 12691 ;;      Totals:         8       0       0       0       0       0       0       0       0       0       0       0       
      +0       0       0       0       0
 12692 ;;Total ram usage:        8 bytes
 12693 ;; Hardware stack levels used: 1
 12694 ;; This function calls:
 12695 ;;		Nothing
 12696 ;; This function is called by:
 12697 ;;		i2_lcd_4bit_send_command
 12698 ;;		i2_lcd_4bit_send_char_data
 12699 ;;		i2_lcd_send_4bit
 12700 ;;		i2_lcd_4bit_send_enable_enable
 12701 ;; This function uses a non-reentrant model
 12702 ;;
 12703                           
 12704                           	psect	text68
 12705   002034                     __ptext68:
 12706                           	callstack 0
 12707   002034                     i2_gpio_pin_write_logic:
 12708                           	callstack 16
 12709   002034                     
 12710                           ;MCAL_layer/GPIO/hal_gpio.c: 83: STD_ReturnType gpio_pin_write_logic(const pin_config_t*
      +                           _pin_config, logic_t logic);MCAL_layer/GPIO/hal_gpio.c: 84: {;MCAL_layer/GPIO/hal_gpio.
      +                          c: 85:     STD_ReturnType ret = (STD_ReturnType)0x01;
 12711   002034  0E01               	movlw	1
 12712   002036  6E08               	movwf	i2gpio_pin_write_logic@ret^0,c
 12713                           
 12714                           ;MCAL_layer/GPIO/hal_gpio.c: 86:     if(((void*)0) == _pin_config || _pin_config->pin > 
      +                          8 -1)
 12715   002038  5001               	movf	i2gpio_pin_write_logic@_pin_config^0,w,c
 12716   00203A  B4D8               	btfsc	status,2,c
 12717   00203C  EF22  F010         	goto	i2u570_41
 12718   002040  EF24  F010         	goto	i2u570_40
 12719   002044                     i2u570_41:
 12720   002044  EF34  F010         	goto	i2l6622
 12721   002048                     i2u570_40:
 12722   002048  5001               	movf	i2gpio_pin_write_logic@_pin_config^0,w,c
 12723   00204A  6ED9               	movwf	fsr2l,c
 12724   00204C  6ADA               	clrf	fsr2h,c
 12725   00204E  30DF               	rrcf	223,w,c
 12726   002050  32E8               	rrcf	wreg,f,c
 12727   002052  32E8               	rrcf	wreg,f,c
 12728   002054  0B07               	andlw	7
 12729   002056  6E03               	movwf	??i2_gpio_pin_write_logic^0,c
 12730   002058  0E07               	movlw	7
 12731   00205A  6403               	cpfsgt	??i2_gpio_pin_write_logic^0,c
 12732   00205C  EF32  F010         	goto	i2u571_41
 12733   002060  EF34  F010         	goto	i2u571_40
 12734   002064                     i2u571_41:
 12735   002064  EF8B  F010         	goto	i2l6630
 12736   002068                     i2u571_40:
 12737   002068                     i2l6622:
 12738                           
 12739                           ;MCAL_layer/GPIO/hal_gpio.c: 87:     {;MCAL_layer/GPIO/hal_gpio.c: 88:         ret = (ST
      +                          D_ReturnType)0x00;
 12740   002068  0E00               	movlw	0
 12741   00206A  6E08               	movwf	i2gpio_pin_write_logic@ret^0,c
 12742                           
 12743                           ;MCAL_layer/GPIO/hal_gpio.c: 89:     }
 12744   00206C  EFA0  F010         	goto	i2l6632
 12745   002070                     i2l6624:
 12746                           
 12747                           ;MCAL_layer/GPIO/hal_gpio.c: 95:             (*lat_registers[_pin_config->port] &= ~((ui
      +                          nt8)1 << _pin_config->pin));
 12748   002070  5001               	movf	i2gpio_pin_write_logic@_pin_config^0,w,c
 12749   002072  6ED9               	movwf	fsr2l,c
 12750   002074  6ADA               	clrf	fsr2h,c
 12751   002076  30DF               	rrcf	223,w,c
 12752   002078  32E8               	rrcf	wreg,f,c
 12753   00207A  32E8               	rrcf	wreg,f,c
 12754   00207C  0B07               	andlw	7
 12755   00207E  6E03               	movwf	??i2_gpio_pin_write_logic^0,c
 12756   002080  0E01               	movlw	1
 12757   002082  6E04               	movwf	(??i2_gpio_pin_write_logic+1)^0,c
 12758   002084  2A03               	incf	??i2_gpio_pin_write_logic^0,f,c
 12759   002086  EF47  F010         	goto	i2u572_44
 12760   00208A                     i2u572_45:
 12761   00208A  90D8               	bcf	status,0,c
 12762   00208C  3604               	rlcf	(??i2_gpio_pin_write_logic+1)^0,f,c
 12763   00208E                     i2u572_44:
 12764   00208E  2E03               	decfsz	??i2_gpio_pin_write_logic^0,f,c
 12765   002090  EF45  F010         	goto	i2u572_45
 12766   002094  5004               	movf	(??i2_gpio_pin_write_logic+1)^0,w,c
 12767   002096  0AFF               	xorlw	255
 12768   002098  6E05               	movwf	(??i2_gpio_pin_write_logic+2)^0,c
 12769   00209A  5001               	movf	i2gpio_pin_write_logic@_pin_config^0,w,c
 12770   00209C  6ED9               	movwf	fsr2l,c
 12771   00209E  6ADA               	clrf	fsr2h,c
 12772   0020A0  50DF               	movf	223,w,c
 12773   0020A2  0B07               	andlw	7
 12774   0020A4  0D02               	mullw	2
 12775   0020A6  50F3               	movf	243,w,c
 12776   0020A8  0F8A               	addlw	low _lat_registers
 12777   0020AA  6ED9               	movwf	fsr2l,c
 12778   0020AC  6ADA               	clrf	fsr2h,c
 12779   0020AE  CFDE F006          	movff	postinc2,??i2_gpio_pin_write_logic+3
 12780   0020B2  CFDD F007          	movff	postdec2,??i2_gpio_pin_write_logic+4
 12781   0020B6  C006  FFD9         	movff	??i2_gpio_pin_write_logic+3,fsr2l
 12782   0020BA  C007  FFDA         	movff	??i2_gpio_pin_write_logic+4,fsr2h
 12783   0020BE  5005               	movf	(??i2_gpio_pin_write_logic+2)^0,w,c
 12784   0020C0  16DF               	andwf	indf2,f,c
 12785                           
 12786                           ;MCAL_layer/GPIO/hal_gpio.c: 96:             break;
 12787   0020C2  EFA0  F010         	goto	i2l6632
 12788   0020C6                     i2l6626:
 12789                           
 12790                           ;MCAL_layer/GPIO/hal_gpio.c: 98:             (*lat_registers[_pin_config->port] |= ((uin
      +                          t8)1 << _pin_config->pin));
 12791   0020C6  5001               	movf	i2gpio_pin_write_logic@_pin_config^0,w,c
 12792   0020C8  6ED9               	movwf	fsr2l,c
 12793   0020CA  6ADA               	clrf	fsr2h,c
 12794   0020CC  30DF               	rrcf	223,w,c
 12795   0020CE  32E8               	rrcf	wreg,f,c
 12796   0020D0  32E8               	rrcf	wreg,f,c
 12797   0020D2  0B07               	andlw	7
 12798   0020D4  6E03               	movwf	??i2_gpio_pin_write_logic^0,c
 12799   0020D6  0E01               	movlw	1
 12800   0020D8  6E04               	movwf	(??i2_gpio_pin_write_logic+1)^0,c
 12801   0020DA  2A03               	incf	??i2_gpio_pin_write_logic^0,f,c
 12802   0020DC  EF72  F010         	goto	i2u573_44
 12803   0020E0                     i2u573_45:
 12804   0020E0  90D8               	bcf	status,0,c
 12805   0020E2  3604               	rlcf	(??i2_gpio_pin_write_logic+1)^0,f,c
 12806   0020E4                     i2u573_44:
 12807   0020E4  2E03               	decfsz	??i2_gpio_pin_write_logic^0,f,c
 12808   0020E6  EF70  F010         	goto	i2u573_45
 12809   0020EA  5001               	movf	i2gpio_pin_write_logic@_pin_config^0,w,c
 12810   0020EC  6ED9               	movwf	fsr2l,c
 12811   0020EE  6ADA               	clrf	fsr2h,c
 12812   0020F0  50DF               	movf	223,w,c
 12813   0020F2  0B07               	andlw	7
 12814   0020F4  0D02               	mullw	2
 12815   0020F6  50F3               	movf	243,w,c
 12816   0020F8  0F8A               	addlw	low _lat_registers
 12817   0020FA  6ED9               	movwf	fsr2l,c
 12818   0020FC  6ADA               	clrf	fsr2h,c
 12819   0020FE  CFDE F005          	movff	postinc2,??i2_gpio_pin_write_logic+2
 12820   002102  CFDD F006          	movff	postdec2,??i2_gpio_pin_write_logic+3
 12821   002106  C005  FFD9         	movff	??i2_gpio_pin_write_logic+2,fsr2l
 12822   00210A  C006  FFDA         	movff	??i2_gpio_pin_write_logic+3,fsr2h
 12823   00210E  5004               	movf	(??i2_gpio_pin_write_logic+1)^0,w,c
 12824   002110  12DF               	iorwf	indf2,f,c
 12825                           
 12826                           ;MCAL_layer/GPIO/hal_gpio.c: 99:             break;
 12827   002112  EFA0  F010         	goto	i2l6632
 12828   002116                     i2l6630:
 12829   002116  5002               	movf	i2gpio_pin_write_logic@logic^0,w,c
 12830   002118  6E03               	movwf	??i2_gpio_pin_write_logic^0,c
 12831   00211A  6A04               	clrf	(??i2_gpio_pin_write_logic+1)^0,c
 12832                           
 12833                           ; Switch on 2 bytes has been partitioned into a top level switch of size 1, and 1 sub-sw
      +                          itches
 12834                           ; Switch size 1, requested type "simple"
 12835                           ; Number of cases is 1, Range of values is 0 to 0
 12836                           ; switch strategies available:
 12837                           ; Name         Instructions Cycles
 12838                           ; simple_byte            4     3 (average)
 12839                           ;	Chosen strategy is simple_byte
 12840   00211C  5004               	movf	(??i2_gpio_pin_write_logic+1)^0,w,c
 12841   00211E  0A00               	xorlw	0	; case 0
 12842   002120  B4D8               	btfsc	status,2,c
 12843   002122  EF95  F010         	goto	i2l9712
 12844   002126  EF34  F010         	goto	i2l6622
 12845   00212A                     i2l9712:
 12846                           
 12847                           ; Switch size 1, requested type "simple"
 12848                           ; Number of cases is 2, Range of values is 0 to 1
 12849                           ; switch strategies available:
 12850                           ; Name         Instructions Cycles
 12851                           ; simple_byte            7     4 (average)
 12852                           ;	Chosen strategy is simple_byte
 12853   00212A  5003               	movf	??i2_gpio_pin_write_logic^0,w,c
 12854   00212C  0A00               	xorlw	0	; case 0
 12855   00212E  B4D8               	btfsc	status,2,c
 12856   002130  EF38  F010         	goto	i2l6624
 12857   002134  0A01               	xorlw	1	; case 1
 12858   002136  B4D8               	btfsc	status,2,c
 12859   002138  EF63  F010         	goto	i2l6626
 12860   00213C  EF34  F010         	goto	i2l6622
 12861   002140                     i2l6632:
 12862                           
 12863                           ;MCAL_layer/GPIO/hal_gpio.c: 104:      return ret;
 12864   002140  5008               	movf	i2gpio_pin_write_logic@ret^0,w,c
 12865   002142  0012               	return		;funcret
 12866   002144                     __end_ofi2_gpio_pin_write_logic:
 12867                           	callstack 0
 12868                           
 12869 ;; *************** function i2_Data_EEPROM_WriteByte *****************
 12870 ;; Defined at:
 12871 ;;		line 10 in file "MCAL_layer/EEPROM/hal_eeprom.c"
 12872 ;; Parameters:    Size  Location     Type
 12873 ;;  badd            2    0[COMRAM] unsigned short 
 12874 ;;  bData           1    2[COMRAM] unsigned char 
 12875 ;; Auto vars:     Size  Location     Type
 12876 ;;  GLOBAL_INTER    1    3[COMRAM] unsigned char 
 12877 ;;  ret             1    0        unsigned char 
 12878 ;; Return value:  Size  Location     Type
 12879 ;;                  1    wreg      unsigned char 
 12880 ;; Registers used:
 12881 ;;		wreg, status,2, status,0
 12882 ;; Tracked objects:
 12883 ;;		On entry : 0/0
 12884 ;;		On exit  : 0/0
 12885 ;;		Unchanged: 0/0
 12886 ;; Data sizes:     COMRAM   BANK0   BANK1   BANK2   BANK3   BANK4   BANK5   BANK6   BANK7   BANK8   BANK9  BANK10  BANK1
      +1  BANK12  BANK13  BANK14  BANK15
 12887 ;;      Params:         3       0       0       0       0       0       0       0       0       0       0       0       
      +0       0       0       0       0
 12888 ;;      Locals:         1       0       0       0       0       0       0       0       0       0       0       0       
      +0       0       0       0       0
 12889 ;;      Temps:          0       0       0       0       0       0       0       0       0       0       0       0       
      +0       0       0       0       0
 12890 ;;      Totals:         4       0       0       0       0       0       0       0       0       0       0       0       
      +0       0       0       0       0
 12891 ;;Total ram usage:        4 bytes
 12892 ;; Hardware stack levels used: 1
 12893 ;; This function calls:
 12894 ;;		Nothing
 12895 ;; This function is called by:
 12896 ;;		_INT0_app_ISR
 12897 ;; This function uses a non-reentrant model
 12898 ;;
 12899                           
 12900                           	psect	text69
 12901   003360                     __ptext69:
 12902                           	callstack 0
 12903   003360                     i2_Data_EEPROM_WriteByte:
 12904                           	callstack 20
 12905   003360                     
 12906                           ;MCAL_layer/EEPROM/hal_eeprom.c: 14:     uint8 GLOBAL_INTERRUPT_STATUS = INTCONbits.GIE;
 12907   003360  0E00               	movlw	0
 12908   003362  BEF2               	btfsc	242,7,c	;volatile
 12909   003364  0E01               	movlw	1
 12910   003366  6E04               	movwf	i2Data_EEPROM_WriteByte@GLOBAL_INTERRUPT_STATUS^0,c
 12911   003368                     
 12912                           ;MCAL_layer/EEPROM/hal_eeprom.c: 16:     EEADRH = (uint8)((badd >> 8) & 0x03) ;
 12913   003368  5002               	movf	(i2Data_EEPROM_WriteByte@badd+1)^0,w,c
 12914   00336A  0B03               	andlw	3
 12915   00336C  6EAA               	movwf	170,c	;volatile
 12916   00336E                     
 12917                           ;MCAL_layer/EEPROM/hal_eeprom.c: 17:     EEADR = (uint8)(badd & 0xFF) ;
 12918   00336E  C001  FFA9         	movff	i2Data_EEPROM_WriteByte@badd,4009	;volatile
 12919   003372                     
 12920                           ;MCAL_layer/EEPROM/hal_eeprom.c: 19:     EEDATA = bData;
 12921   003372  C003  FFA8         	movff	i2Data_EEPROM_WriteByte@bData,4008	;volatile
 12922   003376                     
 12923                           ;MCAL_layer/EEPROM/hal_eeprom.c: 21:     EECON1bits.EEPGD = 0;
 12924   003376  9EA6               	bcf	166,7,c	;volsfr
 12925   003378                     
 12926                           ;MCAL_layer/EEPROM/hal_eeprom.c: 22:     EECON1bits.CFGS = 0;
 12927   003378  9CA6               	bcf	166,6,c	;volsfr
 12928   00337A                     
 12929                           ;MCAL_layer/EEPROM/hal_eeprom.c: 24:     EECON1bits.WREN = 1;
 12930   00337A  84A6               	bsf	166,2,c	;volsfr
 12931   00337C                     
 12932                           ;MCAL_layer/EEPROM/hal_eeprom.c: 26:     (INTCONbits.GIE = 0);
 12933   00337C  9EF2               	bcf	242,7,c	;volatile
 12934   00337E                     
 12935                           ;MCAL_layer/EEPROM/hal_eeprom.c: 28:     EECON2 = 0x55;
 12936   00337E  0E55               	movlw	85
 12937   003380  6EA7               	movwf	167,c	;volsfr
 12938   003382                     
 12939                           ;MCAL_layer/EEPROM/hal_eeprom.c: 29:     EECON2 = 0xAA;
 12940   003382  0EAA               	movlw	170
 12941   003384  6EA7               	movwf	167,c	;volsfr
 12942   003386                     
 12943                           ;MCAL_layer/EEPROM/hal_eeprom.c: 31:     EECON1bits.WR = 1;
 12944   003386  82A6               	bsf	166,1,c	;volsfr
 12945   003388                     i2l557:
 12946                           
 12947                           ;MCAL_layer/EEPROM/hal_eeprom.c: 33:     while(EECON1bits.WR){
 12948   003388  B2A6               	btfsc	166,1,c	;volsfr
 12949   00338A  EFC9  F019         	goto	i2u390_41
 12950   00338E  EFCB  F019         	goto	i2u390_40
 12951   003392                     i2u390_41:
 12952   003392  EFC4  F019         	goto	i2l557
 12953   003396                     i2u390_40:
 12954   003396                     
 12955                           ;MCAL_layer/EEPROM/hal_eeprom.c: 37:     EECON1bits.WREN = 0;
 12956   003396  94A6               	bcf	166,2,c	;volsfr
 12957                           
 12958                           ;MCAL_layer/EEPROM/hal_eeprom.c: 39:     INTCONbits.GIE = GLOBAL_INTERRUPT_STATUS;
 12959   003398  B004               	btfsc	i2Data_EEPROM_WriteByte@GLOBAL_INTERRUPT_STATUS^0,0,c
 12960   00339A  D002               	bra	i2u391_45
 12961   00339C  9EF2               	bcf	242,7,c	;volatile
 12962   00339E  D001               	bra	i2u391_46
 12963   0033A0                     i2u391_45:
 12964   0033A0  8EF2               	bsf	242,7,c	;volatile
 12965   0033A2                     i2u391_46:
 12966   0033A2  0012               	return		;funcret
 12967   0033A4                     __end_ofi2_Data_EEPROM_WriteByte:
 12968                           	callstack 0
 12969                           
 12970                           	psect	text70
 12971   000000                     __ptext70:
 12972                           	callstack 0
 12973   000000                     
 12974                           	psect	rparam
 12975   000000                     
 12976                           	psect	temp
 12977   000058                     btemp:
 12978                           	callstack 0
 12979   000058                     	ds	1
 12980   000000                     int$flags	set	btemp
 12981   000000                     wtemp8	set	btemp+1
 12982   000000                     ttemp5	set	btemp+1
 12983   000000                     ttemp6	set	btemp+4
 12984   000000                     ttemp7	set	btemp+8
 12985                           
 12986                           	psect	config
 12987                           
 12988                           ; Padding undefined space
 12989   300000                     	org	3145728
 12990   300000  FF                 	db	255
 12991                           
 12992                           ;Config register CONFIG1H @ 0x300001
 12993                           ;	Oscillator Selection bits
 12994                           ;	OSC = EC, EC oscillator, CLKOUT function on RA6
 12995                           ;	Fail-Safe Clock Monitor Enable bit
 12996                           ;	FCMEN = OFF, Fail-Safe Clock Monitor disabled
 12997                           ;	Internal/External Oscillator Switchover bit
 12998                           ;	IESO = OFF, Oscillator Switchover mode disabled
 12999   300001                     	org	3145729
 13000   300001  04                 	db	4
 13001                           
 13002                           ;Config register CONFIG2L @ 0x300002
 13003                           ;	Power-up Timer Enable bit
 13004                           ;	PWRT = OFF, PWRT disabled
 13005                           ;	Brown-out Reset Enable bits
 13006                           ;	BOREN = OFF, Brown-out Reset disabled in hardware and software
 13007                           ;	Brown Out Reset Voltage bits
 13008                           ;	BORV = 1, 
 13009   300002                     	org	3145730
 13010   300002  09                 	db	9
 13011                           
 13012                           ;Config register CONFIG2H @ 0x300003
 13013                           ;	Watchdog Timer Enable bit
 13014                           ;	WDT = OFF, WDT disabled (control is placed on the SWDTEN bit)
 13015                           ;	Watchdog Timer Postscale Select bits
 13016                           ;	WDTPS = 32768, 1:32768
 13017   300003                     	org	3145731
 13018   300003  1E                 	db	30
 13019                           
 13020                           ; Padding undefined space
 13021   300004                     	org	3145732
 13022   300004  FF                 	db	255
 13023                           
 13024                           ;Config register CONFIG3H @ 0x300005
 13025                           ;	CCP2 MUX bit
 13026                           ;	CCP2MX = PORTC, CCP2 input/output is multiplexed with RC1
 13027                           ;	PORTB A/D Enable bit
 13028                           ;	PBADEN = OFF, PORTB<4:0> pins are configured as digital I/O on Reset
 13029                           ;	Low-Power Timer1 Oscillator Enable bit
 13030                           ;	LPT1OSC = OFF, Timer1 configured for higher power operation
 13031                           ;	MCLR Pin Enable bit
 13032                           ;	MCLRE = ON, MCLR pin enabled; RE3 input pin disabled
 13033   300005                     	org	3145733
 13034   300005  81                 	db	129
 13035                           
 13036                           ;Config register CONFIG4L @ 0x300006
 13037                           ;	Stack Full/Underflow Reset Enable bit
 13038                           ;	STVREN = ON, Stack full/underflow will cause Reset
 13039                           ;	Single-Supply ICSP Enable bit
 13040                           ;	LVP = OFF, Single-Supply ICSP disabled
 13041                           ;	Extended Instruction Set Enable bit
 13042                           ;	XINST = OFF, Instruction set extension and Indexed Addressing mode disabled (Legacy mo
      +                          de)
 13043                           ;	Background Debugger Enable bit
 13044                           ;	DEBUG = 0x1, unprogrammed default
 13045   300006                     	org	3145734
 13046   300006  81                 	db	129
 13047                           
 13048                           ; Padding undefined space
 13049   300007                     	org	3145735
 13050   300007  FF                 	db	255
 13051                           
 13052                           ;Config register CONFIG5L @ 0x300008
 13053                           ;	Code Protection bit
 13054                           ;	CP0 = OFF, Block 0 (000800-003FFFh) not code-protected
 13055                           ;	Code Protection bit
 13056                           ;	CP1 = OFF, Block 1 (004000-007FFFh) not code-protected
 13057                           ;	Code Protection bit
 13058                           ;	CP2 = OFF, Block 2 (008000-00BFFFh) not code-protected
 13059                           ;	Code Protection bit
 13060                           ;	CP3 = OFF, Block 3 (00C000-00FFFFh) not code-protected
 13061   300008                     	org	3145736
 13062   300008  0F                 	db	15
 13063                           
 13064                           ;Config register CONFIG5H @ 0x300009
 13065                           ;	Boot Block Code Protection bit
 13066                           ;	CPB = OFF, Boot block (000000-0007FFh) not code-protected
 13067                           ;	Data EEPROM Code Protection bit
 13068                           ;	CPD = OFF, Data EEPROM not code-protected
 13069   300009                     	org	3145737
 13070   300009  C0                 	db	192
 13071                           
 13072                           ;Config register CONFIG6L @ 0x30000A
 13073                           ;	Write Protection bit
 13074                           ;	WRT0 = OFF, Block 0 (000800-003FFFh) not write-protected
 13075                           ;	Write Protection bit
 13076                           ;	WRT1 = OFF, Block 1 (004000-007FFFh) not write-protected
 13077                           ;	Write Protection bit
 13078                           ;	WRT2 = OFF, Block 2 (008000-00BFFFh) not write-protected
 13079                           ;	Write Protection bit
 13080                           ;	WRT3 = OFF, Block 3 (00C000-00FFFFh) not write-protected
 13081   30000A                     	org	3145738
 13082   30000A  0F                 	db	15
 13083                           
 13084                           ;Config register CONFIG6H @ 0x30000B
 13085                           ;	Configuration Register Write Protection bit
 13086                           ;	WRTC = OFF, Configuration registers (300000-3000FFh) not write-protected
 13087                           ;	Boot Block Write Protection bit
 13088                           ;	WRTB = OFF, Boot Block (000000-0007FFh) not write-protected
 13089                           ;	Data EEPROM Write Protection bit
 13090                           ;	WRTD = OFF, Data EEPROM not write-protected
 13091   30000B                     	org	3145739
 13092   30000B  E0                 	db	224
 13093                           
 13094                           ;Config register CONFIG7L @ 0x30000C
 13095                           ;	Table Read Protection bit
 13096                           ;	EBTR0 = OFF, Block 0 (000800-003FFFh) not protected from table reads executed in other
      +                           blocks
 13097                           ;	Table Read Protection bit
 13098                           ;	EBTR1 = OFF, Block 1 (004000-007FFFh) not protected from table reads executed in other
      +                           blocks
 13099                           ;	Table Read Protection bit
 13100                           ;	EBTR2 = OFF, Block 2 (008000-00BFFFh) not protected from table reads executed in other
      +                           blocks
 13101                           ;	Table Read Protection bit
 13102                           ;	EBTR3 = OFF, Block 3 (00C000-00FFFFh) not protected from table reads executed in other
      +                           blocks
 13103   30000C                     	org	3145740
 13104   30000C  0F                 	db	15
 13105                           
 13106                           ;Config register CONFIG7H @ 0x30000D
 13107                           ;	Boot Block Table Read Protection bit
 13108                           ;	EBTRB = OFF, Boot Block (000000-0007FFh) not protected from table reads executed in ot
      +                          her blocks
 13109   30000D                     	org	3145741
 13110   30000D  40                 	db	64
 13111                           tosu	equ	0xFFF
 13112                           tosh	equ	0xFFE
 13113                           tosl	equ	0xFFD
 13114                           stkptr	equ	0xFFC
 13115                           pclatu	equ	0xFFB
 13116                           pclath	equ	0xFFA
 13117                           pcl	equ	0xFF9
 13118                           tblptru	equ	0xFF8
 13119                           tblptrh	equ	0xFF7
 13120                           tblptrl	equ	0xFF6
 13121                           tablat	equ	0xFF5
 13122                           prodh	equ	0xFF4
 13123                           prodl	equ	0xFF3
 13124                           indf0	equ	0xFEF
 13125                           postinc0	equ	0xFEE
 13126                           postdec0	equ	0xFED
 13127                           preinc0	equ	0xFEC
 13128                           plusw0	equ	0xFEB
 13129                           fsr0h	equ	0xFEA
 13130                           fsr0l	equ	0xFE9
 13131                           wreg	equ	0xFE8
 13132                           indf1	equ	0xFE7
 13133                           postinc1	equ	0xFE6
 13134                           postdec1	equ	0xFE5
 13135                           preinc1	equ	0xFE4
 13136                           plusw1	equ	0xFE3
 13137                           fsr1h	equ	0xFE2
 13138                           fsr1l	equ	0xFE1
 13139                           bsr	equ	0xFE0
 13140                           indf2	equ	0xFDF
 13141                           postinc2	equ	0xFDE
 13142                           postdec2	equ	0xFDD
 13143                           preinc2	equ	0xFDC
 13144                           plusw2	equ	0xFDB
 13145                           fsr2h	equ	0xFDA
 13146                           fsr2l	equ	0xFD9
 13147                           status	equ	0xFD8

Data Sizes:
    Strings     278
    Constant    0
    Data        78
    BSS         106
    Persistent  0
    Stack       0

Auto Spaces:
    Space          Size  Autos    Used
    COMRAM          126     41      87
    BANK0           128     38     128
    BANK1           256     33      81
    BANK2           256      0       0
    BANK3           256      0       0
    BANK4           256      0       0
    BANK5           256      0       0
    BANK6           256      0       0
    BANK7           256      0       0
    BANK8           256      0       0
    BANK9           256      0       0
    BANK10          256      0       0
    BANK11          256      0       0
    BANK12          256      0       0
    BANK13          256      0       0
    BANK14          256      0       0
    BANK15          128      0       0

Pointer List with Targets:

    change_password@confirm_pass_obj	PTR struct . size(1) Largest target is 9
		 -> confirm_pass_obj(BANK0[9]), 

    change_password@enterd_pass_obj	PTR struct . size(1) Largest target is 9
		 -> pass_obj(BANK0[9]), 

    change_password@pass_obj	PTR struct . size(1) Largest target is 9
		 -> enterd_pass_obj(BANK0[9]), 

    change_password@stored_pass_obj	PTR struct . size(1) Largest target is 9
		 -> stored_pass_obj(BANK0[9]), 

    check_entered_password@enterd_pass_obj	PTR struct . size(1) Largest target is 9
		 -> enterd_pass_obj(BANK0[9]), 

    check_entered_password@result	PTR unsigned char  size(2) Largest target is 1
		 -> change_password@comparing_result(BANK1[1]), entering_password@comparing_result(BANK1[1]), 

    check_entered_password@stored_pass_obj	PTR struct . size(1) Largest target is 9
		 -> stored_pass_obj(BANK0[9]), 

    comparing_password@confirm_pass_obj	PTR struct . size(1) Largest target is 9
		 -> confirm_pass_obj(BANK0[9]), 

    comparing_password@pass_obj	PTR struct . size(1) Largest target is 9
		 -> pass_obj(BANK0[9]), 

    comparing_password@result	PTR unsigned char  size(1) Largest target is 1
		 -> password_confirmation@comparing_result(BANK0[1]), 

    convert_byte_to_string@str	PTR unsigned char  size(2) Largest target is 4
		 -> entering_password@str(BANK1[4]), 

    Data_EEPROM_ReadByte@bData	PTR unsigned char  size(1) Largest target is 9
		 -> pass_check(BANK0[1]), stored_pass_obj(BANK0[9]), stored_pass_obj$password(BANK0[8]), 

    ecu_dc_motor_initialize@dc_motor	PTR const struct . size(1) Largest target is 2
		 -> motor1(COMRAM[2]), 

    ecu_dc_motor_move_left@dc_motor	PTR const struct . size(1) Largest target is 2
		 -> motor1(COMRAM[2]), 

    ecu_dc_motor_stop@dc_motor	PTR const struct . size(1) Largest target is 2
		 -> motor1(COMRAM[2]), 

    ecu_keypad_get_value@keypad	PTR const struct . size(1) Largest target is 8
		 -> keypad(BANK0[8]), 

    ecu_keypad_get_value@value	PTR unsigned char  size(1) Largest target is 1
		 -> keypad_value(COMRAM[1]), 

    ecu_keypad_initialize@keypad	PTR const struct . size(1) Largest target is 8
		 -> keypad(BANK0[8]), 

    ecu_led_initialize@led	PTR const struct . size(1) Largest target is 1
		 -> green_led(COMRAM[1]), red_led(COMRAM[1]), 

    ecu_led_turn_off@led	PTR const struct . size(1) Largest target is 1
		 -> green_led(COMRAM[1]), red_led(COMRAM[1]), 

    ecu_led_turn_on@led	PTR const struct . size(1) Largest target is 1
		 -> green_led(COMRAM[1]), red_led(COMRAM[1]), 

    entering_password@enterd_pass_obj	PTR struct . size(1) Largest target is 9
		 -> enterd_pass_obj(BANK0[9]), 

    entering_password@stored_pass_obj	PTR struct . size(1) Largest target is 9
		 -> stored_pass_obj(BANK0[9]), 

    entering_password@user_statue	PTR unsigned char  size(1) Largest target is 1
		 -> user_statue(BANK0[1]), 

    f$.$buffer	PTR unsigned char  size(2) Largest target is 0

    f$.$source	PTR const unsigned char  size(2) Largest target is 0

    fputc@fp	PTR struct _IO_FILE size(2) Largest target is 12
		 -> sprintf@f(BANK1[12]), 

    fputc@fp$.$buffer	PTR unsigned char  size(2) Largest target is 0

    fputc@fp$.$source	PTR const unsigned char  size(2) Largest target is 0

    get_password@pass_obj	PTR struct . size(1) Largest target is 9
		 -> pass_obj(BANK0[9]), 

    gpio_pin_direction_initialize@_pin_config	PTR const struct . size(1) Largest target is 8
		 -> buzzer(COMRAM[1]), ecu_led_initialize@led_pin(BANK0[1]), ecu_relay_initialize@relay_pin(COMRAM[1]), INT_obj(BANK0[6]), 
		 -> keypad(BANK0[8]), keypad$keypad_columns_pins(BANK0[4]), keypad$keypad_rows_pins(BANK0[4]), lcd1(COMRAM[6]), 
		 -> lcd1$data(COMRAM[4]), motor1(COMRAM[2]), motor1$dc_motor_pin(COMRAM[2]), 

    gpio_pin_initialize@_pin_config	PTR const struct . size(1) Largest target is 8
		 -> buzzer(COMRAM[1]), ecu_led_initialize@led_pin(BANK0[1]), ecu_relay_initialize@relay_pin(COMRAM[1]), keypad(BANK0[8]), 
		 -> keypad$keypad_rows_pins(BANK0[4]), lcd1(COMRAM[6]), lcd1$data(COMRAM[4]), motor1(COMRAM[2]), 
		 -> motor1$dc_motor_pin(COMRAM[2]), 

    gpio_pin_read_logic@_pin_config	PTR const struct . size(1) Largest target is 8
		 -> keypad(BANK0[8]), keypad$keypad_columns_pins(BANK0[4]), 

    gpio_pin_read_logic@logic	PTR enum E2979 size(1) Largest target is 1
		 -> ecu_button_read_state@btn_logic(COMRAM[1]), ecu_keypad_get_value@column_val(BANK0[1]), 

    gpio_pin_write_logic@_pin_config	PTR const struct . size(1) Largest target is 8
		 -> buzzer(COMRAM[1]), ecu_led_initialize@led_pin(BANK0[1]), ecu_led_turn_off@led_pin(BANK0[1]), ecu_led_turn_on@led_pin(BANK0[1]), 
		 -> ecu_relay_initialize@relay_pin(COMRAM[1]), ecu_relay_off@relay_pin(COMRAM[1]), ecu_relay_on@relay_pin(COMRAM[1]), keypad(BANK0[8]), 
		 -> keypad$keypad_rows_pins(BANK0[4]), lcd1(COMRAM[6]), lcd1$data(COMRAM[4]), motor1(COMRAM[2]), 
		 -> motor1$dc_motor_pin(COMRAM[2]), 

    INT0_INTERRUPT_HANDLER	PTR FTN()void  size(2) Largest target is 1
		 -> INT0_app_ISR(), NULL(), 

    INT0_SET_INTERRUPT_HANDLER@INTERRUPT_HANDLER	PTR FTN()void  size(2) Largest target is 1
		 -> INT0_app_ISR(), 

    INT1_INTERRUPT_HANDLER	PTR FTN()void  size(2) Largest target is 1
		 -> INT0_app_ISR(), NULL(), 

    INT1_SET_INTERRUPT_HANDLER@INTERRUPT_HANDLER	PTR FTN()void  size(2) Largest target is 1
		 -> INT0_app_ISR(), 

    INT2_INTERRUPT_HANDLER	PTR FTN()void  size(2) Largest target is 1
		 -> INT0_app_ISR(), NULL(), 

    INT2_SET_INTERRUPT_HANDLER@INTERRUPT_HANDLER	PTR FTN()void  size(2) Largest target is 1
		 -> INT0_app_ISR(), 

    INT_obj$EXT_Interrupr_Handler	PTR FTN()void  size(2) Largest target is 1
		 -> INT0_app_ISR(), 

    INTERRUPT_INTx_clear_flag@int_obj	PTR const struct . size(1) Largest target is 6
		 -> INT_obj(BANK0[6]), 

    INTERRUPT_INTx_clear_flag@int_obj$EXT_Interrupr_Handler	PTR FTN()void  size(2) Largest target is 1
		 -> INT0_app_ISR(), 

    INTERRUPT_INTx_disable@int_obj	PTR const struct . size(1) Largest target is 6
		 -> INT_obj(BANK0[6]), 

    INTERRUPT_INTx_disable@int_obj$EXT_Interrupr_Handler	PTR FTN()void  size(2) Largest target is 1
		 -> INT0_app_ISR(), 

    INTERRUPT_INTx_edge_int@int_obj	PTR const struct . size(1) Largest target is 6
		 -> INT_obj(BANK0[6]), 

    INTERRUPT_INTx_edge_int@int_obj$EXT_Interrupr_Handler	PTR FTN()void  size(2) Largest target is 1
		 -> INT0_app_ISR(), 

    INTERRUPT_INTx_enable@int_obj	PTR const struct . size(1) Largest target is 6
		 -> INT_obj(BANK0[6]), 

    INTERRUPT_INTx_enable@int_obj$EXT_Interrupr_Handler	PTR FTN()void  size(2) Largest target is 1
		 -> INT0_app_ISR(), 

    Interrupt_INTx_Init@int_obj	PTR const struct . size(1) Largest target is 6
		 -> INT_obj(BANK0[6]), 

    INTERRUPT_INTx_pin_int@int_obj	PTR const struct . size(1) Largest target is 6
		 -> INT_obj(BANK0[6]), 

    INTERRUPT_INTx_pin_int@int_obj$EXT_Interrupr_Handler	PTR FTN()void  size(2) Largest target is 1
		 -> INT0_app_ISR(), 

    INTERRUPT_INTx_priority_int@int_obj$EXT_Interrupr_Handler	PTR FTN()void  size(2) Largest target is 1
		 -> INT0_app_ISR(), 

    Interrupt_RBx_Init@RB_obj$EXT_Interrupr_Handler_HIGH	PTR FTN()void  size(2) Largest target is 0

    Interrupt_RBx_Init@RB_obj$EXT_Interrupr_Handler_LOW	PTR FTN()void  size(2) Largest target is 0

    INTERRUPT_RBx_pin_int@RB_obj$EXT_Interrupr_Handler_HIGH	PTR FTN()void  size(2) Largest target is 0

    INTERRUPT_RBx_pin_int@RB_obj$EXT_Interrupr_Handler_LOW	PTR FTN()void  size(2) Largest target is 0

    INTERRUPT_RBx_priority_int@RB_obj$EXT_Interrupr_Handler_HIGH	PTR FTN()void  size(2) Largest target is 0

    INTERRUPT_RBx_priority_int@RB_obj$EXT_Interrupr_Handler_LOW	PTR FTN()void  size(2) Largest target is 0

    INTERRUPT_SET_INTERRUPT_HANDLER@int_obj	PTR const struct . size(1) Largest target is 6
		 -> INT_obj(BANK0[6]), 

    INTERRUPT_SET_INTERRUPT_HANDLER@int_obj$EXT_Interrupr_Handler	PTR FTN()void  size(2) Largest target is 1
		 -> INT0_app_ISR(), 

    lat_registers	PTR volatile unsigned char [5] size(2) Largest target is 1
		 -> LATA(BITBIGSFRlllll[1]), LATB(BITBIGSFRllllh[1]), LATC(BITBIGSFRllllh[1]), LATD(BITBIGSFRllllh[1]), 
		 -> LATE(BITBIGSFRllllh[1]), 

    lcd_4bit_initialize@lcd	PTR const struct . size(1) Largest target is 6
		 -> lcd1(COMRAM[6]), 

    lcd_4bit_send_char_data@lcd	PTR const struct . size(1) Largest target is 6
		 -> lcd1(COMRAM[6]), 

    lcd_4bit_send_char_data_pos@lcd	PTR const struct . size(1) Largest target is 6
		 -> lcd1(COMRAM[6]), 

    lcd_4bit_send_command@lcd	PTR const struct . size(1) Largest target is 6
		 -> lcd1(COMRAM[6]), 

    lcd_4bit_send_enable_enable@lcd	PTR const struct . size(1) Largest target is 6
		 -> lcd1(COMRAM[6]), 

    lcd_4bit_send_string_pos@lcd	PTR const struct . size(1) Largest target is 6
		 -> lcd1(COMRAM[6]), 

    lcd_4bit_send_string_pos@str	PTR unsigned char  size(2) Largest target is 22
		 -> entering_password@str(BANK1[4]), STR_10(CODE[8]), STR_11(CODE[14]), STR_12(CODE[2]), 
		 -> STR_13(CODE[21]), STR_14(CODE[22]), STR_15(CODE[14]), STR_16(CODE[22]), 
		 -> STR_17(CODE[21]), STR_18(CODE[22]), STR_19(CODE[14]), STR_20(CODE[22]), 
		 -> STR_21(CODE[22]), STR_22(CODE[2]), STR_23(CODE[21]), STR_24(CODE[22]), 
		 -> STR_25(CODE[14]), STR_26(CODE[22]), STR_27(CODE[15]), STR_28(CODE[22]), 
		 -> STR_29(CODE[16]), STR_30(CODE[22]), STR_31(CODE[21]), STR_32(CODE[22]), 
		 -> STR_33(CODE[14]), STR_34(CODE[22]), STR_35(CODE[21]), STR_36(CODE[2]), 
		 -> STR_37(CODE[21]), STR_38(CODE[22]), STR_39(CODE[14]), STR_4(CODE[22]), 
		 -> STR_40(CODE[22]), STR_41(CODE[17]), STR_42(CODE[22]), STR_43(CODE[16]), 
		 -> STR_44(CODE[3]), STR_45(CODE[22]), STR_46(CODE[4]), STR_47(CODE[21]), 
		 -> STR_48(CODE[22]), STR_49(CODE[14]), STR_5(CODE[2]), STR_50(CODE[22]), 
		 -> STR_51(CODE[17]), STR_52(CODE[2]), STR_53(CODE[21]), STR_54(CODE[22]), 
		 -> STR_55(CODE[14]), STR_56(CODE[22]), STR_57(CODE[16]), STR_58(CODE[22]), 
		 -> STR_59(CODE[21]), STR_6(CODE[2]), STR_60(CODE[22]), STR_61(CODE[14]), 
		 -> STR_62(CODE[22]), STR_63(CODE[20]), STR_64(CODE[21]), STR_65(CODE[22]), 
		 -> STR_66(CODE[18]), STR_67(CODE[19]), STR_68(CODE[21]), STR_69(CODE[22]), 
		 -> STR_7(CODE[2]), STR_8(CODE[2]), STR_9(CODE[2]), 

    lcd_4bit_set_curser@lcd	PTR const struct . size(1) Largest target is 6
		 -> lcd1(COMRAM[6]), 

    lcd_send_4bit@lcd	PTR const struct . size(1) Largest target is 6
		 -> lcd1(COMRAM[6]), 

    memset@dest	PTR void  size(2) Largest target is 4
		 -> entering_password@str(BANK1[4]), 

    memset@p	PTR unsigned char  size(2) Largest target is 4
		 -> entering_password@str(BANK1[4]), 

    password_confirmation@confirm_pass_obj	PTR struct . size(1) Largest target is 9
		 -> confirm_pass_obj(BANK0[9]), 

    password_confirmation@pass_obj	PTR struct . size(1) Largest target is 9
		 -> pass_obj(BANK0[9]), 

    port_registers	PTR volatile unsigned char [5] size(2) Largest target is 1
		 -> PORTA(BITBIGSFRlllll[1]), PORTB(BITBIGSFRlllll[1]), PORTC(BITBIGSFRlllll[1]), PORTD(BITBIGSFRlllll[1]), 
		 -> PORTE(BITBIGSFRlllll[1]), 

    RB4_INTERRUPT_HANDLER_HIGH	PTR FTN()void  size(2) Largest target is 1
		 -> NULL(), 

    RB4_INTERRUPT_HANDLER_LOW	PTR FTN()void  size(2) Largest target is 1
		 -> NULL(), 

    RB5_INTERRUPT_HANDLER_HIGH	PTR FTN()void  size(2) Largest target is 1
		 -> NULL(), 

    RB5_INTERRUPT_HANDLER_LOW	PTR FTN()void  size(2) Largest target is 1
		 -> NULL(), 

    RB6_INTERRUPT_HANDLER_HIGH	PTR FTN()void  size(2) Largest target is 1
		 -> NULL(), 

    RB6_INTERRUPT_HANDLER_LOW	PTR FTN()void  size(2) Largest target is 1
		 -> NULL(), 

    RB7_INTERRUPT_HANDLER_HIGH	PTR FTN()void  size(2) Largest target is 1
		 -> NULL(), 

    RB7_INTERRUPT_HANDLER_LOW	PTR FTN()void  size(2) Largest target is 1
		 -> NULL(), 

    S1306$EXT_Interrupr_Handler_HIGH	PTR FTN()void  size(2) Largest target is 0

    S1306$EXT_Interrupr_Handler_LOW	PTR FTN()void  size(2) Largest target is 0

    S2289$buffer	PTR unsigned char  size(2) Largest target is 0

    S2289$source	PTR const unsigned char  size(2) Largest target is 0

    S682$EXT_Interrupr_Handler	PTR FTN()void  size(2) Largest target is 1
		 -> INT0_app_ISR(), 

    save_password@pass_obj	PTR struct . size(1) Largest target is 9
		 -> pass_obj(BANK0[9]), 

    sp__memset	PTR void  size(2) Largest target is 4
		 -> entering_password@str(BANK1[4]), 

    sprintf@ap	PTR void [1] size(2) Largest target is 2
		 -> ?_sprintf(BANK1[2]), 

    sprintf@fmt	PTR const unsigned char  size(2) Largest target is 3
		 -> STR_1(CODE[3]), STR_2(CODE[3]), STR_3(CODE[3]), 

    sprintf@s	PTR unsigned char  size(2) Largest target is 4
		 -> entering_password@str(BANK1[4]), 

    tris_registers	PTR volatile unsigned char [5] size(2) Largest target is 1
		 -> TRISA(BITBIGSFRlllll[1]), TRISB(BITBIGSFRlllh[1]), TRISC(BITBIGSFRlllh[1]), TRISD(BITBIGSFRlllh[1]), 
		 -> TRISE(BITBIGSFRlllh[1]), 

    vfpfcnvrt@ap	PTR PTR void  size(2) Largest target is 2
		 -> sprintf@ap(BANK1[2]), 

    vfpfcnvrt@cp	PTR unsigned char  size(2) Largest target is 3
		 -> STR_1(CODE[3]), STR_2(CODE[3]), STR_3(CODE[3]), 

    vfpfcnvrt@fmt	PTR PTR unsigned char  size(1) Largest target is 2
		 -> vfprintf@cfmt(BANK0[2]), 

    vfpfcnvrt@fp	PTR struct _IO_FILE size(2) Largest target is 12
		 -> sprintf@f(BANK1[12]), 

    vfprintf@ap	PTR PTR void  size(2) Largest target is 2
		 -> sprintf@ap(BANK1[2]), 

    vfprintf@cfmt	PTR unsigned char  size(2) Largest target is 3
		 -> STR_1(CODE[3]), STR_2(CODE[3]), STR_3(CODE[3]), 

    vfprintf@fmt	PTR const unsigned char  size(2) Largest target is 3
		 -> STR_1(CODE[3]), STR_2(CODE[3]), STR_3(CODE[3]), 

    vfprintf@fp	PTR struct _IO_FILE size(2) Largest target is 12
		 -> sprintf@f(BANK1[12]), 


Critical Paths under _main in COMRAM

    None.

Critical Paths under _INTERRUPT_MANAGER_HIGH in COMRAM

    _INT2_ISR->_INT0_app_ISR
    _INT1_ISR->_INT0_app_ISR
    _INT0_ISR->_INT0_app_ISR
    _INT0_app_ISR->i2_lcd_4bit_send_string_pos
    i2_lcd_4bit_send_string_pos->i2_lcd_4bit_set_curser
    i2_lcd_4bit_set_curser->i2_lcd_4bit_send_command
    i2_lcd_4bit_send_command->i2_lcd_send_4bit
    i2_lcd_4bit_send_char_data->i2_lcd_send_4bit
    i2_lcd_send_4bit->i2_gpio_pin_write_logic
    i2_lcd_4bit_send_enable_enable->i2_gpio_pin_write_logic

Critical Paths under _main in BANK0

    _main->_change_password
    _main->_entering_password
    _welcome_msg->_lcd_4bit_send_string_pos
    _entering_password->_convert_byte_to_string
    _sprintf->_vfprintf
    _vfprintf->_vfpfcnvrt
    _vfpfcnvrt->_abs
    _abs->___awmod
    _ecu_led_turn_on->_gpio_pin_write_logic
    _ecu_led_turn_off->_gpio_pin_write_logic
    _ecu_dc_motor_stop->_gpio_pin_write_logic
    _ecu_dc_motor_move_left->_gpio_pin_write_logic
    _change_password->_password_confirmation
    _password_confirmation->_lcd_4bit_send_char_data_pos
    _password_confirmation->_lcd_4bit_send_string_pos
    _save_password->_Data_EEPROM_WriteByte
    _get_password->_lcd_4bit_send_char_data_pos
    _get_password->_lcd_4bit_send_string_pos
    _lcd_4bit_send_string_pos->_lcd_4bit_set_curser
    _lcd_4bit_send_char_data_pos->_lcd_4bit_set_curser
    _lcd_4bit_set_curser->_lcd_4bit_send_command
    _lcd_4bit_send_char_data->_lcd_send_4bit
    _ecu_keypad_get_value->_gpio_pin_write_logic
    _check_entered_password->_Data_EEPROM_ReadByte
    _ecu_layer_Initialization->_lcd_4bit_initialize
    _lcd_4bit_initialize->_lcd_4bit_send_command
    _lcd_4bit_send_command->_lcd_send_4bit
    _lcd_send_4bit->_gpio_pin_write_logic
    _lcd_4bit_send_enable_enable->_gpio_pin_write_logic
    _ecu_led_initialize->_gpio_pin_initialize
    _ecu_keypad_initialize->_gpio_pin_initialize
    _ecu_dc_motor_initialize->_gpio_pin_initialize
    _gpio_pin_initialize->_gpio_pin_write_logic
    _Interrupt_INTx_Init->_INTERRUPT_INTx_pin_int
    _INTERRUPT_SET_INTERRUPT_HANDLER->_INT0_SET_INTERRUPT_HANDLER
    _INTERRUPT_SET_INTERRUPT_HANDLER->_INT1_SET_INTERRUPT_HANDLER
    _INTERRUPT_SET_INTERRUPT_HANDLER->_INT2_SET_INTERRUPT_HANDLER
    _INTERRUPT_INTx_pin_int->_gpio_pin_direction_initialize

Critical Paths under _INTERRUPT_MANAGER_HIGH in BANK0

    None.

Critical Paths under _main in BANK1

    _main->_entering_password
    _convert_byte_to_string->_sprintf

Critical Paths under _INTERRUPT_MANAGER_HIGH in BANK1

    None.

Critical Paths under _main in BANK2

    None.

Critical Paths under _INTERRUPT_MANAGER_HIGH in BANK2

    None.

Critical Paths under _main in BANK3

    None.

Critical Paths under _INTERRUPT_MANAGER_HIGH in BANK3

    None.

Critical Paths under _main in BANK4

    None.

Critical Paths under _INTERRUPT_MANAGER_HIGH in BANK4

    None.

Critical Paths under _main in BANK5

    None.

Critical Paths under _INTERRUPT_MANAGER_HIGH in BANK5

    None.

Critical Paths under _main in BANK6

    None.

Critical Paths under _INTERRUPT_MANAGER_HIGH in BANK6

    None.

Critical Paths under _main in BANK7

    None.

Critical Paths under _INTERRUPT_MANAGER_HIGH in BANK7

    None.

Critical Paths under _main in BANK8

    None.

Critical Paths under _INTERRUPT_MANAGER_HIGH in BANK8

    None.

Critical Paths under _main in BANK9

    None.

Critical Paths under _INTERRUPT_MANAGER_HIGH in BANK9

    None.

Critical Paths under _main in BANK10

    None.

Critical Paths under _INTERRUPT_MANAGER_HIGH in BANK10

    None.

Critical Paths under _main in BANK11

    None.

Critical Paths under _INTERRUPT_MANAGER_HIGH in BANK11

    None.

Critical Paths under _main in BANK12

    None.

Critical Paths under _INTERRUPT_MANAGER_HIGH in BANK12

    None.

Critical Paths under _main in BANK13

    None.

Critical Paths under _INTERRUPT_MANAGER_HIGH in BANK13

    None.

Critical Paths under _main in BANK14

    None.

Critical Paths under _INTERRUPT_MANAGER_HIGH in BANK14

    None.

Critical Paths under _main in BANK15

    None.

Critical Paths under _INTERRUPT_MANAGER_HIGH in BANK15

    None.

Call Graph Tables:

 ---------------------------------------------------------------------------------
 (Depth) Function   	        Calls       Base Space   Used Autos Params    Refs
 ---------------------------------------------------------------------------------
 (0) _main                                                 3     3      0 1247407
                                             31 BANK1      2     2      0
         _Application_Initialization
               _Data_EEPROM_ReadByte
                    _change_password
             _ecu_dc_motor_move_left
                  _ecu_dc_motor_stop
               _ecu_keypad_get_value
                   _ecu_led_turn_off
                    _ecu_led_turn_on
                  _entering_password
                       _get_password
               _gpio_pin_write_logic
           _lcd_4bit_send_string_pos
              _password_confirmation
                        _welcome_msg
 ---------------------------------------------------------------------------------
 (1) _welcome_msg                                          2     2      0   96368
                                             25 BANK0      2     2      0
              _lcd_4bit_send_command
           _lcd_4bit_send_string_pos
 ---------------------------------------------------------------------------------
 (1) _entering_password                                   13    10      3  168645
                                             36 BANK0      2     2      0
                                             20 BANK1     11     8      3
             _check_entered_password
             _convert_byte_to_string
               _ecu_keypad_get_value
        _lcd_4bit_send_char_data_pos
              _lcd_4bit_send_command
           _lcd_4bit_send_string_pos
 ---------------------------------------------------------------------------------
 (2) _convert_byte_to_string                               4     2      2    7532
                                             33 BANK0      3     1      2
                             _memset
                            _sprintf
 ---------------------------------------------------------------------------------
 (3) _sprintf                                             22    16      6    6096
                                              0 BANK1     20    14      6
                           _vfprintf
 ---------------------------------------------------------------------------------
 (4) _vfprintf                                             8     2      6    5014
                                             25 BANK0      8     2      6
                          _vfpfcnvrt
 ---------------------------------------------------------------------------------
 (5) _vfpfcnvrt                                           15    10      5    4414
                                             10 BANK0     15    10      5
                            ___awdiv
                            ___awmod
                                _abs
                              _fputc
 ---------------------------------------------------------------------------------
 (6) _fputc                                                9     5      4    1160
                                              0 BANK0      9     5      4
                              _putch
 ---------------------------------------------------------------------------------
 (7) _putch                                                1     1      0       0
 ---------------------------------------------------------------------------------
 (6) _abs                                                  4     2      2     232
                                              6 BANK0      4     2      2
                            ___awmod (ARG)
 ---------------------------------------------------------------------------------
 (6) ___awmod                                              6     2      4     818
                                              0 BANK0      6     2      4
 ---------------------------------------------------------------------------------
 (6) ___awdiv                                              8     4      4     842
                                              0 BANK0      8     4      4
 ---------------------------------------------------------------------------------
 (3) _memset                                               8     2      6    1142
                                              0 BANK0      8     2      6
 ---------------------------------------------------------------------------------
 (1) _ecu_led_turn_on                                      4     3      1    6590
                                              8 BANK0      3     2      1
               _gpio_pin_write_logic
 ---------------------------------------------------------------------------------
 (1) _ecu_led_turn_off                                     4     3      1    6590
                                              8 BANK0      3     2      1
               _gpio_pin_write_logic
 ---------------------------------------------------------------------------------
 (1) _ecu_dc_motor_stop                                    2     1      1    6393
                                              8 BANK0      1     0      1
               _gpio_pin_write_logic
 ---------------------------------------------------------------------------------
 (1) _ecu_dc_motor_move_left                               2     1      1    6393
                                              8 BANK0      1     0      1
               _gpio_pin_write_logic
 ---------------------------------------------------------------------------------
 (1) _change_password                                      9     5      4  478785
                                             32 BANK0      6     2      4
                                              0 BANK1      3     3      0
             _check_entered_password
               _ecu_keypad_get_value
                       _get_password
        _lcd_4bit_send_char_data_pos
              _lcd_4bit_send_command
           _lcd_4bit_send_string_pos
              _password_confirmation
 ---------------------------------------------------------------------------------
 (1) _password_confirmation                                7     5      2  159799
                                             25 BANK0      7     5      2
                 _comparing_password
               _ecu_keypad_get_value
        _lcd_4bit_send_char_data_pos
              _lcd_4bit_send_command
           _lcd_4bit_send_string_pos
                      _save_password
 ---------------------------------------------------------------------------------
 (2) _save_password                                        2     1      1     678
                                              4 BANK0      2     1      1
              _Data_EEPROM_WriteByte
 ---------------------------------------------------------------------------------
 (3) _Data_EEPROM_WriteByte                                5     2      3     427
                                              0 BANK0      4     1      3
 ---------------------------------------------------------------------------------
 (2) _comparing_password                                   7     4      3     620
                                              0 BANK0      7     4      3
 ---------------------------------------------------------------------------------
 (1) _get_password                                         5     4      1  158145
                                             25 BANK0      5     4      1
               _ecu_keypad_get_value
        _lcd_4bit_send_char_data_pos
              _lcd_4bit_send_command
           _lcd_4bit_send_string_pos
 ---------------------------------------------------------------------------------
 (2) _lcd_4bit_send_string_pos                             6     1      5   70921
                                             20 BANK0      5     0      5
            _lcd_4bit_send_char_data
                _lcd_4bit_set_curser
 ---------------------------------------------------------------------------------
 (2) _lcd_4bit_send_char_data_pos                          5     1      4   52671
                                             20 BANK0      5     1      4
            _lcd_4bit_send_char_data
                _lcd_4bit_set_curser
 ---------------------------------------------------------------------------------
 (3) _lcd_4bit_set_curser                                  6     3      3   26315
                                             14 BANK0      6     3      3
              _lcd_4bit_send_command
 ---------------------------------------------------------------------------------
 (3) _lcd_4bit_send_char_data                              3     1      2   21087
                                             11 BANK0      3     1      2
               _gpio_pin_write_logic
        _lcd_4bit_send_enable_enable
                      _lcd_send_4bit
 ---------------------------------------------------------------------------------
 (2) _ecu_keypad_get_value                                 9     7      2    8505
                                              8 BANK0      8     6      2
                _gpio_pin_read_logic
               _gpio_pin_write_logic
 ---------------------------------------------------------------------------------
 (3) _gpio_pin_read_logic                                  7     5      2     559
                                              0 BANK0      6     4      2
 ---------------------------------------------------------------------------------
 (2) _check_entered_password                               8     4      4    1955
                                              3 BANK0      8     4      4
               _Data_EEPROM_ReadByte
 ---------------------------------------------------------------------------------
 (3) _Data_EEPROM_ReadByte                                 4     1      3     497
                                              0 BANK0      3     0      3
 ---------------------------------------------------------------------------------
 (1) _Application_Initialization                           0     0      0   73573
           _ecu_layer_Initialization
 ---------------------------------------------------------------------------------
 (2) _ecu_layer_Initialization                             0     0      0   73573
                _Interrupt_INTx_Init
            _ecu_dc_motor_initialize
              _ecu_keypad_initialize
                 _ecu_led_initialize
                _gpio_pin_initialize
                _lcd_4bit_initialize
 ---------------------------------------------------------------------------------
 (3) _lcd_4bit_initialize                                  4     3      1   34633
                                             14 BANK0      4     3      1
                _gpio_pin_initialize
              _lcd_4bit_send_command
 ---------------------------------------------------------------------------------
 (4) _lcd_4bit_send_command                                3     1      2   25447
                                             11 BANK0      3     1      2
               _gpio_pin_write_logic
        _lcd_4bit_send_enable_enable
                      _lcd_send_4bit
 ---------------------------------------------------------------------------------
 (5) _lcd_send_4bit                                        3     1      2    7211
                                              8 BANK0      3     1      2
               _gpio_pin_write_logic
 ---------------------------------------------------------------------------------
 (5) _lcd_4bit_send_enable_enable                          2     1      1    6659
                                              8 BANK0      2     1      1
               _gpio_pin_write_logic
 ---------------------------------------------------------------------------------
 (3) _ecu_led_initialize                                   4     3      1    8959
                                             11 BANK0      3     2      1
                _gpio_pin_initialize
 ---------------------------------------------------------------------------------
 (3) _ecu_keypad_initialize                                4     3      1    9643
                                             11 BANK0      3     2      1
      _gpio_pin_direction_initialize
                _gpio_pin_initialize
 ---------------------------------------------------------------------------------
 (3) _ecu_dc_motor_initialize                              2     1      1    8738
                                             11 BANK0      1     0      1
                _gpio_pin_initialize
 ---------------------------------------------------------------------------------
 (4) _gpio_pin_initialize                                  3     2      1    8542
                                              8 BANK0      3     2      1
      _gpio_pin_direction_initialize
               _gpio_pin_write_logic
 ---------------------------------------------------------------------------------
 (6) _gpio_pin_write_logic                                 8     6      2    6197
                                              0 BANK0      8     6      2
 ---------------------------------------------------------------------------------
 (3) _Interrupt_INTx_Init                                  2     1      1    3058
                                              9 BANK0      2     1      1
          _INTERRUPT_INTx_clear_flag
             _INTERRUPT_INTx_disable
            _INTERRUPT_INTx_edge_int
              _INTERRUPT_INTx_enable
             _INTERRUPT_INTx_pin_int
    _INTERRUPT_SET_INTERRUPT_HANDLER
 ---------------------------------------------------------------------------------
 (4) _INTERRUPT_SET_INTERRUPT_HANDLER                      4     3      1     780
                                              2 BANK0      4     3      1
         _INT0_SET_INTERRUPT_HANDLER
         _INT1_SET_INTERRUPT_HANDLER
         _INT2_SET_INTERRUPT_HANDLER
 ---------------------------------------------------------------------------------
 (5) _INT2_SET_INTERRUPT_HANDLER                           3     1      2     165
                                              0 BANK0      2     0      2
 ---------------------------------------------------------------------------------
 (5) _INT1_SET_INTERRUPT_HANDLER                           3     1      2     165
                                              0 BANK0      2     0      2
 ---------------------------------------------------------------------------------
 (5) _INT0_SET_INTERRUPT_HANDLER                           3     1      2     165
                                              0 BANK0      2     0      2
 ---------------------------------------------------------------------------------
 (4) _INTERRUPT_INTx_pin_int                               2     1      1     896
                                              7 BANK0      2     1      1
      _gpio_pin_direction_initialize
 ---------------------------------------------------------------------------------
 (5) _gpio_pin_direction_initialize                        7     6      1     707
                                              0 BANK0      7     6      1
 ---------------------------------------------------------------------------------
 (4) _INTERRUPT_INTx_enable                                4     3      1     192
                                              0 BANK0      4     3      1
 ---------------------------------------------------------------------------------
 (4) _INTERRUPT_INTx_edge_int                              4     3      1     378
                                              0 BANK0      4     3      1
 ---------------------------------------------------------------------------------
 (4) _INTERRUPT_INTx_disable                               4     3      1     282
                                              0 BANK0      4     3      1
 ---------------------------------------------------------------------------------
 (4) _INTERRUPT_INTx_clear_flag                            4     3      1     192
                                              0 BANK0      4     3      1
 ---------------------------------------------------------------------------------
 Estimated maximum stack depth 7
 ---------------------------------------------------------------------------------
 (Depth) Function   	        Calls       Base Space   Used Autos Params    Refs
 ---------------------------------------------------------------------------------
 (8) _INTERRUPT_MANAGER_HIGH                              12    12      0   40230
                                             29 COMRAM    12    12      0
                           _INT0_ISR
                           _INT1_ISR
                           _INT2_ISR
                            _RB4_ISR
                            _RB5_ISR
                            _RB6_ISR
                            _RB7_ISR
 ---------------------------------------------------------------------------------
 (9) _RB7_ISR                                              1     1      0      30
                                              0 COMRAM     1     1      0
 ---------------------------------------------------------------------------------
 (9) _RB6_ISR                                              1     1      0      30
                                              0 COMRAM     1     1      0
 ---------------------------------------------------------------------------------
 (9) _RB5_ISR                                              1     1      0      30
                                              0 COMRAM     1     1      0
 ---------------------------------------------------------------------------------
 (9) _RB4_ISR                                              1     1      0      30
                                              0 COMRAM     1     1      0
 ---------------------------------------------------------------------------------
 (9) _INT2_ISR                                             0     0      0   13370
                                NULL *
                       _INT0_app_ISR *
 ---------------------------------------------------------------------------------
 (9) _INT1_ISR                                             0     0      0   13370
                                NULL *
                       _INT0_app_ISR *
 ---------------------------------------------------------------------------------
 (9) _INT0_ISR                                             0     0      0   13370
                                NULL *
                       _INT0_app_ISR *
 ---------------------------------------------------------------------------------
 (10) _INT0_app_ISR                                        4     4      0   13370
                                             25 COMRAM     4     4      0
            i2_Data_EEPROM_WriteByte
            i2_lcd_4bit_send_command
         i2_lcd_4bit_send_string_pos
 ---------------------------------------------------------------------------------
 (11) i2_lcd_4bit_send_string_pos                          6     1      5    9136
                                             20 COMRAM     5     0      5
          i2_lcd_4bit_send_char_data
              i2_lcd_4bit_set_curser
 ---------------------------------------------------------------------------------
 (12) i2_lcd_4bit_set_curser                               6     3      3    4420
                                             14 COMRAM     6     3      3
            i2_lcd_4bit_send_command
 ---------------------------------------------------------------------------------
 (13) i2_lcd_4bit_send_command                             3     1      2    3987
                                             11 COMRAM     3     1      2
             i2_gpio_pin_write_logic
      i2_lcd_4bit_send_enable_enable
                    i2_lcd_send_4bit
 ---------------------------------------------------------------------------------
 (12) i2_lcd_4bit_send_char_data                           3     1      2    3637
                                             11 COMRAM     3     1      2
             i2_gpio_pin_write_logic
      i2_lcd_4bit_send_enable_enable
                    i2_lcd_send_4bit
 ---------------------------------------------------------------------------------
 (14) i2_lcd_send_4bit                                     3     1      2    1391
                                              8 COMRAM     3     1      2
             i2_gpio_pin_write_logic
 ---------------------------------------------------------------------------------
 (14) i2_lcd_4bit_send_enable_enable                       2     1      1    1059
                                              8 COMRAM     2     1      1
             i2_gpio_pin_write_logic
 ---------------------------------------------------------------------------------
 (15) i2_gpio_pin_write_logic                              8     6      2     817
                                              0 COMRAM     8     6      2
 ---------------------------------------------------------------------------------
 (11) i2_Data_EEPROM_WriteByte                             5     2      3     148
                                              0 COMRAM     4     1      3
 ---------------------------------------------------------------------------------
 (10) NULL(Fake)                                           0     0      0       0
 ---------------------------------------------------------------------------------
 Estimated maximum stack depth 15
 ---------------------------------------------------------------------------------

 Call Graph Graphs:

 _main (ROOT)
   _Application_Initialization
     _ecu_layer_Initialization
       _Interrupt_INTx_Init
         _INTERRUPT_INTx_clear_flag
         _INTERRUPT_INTx_disable
         _INTERRUPT_INTx_edge_int
         _INTERRUPT_INTx_enable
         _INTERRUPT_INTx_pin_int
           _gpio_pin_direction_initialize
         _INTERRUPT_SET_INTERRUPT_HANDLER
           _INT0_SET_INTERRUPT_HANDLER
           _INT1_SET_INTERRUPT_HANDLER
           _INT2_SET_INTERRUPT_HANDLER
       _ecu_dc_motor_initialize
         _gpio_pin_initialize
           _gpio_pin_direction_initialize
           _gpio_pin_write_logic
       _ecu_keypad_initialize
         _gpio_pin_direction_initialize
         _gpio_pin_initialize
       _ecu_led_initialize
         _gpio_pin_initialize
       _gpio_pin_initialize
       _lcd_4bit_initialize
         _gpio_pin_initialize
         _lcd_4bit_send_command
           _gpio_pin_write_logic
           _lcd_4bit_send_enable_enable
             _gpio_pin_write_logic
           _lcd_send_4bit
             _gpio_pin_write_logic
   _Data_EEPROM_ReadByte
   _change_password
     _check_entered_password
       _Data_EEPROM_ReadByte
     _ecu_keypad_get_value
       _gpio_pin_read_logic
       _gpio_pin_write_logic
     _get_password
       _ecu_keypad_get_value
       _lcd_4bit_send_char_data_pos
         _lcd_4bit_send_char_data
           _gpio_pin_write_logic
           _lcd_4bit_send_enable_enable
           _lcd_send_4bit
         _lcd_4bit_set_curser
           _lcd_4bit_send_command
       _lcd_4bit_send_command
       _lcd_4bit_send_string_pos
         _lcd_4bit_send_char_data
         _lcd_4bit_set_curser
     _lcd_4bit_send_char_data_pos
     _lcd_4bit_send_command
     _lcd_4bit_send_string_pos
     _password_confirmation
       _comparing_password
       _ecu_keypad_get_value
       _lcd_4bit_send_char_data_pos
       _lcd_4bit_send_command
       _lcd_4bit_send_string_pos
       _save_password
         _Data_EEPROM_WriteByte
   _ecu_dc_motor_move_left
     _gpio_pin_write_logic
   _ecu_dc_motor_stop
     _gpio_pin_write_logic
   _ecu_keypad_get_value
   _ecu_led_turn_off
     _gpio_pin_write_logic
   _ecu_led_turn_on
     _gpio_pin_write_logic
   _entering_password
     _check_entered_password
     _convert_byte_to_string
       _memset
       _sprintf
         _vfprintf
           _vfpfcnvrt
             ___awdiv
             ___awmod
             _abs
               ___awmod (ARG)
             _fputc
               _putch
     _ecu_keypad_get_value
     _lcd_4bit_send_char_data_pos
     _lcd_4bit_send_command
     _lcd_4bit_send_string_pos
   _get_password
   _gpio_pin_write_logic
   _lcd_4bit_send_string_pos
   _password_confirmation
   _welcome_msg
     _lcd_4bit_send_command
     _lcd_4bit_send_string_pos

 _INTERRUPT_MANAGER_HIGH (ROOT)
   _INT0_ISR
     NULL(Fake) *
     _INT0_app_ISR *
       i2_Data_EEPROM_WriteByte
       i2_lcd_4bit_send_command
         i2_gpio_pin_write_logic
         i2_lcd_4bit_send_enable_enable
           i2_gpio_pin_write_logic
         i2_lcd_send_4bit
           i2_gpio_pin_write_logic
       i2_lcd_4bit_send_string_pos
         i2_lcd_4bit_send_char_data
           i2_gpio_pin_write_logic
           i2_lcd_4bit_send_enable_enable
           i2_lcd_send_4bit
         i2_lcd_4bit_set_curser
           i2_lcd_4bit_send_command
   _INT1_ISR
     NULL(Fake) *
     _INT0_app_ISR *
   _INT2_ISR
     NULL(Fake) *
     _INT0_app_ISR *
   _RB4_ISR
   _RB5_ISR
   _RB6_ISR
   _RB7_ISR

 Address spaces:
Name               Size   Autos  Total    Cost      Usage
BIGRAM             F7F      0       0      42        0.0%
EEDATA             400      0       0       0        0.0%
BITBANK14          100      0       0      32        0.0%
BANK14             100      0       0      33        0.0%
BITBANK13          100      0       0      30        0.0%
BANK13             100      0       0      31        0.0%
BITBANK12          100      0       0      28        0.0%
BANK12             100      0       0      29        0.0%
BITBANK11          100      0       0      26        0.0%
BANK11             100      0       0      27        0.0%
BITBANK10          100      0       0      24        0.0%
BANK10             100      0       0      25        0.0%
BITBANK9           100      0       0      22        0.0%
BANK9              100      0       0      23        0.0%
BITBANK8           100      0       0      20        0.0%
BANK8              100      0       0      21        0.0%
BITBANK7           100      0       0      18        0.0%
BANK7              100      0       0      19        0.0%
BITBANK6           100      0       0      16        0.0%
BANK6              100      0       0      17        0.0%
BITBANK5           100      0       0      14        0.0%
BANK5              100      0       0      15        0.0%
BITBANK4           100      0       0      12        0.0%
BANK4              100      0       0      13        0.0%
BITBANK3           100      0       0      10        0.0%
BANK3              100      0       0      11        0.0%
BITBANK2           100      0       0       8        0.0%
BANK2              100      0       0       9        0.0%
BITBANK1           100      0       0       6        0.0%
BANK1              100     21      51       7       31.6%
BITBANK15           80      0       0      34        0.0%
BANK15              80      0       0      35        0.0%
BITBANK0            80      0       0       4        0.0%
BANK0               80     26      80       5      100.0%
BITCOMRAM           7E      0       0       0        0.0%
COMRAM              7E     29      57       1       69.0%
BITBIGSFRlhl        45      0       0      37        0.0%
BITBIGSFRlllh        F      0       0      38        0.0%
BITBIGSFRh           D      0       0      36        0.0%
BITBIGSFRllllh       4      0       0      39        0.0%
BITBIGSFRlllll       4      0       0      40        0.0%
BIGSFR               0      0       0     200        0.0%
BITSFR               0      0       0     200        0.0%
SFR                  0      0       0     200        0.0%
STACK                0      0       0       2        0.0%
NULL                 0      0       0       0        0.0%
ABS                  0      0     128      41        0.0%
DATA                 0      0     128       3        0.0%
CODE                 0      0       0       0        0.0%


Microchip Technology PIC18 Macro Assembler V2.45 build 20230818022343 
Symbol Table                                                                                   Fri Apr 12 21:16:52 2024

                  INTERRUPT_INTx_clear_flag@ret 00DD                                  ?_lcd_send_4bit 00E2  
                               fp__INT0_app_ISR 0000                                   ?_get_password 00F3  
                                            l70 2242                                              l80 2E9E  
                                            l75 2F06                                              l85 33E4  
                                  ___awdiv@sign 00DF                      i2lcd_4bit_send_command@lcd 000C  
                    i2lcd_4bit_send_command@ret 000E             __end_of_lcd_4bit_send_enable_enable 3606  
                ?i2_lcd_4bit_send_enable_enable 0009                     _lcd_4bit_send_enable_enable 35DA  
                                           l101 2978                                             l201 270E  
                                           l210 362E                                             l220 34F0  
                                           l225 34BE                                             l162 3190  
                                           l410 2C10                                             l260 233E  
                                           l246 3028                                             l175 313A  
                                           l423 131C                                             l280 2D5E  
                                           l273 2E36                                             l178 3604  
                                           l515 32CE                                             l283 2D76  
                                           l540 2428                                             l276 2D08  
                                           l613 1DFE                                             l269 2DE4  
                                           l365 335E                                             l525 2A92  
                                           l509 0F56                                             l287 2DCC  
                                           l632 2032                                             l560 3316  
                                           l456 0AF0                                             l653 2F6A  
                                           l565 3456                                             l557 32FA  
                                           l485 0628                                             l639 284E  
                                           l559 3308                                             l904 2CA0  
                                           l841 2B9A                                             l753 2FCA  
                                           l906 2CA6                                             l850 2C3C  
                                           l914 36BA                                             l907 2CAC  
                                           l852 2C80                                             l836 2B3E  
                                           l924 3676                                             l909 2CF0  
                                           l838 2B48                                             l847 2C30  
                                           l839 2B52                                             l919 3698  
                                           l935 27B0                                             l849 2C36  
                                           l881 1F1A                                             l893 1F1C  
                                           l898 354E                                             _abs 3458  
                       __end_of_ecu_led_turn_on 2D60                       INTERRUPT_INTx_pin_int@ret 00E2  
                                  ___awmod@sign 00DF                                             prod 0FF3  
                                           tosl 0FFD                                             wreg 0FE8  
                      ??_ecu_dc_motor_move_left 00E3                                 __end_of_RB4_ISR 3724  
                               __end_of_RB5_ISR 370A                                 __end_of_RB6_ISR 36F0  
                               __end_of_RB7_ISR 36D6                               _ecu_dc_motor_stop 348E  
                 ??_lcd_4bit_send_enable_enable 00E3                                            l1107 3748  
                                          ?_abs 00E0                                            l1341 25BA  
                                          l1354 266C                                            l1832 1B62  
                                          l1842 3474                                            l1845 348C  
                                          l1838 3232                                            l1857 24F4  
                                          l7010 2C98                                            l1794 31E2  
                                          l1787 341E                                            l7100 2B36  
                                          l1868 374A                                            l7014 2CB2  
                                          l7030 1E1E                                            l7016 2CEE  
                                          l7008 2C82                                            l7040 1E78  
                                          l7032 1E38                                            l7104 2B5C  
                                          l7200 33A4                                            l7050 1EBE  
                                          l7042 1E7E                                            l7034 1E3E  
                                          l7026 1E00                                            l7106 2B98  
                                          l7202 33B6                                            l7210 28E8  
                                          l7052 1ED8                                            l7044 1E98  
                                          l7036 1E58                                            l7028 1E16  
                                          l7300 228A                                            l7204 33BE  
                                          l7220 2946                                            l7212 28FA  
                                          l7046 1E9E                                            l7038 1E5E  
                                          l7070 3540                                            l7310 22CC  
                                          l7302 2298                                            l7206 33E2  
                                          l7214 28FE                                            l7048 1EB8  
                                          l7056 1EDE                                            l7072 354A  
                                          l7080 272E                                            l6600 1F54  
                                          l7160 215A                                            l7400 3446  
                                          l7320 22F4                                            l7304 229C  
                                          l7216 2912                                            l9000 1A76  
                                          l7058 1F1A                                            l7066 3522  
                                          l7082 2744                                            l7090 27AC  
                                          l6602 1F5C                                            l6610 2030  
                                          l7242 3606                                            l7250 2FCC  
                                          l7330 2DCE                                            l7170 217A  
                                          l7162 215E                                            l8106 3744  
                                          l7402 3448                                            l7322 231A  
                                          l7306 22AC                                            l7218 2940  
                                          l9010 1AD6                                            l9002 1A92  
                                          l7068 3538                                            l7084 275A  
                                          l7076 2710                                            l6604 1FB4  
                                          l7244 3618                                            l7260 2FE6  
                                          l7252 2FDE                                            l7340 2E2E  
                                          l7332 2DE0                                            l7180 21BA  
                                          l7172 2186                                            l7164 2176  
                                          l7404 344A                                            l7324 231C  
                                          l7316 22D2                                            l7308 22BA  
                                          l9012 1AEC                                            l9004 1AA6  
                                          l9100 0012                                            l7078 2726  
                                          l7350 2FA6                                            l7246 361C  
                                          l7262 2FF0                                            l7254 2FE2  
                                          l7334 2DE8                                            l7190 220A  
                                          l7182 21DA                                            l7174 218A  
                                          l7158 2144                                            l7510 3318  
                                          l7326 232C                                            l7318 22E2  
                                          l9014 1B0E                                            l9006 1AB6  
                                          l9022 1B3A                                            l9030 31F0  
                                          l9110 007C                                            l9102 0028  
                                          l6800 1DFC                                            l7088 2770  
                                          l7352 2FB2                                            l7344 2F6C  
                                          l6608 2006                                            l7272 3008  
                                          l7264 2FF4                                            l7336 2E1A  
                                          l6640 30E2                                            l7192 2218  
                                          l7184 21E0                                            l7176 219A  
                                          l7328 232E                                            l7280 2256  
                                          l7600 12E4                                            l7520 0F9E  
                                          l7512 0F58                                            l7360 2A0E  
                                          l9040 33F2                                            l9008 1AC6  
                                          l9016 1B12                                            l9032 320A  
                                          l9200 0406                                            l9120 00E2  
                                          l9112 008A                                            l9104 0036  
                   ?_INT1_SET_INTERRUPT_HANDLER 00DA                                            l7098 2B20  
                                          l7354 2FBE                                            l7346 2F7E  
                                          l7274 3014                                            l7266 3004  
                                          l7338 2E1C                                            l6642 30E2  
                                          l6810 2EB2                                            l7194 2226  
                                          l7186 21EE                                            l7178 21AC  
                                          l7282 225E                                            l7530 1002  
                                          l7522 0FB8                                            l7514 0F66  
                                          l7370 2A6E                                            l7362 2A18  
                                          l7610 0674                                            l7602 062A  
                                          l9042 33FE                                            l9018 1B28  
                                          l9034 3228                                            l9050 31AC  
                                          l9210 045C                                            l9202 0420  
                                          l9130 0172                                            l9122 00FC  
                                          l9114 00A4                                            l9106 0048  
                                          l6820 369A                                            l7348 2F82  
                                          l7276 3018                                            l6660 3602  
                                          l6652 35DA                                            l6644 30F4  
                                          l6812 2EBA                                            l7196 2234  
                                          l7188 21FC                                            l7284 226E  
                                          l7540 109A                                            l7532 101E  
                                          l7524 0FC6                                            l7516 0F72  
                                          l7372 2A74                                            l7364 2A22  
                                          l7380 328E                                            l7700 0A66  
                                          l7620 06D8                                            l7612 068E  
                                          l7604 063C                                            l9300 0CD4  
                                          l9044 3402                                            l9028 31E4  
                                          l9052 31B4                                            l9060 3140  
                                          l9212 045E                                            l9204 042E  
                                          l9140 01B0                                            l9220 0498  
                                          l9132 0174                                            l9124 0116  
                                          l9116 00B4                                            l9108 0062  
                                          l6822 36AE                                            l6830 3678  
                                          l6910 2F08                                            l6654 35DA  
                                          l6646 3108                                            l6814 2F04  
                                          l7390 3436                                            l9070 2340  
                                          l7294 2286                                            l7286 227E  
                                          l7278 2244                                            l7542 10AC  
                                          l7550 10D6                                            l7534 1036  
                                          l7526 0FE0                                            l7518 0F84  
                                          l7374 2A80                                            l7358 2A08  
                                          l7382 32AE                                            l7710 0AB8  
                                          l7702 0A7C                                            l7630 0770  
                                          l7622 06F4                                            l7614 069C  
                                          l7606 0648                                            l9302 0D0C  
                                          l9038 33E6                                            l9054 31D2  
                                          l9046 3192                                            l9062 3154  
                                          l9230 04FA                                            l9222 04AA  
                                          l9206 044C                                            l9214 0474  
                                          l9150 0238                                            l9142 01C2  
                                          l9134 0182                                            l9118 00C6  
                                          l9126 014E                                            l6824 36B2  
                                          l6832 368C                                            l6840 3656  
                                          l6912 2F1A                                            l6656 35E8  
                                          l6648 311E                                            l6808 2EA0  
                                          l7392 343C                                            l9072 234A  
                                          l7288 2282                                            l7560 1164  
                                          l7552 10E8                                            l7544 10AE  
                                          l7536 1050                                            l7528 0FF0  
                                          l7368 2A44                                            l7384 32B2  
                                          l7704 0A80                                            l7632 0782  
                                          l7640 07AC                                            l7624 070C  
                                          l7616 06B6                                            l7608 065A  
                                          l9320 0DD4                                            l9312 0D56  
                                          l9304 0D18                                            l7800 2D0C  
                                          l9048 31A4                                            l9064 3158  
                                          l9240 0584                                            l9232 0514  
                                          l9224 04BC                                            l9216 0486  
                                          l9208 044E                                            l9160 029A  
                                          l9152 024E                                            l9144 01DC  
                                          l9136 0184                                            l9128 0160  
                                          l9400 13CA                                            l6818 369A  
                                          l6834 3690                                            l6842 366A  
                                          l6914 2F3A                                            l6658 35F0  
                                          l7394 3440                                            l7386 3420  
                                          l9090 23D2                                            l9082 23A0  
                                          l9074 2356                                            l6930 27F8  
                                          l6922 27B2                                            l7570 11A2  
                                          l7562 116E                                            l7554 10FA  
                                          l7546 10BC                                            l7538 1088  
                                          l7378 3284                                            l7706 0A86  
                                          l7650 083A                                            l7642 07BE  
                                          l7634 0784                                            l7626 0726  
                                          l7618 06C6                                            l9330 0E3E  
                                          l9322 0DE6                                            l9314 0D70  
                                          l9306 0D2C                                            l7810 2D60  
                                          l7802 2D3E                                            l9066 3174  
                                          l9058 3140                                            l9250 05D6  
                                          l9242 059C                                            l9234 054C  
                                          l9226 04CE                                            l9162 02B4  
                                          l9154 0260                                            l9170 02F8  
                                          l9146 01F6                                            l9138 019E  
                                          l9410 1482                                            l9402 13E4  
                                          l6828 3678                                            l6844 366E  
                                          l6596 1F1E                                            l6916 2F42  
                                          l7396 3442                                            l7388 3432  
                                          l9092 23FC                                            l9084 23A6  
                                          l9076 2370                                            l6924 27C4  
                                          l6940 2E9C                                            l7580 120C  
                                          l7572 11B4                                            l7564 117A  
                                          l7556 1112                                            l7548 10BE  
                                          l7708 0A9E                                            l7660 087C  
                                          l7652 0844                                            l7644 07D0  
                                          l7636 0792                                            l7628 075E  
                                          l9340 0ECA                                            l9332 0E76  
                                          l9324 0DF8                                            l9316 0D8A  
                                          l9308 0D3E                                            l9260 0B24  
                                          l7820 2DC0                                            l7812 2D72  
                                          l7804 2D40                                            l9252 05F0  
                                          l9244 05B2                                            l9236 055E  
                                          l9228 04E0                                            l9172 030A  
                                          l9180 0336                                            l9164 02CE  
                                          l9156 026E                                            l9148 022E  
                                          l9420 14D2                                            l9412 1490  
                                          l9404 13FE                                            l6790 1D0A  
                                          l6838 3656                                            l6598 1F34  
                                          l6918 2F68                                            l7398 3444  
                                          l9094 2402                                            l9086 23B0  
                                          l9078 238E                                            l6926 27D4  
                                          l6934 2E38                                            l6950 2690  
                                          l7590 1292                                            l7582 1244  
                                          l7574 11C6                                            l7558 112C  
                                          l7662 088E                                            l7654 0854  
                                          l7646 07E8                                            l7638 0794  
                                          l9350 0F1E                                            l9342 0EE0  
                                          l9334 0E88                                            l9326 0E0A  
                                          l9318 0DC2                                            l9270 0B90  
                                          l9262 0B3E                                            l9254 0AF2  
                                          l7814 2D7A                                            l7806 2D52  
                                          l9246 05B6                                            l9238 056E  
                                          l9190 0384                                            l9182 0338  
                                          l9174 0312                                            l9166 02E8  
                                          l9158 0280                                            l7830 2BD6  
                                          l9414 14AA                                            l9406 1436  
                       ??_Data_EEPROM_WriteByte 00DD                                            l6792 1D12  
                                          l9096 2410                                            l6928 27F4  
                                          l6936 2E4A                                            l6952 26A6  
                                          l6944 266E                                            l7592 12A8  
                                          l7584 1256                                            l7576 11D8  
                                          l7568 1190                                            l7680 0976  
                                          l7664 08A8                                            l7656 0866  
                                          l7672 08FA                                            l7648 0802  
                                          l9344 0EE4                                            l9336 0E9C  
                                          l9328 0E24                                            l9272 0BA2  
                                          l9280 0C28                                            l9264 0B58  
                                          l9256 0B04                                            l7816 2DAC  
                                          l9248 05BC                                            l9192 039E  
                                          l9184 0346                                            l9176 0320  
                                          l7832 2BF0                                            l7824 2B9C  
                                          l9440 158A                                            l9432 150C  
                                          l9424 14F0                                            l9416 14BA  
                                          l9408 144E                                            l6794 1D6A  
                                          l6786 1CD4                                            l6938 2E52  
                                          l6954 26BC                                            l6946 2674  
                                          l7594 12AC                                            l7586 1266  
                                          l7578 11F2                                            l6970 32DA  
                                          l7690 09E0                                            l7682 0988  
                                          l7674 0912                                            l7666 08C2  
                                          l7658 086E                                            l9338 0EB2  
                                          l9346 0EEA                                            l9290 0C62  
                                          l9282 0C3A                                            l9274 0BBE  
                                          l9266 0B66                                            l9258 0B12  
                                          l7818 2DAE                                            l9194 03B8  
                                          l9186 0358                                            l7834 2BFE  
                                          l7826 2BAA                                            l9450 15DA  
                                          l9442 159C                                            l9434 1526  
                                          l9426 1502                                            l9418 14CC  
                                          l9700 1DE6                                            l6788 1CEA  
                                          l6948 267A                                            l6956 26D2  
                                          l7588 127A                                            l7596 12B2  
                                          l6980 32EC                                            l6972 32E0  
                                          l7692 0A18                                            l7684 099A  
                                          l7676 092C                                            l7668 08DC  
                                          l9348 0F04                                            l9284 0C4C  
                                          l9292 0C7C                                            l9276 0BD6  
                                          l9268 0B80                                            l7780 34C0  
                                          l8900 2552                                            l9196 03D2  
                                          l9188 0372                                            l7828 2BBC  
                                          l9460 164A                                            l9452 15E4  
                                          l9444 15AE                                            l9436 1540  
                                          l9380 1322                                            l6990 2C12  
                                          l9702 2B7A                                            l6798 1DBC  
                                          l6958 270C                                            l7598 12CA  
                                          l6982 32EE                                            l6974 32E4  
                                          l6966 32D0                                            l7694 0A2A  
                                          l7686 09AC                                            l7678 0964  
                                          l9294 0C8E                                            l9286 0C4E  
                                          l9278 0BF0                                            l7782 34D2  
                                          l7790 34A0                                            l8910 258C  
                                          l8902 255A                                            l9198 03EC  
                                          l9446 15B6                                            l9454 160C  
                                          l9462 1658                                            l9438 1578  
                                          l9390 1370                                            l9382 1326  
                                          l6992 2C28                                            l9704 1EFC  
                                          l6984 32F0                                            l6976 32E8  
                                          l6968 32D0                                            l7696 0A3A  
                                          l7688 09C6                                            l9296 0CA0  
                                          l9288 0C60                                            l7784 34D6  
                                          l7792 34A4                                            l8920 25B2  
                                          l8912 258E                                            l8904 2568  
                                          l9456 1622                                            l9448 15D0  
                                          l9392 138A                                            l9384 1338  
                                          l9376 131E                                            l9706 2C60  
                                          l6986 32F4                                            l6978 32EA  
                                          l7698 0A4E                                            l9298 0CBA  
                                          l8914 2594                                            l8906 256E  
                                          l8930 25D8                                            l9458 163C  
                                          l9394 139A                                            l9386 134A  
                                          l9378 131E                                            l9708 2CD0  
                                          l6996 2C42                                            l6988 32F8  
                                          l7788 348E                                            l7796 2CF2  
                                          l8908 2584                                            l8916 259A  
                                          l8940 260C                                            l8932 25DC  
                                          l8924 25BC                                            l9396 13AC  
                                          l9388 1362                                            l6998 2C7E  
                                          l7798 2D04                                            l8918 25AA  
                                          l8950 2646                                            l8942 2614  
                                          l8934 25EA                                            l8926 25C2  
                                          l8880 24F6                                            l8944 2622  
                                          l8952 264C                                            l8936 25F2  
                                          l8928 25D0                                            l8960 242A  
                                          l8890 2524                                            l8882 24FC  
                                          l8954 265C                                            l8946 2638  
                                          l8938 2604                                            l8970 24AE  
                                          l8962 243E                                            l8892 252C  
                                          l8884 250A                                            l8956 2664  
                                          l8948 2640                                            l8964 2450  
                                          l8980 1980                                            l9694 26E6  
                                          l8894 2530                                            l8886 2512  
                                          l8974 3458                                            l8966 245A  
                                          l8990 19C8                                            l8982 198C  
                                          STR_1 FFF6                                            l9696 201A  
                                          l8896 2538                                            l8888 2516  
                                          l8976 3468                                            l8968 2478  
                                          l8992 19E6                                            l8984 1998  
                                          l9698 278E                                            l8898 254A  
                                          l8994 1A28                                            l8986 199C  
                                          l8978 195A                                            STR_4 FF15  
                                          STR_5 FFF4                                            l8996 1A2C  
                                          l8988 19AA                                            STR_6 FEFD  
                                          STR_7 FFFD                                            l8998 1A40  
                                          STR_8 FEFD                                            STR_9 FFFB  
                                          _LATA 0F89                                            _LATB 0F8A  
                                          _LATC 0F8B                                            _LATD 0F8C  
                                          _LATE 0F8D                                            u6000 366A  
                                          u6001 3666                                            u6120 2F1A  
                                          u6121 2F16                                            u6210 2C28  
                                          u6130 2F3A                                            u6211 2C24  
                                          u6131 2F36                                            u6220 2C98  
                                          u6300 3538                                            u6140 27C4  
                                          u6221 2C94                                            u6301 3534  
                                          u6141 27C0                                            u6205 3314  
                                          u6230 1E16                                            u6310 2726  
                                          u6150 27D4                                            u6206 3316  
                                          u7030 34D2                                            u6231 1E12  
                                          u6311 2722                                            u6151 27D0  
                                          u7031 34CE                                            u6240 1E38  
                                          u6320 2B36                                            u6160 27F4  
                                          u6400 2968                                            u7040 34A0  
                                          u6241 1E34                                            u6321 2B32  
                                          u6161 27F0                                            u7041 349C  
                                          u6250 1E58                                            u6410 2978  
                                          u7050 2D04                                            u6251 1E54  
                                          u6411 2974                                            u7051 2D00  
                                          u6260 1E78                                            u6500 22F4  
                                          u6180 2E4A                                            u6261 1E74  
                                          u6501 22F0                                            u6181 2E46  
                                          u6270 1E98                                            u6430 3618  
                                          u6350 215A                                            u6174 2840  
                                          u6510 232C                                            u6190 3308  
                                          u7070 2D72                                            u6271 1E94  
                                          u6431 3614                                            u6351 2156  
                                          u6175 283C                                            u6511 2328  
                                          u6407 295E                                            u6191 3304  
                                          u7071 2D6E                                            u6280 1EB8  
                                          u6440 2FDE                                            u6360 219A  
                                          u6600 3432                                            u6520 233E  
                                          u6281 1EB4                                            u6441 2FDA  
                                          u6361 2196                                            u6601 342E  
                                          u6521 233A                                            u7065 2D4E  
                                          u6290 1ED8                                            u6450 3004  
                                          u6530 2DE0                                            u6370 33B6  
                                          u6291 1ED4                                            u6451 3000  
                                          u6531 2DDC                                            u6371 33B2  
                                          u7067 2D52                                            u5660 1F34  
                                          u6460 3028                                            u6380 28FA  
                                          u6700 0FF0                                            u8300 25EA  
                                          u5661 1F30                                            u6461 3024  
                                          u6381 28F6                                            u6701 0FEC  
                                          u7085 2DBC                                            u8301 25E6  
                                          u5910 1CEA                                            u6550 2F7E  
                                          u5670 1F54                                            u6470 226E  
                                          u6390 2938                                            u6710 1002  
                                          u8230 250A                                            u8310 2604  
                                          u5911 1CE6                                            u6551 2F7A  
                                          u5671 1F50                                            u6471 226A  
                                          u6711 0FFE                                            u7087 2DC0  
                                          u8231 2506                                            u8311 2600  
                                          u9007 14DE                                            i2l80 30E0  
                                          u5920 1D0A                                            u6480 227E  
                                          u6800 11D8                                            u6720 101E  
                                          u6560 2A40                                            u8240 2524  
                                          u8320 2622                                            u8400 1980  
                                          u5921 1D06                                            u6545 2E2A  
                                          u6481 227A                                            u6801 11D4  
                                          u6721 101A                                            u6561 2A3C  
                                          u8241 2520                                            u8321 261E  
                                          u8401 197C                                            u9017 1532  
                                          u6490 22AC                                            u6810 1256  
                                          u6730 109A                                            u6570 2A6E  
                                          u8250 254A                                            u8330 2638  
                                          u8410 19C8                                            i2l75 3084  
                                          u6547 2E2E                                            u6491 22A8  
                                          u6811 1252                                            u6731 1096  
                                          u6571 2A6A                                            u8251 2546  
                                          u8331 2634                                            u8411 19C4  
                                          u9107 0096                                            u9027 1566  
                                          u5684 1F7A                                            u6740 10AC  
                                          u6580 2A92                                            u6900 0976  
                                          u6820 06C6                                            u8260 2568  
                                          u8340 265C                                            u8420 19E6  
                                          u8500 3228                                            u5685 1F76  
                                          u6397 292E                                            u6741 10A8  
                                          u6581 2A8E                                            u6901 0972  
                                          u6821 06C2                                            u8261 2564  
                                          u8341 2658                                            u8421 19E2  
                                          u8501 3224                                            u9117 0108  
                                          u9037 15C2                                            u5950 1DD2  
                                          u5934 1D30                                            u5694 1FD2  
                                          u6750 10E8                                            u6590 32CE  
                                          u6910 0988                                            u6830 06D8  
                                          u8510 341E                                            u8270 2584  
                                          u8350 243E                                            u8430 1A3C  
                                          u5951 1DCC                                            u5935 1D2C  
                                          u5695 1FCE                                            u6751 10E4  
                                          u6591 32CA                                            u6911 0984  
                                          u6831 06D4                                            u8511 341A  
                                          u8271 2580                                            u8351 243A  
                                          u8431 1A36                                            u9207 03C4  
                                          u9127 013C                                            u9047 15F0  
                                          u5960 1DD4                                            u5944 1D88  
                                          u6760 10FA                                            u6920 099A  
                                          u6840 06F4                                            u8280 25AA  
                                          u8360 2450                                            u8440 1A3E  
                                          u8520 3154                                            u8600 0160  
                                          u5945 1D84                                            u6761 10F6  
                                          u6921 0996                                            u6841 06F0  
                                          u8281 25A6                                            u8361 244C  
                                          u8521 3150                                            u9217 0412  
                                          u9137 01E8                                            u8601 015C  
                                          u9057 162E                                            u5970 2EB2  
                                          u8530 238E                                            u6770 11A2  
                                          u6930 09AC                                            u6850 0770  
                                          u8290 25D0                                            u8370 2478  
                                          u8450 1AA6                                            u8610 0172  
                                          u5971 2EAE                                            u8531 238A  
                                          u6771 119E                                            u6931 09A8  
                                          u6851 076C                                            u9307 0BE2  
                                          u8291 25CC                                            u8371 2474  
                                          u8451 1AA2                                            u9227 043A  
                                          u9147 021C                                            u8611 016E  
                                          u9067 2BB2                                            u5980 36AE  
                                          u8540 23CE                                            u6780 11B4  
                                          u6940 0A2A                                            u6860 0782  
                                          u8380 24AE                                            u8460 1AB6  
                                          u8700 04E0                                            u8620 01B0  
                                          u5981 36AA                                            u8541 23CA  
                                          u6781 11B0                                            u6941 0A26  
                                          u6861 077E                                            u9317 0C16  
                                          u8381 24AA                                            u8461 1AB2  
                                          u9237 0506                                            u8701 04DC  
                                          u9157 0276                                            u8621 01AC  
                                          u9077 2BE2                                            u5990 368C  
                                          u8550 23FC                                            u6790 11C6  
                                          u6870 07BE                                            u8390 3468  
                                          u8470 1AC6                                            u8710 055E  
                                          u8630 01C2                                            u5991 3688  
                                          u8551 23F8                                            u6791 11C2  
                                          u6871 07BA                                            u9407 0F44  
                                          u9327 0CC6                                            u8391 3464  
                                          u8471 1AC2                                            u8711 055A  
                                          u9247 053A                                            u9167 02A6  
                                          u8631 01BE                                            u9087 2C06  
                                          u8560 2428                                            u6880 07D0  
                                          u8800 0DD4                                            u8720 0B90  
                                          u8480 1AD6                                            u8640 0260  
                                          u8561 2424                                            u6881 07CC  
                                          u9417 0650                                            u8801 0DD0  
                                          u9337 0CFA                                            u8721 0B8C  
                                          u8481 1AD2                                            u9257 0590  
                                          u9177 02DA                                            u8641 025C  
                                          u9097 003E                                            u6890 0866  
                                          u8810 0DE6                                            u8730 0BA2  
                                          u8490 1B24                                            u8650 030A  
                                          u8570 00B4                                            u9507 091E  
                                          u6891 0862                                            u9427 06A8  
                                          u8811 0DE2                                            u9347 0D7C  
                                          u8731 0B9E                                            u8491 1B20  
                                          u9267 05E2                                            u9187 0328  
                                          u8651 0306                                            u8571 00B0  
                                          u8820 0DF8                                            u8740 0BBE  
                                          u8660 0486                                            u8580 00C6  
                                          u8900 14BA                                            u9517 0952  
                                          u9437 0718                                            u8821 0DF4  
                                          u9357 0DB0                                            u8741 0BBA  
                                          u9277 0616                                            u8661 0482  
                                          u9197 034E                                            u8581 00C2  
                                          u8901 14B6                                            u8830 0E0A  
                                          u8750 0C3A                                            u8670 04AA  
                                          u8590 00E2                                            u8910 14CC  
                                          u9607 1076                                            u9527 09D2  
                                          u9447 074C                                            u9367 0E30  
                                          u8831 0E06                                            u8751 0C36  
                                          u9287 0B1A                                            u8671 04A6  
                                          u8591 00DE                                            u8911 14C8  
                                          u8840 0E88                                            u8760 0C4C  
                                          u8680 04BC                                            u8920 1502  
                                          u9617 111E                                            u9537 0A06  
                                          u9457 07F4                                            u8841 0E84  
                                          u9377 0E64                                            u8761 0C48  
                                          u9297 0B72                                            u8681 04B8  
                                          u8921 14FE                                            u8770 0C8E  
                                          u8690 04CE                                            u8930 158A  
                                          u9707 21A2                                            u9627 1152  
                                          u9547 0A5A                                            u9467 0828  
                                          u9387 0EBE                                            u8771 0C8A  
                                          u8691 04CA                                            u8931 1586  
                                          u8780 0CA0                                            u8940 15AE  
                                          u9717 21C2                                            u9637 1182  
                                          u9557 0AAA                                            u9477 0884  
                                          u9397 0F10                                            u8781 0C9C  
                                          u8941 15AA                                            u8790 0D3E  
                                          u8870 134A                                            u9727 21DC  
                                          u9647 11FE                                            u9567 0ADE  
                                          u9487 08B4                                            u8791 0D3A  
                                          u8871 1346                                            u8880 139A  
                                          u9737 35EA                                            u9657 1232  
                                          u9577 0F7A                                            u9497 08E8  
                                          u8881 1396                                            u8890 13AC  
                                          u9667 1286                                            u9587 0FD2  
                                          u8891 13A8                                            u9677 12D6  
                                          u9597 1042                                            u8957 137C  
                                          u9687 130A                                            u8967 13B8  
                                          u9697 22C2                                            u8977 13F0  
                                          u8987 1424                                            u8997 149C  
                            ?_ecu_dc_motor_stop 00E2                                            abs@a 00E0  
                                          _lcd1 004D                                            _btn1 009E  
                                          _dbuf 0121                  gpio_pin_read_logic@_pin_config 00DA  
                                          _main 131E                        __end_of_ecu_led_turn_off 2DCE  
                     lcd_4bit_set_curser@column 00EA                                            _prec 00B1  
                                          fsr0h 0FEA                                            fsr1h 0FE2  
                                          indf0 0FEF                                            fsr2h 0FDA  
                                          fsr0l 0FE9                                            indf1 0FE7  
                                          indf2 0FDF                                            fsr1l 0FE1  
                                          fsr2l 0FD9                                            btemp 0058  
        INTERRUPT_SET_INTERRUPT_HANDLER@int_obj 00DC               lcd_4bit_send_char_data_pos@column 00F0  
                                   _user_statue 00D8                                            prodh 0FF4  
                                          prodl 0FF3                                            start 000E  
                         _INTERRUPT_INTx_enable 2B20                             ??_ecu_dc_motor_stop 00E3  
                    ecu_keypad_get_value@keypad 00E2                       lcd_send_4bit@command_data 00E3  
                                  ___param_bank 0000                                  ??_get_password 00F4  
                         _lcd_4bit_send_command 2EA0                                           ??_abs 00E2  
                          _gpio_pin_write_logic 1F1E                i2lcd_4bit_send_string_pos@column 0017  
                lcd_4bit_send_string_pos@column 00F0                                __end_of_INT0_ISR 35DA  
                              __end_of_INT1_ISR 35AC                                __end_of_INT2_ISR 357E  
         check_entered_password@stored_pass_obj 00DE                  change_password@enterd_pass_obj 00FC  
                                 ?_INT0_app_ISR 0001                                           ?_main 0001  
                               __end_of___awdiv 25BC                                           _EEADR 0FA9  
                                         STR_10 FFEB                                           STR_11 FF07  
                                         STR_20 FEE9                                           STR_12 FFF9  
                                         STR_13 FF40                                           STR_21 FEFF  
                                         STR_30 FEE9                                           STR_22 FFF9  
                                         STR_14 FEE9                                           STR_31 FF40  
                                         STR_23 FF40                                           STR_15 FFCF  
                                         STR_40 FEE9                                           STR_32 FEE9  
                                         STR_24 FEE9                                           STR_16 FEE9  
                                         STR_17 FF40                                           STR_25 FFCF  
                                         STR_33 FFDD                                           STR_41 FF9F  
                                         STR_50 FEE9                                           STR_42 FEE9  
                                         STR_34 FEE9                                           STR_26 FEE9  
                                         STR_18 FEE9                                           STR_43 FFB0  
                                         STR_19 FFDD                                           STR_27 FFC0  
                                         STR_51 FF8E                                           STR_35 FF2B  
                                         STR_60 FEE9                                           STR_28 FEE9  
                                         STR_52 FFF9                                           STR_36 FFF9  
                                         STR_44 FFF3                                 __end_of___awmod 266E  
                                         STR_45 FEE9                                           STR_53 FF40  
                                         STR_37 FF40                                           STR_61 FFDD  
                                         STR_29 FFB0                                           STR_46 FEFB  
                                         STR_62 FEE9                                           STR_54 FEE9  
                                         STR_38 FEE9                                           STR_47 FF40  
                                         STR_55 FFCF                                           STR_39 FFCF  
                                         STR_63 FF55                                           STR_56 FEE9  
                                         STR_48 FEE9                                           STR_64 FF40  
                                         STR_65 FEE9                                           STR_57 FFB0  
                                         STR_49 FFDD                                           STR_58 FEE9  
                                         STR_66 FF7C                                           STR_59 FF40  
                                         STR_67 FF69                                           STR_68 FF40  
                                         STR_69 FEE9                                 ___awdiv@divisor 00DC  
                        _INT0_INTERRUPT_HANDLER 003E                                           i2l101 2B1E  
                                         i2l201 28E6                                           i2l350 1CD2  
                                         i2l175 3282                                           i2l178 3654  
                                         i2l560 33A2                                           i2l632 2142  
                                         i2l557 3388                                           i2l559 3396  
                                         i2l761 35AA                                           i2l809 36D4  
                                         i2l757 35D8                                           i2l765 357C  
                                         i2l776 3722                                           i2l787 3708  
                               ___awdiv@counter 00DE                                           i2l798 36EE  
                                         i2l993 16C6                                           i2l995 16E6  
                                         i2l997 1706                                           i2l999 174A  
                                  vfpfcnvrt@fmt 00E6                                           _PORTA 0F80  
                                         _PORTB 0F81                                           _PORTC 0F82  
                                         _PORTD 0F83                                           _PORTE 0F84  
                                         _TRISA 0F92                                           _TRISB 0F93  
                                         _TRISC 0F94                                           _TRISD 0F95  
                                         _TRISE 0F96                          ?_ecu_keypad_initialize 00E5  
i2Data_EEPROM_WriteByte@GLOBAL_INTERRUPT_STATUS 0004    Data_EEPROM_WriteByte@GLOBAL_INTERRUPT_STATUS 00DD  
                     __end_of_ecu_dc_motor_stop 34C0                                           _flags 0040  
                               _stored_pass_obj 00B4                                           _fputc 242A  
                        ?_password_confirmation 00F3                                           _width 00AF  
                                         _putch 374A                                 _change_password 0AF2  
            __end_of_INT2_SET_INTERRUPT_HANDLER 3678                      _INT2_SET_INTERRUPT_HANDLER 3656  
                        ecu_led_turn_on@led_pin 00E4                                           pclath 0FFA  
                                         pclatu 0FFB              __end_of_Application_Initialization 374A  
                    _Application_Initialization 3744                                           tablat 0FF5  
                             ??i2_lcd_send_4bit 000B                        INTERRUPT_INTx_enable@ret 00DD  
                                         ttemp5 0059                                           ttemp6 005C  
                                         ttemp7 0060                                           status 0FD8  
                                         wtemp8 0059                                 __end_of_sprintf 31E4  
                  __end_of_Data_EEPROM_ReadByte 3458                          _INTERRUPT_INTx_disable 2C12  
                   ecu_keypad_get_value@columns 00E9                  ?_gpio_pin_direction_initialize 00DA  
                               ??_lcd_send_4bit 00E4                                 __initialization 297A  
                        _INTERRUPT_INTx_pin_int 3522                                    __end_of_main 1674  
                        _check_entered_password 2340                       i2gpio_pin_write_logic@ret 0008  
                         ?_gpio_pin_write_logic 00DA                              _ecu_led_initialize 2DCE  
                          save_password@counter 00DF                     i2gpio_pin_write_logic@logic 0002  
                                ??_INT0_app_ISR 001A                        gpio_pin_read_logic@logic 00DB  
                                 _lat_registers 008A                                          ??_main 011F  
                                 __activetblptr 0003                                       ??_RB4_ISR 0001  
                                     ??_RB5_ISR 0001                                       ??_RB6_ISR 0001  
                                     ??_RB7_ISR 0001                             ?_ecu_led_initialize 00E5  
                              ?_ecu_led_turn_on 00E2                                          ?_fputc 00DA  
                                        _EEADRH 0FAA                                          _EEDATA 0FA8  
                                        _EECON2 0FA7                                ___awdiv@dividend 00DA  
                                        ?_putch 0001                     ecu_keypad_initialize@keypad 00E5  
                                        i2l1001 178E                                          i2l1011 18E2  
                                        i2l1003 17D2                                          i2l1005 1816  
                                        i2l1014 1926                                          i2l1007 185A  
                                        i2l1009 189E                           __end_of_save_password 32D0  
                                        i2l3430 3722                                          i2l3422 370C  
                                        i2l3424 370E                                          i2l5050 3360  
                                        i2l3450 36D8                                          i2l5060 3378  
                                        i2l5052 3368                                          i2l3444 3708  
                                        i2l3436 36F2                                          i2l3452 36DA  
                                        i2l5070 3386                                          i2l5062 337A  
                                        i2l5054 336E                                          i2l3438 36F4  
                                        i2l5064 337C                                          i2l5056 3372  
                                        i2l5048 3360                                          i2l3472 36D4  
                                        i2l3464 36BE                                          i2l5066 337E  
                                        i2l5058 3376                                          i2l3458 36EE  
                                        i2l3466 36C0                                          i2l5068 3382  
                                        i2l7130 309E                                          i2l7132 30DE  
                                        i2l7140 285A                                          i2l8100 3550  
                                        i2l7126 3086                                          i2l7142 286E  
                                        i2l7150 28E4                                          i2l8102 3552  
                                        i2l7128 3096                                          i2l7144 2882  
                                        i2l7136 2850                                          i2l8104 3564  
                                        i2l7146 2896                                          i2l7138 2854  
                                        i2l7410 2AA4                                          i2l6620 2048  
                                        i2l7148 28AA                                          i2l7412 2AA8  
                                        i2l7500 1C5C                                          i2l6630 2116  
                                        i2l6622 2068                                          i2l7414 2ABC  
                                        i2l7502 1C74                                          i2l6624 2070  
                                        i2l6632 2140                                          i2l7416 2AE8  
                                        i2l7408 2A94                                          i2l7504 1C8A  
                                        i2l6626 20C6                                          i2l6618 2034  
                                        i2l7418 2AEC                                          i2l7506 1CA2  
                                        i2l8090 35AE                                          i2l6900 302A  
                                        i2l7508 1CC4                                          i2l8092 35C0  
                                        i2l8500 1788                                          i2l6902 303A  
                                        i2l7470 1B64                                          i2l8094 357E  
                                        i2l8510 17CC                                          i2l8502 179C  
                                        i2l6904 3042                                          i2l7480 1B84  
                                        i2l8088 35AC                                          i2l8096 3580  
                                        i2l8520 1810                                          i2l8512 17E0  
                                        i2l8504 17AA                                          i2l6770 326A  
                                        i2l6762 3234                                          i2l6906 3082  
                                        i2l7490 1BEA                                          i2l7482 1BA0  
                                        i2l8098 3592                                          i2l8530 1854  
                                        i2l8522 1824                                          i2l8514 17EE  
                                        i2l8506 17B8                                          i2l6780 3644  
                                        i2l6764 3234                                          i2l7492 1C00  
                                        i2l7484 1BAC                                          i2l7476 1B6C  
                                        i2l8540 1898                                          i2l8532 1868  
                                        i2l8524 1832                                          i2l8516 17FC  
                                        i2l8508 17C8                                          i2l6782 3652  
                                        i2l6774 3630                                          i2l6766 3244  
                                        i2l7494 1C18                                          i2l7486 1BBA  
                                        i2l7478 1B80                                          i2l8550 18DC  
                                        i2l8542 18AC                                          i2l8534 1876  
                                        i2l8526 1840                                          i2l8518 180C  
                                        i2l8470 16B4                                          i2l6776 3630  
                                        i2l6768 3256                                          i2l7496 1C2E  
                                        i2l7488 1BD2                                          i2l8560 1920  
                                        i2l8552 18F0                                          i2l8544 18BA  
                                        i2l8536 1884                                          i2l8528 1850  
                                        i2l8480 1702                                          i2l8472 16C2  
                                        i2l6778 363C                                          i2l7498 1C46  
                                        i2l8554 18FE                                          i2l8546 18C8  
                                        i2l8538 1894                                          i2l8490 1744  
                                        i2l8482 1714                                          i2l8474 16D4  
                                        i2l8556 190C                                          i2l8548 18D8  
                                        i2l8492 1758                                          i2l8484 1722  
                                        i2l8476 16E2                                          i2l8468 16A6  
                                        i2l9710 28BE                                          i2l8558 191C  
                                        i2l8494 1766                                          i2l8486 1730  
                                        i2l8478 16F4                                          i2l9712 212A  
                                        i2l8496 1774                                          i2l8488 1740  
                                        i2l8498 1784                      _RB6_INTERRUPT_HANDLER_HIGH 0030  
                                 vfpfcnvrt@done 00EB                            get_password@pass_obj 00F3  
                        ?_INTERRUPT_INTx_enable 00DA                INTERRUPT_INTx_clear_flag@int_obj 00DA  
              __end_of_lcd_4bit_send_string_pos 297A                            ??_ecu_led_initialize 00E6  
                            ecu_led_turn_on@led 00E2                        i2lcd_4bit_set_curser@lcd 000F  
                      i2lcd_4bit_set_curser@ret 0014                        i2lcd_4bit_set_curser@row 0010  
                  INTERRUPT_INTx_enable@int_obj 00DA                          ?_lcd_4bit_send_command 00E5  
                                  vfprintf@cfmt 00F9                      ?_INTERRUPT_INTx_clear_flag 00DA  
                                     ??___awdiv 00DE                                       ??___awmod 00DE  
         password_confirmation@comparing_result 00F8                                          _keypad 00A1  
                                        _memset 33E6              comparing_password@confirm_pass_obj 00DB  
                                        _buzzer 0055                                          clear_0 29E0  
                                        clear_1 29EC                                          clear_2 29F8  
                              ___awdiv@quotient 00E0                                 ___awmod@divisor 00DC  
                                        _motor1 0053                                          isa$std 0001  
                              lcd_send_4bit@lcd 00E2                                 ___awmod@counter 00DE  
                              lcd_send_4bit@ret 00E4                                          fputc@c 00DA  
                                  __pdataCOMRAM 0049                         __end_of_change_password 0F58  
                                  __mediumconst FEE8                                          tblptrh 0FF7  
                                        tblptrl 0FF6                                          tblptru 0FF8  
                       ecu_led_turn_off@led_pin 00E4                                          putch@c 0001  
                              __end_of_vfprintf 3234                            __end_of_get_password 131E  
                     ecu_keypad_get_value@value 00E3                                       ??_sprintf 00FB  
                       _INTERRUPT_INTx_edge_int 1E00                    ??_INT0_SET_INTERRUPT_HANDLER 00DC  
                                  ?_welcome_msg 0001                                      __accesstop 0080  
                       __end_of__initialization 29FE                        ??_convert_byte_to_string 00FD  
                                     ?_INT0_ISR 0001                                       ?_INT1_ISR 0001  
                                     ?_INT2_ISR 0001                   password_confirmation@pass_obj 00F3  
                     _RB5_INTERRUPT_HANDLER_LOW 0032                                   ___rparam_used 0001  
                  entering_password@lcd_counter 011D                              ecu_relay_off@F3063 0041  
                    ?i2_lcd_4bit_send_char_data 000C                         _lcd_4bit_send_char_data 2E38  
                       i2_lcd_4bit_send_command 302A                          _ecu_dc_motor_move_left 34C0  
                        ??_gpio_pin_write_logic 00DC                                  __pcstackCOMRAM 0001  
                                  __pidataBANK0 34F2                                    __pidataBANK1 3724  
                      _ecu_layer_Initialization 3318               __end_of_INTERRUPT_INTx_clear_flag 2CF2  
                                 __end_of_fputc 24F6                                   __end_of_putch 374C  
                      lcd_4bit_send_command@lcd 00E5                               RB5_ISR@RB5_source 0001  
                      lcd_4bit_send_command@ret 00E7                    ??i2_lcd_4bit_send_string_pos 001A  
                    comparing_password@pass_obj 00DA                    __end_of_ecu_keypad_get_value 2340  
      gpio_pin_direction_initialize@_pin_config 00DA                            _Data_EEPROM_ReadByte 3420  
                         save_password@pass_obj 00DE                    ?_lcd_4bit_send_char_data_pos 00EE  
                   __end_of_Interrupt_INTx_Init 2FCC                                         ??_fputc 00DE  
                                       ??_putch 00DA                                      __pbssBANK0 00AF  
                                    __pbssBANK1 0121                   __end_of_Data_EEPROM_WriteByte 3318  
                          __end_of_INT0_app_ISR 1CD4                                      ??_INT0_ISR 001E  
                                    ??_INT1_ISR 001E                                      ??_INT2_ISR 001E  
                             ?_ecu_led_turn_off 00E2                    password_confirmation@counter 00F9  
                            ??_ecu_led_turn_off 00E3                           i2_lcd_4bit_set_curser 2850  
             __end_ofi2_lcd_4bit_send_char_data 30E2                         get_password@lcd_counter 00F6  
                                       ?_memset 00DA                         ??_ecu_keypad_initialize 00E6  
                  ecu_keypad_initialize@columns 00E7                                         _RB4_ISR 370A  
                                       _RB5_ISR 36F0                           ?_Data_EEPROM_ReadByte 00DA  
                               i2_lcd_send_4bit 3234                                         _RB6_ISR 36D6  
                                       _RB7_ISR 36BC                       ?_lcd_4bit_send_string_pos 00EE  
                              ?_change_password 00FA                         ??_password_confirmation 00F5  
                     ??_INTERRUPT_INTx_edge_int 00DB                                   _keypad_values 0141  
                      ?i2_Data_EEPROM_WriteByte 0001                                         _INT_obj 00A9  
                             RB7_ISR@RB7_source 0001                entering_password@stored_pass_obj 0115  
                   ?_INT2_SET_INTERRUPT_HANDLER 00DA                         ?_INTERRUPT_INTx_disable 00DA  
                      comparing_password@result 00DC                     ?_Application_Initialization 0001  
                                _tris_registers 0094                       ??_lcd_4bit_send_char_data 00E7  
                           ecu_led_turn_off@led 00E2                       ??i2_lcd_4bit_send_command 000E  
                 i2lcd_4bit_send_string_pos@lcd 0015                   i2lcd_4bit_send_string_pos@row 0016  
                 i2lcd_4bit_send_string_pos@str 0018                         ?_INTERRUPT_INTx_pin_int 00E1  
                       ?_check_entered_password 00DD                                         __Hparam 0000  
                                       __Lparam 0000                             _gpio_pin_initialize 2F08  
                           _gpio_pin_read_logic 27B2                                         ___awdiv 24F6  
                                       ___awmod 25BC                                       ?_vfprintf 00F3  
                                       __pcinit 297A                        ??_INTERRUPT_MANAGER_HIGH 001E  
                      entering_password@counter 011E         __end_of_INTERRUPT_SET_INTERRUPT_HANDLER 27B2  
             ??_INTERRUPT_SET_INTERRUPT_HANDLER 00DD                ?_INTERRUPT_SET_INTERRUPT_HANDLER 00DC  
               _INTERRUPT_SET_INTERRUPT_HANDLER 2710                                         __ramtop 1000  
                                       __ptext0 131E                                         __ptext1 2B9C  
                                       __ptext2 0012                                         __ptext3 313C  
                                       __ptext4 3192                                         __ptext5 31E4  
                                       __ptext6 195A                                         __ptext7 242A  
                                       __ptext8 374A                                         __ptext9 3458  
                  i2lcd_4bit_send_char_data@lcd 000C                    i2lcd_4bit_send_char_data@ret 000E  
                        _INT1_INTERRUPT_HANDLER 003C                 ??_gpio_pin_direction_initialize 00DB  
                                       _red_led 0057                     i2Data_EEPROM_WriteByte@badd 0001  
                              ___awmod@dividend 00DA                                      _pass_check 00D9  
                          ?_gpio_pin_initialize 00E2                            ?_gpio_pin_read_logic 00DA  
                      ??i2_gpio_pin_write_logic 0003              __end_of_INT0_SET_INTERRUPT_HANDLER 36BC  
                    _INT0_SET_INTERRUPT_HANDLER 369A                                         _sprintf 3192  
                __end_of_INTERRUPT_INTx_disable 2C82                                  __pintcode_body 1674  
                          end_of_initialization 29FE                          change_password@counter 0102  
                       ??_INTERRUPT_INTx_enable 00DB                  ecu_dc_motor_move_left@dc_motor 00E2  
                                       fputc@fp 00DC                                         memset@c 00DC  
                                       memset@n 00DE                                         memset@p 00E0  
                __end_of_INTERRUPT_INTx_pin_int 3550                                         int_func 1674  
                __end_of_check_entered_password 242A                         ??_lcd_4bit_send_command 00E7  
                         ecu_led_initialize@led 00E5                          ?i2_lcd_4bit_set_curser 000F  
                          _ecu_keypad_get_value 2244                               __end_of_vfpfcnvrt 1B64  
                         __end_of_lcd_send_4bit 313C                                         postdec1 0FE5  
                                       postdec2 0FDD                                         postinc0 0FEE  
                                       postinc1 0FE6                                         postinc2 0FDE  
                   ??_INTERRUPT_INTx_clear_flag 00DB                                vfpfcnvrt@convarg 00EE  
                                  _get_password 0F58                                      ??_vfprintf 00F9  
                       __end_ofi2_lcd_send_4bit 3284              __end_ofi2_lcd_4bit_send_string_pos 2B20  
                    i2_lcd_4bit_send_string_pos 2A94                             _lcd_4bit_initialize 2144  
                                 INT0_app_ISR@i 001C                 __end_ofi2_Data_EEPROM_WriteByte 33A4  
               __end_of_lcd_4bit_send_char_data 2EA0                                       _PORTBbits 0F81  
                        _convert_byte_to_string 313C                         _ecu_dc_motor_initialize 3606  
                        ??_Data_EEPROM_ReadByte 00DD                password_confirmation@lcd_counter 00F7  
               ecu_dc_motor_initialize@dc_motor 00E5               entering_password@comparing_result 011C  
                    lcd_4bit_send_char_data@lcd 00E5                      lcd_4bit_send_char_data@ret 00E7  
                         ??_gpio_pin_initialize 00E3                           ??_gpio_pin_read_logic 00DC  
                     ecu_dc_motor_stop@dc_motor 00E2                      _RB5_INTERRUPT_HANDLER_HIGH 0034  
               lcd_4bit_send_char_data_pos@data 00F1                            ?_lcd_4bit_initialize 00E8  
                   i2lcd_4bit_set_curser@column 0011                      ??_ecu_layer_Initialization 00EC  
                       ?_ecu_dc_motor_move_left 00E2                           ?_ecu_keypad_get_value 00E2  
                          entering_password@str 0117                     i2lcd_send_4bit@command_data 000A  
                    __end_of_comparing_password 2A94                     ??i2_lcd_4bit_send_char_data 000E  
                           _lcd_4bit_set_curser 266E                           ecu_led_turn_off@F3069 0045  
                   lcd_4bit_send_string_pos@lcd 00EE                     lcd_4bit_send_string_pos@row 00EF  
                   lcd_4bit_send_string_pos@str 00F1                          Interrupt_INTx_Init@ret 00E4  
                    INTERRUPT_INTx_edge_int@ret 00DD                                     vfpfcnvrt@ap 00E7  
                                   vfpfcnvrt@cp 00EC                                     vfpfcnvrt@fp 00E4  
                                 __pidataCOMRAM 3734                                  __end_of_memset 3420  
                                  _INT0_app_ISR 1B64                    ?_lcd_4bit_send_enable_enable 00E2  
                           start_initialization 297A             comparing_password@comparing_counter 00E0  
                          ?_lcd_4bit_set_curser 00E8                              i2lcd_send_4bit@lcd 0009  
                            i2lcd_send_4bit@ret 000B                                     __end_of_abs 348E  
                change_password@stored_pass_obj 00FB                       _INTERRUPT_INTx_clear_flag 2C82  
         __end_of_gpio_pin_direction_initialize 1E00                   _gpio_pin_direction_initialize 1CD4  
                entering_password@wrong_counter 011B                           ??_lcd_4bit_initialize 00E9  
                  ??_INT1_SET_INTERRUPT_HANDLER 00DC                  __end_of_ecu_dc_motor_move_left 34F2  
                 INTERRUPT_INTx_disable@int_obj 00DA                             get_password@counter 00F7  
                      Data_EEPROM_ReadByte@badd 00DA                    entering_password@user_statue 0116  
                     _RB6_INTERRUPT_HANDLER_LOW 002E           check_entered_password@enterd_pass_obj 00DD  
                                   vfprintf@fmt 00F5                 change_password@confirm_pass_obj 00FD  
                     ??_ecu_dc_motor_initialize 00E6                                     __pdataBANK0 0080  
                                   __pdataBANK1 0141                       convert_byte_to_string@str 00FB  
                              ?i2_lcd_send_4bit 0009                                        ??_memset 00E0  
                                    memset@dest 00DA                    lcd_4bit_send_command@command 00E6  
                             ecu_relay_on@F3058 0042                                 _enterd_pass_obj 00BD  
                   convert_byte_to_string@value 00FD                   __end_of_ecu_keypad_initialize 302A  
                                      ?_RB4_ISR 0001                                        ?_RB5_ISR 0001  
                                      ?_RB6_ISR 0001                                        ?_RB7_ISR 0001  
                 INTERRUPT_INTx_pin_int@int_obj 00E1                           ??_lcd_4bit_set_curser 00EB  
                                   __pbssCOMRAM 002A                       i2_lcd_4bit_send_char_data 3086  
                                 _selected_mode 00B3                                   __pcstackBANK0 00DA  
                                 __pcstackBANK1 0100                   __end_of_password_confirmation 0AF2  
                INTERRUPT_INTx_edge_int@int_obj 00DA                          _INTERRUPT_MANAGER_HIGH 0008  
                                 _save_password 3284                          ??_ecu_keypad_get_value 00E4  
                         _Data_EEPROM_WriteByte 32D0                               ??_ecu_led_turn_on 00E3  
                                     __pintcode 0008                                   __pmediumconst FEE8  
                        i2_gpio_pin_write_logic 2034               i2gpio_pin_write_logic@_pin_config 0001  
               gpio_pin_write_logic@_pin_config 00DA                                        ?___awdiv 00DA  
                                      ?___awmod 00DA                                _confirm_pass_obj 00C6  
                     gpio_pin_write_logic@logic 00DB                                    _keypad_value 0048  
                                     _green_led 0056                                        ?_sprintf 0100  
                   ?_INT0_SET_INTERRUPT_HANDLER 00DA                 __end_of_ecu_dc_motor_initialize 3630  
                                ?_save_password 00DE                         ??i2_lcd_4bit_set_curser 0012  
              __end_of_ecu_layer_Initialization 3360                                        _INT0_ISR 35AC  
                                      _INT1_ISR 357E                                        _INT2_ISR 3550  
                 __end_of_INTERRUPT_INTx_enable 2B9C                      lcd_4bit_initialize@counter 00EA  
                                      _RB4_flag 004C                 ??i2_lcd_4bit_send_enable_enable 000A  
                                      _RB5_flag 004B                                        _RB6_flag 004A  
                                      _RB7_flag 0049                       ecu_relay_initialize@F3053 0043  
                 __end_of_lcd_4bit_send_command 2F08                                        i2u180_40 371E  
                                      i2u180_41 371A                                        i2u181_40 3704  
                                      i2u181_41 3700                                        i2u182_40 36EA  
                                      i2u182_41 36E6                                        i2u183_40 36D0  
                                      i2u183_41 36CC                                        i2u611_40 303A  
                                      i2u611_41 3036                                        i2u390_40 3396  
                                      i2u390_41 3392                                        i2u391_45 33A0  
                                      i2u391_46 33A2                                        i2u800_40 1832  
                                      i2u800_41 182E                                        i2u801_40 1840  
                                      i2u801_41 183C                                        i2u570_40 2048  
                                      i2u634_40 3096                                        i2u810_40 18D8  
                                      i2u802_40 1850                                        i2u570_41 2044  
                                      i2u634_41 3092                                        i2u810_41 18D4  
                                      i2u802_41 184C                                        i2u571_40 2068  
                                      i2u811_40 18F0                                        i2u803_40 1868  
                                      i2u571_41 2064                                        i2u811_41 18EC  
                                      i2u803_41 1864                                        i2u812_40 18FE  
                                      i2u804_40 1876                                        i2u812_41 18FA  
                                      i2u804_41 1872                                        i2u572_44 208E  
                                      i2u572_45 208A                                        i2u661_40 2AA4  
                                      i2u740_48 3598                                        i2u741_40 3564  
                                      i2u813_40 190C                                        i2u805_40 1884  
                                      i2u661_41 2AA0                                        i2u740_49 35AA  
                                      i2u741_41 3560                                        i2u813_41 1908  
                                      i2u805_41 1880                                        i2u573_44 20E4  
                                      i2u573_45 20E0                                        i2u662_40 2AE2  
                                      i2u814_40 191C                                        i2u806_40 1894  
                                      i2u814_41 1918                                        i2u806_41 1890  
                                      i2u662_47 2AD8                                        i2u663_40 2B0E  
                                      i2u742_48 356A                                        i2u807_40 18AC  
                                      i2u742_49 357C                                        i2u807_41 18A8  
                                      i2u663_47 2B04                                        i2u664_40 2B1E  
                                      i2u808_40 18BA                                        i2u664_41 2B1A  
                                      i2u808_41 18B6                                        i2u737_40 35C0  
                                      i2u809_40 18C8                                        i2u737_41 35BC  
                                      i2u809_41 18C4                                        i2u738_48 35C6  
                                      i2u739_40 3592                                        i2u738_49 35D8  
                                      i2u739_41 358E                                        i2u780_40 16E2  
                                      i2u780_41 16DE                                        i2u669_40 1BA0  
                                      i2u781_40 16F4                                        i2u669_41 1B9C  
                                      i2u781_41 16F0          ecu_keypad_get_value@clear_rows_counter 00E7  
                                      i2u790_40 1784                                        i2u782_40 1702  
                                      i2u790_41 1780                                        i2u782_41 16FE  
                                      i2u791_40 179C                                        i2u783_40 1714  
                                      i2u791_41 1798                                        i2u783_41 1710  
                                      i2u792_40 17AA                                        i2u784_40 1722  
                                      i2u792_41 17A6                                        i2u784_41 171E  
                                      i2u793_40 17B8                                        i2u785_40 1730  
                                      i2u777_40 16B4                                        i2u793_41 17B4  
                                      i2u785_41 172C                                        i2u777_41 16B0  
                                      i2u794_40 17C8                                        i2u786_40 1740  
                                      i2u778_40 16C2                                        i2u794_41 17C4  
                                      i2u786_41 173C                                        i2u778_41 16BE  
                                      i2u795_40 17E0                                        i2u787_40 1758  
                                      i2u779_40 16D4                                        i2u795_41 17DC  
                                      i2u787_41 1754                                        i2u779_41 16D0  
                                      i2u796_40 17EE                                        i2u788_40 1766  
                                      i2u796_41 17EA                                        i2u788_41 1762  
                                      i2u980_47 1CCA                                        i2u797_40 17FC  
                                      i2u789_40 1774                                        i2u797_41 17F8  
                                      i2u789_41 1770                                        i2u981_47 363E  
                                      i2u798_40 180C                                        i2u798_41 1808  
                                      i2u974_47 1BB2                                        i2u799_40 1824  
                                      i2u799_41 1820                                        i2u975_47 1BF4  
                                      i2u976_47 1C22                                        i2u977_47 1C50  
                                      i2u978_47 1C7E                                        i2u979_47 1CAC  
              gpio_pin_direction_initialize@ret 00E0                               RB4_ISR@RB4_source 0001  
                       ?_convert_byte_to_string 00FB                                       _vfpfcnvrt 195A  
                   ?i2_lcd_4bit_send_string_pos 0015                        _lcd_4bit_send_string_pos 28E8  
                     ecu_keypad_initialize@rows 00E6                        ?_INTERRUPT_INTx_edge_int 00DA  
                          ecu_led_turn_on@F3064 0046                          _INT2_INTERRUPT_HANDLER 003A  
                lcd_4bit_send_char_data_pos@lcd 00EE                  lcd_4bit_send_char_data_pos@ret 00F2  
                lcd_4bit_send_char_data_pos@row 00EF                       Data_EEPROM_ReadByte@bData 00DC  
                        gpio_pin_initialize@ret 00E4             __end_of_lcd_4bit_send_char_data_pos 33E6  
                   _lcd_4bit_send_char_data_pos 33A4                                      vfpfcnvrt@c 00F2  
                       gpio_pin_write_logic@ret 00E1                                     _INTCON2bits 0FF1  
                                   _INTCON3bits 0FF0              __end_of_INT1_SET_INTERRUPT_HANDLER 369A  
                    _INT1_SET_INTERRUPT_HANDLER 3678                        ?_lcd_4bit_send_char_data 00E5  
                                     copy_data0 298E                                       copy_data1 29AE  
                                     copy_data2 29CE                        ?i2_lcd_4bit_send_command 000C  
                                 ??_welcome_msg 00F3                  ecu_keypad_get_value@column_val 00E6  
            INTERRUPT_SET_INTERRUPT_HANDLER@ret 00DF                          ?_Data_EEPROM_WriteByte 00DA  
                 ??_lcd_4bit_send_char_data_pos 00F2                                      _EECON1bits 0FA6  
                                      __Hrparam 0000                i2lcd_4bit_send_enable_enable@lcd 0009  
                lcd_4bit_send_enable_enable@lcd 00E2                i2lcd_4bit_send_enable_enable@ret 000A  
                lcd_4bit_send_enable_enable@ret 00E3                                      vfprintf@ap 00F7  
                                      __Lrparam 0000                                      vfprintf@fp 00F3  
                __end_of_convert_byte_to_string 3192                         ecu_led_initialize@F3059 0047  
                        lcd_4bit_set_curser@lcd 00E8                          lcd_4bit_set_curser@ret 00ED  
                        lcd_4bit_set_curser@row 00E9                               _entering_password 0012  
                    change_password@lcd_counter 0100                                      ?_vfpfcnvrt 00E4  
                    Interrupt_INTx_Init@int_obj 00E3                              ?_entering_password 0114  
                              _ecu_led_turn_off 2D60                     __end_of_gpio_pin_initialize 2F6C  
                   __end_of_gpio_pin_read_logic 2850                              _comparing_password 2A08  
                gpio_pin_initialize@_pin_config 00E2                        ecu_keypad_get_value@rows 00E8  
                                    sprintf@fmt 0102                               RB6_ISR@RB6_source 0001  
                           ??_entering_password 00FE                                        __ptext10 25BC  
                                      __ptext11 24F6                                        __ptext20 32D0  
                                      __ptext12 33E6                                        __ptext21 2A08  
                                      __ptext13 2CF2                                        __ptext30 3420  
                                      __ptext22 0F58                                        __ptext14 2D60  
                                      __ptext31 3744                                        __ptext23 28E8  
                                      __ptext15 348E                                        __ptext40 2F08  
                                      __ptext32 3318                                        __ptext24 33A4  
                                      __ptext16 34C0                                        __ptext41 1F1E  
                                      __ptext33 2144                                        __ptext25 266E  
                                      __ptext17 0AF2                                        __ptext50 1E00  
                                      __ptext42 2F6C                                        __ptext34 2EA0  
                                      __ptext26 2E38                                        __ptext18 062A  
                                      __ptext51 2C12                                        __ptext43 2710  
                                      __ptext35 30E2                                        __ptext27 2244  
                                      __ptext19 3284                                        __ptext60 35AC  
                                      __ptext52 2C82                                        __ptext44 3656  
                                      __ptext36 35DA                                        __ptext28 27B2  
                                      __ptext61 1B64                                        __ptext45 3678  
                                      __ptext37 2DCE                                        __ptext29 2340  
                                      __ptext70 0000                                        __ptext62 2A94  
                                      __ptext54 36BC                                        __ptext46 369A  
                                      __ptext38 2FCC                                        __ptext63 2850  
                                      __ptext55 36D6                                        __ptext47 3522  
                                      __ptext39 3606                                        __ptext64 302A  
                                      __ptext56 36F0                                        __ptext48 1CD4  
                                      __ptext65 3086                                        __ptext57 370A  
                                      __ptext49 2B20                                        __ptext66 3234  
                                      __ptext58 3550                                        __ptext67 3630  
                                      __ptext59 357E                                        __ptext68 2034  
                                      __ptext69 3360                       INTERRUPT_INTx_disable@ret 00DD  
                           ?_comparing_password 00DA                                 ??_save_password 00DF  
                 i2lcd_4bit_send_char_data@data 000D                      _RB4_INTERRUPT_HANDLER_HIGH 0038  
                  check_entered_password@result 00DF                      __end_of_ecu_led_initialize 2E38  
                  i2Data_EEPROM_WriteByte@bData 0003                         i2_Data_EEPROM_WriteByte 3360  
                    _RB7_INTERRUPT_HANDLER_HIGH 002C                                        _pass_obj 00CF  
                           __end_of_welcome_msg 2C12                               ??_change_password 00FE  
                     __end_of_entering_password 062A                                        isa$xinst 0000  
                          ??_comparing_password 00DD                 __end_of_INTERRUPT_INTx_edge_int 1F1E  
         __end_ofi2_lcd_4bit_send_enable_enable 3656                   i2_lcd_4bit_send_enable_enable 3630  
                                      int$flags 0058                                        _vfprintf 31E4  
               change_password@comparing_result 0101                       ?_ecu_layer_Initialization 0001  
             comparing_password@looping_counter 00DF                entering_password@enterd_pass_obj 0114  
                           _Interrupt_INTx_Init 2F6C                        ??_INTERRUPT_INTx_disable 00DB  
                                    _INTCONbits 0FF2                     __end_of_lcd_4bit_initialize 2244  
               __end_ofi2_lcd_4bit_send_command 3086                         change_password@pass_obj 00FA  
                      ??_INTERRUPT_INTx_pin_int 00E2                         ?_INTERRUPT_MANAGER_HIGH 0001  
                  __end_of_gpio_pin_write_logic 2034                       ecu_led_initialize@led_pin 00E7  
                      ??_check_entered_password 00E1                                 _ecu_led_turn_on 2CF2  
                                      intlevel2 0000                                       sprintf@ap 0106  
                i2lcd_4bit_send_command@command 000D                    ??_INT2_SET_INTERRUPT_HANDLER 00DC  
                  ??_Application_Initialization 00EC                        ecu_led_turn_toggle@F3074 0044  
                     _RB4_INTERRUPT_HANDLER_LOW 0036                            ?_Interrupt_INTx_Init 00E3  
                    Data_EEPROM_WriteByte@bData 00DC                       _RB7_INTERRUPT_HANDLER_LOW 002A  
                       ?i2_gpio_pin_write_logic 0001           password_confirmation@confirm_pass_obj 00F4  
                                 _lcd_send_4bit 30E2                                     ??_vfpfcnvrt 00E9  
                   __end_of_lcd_4bit_set_curser 2710            check_entered_password@helper_counter 00E4  
                                      sprintf@f 0108                                        sprintf@s 0100  
                                _port_registers 0080                  __end_of_INTERRUPT_MANAGER_HIGH 195A  
                     Data_EEPROM_WriteByte@badd 00DA                           _ecu_keypad_initialize 2FCC  
   INT2_SET_INTERRUPT_HANDLER@INTERRUPT_HANDLER 00DA     INT1_SET_INTERRUPT_HANDLER@INTERRUPT_HANDLER 00DA  
   INT0_SET_INTERRUPT_HANDLER@INTERRUPT_HANDLER 00DA                       ??i2_Data_EEPROM_WriteByte 0004  
                         _password_confirmation 062A         check_entered_password@comparing_counter 00E3  
                                   _welcome_msg 2B9C                           ??_Interrupt_INTx_Init 00E4  
                   lcd_4bit_send_char_data@data 00E6                  __end_ofi2_gpio_pin_write_logic 2144  
                 __end_ofi2_lcd_4bit_set_curser 28E8                      ??_lcd_4bit_send_string_pos 00F3  
                        lcd_4bit_initialize@lcd 00E8                          lcd_4bit_initialize@ret 00EB  
                      ?_ecu_dc_motor_initialize 00E5  
